|| __DATA.__common __ZN16IMSClientManager9_instanceE
|| __DATA.__const_weak __ZTV18IMSWrapperDelegate
|| __DATA.__const_weak __ZTVN3ims10CallHandleE
|| __DATA.__const_weak __ZTVN3ims13EmergencyCallE
|| __DATA.__const_weak __ZTVN3ims4CallE
|| __DATA.__data _gValidContentTypes
|| __DATA_CONST.__const __ZN3ims10kIMSConfigE
|| __DATA_CONST.__const __ZN3ims10kIMSRegMCCE
|| __DATA_CONST.__const __ZN3ims10kIMSRegMDNE
|| __DATA_CONST.__const __ZN3ims10kIMSRegMNCE
|| __DATA_CONST.__const __ZN3ims11kIMSRegIMSIE
|| __DATA_CONST.__const __ZN3ims13kIMSRegIsHomeE
|| __DATA_CONST.__const __ZN3ims15kIMSRegDeviceIDE
|| __DATA_CONST.__const __ZN3ims15kIMSRegSimFilesE
|| __DATA_CONST.__const __ZN3ims15kIMSRegSipErrorE
|| __DATA_CONST.__const __ZN3ims16kIMSRegCarrierIDE
|| __DATA_CONST.__const __ZN3ims16kIMSRegDeviceSVNE
|| __DATA_CONST.__const __ZN3ims16kIMSRegIsRoamingE
|| __DATA_CONST.__const __ZN3ims17kIMSRegRetryAfterE
|| __DATA_CONST.__const __ZN3ims18kIMSRegDeviceRefIDE
|| __DATA_CONST.__const __ZN3ims18kIMSRegIsimPresentE
|| __DATA_CONST.__const __ZN3ims19kIMSRegNetworkAwareE
|| __DATA_CONST.__const __ZN3ims19kIMSRegServicesMaskE
|| __DATA_CONST.__const __ZN3ims20kIMSRegApplicationIDE
|| __DATA_CONST.__const __ZN3ims20kIMSRegFailureReasonE
|| __DATA_CONST.__const __ZN3ims20kIMSRegIMSInterfacesE
|| __DATA_CONST.__const __ZN3ims20kIMSRegTransportModeE
|| __DATA_CONST.__const __ZN3ims21kIMSRegDigestPasswordE
|| __DATA_CONST.__const __ZN3ims21kIMSRegDigestUsernameE
|| __DATA_CONST.__const __ZN3ims21kIMSRegIsVoLTEEnabledE
|| __DATA_CONST.__const __ZN3ims22kIMSRegIsPrimaryDeviceE
|| __DATA_CONST.__const __ZN3ims22kIMSRegLocalDeregisterE
|| __DATA_CONST.__const __ZN3ims23kIMSRegIsLimitedServiceE
|| __DATA_CONST.__const __ZN3ims23kIMSRegNetworkInterfaceE
|| __DATA_CONST.__const __ZN3ims23kIMSRegTransportModeLTEE
|| __DATA_CONST.__const __ZN3ims24kIMSRegAccessNetworkInfoE
|| __DATA_CONST.__const __ZN3ims24kIMSRegAccessNetworkTypeE
|| __DATA_CONST.__const __ZN3ims24kIMSRegIMSIBasedIdentityE
|| __DATA_CONST.__const __ZN3ims24kIMSRegTransportModeWifiE
|| __DATA_CONST.__const __ZN3ims25kIMSDeviceEventAudioReadyE
|| __DATA_CONST.__const __ZN3ims26kIMSDeviceEventSimInsertedE
|| __DATA_CONST.__const __ZN3ims26kIMSRegSecondaryInterfacesE
|| __DATA_CONST.__const __ZN3ims26kIMSSuppServicesProvActionE
|| __DATA_CONST.__const __ZN3ims26kIMSSuppServicesProvResultE
|| __DATA_CONST.__const __ZN3ims27kIMSCampedAccessNetworkInfoE
|| __DATA_CONST.__const __ZN3ims27kIMSCampedAccessNetworkTypeE
|| __DATA_CONST.__const __ZN3ims27kIMSRegCountryOfOriginationE
|| __DATA_CONST.__const __ZN3ims27kIMSSuppServicesProvMsgTypeE
|| __DATA_CONST.__const __ZN3ims28kIMSNetworkEventSRVCCStartedE
|| __DATA_CONST.__const __ZN3ims28kIMSRegForEmergencyCallOnSOSE
|| __DATA_CONST.__const __ZN3ims28kIMSRegLastAccessNetworkInfoE
|| __DATA_CONST.__const __ZN3ims28kIMSRegLastAccessNetworkTypeE
|| __DATA_CONST.__const __ZN3ims31kIMSSuppServicesProvServiceTypeE
|| __DATA_CONST.__const __ZN3ims32kIMSSuppServicesProvResultReasonE
|| __DATA_CONST.__const __ZN3ims33kIMSRegLastAccessNetworkTimestampE
|| __DATA_CONST.__const __ZN3ims33kIMSSuppServicesProvResultSuccessE
|| __DATA_CONST.__const __ZN3ims33kIMSSuppServicesProvServiceEnableE
|| __DATA_CONST.__const __ZN3ims34kIMSDeviceEventAirplaneModeToggledE
|| __DATA_CONST.__const __ZN3ims34kIMSSuppServicesProvServiceTypeOIPE
|| __DATA_CONST.__const __ZN3ims34kIMSSuppServicesProvServiceTypeOIRE
|| __DATA_CONST.__const __ZN3ims36kIMSSuppServicesProvCallBarringAllowE
|| __DATA_CONST.__const __ZN3ims36kIMSSuppServicesProvCallBarringRulesE
|| __DATA_CONST.__const __ZN3ims36kIMSSuppServicesProvCallForwardRulesE
|| __DATA_CONST.__const __ZN3ims37kIMSSuppServicesProvCallForwardReasonE
|| __DATA_CONST.__const __ZN3ims37kIMSSuppServicesProvResultFailureTypeE
|| __DATA_CONST.__const __ZN3ims38kIMSSuppServicesProvOIRDefaultBehaviorE
|| __DATA_CONST.__const __ZN3ims39kIMSSuppServicesProvCallBarringActivateE
|| __DATA_CONST.__const __ZN3ims39kIMSSuppServicesProvCallBarringFacilityE
|| __DATA_CONST.__const __ZN3ims39kIMSSuppServicesProvCallForwardActivateE
|| __DATA_CONST.__const __ZN3ims41kIMSSuppServicesProvCallForwardRuleActionE
|| __DATA_CONST.__const __ZN3ims42kIMSSuppServicesProvCallForwardPhoneNumberE
|| __DATA_CONST.__const __ZN3ims42kIMSSuppServicesProvServiceTypeCallBarringE
|| __DATA_CONST.__const __ZN3ims42kIMSSuppServicesProvServiceTypeCallForwardE
|| __DATA_CONST.__const __ZN3ims42kIMSSuppServicesProvServiceTypeCallWaitingE
|| __DATA_CONST.__const __ZN3ims43kIMSSuppServicesProvCallForwardNoReplyTimerE
|| __DATA_CONST.__const __ZTI11IMSCallInfo
|| __DATA_CONST.__const __ZTI13IMSSMSManager
|| __DATA_CONST.__const __ZTI14IMSCallManager
|| __DATA_CONST.__const __ZTI14IMSXcapManager
|| __DATA_CONST.__const __ZTI16IMSClientManager
|| __DATA_CONST.__const __ZTI18IMSWrapperDelegate
|| __DATA_CONST.__const __ZTI18IPTelephonyManager
|| __DATA_CONST.__const __ZTIN19CapSuppServicesInfo11CallBarringE
|| __DATA_CONST.__const __ZTIN19CapSuppServicesInfo11CallForwardE
|| __DATA_CONST.__const __ZTIN19CapSuppServicesInfo11CallWaitingE
|| __DATA_CONST.__const __ZTIN19CapSuppServicesInfo19CallerIdRestrictionE
|| __DATA_CONST.__const __ZTIN19CapSuppServicesInfo20CallerIdPresentationE
|| __DATA_CONST.__const __ZTIN3ims10CallHandleE
|| __DATA_CONST.__const __ZTIN3ims12ClientHandleE
|| __DATA_CONST.__const __ZTIN3ims13EmergencyCallE
|| __DATA_CONST.__const __ZTIN3ims15EmergencyClientE
|| __DATA_CONST.__const __ZTIN3ims3aka8ResponseE
|| __DATA_CONST.__const __ZTIN3ims4CallE
|| __DATA_CONST.__const __ZTIN3ims6ClientE
|| __DATA_CONST.__const __ZTV11IMSCallInfo
|| __DATA_CONST.__const __ZTV13IMSSMSManager
|| __DATA_CONST.__const __ZTV14IMSCallManager
|| __DATA_CONST.__const __ZTV14IMSXcapManager
|| __DATA_CONST.__const __ZTV16IMSClientManager
|| __DATA_CONST.__const __ZTV18IPTelephonyManager
|| __DATA_CONST.__const __ZTVN19CapSuppServicesInfo11CallBarringE
|| __DATA_CONST.__const __ZTVN19CapSuppServicesInfo11CallForwardE
|| __DATA_CONST.__const __ZTVN19CapSuppServicesInfo11CallWaitingE
|| __DATA_CONST.__const __ZTVN19CapSuppServicesInfo19CallerIdRestrictionE
|| __DATA_CONST.__const __ZTVN19CapSuppServicesInfo20CallerIdPresentationE
|| __DATA_CONST.__const __ZTVN3ims12ClientHandleE
|| __DATA_CONST.__const __ZTVN3ims15EmergencyClientE
|| __DATA_CONST.__const __ZTVN3ims3aka8ResponseE
|| __DATA_CONST.__const __ZTVN3ims6ClientE
|| __DATA_CONST.__const _kIMSAudioFrequencyLevel
|| __DATA_CONST.__const _kIMSBasebandCallId
|| __DATA_CONST.__const _kIMSCallAudioSourceId
|| __DATA_CONST.__const _kIMSCallCallingLineIdRestrictionEnabled
|| __DATA_CONST.__const _kIMSCallCity
|| __DATA_CONST.__const _kIMSCallCountry
|| __DATA_CONST.__const _kIMSCallDisconnectionIsLocalKey
|| __DATA_CONST.__const _kIMSCallDisconnectionReasonAccessBarring
|| __DATA_CONST.__const _kIMSCallDisconnectionReasonAnsweredElsewhere
|| __DATA_CONST.__const _kIMSCallDisconnectionReasonAudioUnit
|| __DATA_CONST.__const _kIMSCallDisconnectionReasonBasebandCrash
|| __DATA_CONST.__const _kIMSCallDisconnectionReasonEmergencySessionRequired
|| __DATA_CONST.__const _kIMSCallDisconnectionReasonForbidden
|| __DATA_CONST.__const _kIMSCallDisconnectionReasonInviteTimeout
|| __DATA_CONST.__const _kIMSCallDisconnectionReasonKey
|| __DATA_CONST.__const _kIMSCallDisconnectionReasonLocalBusy
|| __DATA_CONST.__const _kIMSCallDisconnectionReasonLocalSocketError
|| __DATA_CONST.__const _kIMSCallDisconnectionReasonMediaError
|| __DATA_CONST.__const _kIMSCallDisconnectionReasonMediaHeartbeatTimeout
|| __DATA_CONST.__const _kIMSCallDisconnectionReasonMediaTimeout
|| __DATA_CONST.__const _kIMSCallDisconnectionReasonMediaserverCrash
|| __DATA_CONST.__const _kIMSCallDisconnectionReasonNetworkError
|| __DATA_CONST.__const _kIMSCallDisconnectionReasonNoEmergencyCallLocation
|| __DATA_CONST.__const _kIMSCallDisconnectionReasonNormal
|| __DATA_CONST.__const _kIMSCallDisconnectionReasonOnEmergencyCall
|| __DATA_CONST.__const _kIMSCallDisconnectionReasonRemoteBusy
|| __DATA_CONST.__const _kIMSCallDisconnectionReasonRequiresCSFB
|| __DATA_CONST.__const _kIMSCallDisconnectionReasonSecondaryDeviceAlreadyInUse
|| __DATA_CONST.__const _kIMSCallDisconnectionReasonTransferredToOtherDevice
|| __DATA_CONST.__const _kIMSCallDisconnectionReasonUnknownError
|| __DATA_CONST.__const _kIMSCallDisconnectionResponseCode
|| __DATA_CONST.__const _kIMSCallEmergencyCategory
|| __DATA_CONST.__const _kIMSCallEmergencySessionImsOnly
|| __DATA_CONST.__const _kIMSCallEmergencySessionUrn
|| __DATA_CONST.__const _kIMSCallId
|| __DATA_CONST.__const _kIMSCallIsEmergency
|| __DATA_CONST.__const _kIMSCallIsShortCode
|| __DATA_CONST.__const _kIMSCallLatitude
|| __DATA_CONST.__const _kIMSCallLongitude
|| __DATA_CONST.__const _kIMSCallOptionsInternal
|| __DATA_CONST.__const _kIMSCallPostalCode
|| __DATA_CONST.__const _kIMSCallRTTEnabled
|| __DATA_CONST.__const _kIMSCallRelayEnabled
|| __DATA_CONST.__const _kIMSCallState
|| __DATA_CONST.__const _kIMSCallStatus
|| __DATA_CONST.__const _kIMSCallStatusAcknowledged
|| __DATA_CONST.__const _kIMSCallStatusActive
|| __DATA_CONST.__const _kIMSCallStatusConferenceSubscribeFailed
|| __DATA_CONST.__const _kIMSCallStatusConferenceSubscribeSuccess
|| __DATA_CONST.__const _kIMSCallStatusDialing
|| __DATA_CONST.__const _kIMSCallStatusDisconnected
|| __DATA_CONST.__const _kIMSCallStatusHoldFailed
|| __DATA_CONST.__const _kIMSCallStatusInProgress
|| __DATA_CONST.__const _kIMSCallStatusInactive
|| __DATA_CONST.__const _kIMSCallStatusIncoming
|| __DATA_CONST.__const _kIMSCallStatusJoinedConference
|| __DATA_CONST.__const _kIMSCallStatusMediaActive
|| __DATA_CONST.__const _kIMSCallStatusMediaInactive
|| __DATA_CONST.__const _kIMSCallStatusMediaInitialized
|| __DATA_CONST.__const _kIMSCallStatusMergeCallsFailed
|| __DATA_CONST.__const _kIMSCallStatusMergedCalls
|| __DATA_CONST.__const _kIMSCallStatusPlayLRBT
|| __DATA_CONST.__const _kIMSCallStatusPulling
|| __DATA_CONST.__const _kIMSCallStatusResumeFailed
|| __DATA_CONST.__const _kIMSCallStatusRinging
|| __DATA_CONST.__const _kIMSCallStatusStopLRBT
|| __DATA_CONST.__const _kIMSCallStatusTextMediaDeactivated
|| __DATA_CONST.__const _kIMSCallStatusTextMediaDetected
|| __DATA_CONST.__const _kIMSCallStatusTrying
|| __DATA_CONST.__const _kIMSCallSubject
|| __DATA_CONST.__const _kIMSCallTTYEnabled
|| __DATA_CONST.__const _kIMSCallUuid
|| __DATA_CONST.__const _kIMSCodecAMR
|| __DATA_CONST.__const _kIMSCodecAMRWB
|| __DATA_CONST.__const _kIMSCodecPCMA
|| __DATA_CONST.__const _kIMSCodecPCMU
|| __DATA_CONST.__const _kIMSDumpReason
|| __DATA_CONST.__const _kIMSExtCallCanPull
|| __DATA_CONST.__const _kIMSExtCallDirection
|| __DATA_CONST.__const _kIMSExtCallDuration
|| __DATA_CONST.__const _kIMSExtCallId
|| __DATA_CONST.__const _kIMSExtCallIsEmergency
|| __DATA_CONST.__const _kIMSExtCallLocal
|| __DATA_CONST.__const _kIMSExtCallLocalSD
|| __DATA_CONST.__const _kIMSExtCallLocalURI
|| __DATA_CONST.__const _kIMSExtCallOnHold
|| __DATA_CONST.__const _kIMSExtCallRemote
|| __DATA_CONST.__const _kIMSExtCallRemoteSD
|| __DATA_CONST.__const _kIMSExtCallRemoteURI
|| __DATA_CONST.__const _kIMSExtCallState
|| __DATA_CONST.__const _kIMSExtCallState_FSM_Confirmed
|| __DATA_CONST.__const _kIMSExtCallState_FSM_Terminated
|| __DATA_CONST.__const _kIMSFurtherInfoRequired
|| __DATA_CONST.__const _kIMSIncomingCallerCountryCode
|| __DATA_CONST.__const _kIMSIncomingCallerId
|| __DATA_CONST.__const _kIMSIncomingCallerIdBlocked
|| __DATA_CONST.__const _kIMSIncomingCallerName
|| __DATA_CONST.__const _kIMSIncomingLegacyUSSDData
|| __DATA_CONST.__const _kIMSIncomingUSSDData
|| __DATA_CONST.__const _kIMSIncomingUSSDError
|| __DATA_CONST.__const _kIMSIsEmergencyMediaManager
|| __DATA_CONST.__const _kIMSPreferredMediaStackAP
|| __DATA_CONST.__const _kIMSPreferredMediaStackBaseband
|| __DATA_CONST.__const _kIMSPreferredMediaStackKey
|| __DATA_CONST.__const _kIMSQOSInfoPortList
|| __DATA_CONST.__const _kIMSTextStreamToken
|| __DATA_CONST.__const _kIMSThumperDialogId
|| __DATA_CONST.__const _kIMSVocoderCodec
|| __DATA_CONST.__const _kIMSVocoderSampleRate
|| __DATA_DIRTY.__common __ZN16IMSClientManager13kDefaultStackE
|| __DATA_DIRTY.__common __ZN16IMSClientManager15kEmergencyStackE
|| __DATA_DIRTY.__common __ZN16IMSClientManager6_mutexE
|| __DATA_DIRTY.__common __ZN3ims13AccessNetwork20kAccessType_3GPP2_1XE
|| __DATA_DIRTY.__common __ZN3ims13AccessNetwork20kAccessType_IEEE_802E
|| __DATA_DIRTY.__common __ZN3ims13AccessNetwork22kAccessType_3GPP_GERANE
|| __DATA_DIRTY.__common __ZN3ims13AccessNetwork23kAccessType_3GPP2_EHRPDE
|| __DATA_DIRTY.__common __ZN3ims13AccessNetwork24kAccessType_3GPP_E_UTRANE
|| __DATA_DIRTY.__common __ZN3ims13AccessNetwork25kAccessType_3GPP2_1X_HRPDE
|| __DATA_DIRTY.__common __ZN3ims13AccessNetwork26kAccessType_3GPP_UTRAN_FDDE
|| __DATA_DIRTY.__common __ZN3ims13AccessNetwork26kAccessType_3GPP_UTRAN_TDDE
|| __DATA_DIRTY.__common __ZN3ims13AccessNetwork28kAccessType_3GPP_E_UTRAN_FDDE
|| __DATA_DIRTY.__common __ZN3ims13AccessNetwork28kAccessType_3GPP_E_UTRAN_TDDE
|| __TEXT.__const __ZTS11IMSCallInfo
|| __TEXT.__const __ZTS13IMSSMSManager
|| __TEXT.__const __ZTS14IMSCallManager
|| __TEXT.__const __ZTS14IMSXcapManager
|| __TEXT.__const __ZTS16IMSClientManager
|| __TEXT.__const __ZTS18IMSWrapperDelegate
|| __TEXT.__const __ZTS18IPTelephonyManager
|| __TEXT.__const __ZTSN19CapSuppServicesInfo11CallBarringE
|| __TEXT.__const __ZTSN19CapSuppServicesInfo11CallForwardE
|| __TEXT.__const __ZTSN19CapSuppServicesInfo11CallWaitingE
|| __TEXT.__const __ZTSN19CapSuppServicesInfo19CallerIdRestrictionE
|| __TEXT.__const __ZTSN19CapSuppServicesInfo20CallerIdPresentationE
|| __TEXT.__const __ZTSN3ims10CallHandleE
|| __TEXT.__const __ZTSN3ims12ClientHandleE
|| __TEXT.__const __ZTSN3ims13EmergencyCallE
|| __TEXT.__const __ZTSN3ims15EmergencyClientE
|| __TEXT.__const __ZTSN3ims3aka8ResponseE
|| __TEXT.__const __ZTSN3ims4CallE
|| __TEXT.__const __ZTSN3ims6ClientE
|| __TEXT.__text _IMSClientEventToString
|| __TEXT.__text _InitializeIPTelephony
|| __TEXT.__text __Z10IMSEndCallPN3ims12ClientHandleEhbb
|| __TEXT.__text __Z10IMSSendSMSPN3ims12ClientHandleERKNSt3__112basic_stringIcNS2_11char_traitsIcEENS2_9allocatorIcEEEESA_RKNS2_6vectorIhNS6_IhEEEESA_
|| __TEXT.__text __Z11IMSPullCallPN3ims12ClientHandleERKNSt3__112basic_stringIcNS2_11char_traitsIcEENS2_9allocatorIcEEEEPK14__CFDictionary
|| __TEXT.__text __Z11IMSStopTonePN3ims12ClientHandleE
|| __TEXT.__text __Z12IMSStartCallPN3ims12ClientHandleERKNSt3__112basic_stringIcNS2_11char_traitsIcEENS2_9allocatorIcEEEEPK14__CFDictionary
|| __TEXT.__text __Z12IMSStartTonePN3ims12ClientHandleEh
|| __TEXT.__text __Z13IMSAnswerCallPN3ims12ClientHandleEhPK14__CFDictionary
|| __TEXT.__text __Z13IMSDeRegisterPN3ims12ClientHandleE
|| __TEXT.__text __Z13IMSMergeCallsPN3ims12ClientHandleERNSt3__16vectorIhNS2_9allocatorIhEEEE
|| __TEXT.__text __Z13IMSSetRTTModePN3ims12ClientHandleEhPK14__CFDictionary
|| __TEXT.__text __Z13IMSSetTTYModePN3ims12ClientHandleEPK14__CFDictionary
|| __TEXT.__text __Z14IMSClientDebugPN3ims12ClientHandleERKNSt3__112basic_stringIcNS2_11char_traitsIcEENS2_9allocatorIcEEEESA_
|| __TEXT.__text __Z14IMSRefreshCallPN3ims12ClientHandleEh
|| __TEXT.__text __Z14IMSSendRegInfoPN3ims12ClientHandleEPK14__CFDictionary
|| __TEXT.__text __Z15IMSActivateCallPN3ims12ClientHandleEhb
|| __TEXT.__text __Z15IMSClientCreatePK13__CFAllocatorP16dispatch_queue_sPFv14IMSClientEventPK14__CFDictionaryPvES8_
|| __TEXT.__text __Z15IMSSetRelayModePN3ims12ClientHandleEhPK14__CFDictionary
|| __TEXT.__text __Z16IMSSendBurstDtmfPN3ims12ClientHandleERKNSt3__16vectorIhNS2_9allocatorIhEEEE
|| __TEXT.__text __Z17IMSDeactivateCallPN3ims12ClientHandleEh
|| __TEXT.__text __Z17IMSSendUpdatedRegPN3ims12ClientHandleEPK14__CFDictionary
|| __TEXT.__text __Z17IMSSetPreferencesPN3ims12ClientHandleEPK14__CFDictionary
|| __TEXT.__text __Z18IMSClientDumpStatePN3ims12ClientHandleERKNSt3__112basic_stringIcNS2_11char_traitsIcEENS2_9allocatorIcEEEESA_
|| __TEXT.__text __Z19IMSClientResetStatePN3ims12ClientHandleE
|| __TEXT.__text __Z19IMSSetMuteVoiceCallPN3ims12ClientHandleEb
|| __TEXT.__text __Z20IMSEndCallWithReasonPN3ims12ClientHandleEhNS_13CallEndReasonE
|| __TEXT.__text __Z20IMSEndConferenceCallPN3ims12ClientHandleEh
|| __TEXT.__text __Z21IMSClientSendUSSDDataPN3ims12ClientHandleERKNSt3__112basic_stringIcNS2_11char_traitsIcEENS2_9allocatorIcEEEE
|| __TEXT.__text __Z24IMSDeRegisterWithOptionsPN3ims12ClientHandleEPK14__CFDictionary
|| __TEXT.__text __Z24IMSRefreshCallWithReasonPN3ims12ClientHandleEhNS_13RefreshReasonE
|| __TEXT.__text __Z25IMSSetPreferredMediaStackPN3ims12ClientHandleEPK14__CFDictionary
|| __TEXT.__text __Z26IMSClientCancelUSSDSessionPN3ims12ClientHandleE
|| __TEXT.__text __Z26IMSClientSetLoggingEnabledPN3ims12ClientHandleEb
|| __TEXT.__text __Z26IMSClientSetThumperEnabledPN3ims12ClientHandleEb
|| __TEXT.__text __Z26IMSSendRingingNotificationPN3ims12ClientHandleEh
|| __TEXT.__text __Z26IMSUpdateAccessNetworkInfoPN3ims12ClientHandleEPK14__CFDictionary
|| __TEXT.__text __Z27IMSClientHandleDeviceEventsPN3ims12ClientHandleEPK14__CFDictionary
|| __TEXT.__text __Z27IMSSendLimitedAccessRegInfoPN3ims12ClientHandleEPK14__CFDictionary
|| __TEXT.__text __Z27IMSSendSuppServicesProvInfoPN3ims12ClientHandleEPK14__CFDictionary
|| __TEXT.__text __Z28IMSClientHandleNetworkEventsPN3ims12ClientHandleEPK14__CFDictionary
|| __TEXT.__text __Z28IMSClientResetEmergencyStatePN3ims12ClientHandleE
|| __TEXT.__text __Z28IMSSendAuthChallengeResponsePN3ims12ClientHandleERKNS_21AuthChallengeResponseE
|| __TEXT.__text __Z29IMSSendSuppServicesConfigInfoPN3ims12ClientHandleEPK14__CFDictionary
|| __TEXT.__text __Z30IMSClientResetStateWithOptionsPN3ims12ClientHandleEPK14__CFDictionary
|| __TEXT.__text __Z31IMSClientSetCallWaitingDisabledPN3ims12ClientHandleEb
|| __TEXT.__text __Z32IMSClientRegisterForNotificationPN3ims12ClientHandleE14IMSClientEventbPFvS2_PK14__CFDictionaryPvES6_
|| __TEXT.__text __Z36IMSClientQualityOfServiceEstablishedPN3ims12ClientHandleEPK14__CFDictionary
|| __TEXT.__text __ZN11ClientStateC1Ev
|| __TEXT.__text __ZN11ClientStateC2Ev
|| __TEXT.__text __ZN11ClientStateD1Ev
|| __TEXT.__text __ZN11ClientStateD2Ev
|| __TEXT.__text __ZN11IMSCallInfo10answerCallERKNSt3__112basic_stringIcNS0_11char_traitsIcEENS0_9allocatorIcEEEE
|| __TEXT.__text __ZN11IMSCallInfo12setRelayModeEb
|| __TEXT.__text __ZN11IMSCallInfo15handleLRBTEventEP14BambiCallEventb
|| __TEXT.__text __ZN11IMSCallInfo16createCallHandleEv
|| __TEXT.__text __ZN11IMSCallInfo16logIncomingPrackERK10SipRequestPK9BambiCall
|| __TEXT.__text __ZN11IMSCallInfo16logPrackResponseERK11SipResponsePK9BambiCall
|| __TEXT.__text __ZN11IMSCallInfo17handleTryingEventEP14BambiCallEvent
|| __TEXT.__text __ZN11IMSCallInfo17setBasebandCallIdEh
|| __TEXT.__text __ZN11IMSCallInfo18handleRingingEventEP33BambiCallProvisionalResponseEvent
|| __TEXT.__text __ZN11IMSCallInfo21handleCallInvalidatedEP9BambiCall
|| __TEXT.__text __ZN11IMSCallInfo21handleMetricOnlyEventEP14BambiCallEvent
|| __TEXT.__text __ZN11IMSCallInfo22handleUnprocessedEventEP14BambiCallEvent
|| __TEXT.__text __ZN11IMSCallInfo22handleVocoderInfoEventEPK10__CFStringPK10__CFNumber
|| __TEXT.__text __ZN11IMSCallInfo23setTextMediaSessionModeEN3ims20TextMediaSessionModeE
|| __TEXT.__text __ZN11IMSCallInfo26handleMediaActivationEventEP14BambiCallEventb
|| __TEXT.__text __ZN11IMSCallInfo26handleSessionProgressEventEP33BambiCallProvisionalResponseEvent
|| __TEXT.__text __ZN11IMSCallInfo26handleTextStreamTokenEventEPK10__CFNumber
|| __TEXT.__text __ZN11IMSCallInfo27handleJoinedConferenceEventEP30BambiCallJoinedConferenceEvent
|| __TEXT.__text __ZN11IMSCallInfo27handleMediaInitializedEventEP14BambiCallEvent
|| __TEXT.__text __ZN11IMSCallInfo27handleSessionActivatedEventEP14BambiCallEvent
|| __TEXT.__text __ZN11IMSCallInfo27handleSessionConfirmedEventEP30BambiCallSessionConfirmedEvent
|| __TEXT.__text __ZN11IMSCallInfo27handleSessionLocalHeldEventEP14BambiCallEvent
|| __TEXT.__text __ZN11IMSCallInfo27handleSessionRequestedEventEP30BambiCallSessionRequestedEvent
|| __TEXT.__text __ZN11IMSCallInfo28handleSessionHoldFailedEventEP14BambiCallEvent
|| __TEXT.__text __ZN11IMSCallInfo28handleSessionTerminatedEventEP31BambiCallSessionTerminatedEvent
|| __TEXT.__text __ZN11IMSCallInfo28handleTextMediaDetectedEventEP14BambiCallEvent
|| __TEXT.__text __ZN11IMSCallInfo28sendSessionTerminationMetricEP36BambiCallSessionTerminationBaseEventPb
|| __TEXT.__text __ZN11IMSCallInfo29handleSessionTerminatingEventEP32BambiCallSessionTerminatingEvent
|| __TEXT.__text __ZN11IMSCallInfo29handleSessionTerminationEventEP36BambiCallSessionTerminationBaseEvent
|| __TEXT.__text __ZN11IMSCallInfo30handleInputFrequencyLevelEventEPK9BambiCallPK8__CFData
|| __TEXT.__text __ZN11IMSCallInfo30handleSessionAcknowledgedEventEP14BambiCallEvent
|| __TEXT.__text __ZN11IMSCallInfo30handleSessionResumeFailedEventEP14BambiCallEvent
|| __TEXT.__text __ZN11IMSCallInfo31handleOutputFrequencyLevelEventEPK9BambiCallPK8__CFData
|| __TEXT.__text __ZN11IMSCallInfo31handleParticipantLeftConferenceEP26BambiConferenceParticipantb
|| __TEXT.__text __ZN11IMSCallInfo31handleTextMediaDeactivatedEventEP14BambiCallEvent
|| __TEXT.__text __ZN11IMSCallInfo33handlePreconditionsSatisfiedEventEP36BambiCallPreconditionsSatisfiedEvent
|| __TEXT.__text __ZN11IMSCallInfo5stackEv
|| __TEXT.__text __ZN11IMSCallInfo6redialEv
|| __TEXT.__text __ZN11IMSCallInfo7endCallERKNSt3__112basic_stringIcNS0_11char_traitsIcEENS0_9allocatorIcEEEE
|| __TEXT.__text __ZN11IMSCallInfo7refreshEb
|| __TEXT.__text __ZN11IMSCallInfo8playDtmfERKNSt3__16vectorIhNS0_9allocatorIhEEEE
|| __TEXT.__text __ZN11IMSCallInfo8playDtmfEh
|| __TEXT.__text __ZN11IMSCallInfo8ringCallEv
|| __TEXT.__text __ZN11IMSCallInfo8stopDtmfEv
|| __TEXT.__text __ZN11IMSCallInfo9setActiveEb
|| __TEXT.__text __ZN11IMSCallInfo9startCallERK6SipUriRK16BambiCallOptionsPK25BambiEmergencyCallOptions
|| __TEXT.__text __ZN11IMSCallInfoC1EP14IMSCallManager7ImsUuidRKNSt3__112basic_stringIcNS3_11char_traitsIcEENS3_9allocatorIcEEEEP11BambiClientP9BambiCall
|| __TEXT.__text __ZN11IMSCallInfoC2EP14IMSCallManager7ImsUuidRKNSt3__112basic_stringIcNS3_11char_traitsIcEENS3_9allocatorIcEEEEP11BambiClientP9BambiCall
|| __TEXT.__text __ZN11IMSCallInfoD0Ev
|| __TEXT.__text __ZN11IMSCallInfoD1Ev
|| __TEXT.__text __ZN11IMSCallInfoD2Ev
|| __TEXT.__text __ZN13IMSSMSManager13reportFailureERKNSt3__112basic_stringIcNS0_11char_traitsIcEENS0_9allocatorIcEEEEb
|| __TEXT.__text __ZN13IMSSMSManager13reportSuccessERKNSt3__112basic_stringIcNS0_11char_traitsIcEENS0_9allocatorIcEEEE
|| __TEXT.__text __ZN13IMSSMSManager17handleMessageSentERKNSt3__112basic_stringIcNS0_11char_traitsIcEENS0_9allocatorIcEEEEj
|| __TEXT.__text __ZN13IMSSMSManager18handleMessageErrorERKNSt3__112basic_stringIcNS0_11char_traitsIcEENS0_9allocatorIcEEEEjRK9ImsResultb
|| __TEXT.__text __ZN13IMSSMSManager19sipStackInitializedERKNSt3__112basic_stringIcNS0_11char_traitsIcEENS0_9allocatorIcEEEE
|| __TEXT.__text __ZN13IMSSMSManager19sipStackInvalidatedERKNSt3__112basic_stringIcNS0_11char_traitsIcEENS0_9allocatorIcEEEE
|| __TEXT.__text __ZN13IMSSMSManager21handleIncomingMessageERKNSt3__112basic_stringIcNS0_11char_traitsIcEENS0_9allocatorIcEEEERK6SipUriS8_PK7SipBody
|| __TEXT.__text __ZN13IMSSMSManager21handleIncomingMessageERKNSt3__112basic_stringIcNS0_11char_traitsIcEENS0_9allocatorIcEEEERK6SipUriS8_S8_S8_
|| __TEXT.__text __ZN13IMSSMSManager7sendSMSERKNSt3__112basic_stringIcNS0_11char_traitsIcEENS0_9allocatorIcEEEES8_S8_RKNS0_6vectorIhNS4_IhEEEES8_
|| __TEXT.__text __ZN13IMSSMSManagerC1EP18IPTelephonyManager
|| __TEXT.__text __ZN13IMSSMSManagerC2EP18IPTelephonyManager
|| __TEXT.__text __ZN13IMSSMSManagerD0Ev
|| __TEXT.__text __ZN13IMSSMSManagerD1Ev
|| __TEXT.__text __ZN13IMSSMSManagerD2Ev
|| __TEXT.__text __ZN14IMSCallManager10answerCallE7ImsUuidRKNSt3__112basic_stringIcNS1_11char_traitsIcEENS1_9allocatorIcEEEE
|| __TEXT.__text __ZN14IMSCallManager11refreshCallE7ImsUuidb
|| __TEXT.__text __ZN14IMSCallManager12activateCallE7ImsUuid
|| __TEXT.__text __ZN14IMSCallManager12setRelayModeE7ImsUuidb
|| __TEXT.__text __ZN14IMSCallManager13endLegacyCallEhRKN3ims13CallEndReasonE
|| __TEXT.__text __ZN14IMSCallManager13mergeAllCallsEv
|| __TEXT.__text __ZN14IMSCallManager14deactivateCallE7ImsUuid
|| __TEXT.__text __ZN14IMSCallManager14removeCallInfoEP11IMSCallInfo
|| __TEXT.__text __ZN14IMSCallManager15callInfoForUuidE7ImsUuid
|| __TEXT.__text __ZN14IMSCallManager17endConferenceCallEv
|| __TEXT.__text __ZN14IMSCallManager18initializePullCallE14IMSCallOptions
|| __TEXT.__text __ZN14IMSCallManager18nextBasebandCallIdEv
|| __TEXT.__text __ZN14IMSCallManager18sendBambiCallEventEP14BambiCallEvent
|| __TEXT.__text __ZN14IMSCallManager19callOptionsFromDictERKNSt3__112basic_stringIcNS0_11char_traitsIcEENS0_9allocatorIcEEEEN3ctu2cf11CFSharedRefIK14__CFDictionaryEEP14IMSCallOptions
|| __TEXT.__text __ZN14IMSCallManager19sipStackInitializedERKNSt3__112basic_stringIcNS0_11char_traitsIcEENS0_9allocatorIcEEEE
|| __TEXT.__text __ZN14IMSCallManager19sipStackInvalidatedERKNSt3__112basic_stringIcNS0_11char_traitsIcEENS0_9allocatorIcEEEE
|| __TEXT.__text __ZN14IMSCallManager20callInfoForSipCallIdERKNSt3__112basic_stringIcNS0_11char_traitsIcEENS0_9allocatorIcEEEE
|| __TEXT.__text __ZN14IMSCallManager21_sendLegacyDisconnectEhRKNSt3__112basic_stringIcNS0_11char_traitsIcEENS0_9allocatorIcEEEEbjP14BambiCallEvent
|| __TEXT.__text __ZN14IMSCallManager21handleCallInvalidatedEP9BambiCall
|| __TEXT.__text __ZN14IMSCallManager21handleConferenceEventEP24BambiCallConferenceEvent
|| __TEXT.__text __ZN14IMSCallManager23delegateForIncomingCallEP11BambiClientP9BambiCall
|| __TEXT.__text __ZN14IMSCallManager23initializeEmergencyCallERKNSt3__112basic_stringIcNS0_11char_traitsIcEENS0_9allocatorIcEEEE14IMSCallOptionsRKN3ims11StackConfigES8_PK14__CFDictionarySG_
|| __TEXT.__text __ZN14IMSCallManager23setConferenceCallActiveEb
|| __TEXT.__text __ZN14IMSCallManager23setTextMediaSessionModeE7ImsUuidN3ims20TextMediaSessionModeE
|| __TEXT.__text __ZN14IMSCallManager23setTextMediaSessionModeERKNSt3__112basic_stringIcNS0_11char_traitsIcEENS0_9allocatorIcEEEEN3ims20TextMediaSessionModeEb
|| __TEXT.__text __ZN14IMSCallManager26handleMediaActivationEventEP14BambiCallEventb
|| __TEXT.__text __ZN14IMSCallManager26initializeNonEmergencyCallERKNSt3__112basic_stringIcNS0_11char_traitsIcEENS0_9allocatorIcEEEE14IMSCallOptions
|| __TEXT.__text __ZN14IMSCallManager27handleBasebandCallIdForCallEP9BambiCallhh
|| __TEXT.__text __ZN14IMSCallManager27handleBurstDtmfSendCompleteEv
|| __TEXT.__text __ZN14IMSCallManager27handleSessionActivatedEventEP14BambiCallEvent
|| __TEXT.__text __ZN14IMSCallManager27handleSessionConfirmedEventEP30BambiCallSessionConfirmedEvent
|| __TEXT.__text __ZN14IMSCallManager27handleSessionLocalHeldEventEP14BambiCallEvent
|| __TEXT.__text __ZN14IMSCallManager27sendCallStatusToIRatManagerEP9BambiCallb7ImsUuid
|| __TEXT.__text __ZN14IMSCallManager27sendVocoderInfoNotificationE7ImsUuidPK10__CFStringPK10__CFNumber
|| __TEXT.__text __ZN14IMSCallManager28_sendLegacyCallStatusChangedEP11IMSCallInfoPK10__CFString7ImsUuidP14BambiCallEventh
|| __TEXT.__text __ZN14IMSCallManager28handleSessionHoldFailedEventEP14BambiCallEvent
|| __TEXT.__text __ZN14IMSCallManager28handleSessionTerminatedEventEP31BambiCallSessionTerminatedEvent
|| __TEXT.__text __ZN14IMSCallManager29_sendLegacyIncomingCallStatusEP11IMSCallInfoP14BambiCallEvent
|| __TEXT.__text __ZN14IMSCallManager30handleInputFrequencyLevelEventEPK9BambiCallPK8__CFData
|| __TEXT.__text __ZN14IMSCallManager30handleMediaStackSwitchCompleteERKNSt3__112basic_stringIcNS0_11char_traitsIcEENS0_9allocatorIcEEEE12RTPStackTypeb
|| __TEXT.__text __ZN14IMSCallManager30handleSessionAcknowledgedEventEP14BambiCallEvent
|| __TEXT.__text __ZN14IMSCallManager30handleSessionResumeFailedEventEP14BambiCallEvent
|| __TEXT.__text __ZN14IMSCallManager31handleOutputFrequencyLevelEventEPK9BambiCallPK8__CFData
|| __TEXT.__text __ZN14IMSCallManager31sendConferenceSubscriptionEventERKNSt3__112basic_stringIcNS0_11char_traitsIcEENS0_9allocatorIcEEEEb
|| __TEXT.__text __ZN14IMSCallManager31sendTextStreamTokenNotificationERKNSt3__112basic_stringIcNS0_11char_traitsIcEENS0_9allocatorIcEEEEPK10__CFStringhPK10__CFNumber
|| __TEXT.__text __ZN14IMSCallManager33handleQualityOfServiceEstablishedERKNSt3__16vectorIjNS0_9allocatorIjEEEE
|| __TEXT.__text __ZN14IMSCallManager33sendCallDisconnectionNotificationE7ImsUuidRKNSt3__112basic_stringIcNS1_11char_traitsIcEENS1_9allocatorIcEEEERKN3ims14DisconnectInfoEP14BambiCallEvent
|| __TEXT.__text __ZN14IMSCallManager33sendCallDisconnectionNotificationE7ImsUuidRKNSt3__112basic_stringIcNS1_11char_traitsIcEENS1_9allocatorIcEEEES9_
|| __TEXT.__text __ZN14IMSCallManager33sendCallStatusChangedNotificationE7ImsUuidPK10__CFStringP14BambiCallEvent
|| __TEXT.__text __ZN14IMSCallManager33sendCallStatusChangedNotificationE7ImsUuidPK10__CFStringhP14BambiCallEvent
|| __TEXT.__text __ZN14IMSCallManager34sendIncomingCallStatusNotificationEP11IMSCallInfoP14BambiCallEvent
|| __TEXT.__text __ZN14IMSCallManager35_sendLegacyEmergencySessionRequiredEhRK6SipUribP38BambiCallEmergencySessionRequiredEvent
|| __TEXT.__text __ZN14IMSCallManager36handleSessionActivationAcceptedEventEP14BambiCallEvent
|| __TEXT.__text __ZN14IMSCallManager40sendEmergencySessionRequiredNotificationE7ImsUuidRK6SipUribP38BambiCallEmergencySessionRequiredEvent
|| __TEXT.__text __ZN14IMSCallManager41sendInputFrequencyLevelUpdateNotificationE7ImsUuidPK8__CFData
|| __TEXT.__text __ZN14IMSCallManager42sendOutputFrequencyLevelUpdateNotificationE7ImsUuidPK8__CFData
|| __TEXT.__text __ZN14IMSCallManager7endCallE7ImsUuidRKNSt3__112basic_stringIcNS1_11char_traitsIcEENS1_9allocatorIcEEEE
|| __TEXT.__text __ZN14IMSCallManager8initCallERKNSt3__112basic_stringIcNS0_11char_traitsIcEENS0_9allocatorIcEEEES8_N3ctu2cf11CFSharedRefIK14__CFDictionaryEES8_PK10__CFStringb
|| __TEXT.__text __ZN14IMSCallManager8playDtmfE7ImsUuidNSt3__16vectorIhNS1_9allocatorIhEEEE
|| __TEXT.__text __ZN14IMSCallManager8playDtmfE7ImsUuidh
|| __TEXT.__text __ZN14IMSCallManager8pullCallENSt3__112basic_stringIcNS0_11char_traitsIcEENS0_9allocatorIcEEEEN3ctu2cf11CFSharedRefIK14__CFDictionaryEE
|| __TEXT.__text __ZN14IMSCallManager8ringCallE7ImsUuid
|| __TEXT.__text __ZN14IMSCallManager8stopDtmfE7ImsUuid
|| __TEXT.__text __ZN14IMSCallManager9startCallENSt3__112basic_stringIcNS0_11char_traitsIcEENS0_9allocatorIcEEEEN3ctu2cf11CFSharedRefIK14__CFDictionaryEE
|| __TEXT.__text __ZN14IMSCallManagerC1EP18IPTelephonyManager
|| __TEXT.__text __ZN14IMSCallManagerC2EP18IPTelephonyManager
|| __TEXT.__text __ZN14IMSCallManagerD0Ev
|| __TEXT.__text __ZN14IMSCallManagerD1Ev
|| __TEXT.__text __ZN14IMSCallManagerD2Ev
|| __TEXT.__text __ZN14IMSXcapManager10initializeERK10XcapConfigRKNSt3__112basic_stringIcNS3_11char_traitsIcEENS3_9allocatorIcEEEERK8ImsPrefs
|| __TEXT.__text __ZN14IMSXcapManager11initializedERKNSt3__112basic_stringIcNS0_11char_traitsIcEENS0_9allocatorIcEEEE
|| __TEXT.__text __ZN14IMSXcapManager12deinitializeERKNSt3__112basic_stringIcNS0_11char_traitsIcEENS0_9allocatorIcEEEE
|| __TEXT.__text __ZN14IMSXcapManager13fetchKsExtNafERKNSt3__112basic_stringIcNS0_11char_traitsIcEENS0_9allocatorIcEEEERKNS0_6vectorIhNS4_IhEEEESD_S8_S8_
|| __TEXT.__text __ZN14IMSXcapManager13handleRequestERKNSt3__112basic_stringIcNS0_11char_traitsIcEENS0_9allocatorIcEEEEPK14__CFDictionary
|| __TEXT.__text __ZN14IMSXcapManager14_fromImsResultEP17XcapCarrierHandleRK9ImsResult
|| __TEXT.__text __ZN14IMSXcapManager17_handleOIPRequestEP17XcapCarrierHandleN19CapSuppServicesInfo6ActionEPKNS2_20CallerIdPresentationERKNSt3__112basic_stringIcNS7_11char_traitsIcEENS7_9allocatorIcEEEE
|| __TEXT.__text __ZN14IMSXcapManager17_handleOIRRequestEP17XcapCarrierHandleN19CapSuppServicesInfo6ActionEPKNS2_19CallerIdRestrictionERKNSt3__112basic_stringIcNS7_11char_traitsIcEENS7_9allocatorIcEEEE
|| __TEXT.__text __ZN14IMSXcapManager17internalDumpStateER12ImsOutStream
|| __TEXT.__text __ZN14IMSXcapManager18fetchPreferredImpuERKNSt3__112basic_stringIcNS0_11char_traitsIcEENS0_9allocatorIcEEEE
|| __TEXT.__text __ZN14IMSXcapManager18handleAuthResponseEP15BambiXcapClientRKNSt3__112basic_stringIcNS2_11char_traitsIcEENS2_9allocatorIcEEEERK15SipAuthResponse
|| __TEXT.__text __ZN14IMSXcapManager22handleAkaAuthChallengeERKNSt3__112basic_stringIcNS0_11char_traitsIcEENS0_9allocatorIcEEEERK19SipAkaAuthChallenge
|| __TEXT.__text __ZN14IMSXcapManager25_handleCallBarringRequestEP17XcapCarrierHandleN19CapSuppServicesInfo6ActionEPKNS2_11CallBarringERKNSt3__112basic_stringIcNS7_11char_traitsIcEENS7_9allocatorIcEEEE
|| __TEXT.__text __ZN14IMSXcapManager25_handleCallForwardRequestEP17XcapCarrierHandleN19CapSuppServicesInfo6ActionEPKNS2_11CallForwardERKNSt3__112basic_stringIcNS7_11char_traitsIcEENS7_9allocatorIcEEEE
|| __TEXT.__text __ZN14IMSXcapManager25_handleCallWaitingRequestEP17XcapCarrierHandleN19CapSuppServicesInfo6ActionEPKNS2_11CallWaitingERKNSt3__112basic_stringIcNS7_11char_traitsIcEENS7_9allocatorIcEEEE
|| __TEXT.__text __ZN14IMSXcapManager25_handleServiceOIPResponseEP17XcapCarrierHandleN11HttpRequest6MethodE9ImsResultPK15XcapDocumentOIPRKNSt3__112basic_stringIcNS8_11char_traitsIcEENS8_9allocatorIcEEEE
|| __TEXT.__text __ZN14IMSXcapManager25_handleServiceOIRResponseEP17XcapCarrierHandleN11HttpRequest6MethodE9ImsResultPK15XcapDocumentOIRRKNSt3__112basic_stringIcNS8_11char_traitsIcEENS8_9allocatorIcEEEE
|| __TEXT.__text __ZN14IMSXcapManager25handleDigestAuthChallengeERKNSt3__112basic_stringIcNS0_11char_traitsIcEENS0_9allocatorIcEEEERK22SipDigestAuthChallenge
|| __TEXT.__text __ZN14IMSXcapManager27handleAuthChallengeResponseERKNSt3__112basic_stringIcNS0_11char_traitsIcEENS0_9allocatorIcEEEERKN3ims3aka8ResponseE
|| __TEXT.__text __ZN14IMSXcapManager33_handleServiceCallBarringResponseEP17XcapCarrierHandleN11HttpRequest6MethodE9ImsResultPK23XcapDocumentCallBarringN19CapSuppServicesInfo11CallBarring4Rule8FacilityERKNSt3__112basic_stringIcNSC_11char_traitsIcEENSC_9allocatorIcEEEE
|| __TEXT.__text __ZN14IMSXcapManager33_handleServiceCallForwardResponseEP17XcapCarrierHandleN11HttpRequest6MethodE9ImsResultPK25XcapDocumentCommDiversionRKNSt3__112basic_stringIcNS8_11char_traitsIcEENS8_9allocatorIcEEEE
|| __TEXT.__text __ZN14IMSXcapManager33_handleServiceCallWaitingResponseEP17XcapCarrierHandleN11HttpRequest6MethodE9ImsResultPK23XcapDocumentCommWaitingRKNSt3__112basic_stringIcNS8_11char_traitsIcEENS8_9allocatorIcEEEE
|| __TEXT.__text __ZN14IMSXcapManager37_triggerUnsolicitedCallBarringRequestEP17XcapCarrierHandleRKNSt3__112basic_stringIcNS2_11char_traitsIcEENS2_9allocatorIcEEEE
|| __TEXT.__text __ZN14IMSXcapManager37_triggerUnsolicitedCallForwardRequestEP17XcapCarrierHandleRKNSt3__112basic_stringIcNS2_11char_traitsIcEENS2_9allocatorIcEEEE
|| __TEXT.__text __ZN14IMSXcapManagerC1EP18IPTelephonyManager
|| __TEXT.__text __ZN14IMSXcapManagerC2EP18IPTelephonyManager
|| __TEXT.__text __ZN14IMSXcapManagerD0Ev
|| __TEXT.__text __ZN14IMSXcapManagerD1Ev
|| __TEXT.__text __ZN14IMSXcapManagerD2Ev
|| __TEXT.__text __ZN16IMSClientManager11flushBlocksEv
|| __TEXT.__text __ZN16IMSClientManager12createClientERKNSt3__112basic_stringIcNS0_11char_traitsIcEENS0_9allocatorIcEEEEP16dispatch_queue_s
|| __TEXT.__text __ZN16IMSClientManager12performBlockERK14LoggableStringP11SipLockableU13block_pointerFvvE
|| __TEXT.__text __ZN16IMSClientManager12removeClientERKNSt3__112basic_stringIcNS0_11char_traitsIcEENS0_9allocatorIcEEEE
|| __TEXT.__text __ZN16IMSClientManager14performBlockOrERK14LoggableStringP11SipLockableU13block_pointerFvvES6_
|| __TEXT.__text __ZN16IMSClientManager15callOnMainQueueEU13block_pointerFvvE
|| __TEXT.__text __ZN16IMSClientManager16delegateForStackERKNSt3__112basic_stringIcNS0_11char_traitsIcEENS0_9allocatorIcEEEE
|| __TEXT.__text __ZN16IMSClientManager16isEmergencyStackERKNSt3__112basic_stringIcNS0_11char_traitsIcEENS0_9allocatorIcEEEE
|| __TEXT.__text __ZN16IMSClientManager16telephonyManagerEv
|| __TEXT.__text __ZN16IMSClientManager17callOnClientQueueERKNSt3__112basic_stringIcNS0_11char_traitsIcEENS0_9allocatorIcEEEEU13block_pointerFvP15IMSClientRecordE
|| __TEXT.__text __ZN16IMSClientManager17callOnClientQueueERKNSt3__112basic_stringIcNS0_11char_traitsIcEENS0_9allocatorIcEEEEU13block_pointerFvvE
|| __TEXT.__text __ZN16IMSClientManager18updateCallDelegateERKNSt3__112basic_stringIcNS0_11char_traitsIcEENS0_9allocatorIcEEEES8_NS0_10shared_ptrIN3ims17CallEventDelegateEEEP16dispatch_queue_s
|| __TEXT.__text __ZN16IMSClientManager18updateXcapDelegateERKNSt3__112basic_stringIcNS0_11char_traitsIcEENS0_9allocatorIcEEEES8_NS0_10shared_ptrIN3ims17XcapEventDelegateEEEP16dispatch_queue_s
|| __TEXT.__text __ZN16IMSClientManager19updateStackDelegateERKNSt3__112basic_stringIcNS0_11char_traitsIcEENS0_9allocatorIcEEEES8_NS0_10shared_ptrIN3ims18StackEventDelegateEEEP16dispatch_queue_s
|| __TEXT.__text __ZN16IMSClientManager21updateEmergencyClientEP16dispatch_queue_s
|| __TEXT.__text __ZN16IMSClientManager21updateManagerDelegateERKNSt3__112basic_stringIcNS0_11char_traitsIcEENS0_9allocatorIcEEEES8_NS0_10shared_ptrIN3ims24CallManagerEventDelegateEEEP16dispatch_queue_s
|| __TEXT.__text __ZN16IMSClientManager21updateMessageDelegateERKNSt3__112basic_stringIcNS0_11char_traitsIcEENS0_9allocatorIcEEEES8_NS0_10shared_ptrIN3ims20MessageEventDelegateEEEP16dispatch_queue_s
|| __TEXT.__text __ZN16IMSClientManager22callOnDestinationQueueEP16dispatch_queue_sU13block_pointerFvvE
|| __TEXT.__text __ZN16IMSClientManager8instanceEv
|| __TEXT.__text __ZN16IMSClientManagerC1Ev
|| __TEXT.__text __ZN16IMSClientManagerC2Ev
|| __TEXT.__text __ZN16IMSClientManagerD0Ev
|| __TEXT.__text __ZN16IMSClientManagerD1Ev
|| __TEXT.__text __ZN16IMSClientManagerD2Ev
|| __TEXT.__text __ZN18IMSWrapperDelegate14handlePdnResetEv
|| __TEXT.__text __ZN18IMSWrapperDelegate14handleUssdDataERKNSt3__112basic_stringIcNS0_11char_traitsIcEENS0_9allocatorIcEEEEb
|| __TEXT.__text __ZN18IMSWrapperDelegate15addCallDelegateERKNSt3__112basic_stringIcNS0_11char_traitsIcEENS0_9allocatorIcEEEEP16dispatch_queue_sNS0_10shared_ptrIN3ims17CallEventDelegateEEE
|| __TEXT.__text __ZN18IMSWrapperDelegate15addXcapDelegateERKNSt3__112basic_stringIcNS0_11char_traitsIcEENS0_9allocatorIcEEEEP16dispatch_queue_sNS0_10shared_ptrIN3ims17XcapEventDelegateEEE
|| __TEXT.__text __ZN18IMSWrapperDelegate15handleStateDumpERKNSt3__112basic_stringIcNS0_11char_traitsIcEENS0_9allocatorIcEEEE
|| __TEXT.__text __ZN18IMSWrapperDelegate15handleUssdErrorERKNSt3__112basic_stringIcNS0_11char_traitsIcEENS0_9allocatorIcEEEEj
|| __TEXT.__text __ZN18IMSWrapperDelegate16addStackDelegateERKNSt3__112basic_stringIcNS0_11char_traitsIcEENS0_9allocatorIcEEEEP16dispatch_queue_sNS0_10shared_ptrIN3ims18StackEventDelegateEEE
|| __TEXT.__text __ZN18IMSWrapperDelegate16handleHoldFailedERKNSt3__112basic_stringIcNS0_11char_traitsIcEENS0_9allocatorIcEEEE
|| __TEXT.__text __ZN18IMSWrapperDelegate17handleActiveEventERKNSt3__112basic_stringIcNS0_11char_traitsIcEENS0_9allocatorIcEEEE
|| __TEXT.__text __ZN18IMSWrapperDelegate17handleClientErrorERKNSt3__112basic_stringIcNS0_11char_traitsIcEENS0_9allocatorIcEEEEj
|| __TEXT.__text __ZN18IMSWrapperDelegate17handleInitializedEj
|| __TEXT.__text __ZN18IMSWrapperDelegate17handleJoinedEventERKNSt3__112basic_stringIcNS0_11char_traitsIcEENS0_9allocatorIcEEEE
|| __TEXT.__text __ZN18IMSWrapperDelegate17handleTryingEventERKNSt3__112basic_stringIcNS0_11char_traitsIcEENS0_9allocatorIcEEEE
|| __TEXT.__text __ZN18IMSWrapperDelegate18addMessageDelegateERKNSt3__112basic_stringIcNS0_11char_traitsIcEENS0_9allocatorIcEEEEP16dispatch_queue_sNS0_10shared_ptrIN3ims20MessageEventDelegateEEE
|| __TEXT.__text __ZN18IMSWrapperDelegate18handleAuthenticateERKN3ims3aka7RequestE
|| __TEXT.__text __ZN18IMSWrapperDelegate18handleMergeFailureEv
|| __TEXT.__text __ZN18IMSWrapperDelegate18handleMergeSuccessEv
|| __TEXT.__text __ZN18IMSWrapperDelegate18handleResumeFailedERKNSt3__112basic_stringIcNS0_11char_traitsIcEENS0_9allocatorIcEEEE
|| __TEXT.__text __ZN18IMSWrapperDelegate18handleRingingEventERKNSt3__112basic_stringIcNS0_11char_traitsIcEENS0_9allocatorIcEEEE
|| __TEXT.__text __ZN18IMSWrapperDelegate18removeCallDelegateERKNSt3__112basic_stringIcNS0_11char_traitsIcEENS0_9allocatorIcEEEE
|| __TEXT.__text __ZN18IMSWrapperDelegate18removeXcapDelegateERKNSt3__112basic_stringIcNS0_11char_traitsIcEENS0_9allocatorIcEEEE
|| __TEXT.__text __ZN18IMSWrapperDelegate19handleInactiveEventERKNSt3__112basic_stringIcNS0_11char_traitsIcEENS0_9allocatorIcEEEE
|| __TEXT.__text __ZN18IMSWrapperDelegate19handleIncomingEventEPN3ims10CallHandleERKNS0_16CallIncomingInfoE
|| __TEXT.__text __ZN18IMSWrapperDelegate19handleUninitializedEj
|| __TEXT.__text __ZN18IMSWrapperDelegate19removeStackDelegateERKNSt3__112basic_stringIcNS0_11char_traitsIcEENS0_9allocatorIcEEEE
|| __TEXT.__text __ZN18IMSWrapperDelegate21handleDisconnectEventERKNSt3__112basic_stringIcNS0_11char_traitsIcEENS0_9allocatorIcEEEES8_RKN3ims14DisconnectInfoE
|| __TEXT.__text __ZN18IMSWrapperDelegate21handleInProgressEventERKNSt3__112basic_stringIcNS0_11char_traitsIcEENS0_9allocatorIcEEEE
|| __TEXT.__text __ZN18IMSWrapperDelegate21handleMessageReceivedERKN3ims11MessageInfoE
|| __TEXT.__text __ZN18IMSWrapperDelegate21handleProceedingEventERKNSt3__112basic_stringIcNS0_11char_traitsIcEENS0_9allocatorIcEEEES8_
|| __TEXT.__text __ZN18IMSWrapperDelegate21removeMessageDelegateERKNSt3__112basic_stringIcNS0_11char_traitsIcEENS0_9allocatorIcEEEE
|| __TEXT.__text __ZN18IMSWrapperDelegate22addCallManagerDelegateERKNSt3__112basic_stringIcNS0_11char_traitsIcEENS0_9allocatorIcEEEEP16dispatch_queue_sNS0_10shared_ptrIN3ims24CallManagerEventDelegateEEE
|| __TEXT.__text __ZN18IMSWrapperDelegate22handleMediaStatusEventERKNSt3__112basic_stringIcNS0_11char_traitsIcEENS0_9allocatorIcEEEEb
|| __TEXT.__text __ZN18IMSWrapperDelegate22handleThumperCallErrorEb
|| __TEXT.__text __ZN18IMSWrapperDelegate23handleAcknowledgedEventERKNSt3__112basic_stringIcNS0_11char_traitsIcEENS0_9allocatorIcEEEE
|| __TEXT.__text __ZN18IMSWrapperDelegate23handleRegistrationEventERKN3ims16RegistrationInfoE
|| __TEXT.__text __ZN18IMSWrapperDelegate23handleRingbackToneEventERKNSt3__112basic_stringIcNS0_11char_traitsIcEENS0_9allocatorIcEEEEb
|| __TEXT.__text __ZN18IMSWrapperDelegate24handleMessageSendFailureEb
|| __TEXT.__text __ZN18IMSWrapperDelegate24handleMessageSendSuccessEv
|| __TEXT.__text __ZN18IMSWrapperDelegate24handleRegistrationActiveERKN3ims22RegistrationActiveInfoE
|| __TEXT.__text __ZN18IMSWrapperDelegate25handleRegistrationAllowedEv
|| __TEXT.__text __ZN18IMSWrapperDelegate25handleThumperCallRegisterERKNSt3__112basic_stringIcNS0_11char_traitsIcEENS0_9allocatorIcEEEE
|| __TEXT.__text __ZN18IMSWrapperDelegate25removeCallManagerDelegateERKNSt3__112basic_stringIcNS0_11char_traitsIcEENS0_9allocatorIcEEEE
|| __TEXT.__text __ZN18IMSWrapperDelegate26handleTextStreamTokenEventERKNSt3__112basic_stringIcNS0_11char_traitsIcEENS0_9allocatorIcEEEEN3ctu2cf11CFSharedRefIK10__CFNumberEE
|| __TEXT.__text __ZN18IMSWrapperDelegate27handleMediaInitializedEventERKNSt3__112basic_stringIcNS0_11char_traitsIcEENS0_9allocatorIcEEEE
|| __TEXT.__text __ZN18IMSWrapperDelegate27handleThumperCallDeregisterERKNSt3__112basic_stringIcNS0_11char_traitsIcEENS0_9allocatorIcEEEE
|| __TEXT.__text __ZN18IMSWrapperDelegate27handleXcapRequestCompletionEN3ctu2cf11CFSharedRefIK14__CFDictionaryEE
|| __TEXT.__text __ZN18IMSWrapperDelegate28handleRegistrationIdentitiesERKNSt3__16vectorIN3ims20RegistrationIdentityENS0_9allocatorIS3_EEEE
|| __TEXT.__text __ZN18IMSWrapperDelegate28handleTextMediaDetectedEventERKNSt3__112basic_stringIcNS0_11char_traitsIcEENS0_9allocatorIcEEEE
|| __TEXT.__text __ZN18IMSWrapperDelegate30handleConferenceSubscribeEventEb
|| __TEXT.__text __ZN18IMSWrapperDelegate30handleEmergencySessionFinishedEv
|| __TEXT.__text __ZN18IMSWrapperDelegate30handleEmergencySessionRequiredERKNSt3__112basic_stringIcNS0_11char_traitsIcEENS0_9allocatorIcEEEES8_b
|| __TEXT.__text __ZN18IMSWrapperDelegate30handleMediaStackSwitchCompleteEbRKN3ims10MediaStackERKNSt3__112basic_stringIcNS4_11char_traitsIcEENS4_9allocatorIcEEEE
|| __TEXT.__text __ZN18IMSWrapperDelegate30handleRegistrationStateChangedERKN3ims17RegistrationStateE
|| __TEXT.__text __ZN18IMSWrapperDelegate31handleTextMediaDeactivatedEventERKNSt3__112basic_stringIcNS0_11char_traitsIcEENS0_9allocatorIcEEEE
|| __TEXT.__text __ZN18IMSWrapperDelegate9dumpStateER12ImsOutStream
|| __TEXT.__text __ZN18IPTelephonyManager10reregisterEv
|| __TEXT.__text __ZN18IPTelephonyManager10reregisterEyRKN3ims14AccessNetworksERKNSt3__112basic_stringIcNS4_11char_traitsIcEENS4_9allocatorIcEEEESC_
|| __TEXT.__text __ZN18IPTelephonyManager11_initializeEP8SipStackRKN3ims11StackConfigE
|| __TEXT.__text __ZN18IPTelephonyManager11getInstanceEv
|| __TEXT.__text __ZN18IPTelephonyManager11killProcessEv
|| __TEXT.__text __ZN18IPTelephonyManager12deinitializeERKNSt3__112basic_stringIcNS0_11char_traitsIcEENS0_9allocatorIcEEEEbb
|| __TEXT.__text __ZN18IPTelephonyManager12sendUssdDataERKNSt3__112basic_stringIcNS0_11char_traitsIcEENS0_9allocatorIcEEEES8_
|| __TEXT.__text __ZN18IPTelephonyManager12setDelegatesERKNSt3__112basic_stringIcNS0_11char_traitsIcEENS0_9allocatorIcEEEEb
|| __TEXT.__text __ZN18IPTelephonyManager13getSMSManagerEv
|| __TEXT.__text __ZN18IPTelephonyManager13setAutoAnswerERKNSt3__112basic_stringIcNS0_11char_traitsIcEENS0_9allocatorIcEEEEb
|| __TEXT.__text __ZN18IPTelephonyManager14getBambiClientEv
|| __TEXT.__text __ZN18IPTelephonyManager14getCallManagerEv
|| __TEXT.__text __ZN18IPTelephonyManager14getXcapManagerEv
|| __TEXT.__text __ZN18IPTelephonyManager14handleUssdDataEP16BambiUssdSessionRKNSt3__112basic_stringIcNS2_11char_traitsIcEENS2_9allocatorIcEEEEb
|| __TEXT.__text __ZN18IPTelephonyManager14initializeXcapERKNSt3__112basic_stringIcNS0_11char_traitsIcEENS0_9allocatorIcEEEERK10XcapConfigPK14__CFDictionary
|| __TEXT.__text __ZN18IPTelephonyManager14networkManagerEv
|| __TEXT.__text __ZN18IPTelephonyManager15handleUssdErrorEP16BambiUssdSessionRKNSt3__112basic_stringIcNS2_11char_traitsIcEENS2_9allocatorIcEEEEj
|| __TEXT.__text __ZN18IPTelephonyManager15makeOutgoingUriEP8SipStackRKNSt3__112basic_stringIcNS2_11char_traitsIcEENS2_9allocatorIcEEEEP6SipUri
|| __TEXT.__text __ZN18IPTelephonyManager16getClientManagerEv
|| __TEXT.__text __ZN18IPTelephonyManager16handleSystemWakeEv
|| __TEXT.__text __ZN18IPTelephonyManager17auditCarrierPrefsERKNSt3__112basic_stringIcNS0_11char_traitsIcEENS0_9allocatorIcEEEES8_
|| __TEXT.__text __ZN18IPTelephonyManager17cancelUssdSessionERKNSt3__112basic_stringIcNS0_11char_traitsIcEENS0_9allocatorIcEEEE
|| __TEXT.__text __ZN18IPTelephonyManager17initializeFromSIMERKNSt3__112basic_stringIcNS0_11char_traitsIcEENS0_9allocatorIcEEEES8_RKN3ims11StackConfigEP8ImsPrefs
|| __TEXT.__text __ZN18IPTelephonyManager17initializeFromSIMERKNSt3__112basic_stringIcNS0_11char_traitsIcEENS0_9allocatorIcEEEES8_RKN3ims11StackConfigEPK14__CFDictionary
|| __TEXT.__text __ZN18IPTelephonyManager17initializeFromSIMERKNSt3__112basic_stringIcNS0_11char_traitsIcEENS0_9allocatorIcEEEES8_RKN3ims11StackConfigEPK14__CFDictionarySF_
|| __TEXT.__text __ZN18IPTelephonyManager17internalDumpStateERKNSt3__112basic_stringIcNS0_11char_traitsIcEENS0_9allocatorIcEEEEbb
|| __TEXT.__text __ZN18IPTelephonyManager17reportClientErrorERKNSt3__112basic_stringIcNS0_11char_traitsIcEENS0_9allocatorIcEEEES8_S8_j
|| __TEXT.__text __ZN18IPTelephonyManager17setAPMediaManagerERKNSt3__112basic_stringIcNS0_11char_traitsIcEENS0_9allocatorIcEEEEbhb
|| __TEXT.__text __ZN18IPTelephonyManager17setLoggingEnabledEb
|| __TEXT.__text __ZN18IPTelephonyManager17setNetworkManagerEP17ImsNetworkManager
|| __TEXT.__text __ZN18IPTelephonyManager17setThumperEnabledERKNSt3__112basic_stringIcNS0_11char_traitsIcEENS0_9allocatorIcEEEEb
|| __TEXT.__text __ZN18IPTelephonyManager17updateContactUserERKNSt3__112basic_stringIcNS0_11char_traitsIcEENS0_9allocatorIcEEEES8_S8_
|| __TEXT.__text __ZN18IPTelephonyManager18_initializeFromSIMERKNSt3__112basic_stringIcNS0_11char_traitsIcEENS0_9allocatorIcEEEERKN3ims11StackConfigE
|| __TEXT.__text __ZN18IPTelephonyManager18exitEmergencyStateEv
|| __TEXT.__text __ZN18IPTelephonyManager18handleAuthResponseEP11BambiClientRKNSt3__112basic_stringIcNS2_11char_traitsIcEENS2_9allocatorIcEEEERK15SipAuthResponse
|| __TEXT.__text __ZN18IPTelephonyManager18handleDebugCommandERKNSt3__112basic_stringIcNS0_11char_traitsIcEENS0_9allocatorIcEEEES8_
|| __TEXT.__text __ZN18IPTelephonyManager18handleDeviceEventsERKNSt3__112basic_stringIcNS0_11char_traitsIcEENS0_9allocatorIcEEEERKj
|| __TEXT.__text __ZN18IPTelephonyManager19createMetricsLoggerEv
|| __TEXT.__text __ZN18IPTelephonyManager19fillConfigFromPrefsEP8SipStackPN3ims11StackConfigE
|| __TEXT.__text __ZN18IPTelephonyManager19handleNetworkEventsERKNSt3__112basic_stringIcNS0_11char_traitsIcEENS0_9allocatorIcEEEEPK14__CFDictionary
|| __TEXT.__text __ZN18IPTelephonyManager19restoreLoggingStateEv
|| __TEXT.__text __ZN18IPTelephonyManager20getBambiServicesMaskEy
|| __TEXT.__text __ZN18IPTelephonyManager20handleLegacyUssdDataEP16BambiUssdSessionRKNSt3__16vectorIhNS2_9allocatorIhEEEEb
|| __TEXT.__text __ZN18IPTelephonyManager20updateSimAccessClassERKNSt3__112basic_stringIcNS0_11char_traitsIcEENS0_9allocatorIcEEEERKj
|| __TEXT.__text __ZN18IPTelephonyManager21handleAkaAuthResponseERKNSt3__112basic_stringIcNS0_11char_traitsIcEENS0_9allocatorIcEEEERKN3ims21AuthChallengeResponseE
|| __TEXT.__text __ZN18IPTelephonyManager21handleTransportErrorsERKNSt3__112basic_stringIcNS0_11char_traitsIcEENS0_9allocatorIcEEEE
|| __TEXT.__text __ZN18IPTelephonyManager21updateNetworkServicesERKNSt3__112basic_stringIcNS0_11char_traitsIcEENS0_9allocatorIcEEEERKN3ims15NetworkServicesEb
|| __TEXT.__text __ZN18IPTelephonyManager22getRegistrationManagerEv
|| __TEXT.__text __ZN18IPTelephonyManager22handleAkaAuthChallengeEP11BambiClientRK19SipAkaAuthChallengeRKNSt3__112basic_stringIcNS5_11char_traitsIcEENS5_9allocatorIcEEEE
|| __TEXT.__text __ZN18IPTelephonyManager22handleRequestStateDumpERKNSt3__112basic_stringIcNS0_11char_traitsIcEENS0_9allocatorIcEEEES8_
|| __TEXT.__text __ZN18IPTelephonyManager22handleSipTimeoutReportERKNSt3__112basic_stringIcNS0_11char_traitsIcEENS0_9allocatorIcEEEERKN3ims15IRatTimeoutInfoE
|| __TEXT.__text __ZN18IPTelephonyManager22initializeImpuRankingsEP8SipStackNSt3__112basic_stringIcNS2_11char_traitsIcEENS2_9allocatorIcEEEE
|| __TEXT.__text __ZN18IPTelephonyManager22makeOutgoingUriForPullERKNSt3__112basic_stringIcNS0_11char_traitsIcEENS0_9allocatorIcEEEES8_P6SipUri
|| __TEXT.__text __ZN18IPTelephonyManager22reportCallStatusToIRatERKN3ims14IRatCallStatusE
|| __TEXT.__text __ZN18IPTelephonyManager22reportSipTimeoutToIRatERKN3ims15IRatTimeoutInfoE
|| __TEXT.__text __ZN18IPTelephonyManager22setCallWaitingDisabledERKNSt3__112basic_stringIcNS0_11char_traitsIcEENS0_9allocatorIcEEEEb
|| __TEXT.__text __ZN18IPTelephonyManager23updateAccessBarringInfoERKNSt3__112basic_stringIcNS0_11char_traitsIcEENS0_9allocatorIcEEEEN18BambiAccessBarring4InfoE
|| __TEXT.__text __ZN18IPTelephonyManager24handleClientStatusChangeERKNSt3__112basic_stringIcNS0_11char_traitsIcEENS0_9allocatorIcEEEE17BambiClientStatus
|| __TEXT.__text __ZN18IPTelephonyManager24handleConnectivityChangeERKNSt3__112basic_stringIcNS0_11char_traitsIcEENS0_9allocatorIcEEEEb
|| __TEXT.__text __ZN18IPTelephonyManager24handleThumperAuthFailureERKNSt3__112basic_stringIcNS0_11char_traitsIcEENS0_9allocatorIcEEEEb
|| __TEXT.__text __ZN18IPTelephonyManager25handleDigestAuthChallengeEP11BambiClientRK22SipDigestAuthChallengeRKNSt3__112basic_stringIcNS5_11char_traitsIcEENS5_9allocatorIcEEEE
|| __TEXT.__text __ZN18IPTelephonyManager25handleRequestNetworkResetERKNSt3__112basic_stringIcNS0_11char_traitsIcEENS0_9allocatorIcEEEE
|| __TEXT.__text __ZN18IPTelephonyManager25updatePolicyInterfaceListERKNSt3__112basic_stringIcNS0_11char_traitsIcEENS0_9allocatorIcEEEE
|| __TEXT.__text __ZN18IPTelephonyManager26handleEmergencyStateExitedERKNSt3__112basic_stringIcNS0_11char_traitsIcEENS0_9allocatorIcEEEE
|| __TEXT.__text __ZN18IPTelephonyManager28handleUssdSessionInvalidatedEP16BambiUssdSession
|| __TEXT.__text __ZN18IPTelephonyManager29handleRequestCallWaitingStateEv
|| __TEXT.__text __ZN18IPTelephonyManager29initializeForSimlessEmergencyERKNSt3__112basic_stringIcNS0_11char_traitsIcEENS0_9allocatorIcEEEEPK14__CFDictionarySB_
|| __TEXT.__text __ZN18IPTelephonyManager29initiateLimitedAccessRegisterERKNSt3__112basic_stringIcNS0_11char_traitsIcEENS0_9allocatorIcEEEEjS8_RKNS0_6vectorIS6_NS4_IS6_EEEE
|| __TEXT.__text __ZN18IPTelephonyManager32handleEmergencyRegistrationErrorERK32SipRegistrationErrorNotification
|| __TEXT.__text __ZN18IPTelephonyManager33handleEmergencyRegistrationActiveERK33SipRegistrationActiveNotification
|| __TEXT.__text __ZN18IPTelephonyManager34handleTransportInitializedForStackEP8SipStack
|| __TEXT.__text __ZN18IPTelephonyManager7setMuteERKNSt3__112basic_stringIcNS0_11char_traitsIcEENS0_9allocatorIcEEEEb
|| __TEXT.__text __ZN18IPTelephonyManager9dumpStateERKNSt3__112basic_stringIcNS0_11char_traitsIcEENS0_9allocatorIcEEEES8_
|| __TEXT.__text __ZN18IPTelephonyManagerC1Ev
|| __TEXT.__text __ZN18IPTelephonyManagerC2Ev
|| __TEXT.__text __ZN18IPTelephonyManagerD0Ev
|| __TEXT.__text __ZN18IPTelephonyManagerD1Ev
|| __TEXT.__text __ZN18IPTelephonyManagerD2Ev
|| __TEXT.__text __ZN19CapSuppServicesInfo11CallBarring11deserializeEPK14__CFDictionary
|| __TEXT.__text __ZN19CapSuppServicesInfo11CallBarring4Rule11deserializeEPK14__CFDictionary
|| __TEXT.__text __ZN19CapSuppServicesInfo11CallForward11deserializeEPK14__CFDictionary
|| __TEXT.__text __ZN19CapSuppServicesInfo11CallForward4Rule11deserializeEPK14__CFDictionary
|| __TEXT.__text __ZN19CapSuppServicesInfo11CallWaiting11deserializeEPK14__CFDictionary
|| __TEXT.__text __ZN19CapSuppServicesInfo11deserializeEPK14__CFDictionary
|| __TEXT.__text __ZN19CapSuppServicesInfo19CallerIdRestriction11deserializeEPK14__CFDictionary
|| __TEXT.__text __ZN19CapSuppServicesInfo20CallerIdPresentation11deserializeEPK14__CFDictionary
|| __TEXT.__text __ZN19CapSuppServicesInfo6Result11deserializeEPK14__CFDictionary
|| __TEXT.__text __ZN19CapSuppServicesInfoC1Ev
|| __TEXT.__text __ZN19CapSuppServicesInfoC2Ev
|| __TEXT.__text __ZN19CapSuppServicesInfoD1Ev
|| __TEXT.__text __ZN19CapSuppServicesInfoD2Ev
|| __TEXT.__text __ZN3ims10CallHandle12setRelayCallEb
|| __TEXT.__text __ZN3ims10CallHandle17setCallIdBlockingEbb
|| __TEXT.__text __ZN3ims10CallHandle23setTextMediaSessionModeENS_20TextMediaSessionModeE
|| __TEXT.__text __ZN3ims10CallHandleC1ERKNSt3__112basic_stringIcNS1_11char_traitsIcEENS1_9allocatorIcEEEES9_
|| __TEXT.__text __ZN3ims10CallHandleC2ERKNSt3__112basic_stringIcNS1_11char_traitsIcEENS1_9allocatorIcEEEES9_
|| __TEXT.__text __ZN3ims10CallHandleD0Ev
|| __TEXT.__text __ZN3ims10CallHandleD1Ev
|| __TEXT.__text __ZN3ims10CallHandleD2Ev
|| __TEXT.__text __ZN3ims11DeviceEvent12nameForEventENS0_9EventTypeE
|| __TEXT.__text __ZN3ims11DeviceEvent13eventWithNameERKNSt3__112basic_stringIcNS1_11char_traitsIcEENS1_9allocatorIcEEEE
|| __TEXT.__text __ZN3ims12ClientHandle11setTextModeENS_20TextMediaSessionModeEb
|| __TEXT.__text __ZN3ims12ClientHandle15addXcapDelegateERKNSt3__112basic_stringIcNS1_11char_traitsIcEENS1_9allocatorIcEEEENS1_10shared_ptrINS_17XcapEventDelegateEEEP16dispatch_queue_s
|| __TEXT.__text __ZN3ims12ClientHandle15setXcapDelegateEPNS_17XcapEventDelegateE
|| __TEXT.__text __ZN3ims12ClientHandle16addStackDelegateERKNSt3__112basic_stringIcNS1_11char_traitsIcEENS1_9allocatorIcEEEENS1_10shared_ptrINS_18StackEventDelegateEEEP16dispatch_queue_s
|| __TEXT.__text __ZN3ims12ClientHandle16setStackDelegateEPNS_18StackEventDelegateE
|| __TEXT.__text __ZN3ims12ClientHandle18addMessageDelegateERKNSt3__112basic_stringIcNS1_11char_traitsIcEENS1_9allocatorIcEEEENS1_10shared_ptrINS_20MessageEventDelegateEEEP16dispatch_queue_s
|| __TEXT.__text __ZN3ims12ClientHandle18removeXcapDelegateERKNSt3__112basic_stringIcNS1_11char_traitsIcEENS1_9allocatorIcEEEE
|| __TEXT.__text __ZN3ims12ClientHandle18setMessageDelegateEPNS_20MessageEventDelegateE
|| __TEXT.__text __ZN3ims12ClientHandle19removeStackDelegateERKNSt3__112basic_stringIcNS1_11char_traitsIcEENS1_9allocatorIcEEEE
|| __TEXT.__text __ZN3ims12ClientHandle21authChallengeResponseERKNS_21AuthChallengeResponseE
|| __TEXT.__text __ZN3ims12ClientHandle21removeMessageDelegateERKNSt3__112basic_stringIcNS1_11char_traitsIcEENS1_9allocatorIcEEEE
|| __TEXT.__text __ZN3ims12ClientHandle22addCallManagerDelegateERKNSt3__112basic_stringIcNS1_11char_traitsIcEENS1_9allocatorIcEEEENS1_10shared_ptrINS_24CallManagerEventDelegateEEEP16dispatch_queue_s
|| __TEXT.__text __ZN3ims12ClientHandle22addDefaultCallDelegateERKNSt3__112basic_stringIcNS1_11char_traitsIcEENS1_9allocatorIcEEEENS1_10shared_ptrINS_17CallEventDelegateEEEP16dispatch_queue_s
|| __TEXT.__text __ZN3ims12ClientHandle22setCallManagerDelegateEPNS_24CallManagerEventDelegateE
|| __TEXT.__text __ZN3ims12ClientHandle22setDefaultCallDelegateEPNS_17CallEventDelegateE
|| __TEXT.__text __ZN3ims12ClientHandle24sendSuppServicesProvInfoEPK14__CFDictionary
|| __TEXT.__text __ZN3ims12ClientHandle25removeCallManagerDelegateERKNSt3__112basic_stringIcNS1_11char_traitsIcEENS1_9allocatorIcEEEE
|| __TEXT.__text __ZN3ims12ClientHandle25removeDefaultCallDelegateERKNSt3__112basic_stringIcNS1_11char_traitsIcEENS1_9allocatorIcEEEE
|| __TEXT.__text __ZN3ims12ClientHandle26sendSuppServicesConfigInfoEPK14__CFDictionaryS3_
|| __TEXT.__text __ZN3ims12ClientHandleD0Ev
|| __TEXT.__text __ZN3ims12ClientHandleD1Ev
|| __TEXT.__text __ZN3ims12ClientHandleD2Ev
|| __TEXT.__text __ZN3ims13AccessNetwork3setERKNSt3__112basic_stringIcNS1_11char_traitsIcEENS1_9allocatorIcEEEES9_
|| __TEXT.__text __ZN3ims13AccessNetwork3setERKS0_
|| __TEXT.__text __ZN3ims13EmergencyCall4dialERKNSt3__112basic_stringIcNS1_11char_traitsIcEENS1_9allocatorIcEEEES9_RKNS_10CallConfigERKNS_11StackConfigE
|| __TEXT.__text __ZN3ims13EmergencyCallC1ERKNSt3__112basic_stringIcNS1_11char_traitsIcEENS1_9allocatorIcEEEE
|| __TEXT.__text __ZN3ims13EmergencyCallC2ERKNSt3__112basic_stringIcNS1_11char_traitsIcEENS1_9allocatorIcEEEE
|| __TEXT.__text __ZN3ims15CreateNewClientEP16dispatch_queue_s
|| __TEXT.__text __ZN3ims15EmergencyClient18exitEmergencyStateEv
|| __TEXT.__text __ZN3ims15EmergencyClientC1Ev
|| __TEXT.__text __ZN3ims15EmergencyClientC2Ev
|| __TEXT.__text __ZN3ims21AuthChallengeResponse11DeserializeEPK14__CFDictionary
|| __TEXT.__text __ZN3ims21CreateEmergencyClientEP16dispatch_queue_s
|| __TEXT.__text __ZN3ims3aka11AuthSuccess11DeserializeERKNS0_4ModeEPK14__CFDictionary
|| __TEXT.__text __ZN3ims3aka15AuthSyncFailure11DeserializeEPK14__CFDictionary
|| __TEXT.__text __ZN3ims3aka7Request11DeserializeEPK14__CFDictionary
|| __TEXT.__text __ZN3ims3aka8Response11DeserializeEPK14__CFDictionary
|| __TEXT.__text __ZN3ims3aka8asStringENS0_10ResultTypeE
|| __TEXT.__text __ZN3ims3aka8asStringENS0_4ModeE
|| __TEXT.__text __ZN3ims3aka8asStringENS0_7ContextE
|| __TEXT.__text __ZN3ims4Call4dialERKNSt3__112basic_stringIcNS1_11char_traitsIcEENS1_9allocatorIcEEEERKNS_10CallConfigES9_
|| __TEXT.__text __ZN3ims4Call4pullERKNSt3__112basic_stringIcNS1_11char_traitsIcEENS1_9allocatorIcEEEERKNS_10CallConfigE
|| __TEXT.__text __ZN3ims4CallC1ERKNSt3__112basic_stringIcNS1_11char_traitsIcEENS1_9allocatorIcEEEEPNS_12ClientHandleE
|| __TEXT.__text __ZN3ims4CallC1ERKNSt3__112basic_stringIcNS1_11char_traitsIcEENS1_9allocatorIcEEEES9_
|| __TEXT.__text __ZN3ims4CallC2ERKNSt3__112basic_stringIcNS1_11char_traitsIcEENS1_9allocatorIcEEEEPNS_12ClientHandleE
|| __TEXT.__text __ZN3ims4CallC2ERKNSt3__112basic_stringIcNS1_11char_traitsIcEENS1_9allocatorIcEEEES9_
|| __TEXT.__text __ZN3ims6Client10initializeERKNS_11StackConfigE
|| __TEXT.__text __ZN3ims6Client10initializeERKNSt3__112basic_stringIcNS1_11char_traitsIcEENS1_9allocatorIcEEEERKNS_11StackConfigE
|| __TEXT.__text __ZN3ims6Client12deinitializeEb
|| __TEXT.__text __ZN3ims6Client17setThumperEnabledEb
|| __TEXT.__text __ZN3ims6Client20updateSimAccessClassERKj
|| __TEXT.__text __ZN3ims6Client21updateNetworkServicesERKNS_15NetworkServicesE
|| __TEXT.__text __ZN3ims6Client23initializeLimitedAccessERKNS_13NetworkConfigE
|| __TEXT.__text __ZN3ims6ClientC1Ev
|| __TEXT.__text __ZN3ims6ClientC2Ev
|| __TEXT.__text __ZN3ims6ClientD0Ev
|| __TEXT.__text __ZN3ims6ClientD1Ev
|| __TEXT.__text __ZN3ims6ClientD2Ev
|| __TEXT.__text __ZN3ims8Services12namesForMaskEj
|| __TEXT.__text __ZN3ims8Services14nameForServiceENS0_11ServiceTypeE
|| __TEXT.__text __ZN3ims8Services15serviceWithNameERKNSt3__112basic_stringIcNS1_11char_traitsIcEENS1_9allocatorIcEEEE
|| __TEXT.__text __ZN3ims8asStringENS_11ServiceTypeE
|| __TEXT.__text __ZN3ims9IsimFiles11DeserializeEPK14__CFDictionary
|| __TEXT.__text __ZN3imslsER12ImsOutStreamRKNS_13AccessNetworkE
|| __TEXT.__text __ZNK11IMSCallInfo10isAlertingEv
|| __TEXT.__text __ZNK11IMSCallInfo11isEmergencyEv
|| __TEXT.__text __ZNK11IMSCallInfo12isMultiPartyEv
|| __TEXT.__text __ZNK11IMSCallInfo8isActiveEv
|| __TEXT.__text __ZNK14IMSCallManager13getActiveCallEv
|| __TEXT.__text __ZNK14IMSCallManager20getInfoForActiveCallEv
|| __TEXT.__text __ZNK14IMSCallManager24getInfoForBasebandCallIdEj
|| __TEXT.__text __ZNK14IMSXcapManager11printConfigER12ImsOutStreamP17XcapCarrierHandle
|| __TEXT.__text __ZNK14IMSXcapManager13_notifyClientEN3ctu2cf11CFSharedRefIK14__CFDictionaryEERKNSt3__112basic_stringIcNS6_11char_traitsIcEENS6_9allocatorIcEEEE
|| __TEXT.__text __ZNK14IMSXcapManager22_toInternalCBConditionEN19CapSuppServicesInfo11CallBarring4Rule8FacilityE
|| __TEXT.__text __ZNK14IMSXcapManager23_defaultXcapImpuRankingEv
|| __TEXT.__text __ZNK14IMSXcapManager24_fromInternalCBConditionENSt3__14pairIN23XcapDocumentCallBarring9DirectionEN15XcapCBCondition9ConditionEEE
|| __TEXT.__text __ZNK14IMSXcapManager24_toInternalCDIVConditionEN19CapSuppServicesInfo11CallForward4Rule6ReasonE
|| __TEXT.__text __ZNK14IMSXcapManager26_fromInternalCDIVConditionEN15XcapCDCondition9ConditionE
|| __TEXT.__text __ZNK14IMSXcapManager27_sendGenericFailureResponseEN19CapSuppServicesInfo6ActionENS0_11ServiceTypeERKNSt3__112basic_stringIcNS3_11char_traitsIcEENS3_9allocatorIcEEEE
|| __TEXT.__text __ZNK16IMSClientManager17getClientForStackERKNSt3__112basic_stringIcNS0_11char_traitsIcEENS0_9allocatorIcEEEE
|| __TEXT.__text __ZNK19CapSuppServicesInfo11CallBarring4Rule9serializeEv
|| __TEXT.__text __ZNK19CapSuppServicesInfo11CallBarring9serializeEv
|| __TEXT.__text __ZNK19CapSuppServicesInfo11CallForward4Rule9serializeEv
|| __TEXT.__text __ZNK19CapSuppServicesInfo11CallForward9serializeEv
|| __TEXT.__text __ZNK19CapSuppServicesInfo11CallWaiting9serializeEv
|| __TEXT.__text __ZNK19CapSuppServicesInfo19CallerIdRestriction9serializeEv
|| __TEXT.__text __ZNK19CapSuppServicesInfo20CallerIdPresentation9serializeEv
|| __TEXT.__text __ZNK19CapSuppServicesInfo6Result19asStringFailureTypeEv
|| __TEXT.__text __ZNK19CapSuppServicesInfo6Result8asStringEv
|| __TEXT.__text __ZNK19CapSuppServicesInfo6Result9serializeEv
|| __TEXT.__text __ZNK19CapSuppServicesInfo9serializeEv
|| __TEXT.__text __ZNK3ims10CallHandle6answerERKNSt3__112basic_stringIcNS1_11char_traitsIcEENS1_9allocatorIcEEEE
|| __TEXT.__text __ZNK3ims10CallHandle6hangupERKNS_13CallEndReasonE
|| __TEXT.__text __ZNK3ims10CallHandle8playDtmfERKNSt3__16vectorIhNS1_9allocatorIhEEEE
|| __TEXT.__text __ZNK3ims10CallHandle8playDtmfEh
|| __TEXT.__text __ZNK3ims10CallHandle8stopDtmfEv
|| __TEXT.__text __ZNK3ims12ClientHandle13setCapabilityERKNS_12CapabilitiesEb
|| __TEXT.__text __ZNK3ims12ClientHandle14qosEstablishedERKNSt3__16vectorIjNS1_9allocatorIjEEEE
|| __TEXT.__text __ZNK3ims12ClientHandle17reportDeviceEventERKj
|| __TEXT.__text __ZNK3ims12ClientHandle27reportConnectivityAvailableEb
|| __TEXT.__text __ZNK3ims12ClientHandle7setMuteEb
|| __TEXT.__text __ZNK3ims12ClientHandle9dumpStateERKNSt3__112basic_stringIcNS1_11char_traitsIcEENS1_9allocatorIcEEEES9_
|| __TEXT.__text __ZNK3ims13AccessNetwork5isFDDEv
|| __TEXT.__text __ZNK3ims13AccessNetwork5isGSMEv
|| __TEXT.__text __ZNK3ims13AccessNetwork5isLTEEv
|| __TEXT.__text __ZNK3ims13AccessNetwork5isTDDEv
|| __TEXT.__text __ZNK3ims13AccessNetwork6isUMTSEv
|| __TEXT.__text __ZNK3ims13AccessNetwork6isWifiEv
|| __TEXT.__text __ZNK3ims13AccessNetwork7is3GPP2Ev
|| __TEXT.__text __ZNK3ims13AccessNetwork7isEHRPDEv
|| __TEXT.__text __ZNK3ims14AccessNetworks19isIwlanOverCellularEv
|| __TEXT.__text __ZNK3ims14AccessNetworks3logER12ImsOutStreami
|| __TEXT.__text __ZNK3ims14AccessNetworks8cellularEv
|| __TEXT.__text __ZNK3ims21AuthChallengeResponse9SerializeEv
|| __TEXT.__text __ZNK3ims3aka11AuthSuccess7isValidERKNS0_4ModeE
|| __TEXT.__text __ZNK3ims3aka11AuthSuccess9SerializeERKNS0_4ModeE
|| __TEXT.__text __ZNK3ims3aka15AuthSyncFailure7isValidEv
|| __TEXT.__text __ZNK3ims3aka15AuthSyncFailure9SerializeEv
|| __TEXT.__text __ZNK3ims3aka7Request7isValidEv
|| __TEXT.__text __ZNK3ims3aka7Request9SerializeEv
|| __TEXT.__text __ZNK3ims3aka8Response9SerializeEv
|| __TEXT.__text __ZNK3ims4Call4holdEv
|| __TEXT.__text __ZNK3ims4Call4ringEv
|| __TEXT.__text __ZNK3ims4Call6resumeEv
|| __TEXT.__text __ZNK3ims4Call7refreshEb
|| __TEXT.__text __ZNK3ims6Client10cancelUssdEv
|| __TEXT.__text __ZNK3ims6Client13mergeAllCallsEv
|| __TEXT.__text __ZNK3ims6Client17endConferenceCallEv
|| __TEXT.__text __ZNK3ims6Client7sendSMSERKNSt3__112basic_stringIcNS1_11char_traitsIcEENS1_9allocatorIcEEEES9_RKNS1_6vectorIhNS5_IhEEEES9_
|| __TEXT.__text __ZNK3ims6Client8sendUssdERKNSt3__112basic_stringIcNS1_11char_traitsIcEENS1_9allocatorIcEEEE
|| __TEXT.__text __ZNK3ims9IsimFiles7isValidEv
|| __TEXT.__text __ZNK3ims9IsimFiles9SerializeEv
|| __TEXT.__text __ZThn104_N18IPTelephonyManager23updateAccessBarringInfoERKNSt3__112basic_stringIcNS0_11char_traitsIcEENS0_9allocatorIcEEEEN18BambiAccessBarring4InfoE
|| __TEXT.__text __ZThn16_N11IMSCallInfo16logIncomingPrackERK10SipRequestPK9BambiCall
|| __TEXT.__text __ZThn16_N11IMSCallInfo16logPrackResponseERK11SipResponsePK9BambiCall
|| __TEXT.__text __ZThn16_N11IMSCallInfoD0Ev
|| __TEXT.__text __ZThn16_N11IMSCallInfoD1Ev
|| __TEXT.__text __ZThn16_N14IMSCallManager21handleCallInvalidatedEP9BambiCall
|| __TEXT.__text __ZThn16_N14IMSCallManager21handleConferenceEventEP24BambiCallConferenceEvent
|| __TEXT.__text __ZThn16_N14IMSCallManager26handleMediaActivationEventEP14BambiCallEventb
|| __TEXT.__text __ZThn16_N14IMSCallManager27handleSessionActivatedEventEP14BambiCallEvent
|| __TEXT.__text __ZThn16_N14IMSCallManager27handleSessionConfirmedEventEP30BambiCallSessionConfirmedEvent
|| __TEXT.__text __ZThn16_N14IMSCallManager27handleSessionLocalHeldEventEP14BambiCallEvent
|| __TEXT.__text __ZThn16_N14IMSCallManager28handleSessionHoldFailedEventEP14BambiCallEvent
|| __TEXT.__text __ZThn16_N14IMSCallManager28handleSessionTerminatedEventEP31BambiCallSessionTerminatedEvent
|| __TEXT.__text __ZThn16_N14IMSCallManager30handleInputFrequencyLevelEventEPK9BambiCallPK8__CFData
|| __TEXT.__text __ZThn16_N14IMSCallManager30handleSessionAcknowledgedEventEP14BambiCallEvent
|| __TEXT.__text __ZThn16_N14IMSCallManager30handleSessionResumeFailedEventEP14BambiCallEvent
|| __TEXT.__text __ZThn16_N14IMSCallManager31handleOutputFrequencyLevelEventEPK9BambiCallPK8__CFData
|| __TEXT.__text __ZThn16_N14IMSCallManager36handleSessionActivationAcceptedEventEP14BambiCallEvent
|| __TEXT.__text __ZThn16_N14IMSCallManagerD0Ev
|| __TEXT.__text __ZThn16_N14IMSCallManagerD1Ev
|| __TEXT.__text __ZThn16_N18IMSWrapperDelegate14handleUssdDataERKNSt3__112basic_stringIcNS0_11char_traitsIcEENS0_9allocatorIcEEEEb
|| __TEXT.__text __ZThn16_N18IMSWrapperDelegate15handleUssdErrorERKNSt3__112basic_stringIcNS0_11char_traitsIcEENS0_9allocatorIcEEEEj
|| __TEXT.__text __ZThn16_N18IMSWrapperDelegate18handleMergeFailureEv
|| __TEXT.__text __ZThn16_N18IMSWrapperDelegate18handleMergeSuccessEv
|| __TEXT.__text __ZThn16_N18IMSWrapperDelegate19handleIncomingEventEPN3ims10CallHandleERKNS0_16CallIncomingInfoE
|| __TEXT.__text __ZThn16_N18IMSWrapperDelegate22handleThumperCallErrorEb
|| __TEXT.__text __ZThn16_N18IMSWrapperDelegate30handleConferenceSubscribeEventEb
|| __TEXT.__text __ZThn16_N18IMSWrapperDelegate30handleEmergencySessionFinishedEv
|| __TEXT.__text __ZThn16_N18IMSWrapperDelegate30handleMediaStackSwitchCompleteEbRKN3ims10MediaStackERKNSt3__112basic_stringIcNS4_11char_traitsIcEENS4_9allocatorIcEEEE
|| __TEXT.__text __ZThn16_N18IPTelephonyManagerD0Ev
|| __TEXT.__text __ZThn16_N18IPTelephonyManagerD1Ev
|| __TEXT.__text __ZThn24_N14IMSCallManagerD0Ev
|| __TEXT.__text __ZThn24_N14IMSCallManagerD1Ev
|| __TEXT.__text __ZThn48_N18IMSWrapperDelegate21handleMessageReceivedERKN3ims11MessageInfoE
|| __TEXT.__text __ZThn48_N18IMSWrapperDelegate24handleMessageSendFailureEb
|| __TEXT.__text __ZThn48_N18IMSWrapperDelegate24handleMessageSendSuccessEv
|| __TEXT.__text __ZThn56_N18IMSWrapperDelegate27handleXcapRequestCompletionEN3ctu2cf11CFSharedRefIK14__CFDictionaryEE
|| __TEXT.__text __ZThn8_N11IMSCallInfo31handleParticipantLeftConferenceEP26BambiConferenceParticipantb
|| __TEXT.__text __ZThn8_N11IMSCallInfoD0Ev
|| __TEXT.__text __ZThn8_N11IMSCallInfoD1Ev
|| __TEXT.__text __ZThn8_N13IMSSMSManager17handleMessageSentERKNSt3__112basic_stringIcNS0_11char_traitsIcEENS0_9allocatorIcEEEEj
|| __TEXT.__text __ZThn8_N13IMSSMSManager18handleMessageErrorERKNSt3__112basic_stringIcNS0_11char_traitsIcEENS0_9allocatorIcEEEEjRK9ImsResultb
|| __TEXT.__text __ZThn8_N13IMSSMSManager21handleIncomingMessageERKNSt3__112basic_stringIcNS0_11char_traitsIcEENS0_9allocatorIcEEEERK6SipUriS8_PK7SipBody
|| __TEXT.__text __ZThn8_N13IMSSMSManager21handleIncomingMessageERKNSt3__112basic_stringIcNS0_11char_traitsIcEENS0_9allocatorIcEEEERK6SipUriS8_S8_S8_
|| __TEXT.__text __ZThn8_N13IMSSMSManagerD0Ev
|| __TEXT.__text __ZThn8_N13IMSSMSManagerD1Ev
|| __TEXT.__text __ZThn8_N14IMSCallManager23delegateForIncomingCallEP11BambiClientP9BambiCall
|| __TEXT.__text __ZThn8_N14IMSCallManager27handleBurstDtmfSendCompleteEv
|| __TEXT.__text __ZThn8_N14IMSCallManager30handleMediaStackSwitchCompleteERKNSt3__112basic_stringIcNS0_11char_traitsIcEENS0_9allocatorIcEEEE12RTPStackTypeb
|| __TEXT.__text __ZThn8_N14IMSXcapManager18handleAuthResponseEP15BambiXcapClientRKNSt3__112basic_stringIcNS2_11char_traitsIcEENS2_9allocatorIcEEEERK15SipAuthResponse
|| __TEXT.__text __ZThn8_N14IMSXcapManagerD0Ev
|| __TEXT.__text __ZThn8_N14IMSXcapManagerD1Ev
|| __TEXT.__text __ZThn8_N18IMSWrapperDelegate14handlePdnResetEv
|| __TEXT.__text __ZThn8_N18IMSWrapperDelegate15handleStateDumpERKNSt3__112basic_stringIcNS0_11char_traitsIcEENS0_9allocatorIcEEEE
|| __TEXT.__text __ZThn8_N18IMSWrapperDelegate17handleClientErrorERKNSt3__112basic_stringIcNS0_11char_traitsIcEENS0_9allocatorIcEEEEj
|| __TEXT.__text __ZThn8_N18IMSWrapperDelegate17handleInitializedEj
|| __TEXT.__text __ZThn8_N18IMSWrapperDelegate18handleAuthenticateERKN3ims3aka7RequestE
|| __TEXT.__text __ZThn8_N18IMSWrapperDelegate19handleUninitializedEj
|| __TEXT.__text __ZThn8_N18IMSWrapperDelegate23handleRegistrationEventERKN3ims16RegistrationInfoE
|| __TEXT.__text __ZThn8_N18IMSWrapperDelegate24handleRegistrationActiveERKN3ims22RegistrationActiveInfoE
|| __TEXT.__text __ZThn8_N18IMSWrapperDelegate25handleRegistrationAllowedEv
|| __TEXT.__text __ZThn8_N18IMSWrapperDelegate28handleRegistrationIdentitiesERKNSt3__16vectorIN3ims20RegistrationIdentityENS0_9allocatorIS3_EEEE
|| __TEXT.__text __ZThn8_N18IMSWrapperDelegate30handleRegistrationStateChangedERKN3ims17RegistrationStateE
|| __TEXT.__text __ZThn8_N18IPTelephonyManager14handleUssdDataEP16BambiUssdSessionRKNSt3__112basic_stringIcNS2_11char_traitsIcEENS2_9allocatorIcEEEEb
|| __TEXT.__text __ZThn8_N18IPTelephonyManager15handleUssdErrorEP16BambiUssdSessionRKNSt3__112basic_stringIcNS2_11char_traitsIcEENS2_9allocatorIcEEEEj
|| __TEXT.__text __ZThn8_N18IPTelephonyManager20handleLegacyUssdDataEP16BambiUssdSessionRKNSt3__16vectorIhNS2_9allocatorIhEEEEb
|| __TEXT.__text __ZThn8_N18IPTelephonyManager28handleUssdSessionInvalidatedEP16BambiUssdSession
|| __TEXT.__text __ZThn96_N18IPTelephonyManager18handleAuthResponseEP11BambiClientRKNSt3__112basic_stringIcNS2_11char_traitsIcEENS2_9allocatorIcEEEERK15SipAuthResponse
|| __TEXT.__text __ZThn96_N18IPTelephonyManagerD0Ev
|| __TEXT.__text __ZThn96_N18IPTelephonyManagerD1Ev
|| __TEXT.__text __ZlsRNSt3__113basic_ostreamIcNS_11char_traitsIcEEEERKN19CapSuppServicesInfo6ResultE
|| __TEXT.__text _shouldSuppressLoggingOfEvent
__ AVConference: _OBJC_CLASS_$_AVAudioClient
__ AVConference: _OBJC_CLASS_$_AVCAudioStream
__ AVConference: _OBJC_CLASS_$_AVCMediaStreamConfig
__ AVConference: _OBJC_CLASS_$_AVCRTCPReceiverReport
__ AVConference: _OBJC_CLASS_$_AVCRTCPSenderReport
__ AVConference: _OBJC_CLASS_$_AVCRTCPSourceDescription
__ AVConference: _OBJC_CLASS_$_AVCTextStream
__ AVConference: _kAVCKeyRTCPSocket
__ AVConference: _kAVCKeyRTPSocket
__ AppSupport: _CPCancelWakeAtDateWithIdentifier
__ AppSupport: _CPScheduleWakeAtDateWithIdentifier
__ CFNetwork: _CFHTTPMessageAppendBytes
__ CFNetwork: _CFHTTPMessageCopyAllHeaderFields
__ CFNetwork: _CFHTTPMessageCopyBody
__ CFNetwork: _CFHTTPMessageCopyHeaderFieldValue
__ CFNetwork: _CFHTTPMessageCopyRequestMethod
__ CFNetwork: _CFHTTPMessageCopyRequestURL
__ CFNetwork: _CFHTTPMessageCopySerializedMessage
__ CFNetwork: _CFHTTPMessageCreateEmpty
__ CFNetwork: _CFHTTPMessageCreateRequest
__ CFNetwork: _CFHTTPMessageCreateResponse
__ CFNetwork: _CFHTTPMessageGetResponseStatusCode
__ CFNetwork: _CFHTTPMessageIsHeaderComplete
__ CFNetwork: _CFHTTPMessageSetBody
__ CFNetwork: _CFHTTPMessageSetHeaderFieldValue
__ CFNetwork: _CFHostCreateWithName
__ CFNetwork: _CFHostGetAddressing
__ CFNetwork: _CFHostGetTypeID
__ CFNetwork: _CFHostScheduleWithRunLoop
__ CFNetwork: _CFHostSetClient
__ CFNetwork: _CFHostStartInfoResolution
__ CFNetwork: _CFHostUnscheduleFromRunLoop
__ CFNetwork: __CFHostStartInfoResolutionForInterface
__ CFNetwork: _kCFHTTPVersion1_0
__ CFNetwork: _kCFHTTPVersion1_1
__ CFNetwork: _kCFHostAddressesString
__ CFNetwork: _kCFStreamPropertyAccountIdentifier
__ CFNetwork: _kCFStreamPropertyDataConnectionServiceType
__ CoreFoundation: _CFAbsoluteTimeGetCurrent
__ CoreFoundation: _CFArrayAppendValue
__ CoreFoundation: _CFArrayCreateMutable
__ CoreFoundation: _CFArrayGetCount
__ CoreFoundation: _CFArrayGetTypeID
__ CoreFoundation: _CFArrayGetValueAtIndex
__ CoreFoundation: _CFArrayInsertValueAtIndex
__ CoreFoundation: _CFBooleanGetTypeID
__ CoreFoundation: _CFBooleanGetValue
__ CoreFoundation: _CFDataCreate
__ CoreFoundation: _CFDataGetBytePtr
__ CoreFoundation: _CFDataGetBytes
__ CoreFoundation: _CFDataGetLength
__ CoreFoundation: _CFDataGetTypeID
__ CoreFoundation: _CFDateCreate
__ CoreFoundation: _CFDictionaryContainsKey
__ CoreFoundation: _CFDictionaryCreate
__ CoreFoundation: _CFDictionaryCreateMutable
__ CoreFoundation: _CFDictionaryGetCount
__ CoreFoundation: _CFDictionaryGetKeysAndValues
__ CoreFoundation: _CFDictionaryGetTypeID
__ CoreFoundation: _CFDictionaryGetValue
__ CoreFoundation: _CFDictionaryGetValueIfPresent
__ CoreFoundation: _CFDictionarySetValue
__ CoreFoundation: _CFErrorCopyFailureReason
__ CoreFoundation: _CFErrorGetCode
__ CoreFoundation: _CFErrorGetDomain
__ CoreFoundation: _CFGetAllocator
__ CoreFoundation: _CFGetTypeID
__ CoreFoundation: _CFNotificationCenterAddObserver
__ CoreFoundation: _CFNotificationCenterGetDarwinNotifyCenter
__ CoreFoundation: _CFNotificationCenterGetLocalCenter
__ CoreFoundation: _CFNotificationCenterRemoveEveryObserver
__ CoreFoundation: _CFNullGetTypeID
__ CoreFoundation: _CFNumberCreate
__ CoreFoundation: _CFNumberGetTypeID
__ CoreFoundation: _CFNumberGetValue
__ CoreFoundation: _CFNumberIsFloatType
__ CoreFoundation: _CFPreferencesCopyValue
__ CoreFoundation: _CFPreferencesSetValue
__ CoreFoundation: _CFPreferencesSynchronize
__ CoreFoundation: _CFReadStreamClose
__ CoreFoundation: _CFReadStreamCopyError
__ CoreFoundation: _CFReadStreamCopyProperty
__ CoreFoundation: _CFReadStreamGetError
__ CoreFoundation: _CFReadStreamHasBytesAvailable
__ CoreFoundation: _CFReadStreamOpen
__ CoreFoundation: _CFReadStreamRead
__ CoreFoundation: _CFReadStreamScheduleWithRunLoop
__ CoreFoundation: _CFReadStreamSetClient
__ CoreFoundation: _CFReadStreamSetProperty
__ CoreFoundation: _CFReadStreamUnscheduleFromRunLoop
__ CoreFoundation: _CFRelease
__ CoreFoundation: _CFRetain
__ CoreFoundation: _CFRunLoopAddSource
__ CoreFoundation: _CFRunLoopAddTimer
__ CoreFoundation: _CFRunLoopGetCurrent
__ CoreFoundation: _CFRunLoopRemoveSource
__ CoreFoundation: _CFRunLoopSourceCreate
__ CoreFoundation: _CFRunLoopSourceInvalidate
__ CoreFoundation: _CFRunLoopSourceSignal
__ CoreFoundation: _CFRunLoopTimerCreate
__ CoreFoundation: _CFRunLoopTimerCreateWithHandler
__ CoreFoundation: _CFRunLoopTimerInvalidate
__ CoreFoundation: _CFRunLoopTimerIsValid
__ CoreFoundation: _CFRunLoopWakeUp
__ CoreFoundation: _CFSocketConnectToAddress
__ CoreFoundation: _CFSocketCopyAddress
__ CoreFoundation: _CFSocketCreateRunLoopSource
__ CoreFoundation: _CFSocketCreateWithNative
__ CoreFoundation: _CFSocketGetNative
__ CoreFoundation: _CFSocketGetSocketFlags
__ CoreFoundation: _CFSocketInvalidate
__ CoreFoundation: _CFSocketSetSocketFlags
__ CoreFoundation: _CFStreamCreatePairWithSocketToHost
__ CoreFoundation: _CFStringCompare
__ CoreFoundation: _CFStringCreateWithBytes
__ CoreFoundation: _CFStringCreateWithBytesNoCopy
__ CoreFoundation: _CFStringCreateWithCString
__ CoreFoundation: _CFStringCreateWithFormat
__ CoreFoundation: _CFStringGetCString
__ CoreFoundation: _CFStringGetCStringPtr
__ CoreFoundation: _CFStringGetLength
__ CoreFoundation: _CFStringGetTypeID
__ CoreFoundation: _CFURLCreateStringByAddingPercentEscapes
__ CoreFoundation: _CFURLCreateStringByReplacingPercentEscapes
__ CoreFoundation: _CFURLCreateWithString
__ CoreFoundation: _CFURLGetBytes
__ CoreFoundation: _CFUUIDCreateFromString
__ CoreFoundation: _CFUUIDCreateString
__ CoreFoundation: _CFUUIDGetTypeID
__ CoreFoundation: _CFWriteStreamCanAcceptBytes
__ CoreFoundation: _CFWriteStreamClose
__ CoreFoundation: _CFWriteStreamCopyError
__ CoreFoundation: _CFWriteStreamGetError
__ CoreFoundation: _CFWriteStreamOpen
__ CoreFoundation: _CFWriteStreamScheduleWithRunLoop
__ CoreFoundation: _CFWriteStreamSetClient
__ CoreFoundation: _CFWriteStreamSetProperty
__ CoreFoundation: _CFWriteStreamUnscheduleFromRunLoop
__ CoreFoundation: _CFWriteStreamWrite
__ CoreFoundation: _NSSystemClockDidChangeNotification
__ CoreFoundation: _OBJC_CLASS_$_NSArray
__ CoreFoundation: _OBJC_CLASS_$_NSData
__ CoreFoundation: _OBJC_CLASS_$_NSDate
__ CoreFoundation: _OBJC_CLASS_$_NSDictionary
__ CoreFoundation: _OBJC_CLASS_$_NSMutableArray
__ CoreFoundation: _OBJC_CLASS_$_NSMutableDictionary
__ CoreFoundation: _OBJC_CLASS_$_NSURL
__ CoreFoundation: __CFRuntimeCreateInstance
__ CoreFoundation: __CFRuntimeRegisterClass
__ CoreFoundation: ___CFConstantStringClassReference
__ CoreFoundation: _kCFAbsoluteTimeIntervalSince1970
__ CoreFoundation: _kCFAllocatorDefault
__ CoreFoundation: _kCFAllocatorNull
__ CoreFoundation: _kCFBooleanFalse
__ CoreFoundation: _kCFBooleanTrue
__ CoreFoundation: _kCFPreferencesAnyHost
__ CoreFoundation: _kCFPreferencesCurrentUser
__ CoreFoundation: _kCFRunLoopCommonModes
__ CoreFoundation: _kCFRunLoopDefaultMode
__ CoreFoundation: _kCFStreamPropertySocketNativeHandle
__ CoreFoundation: _kCFTypeArrayCallBacks
__ CoreFoundation: _kCFTypeDictionaryKeyCallBacks
__ CoreFoundation: _kCFTypeDictionaryValueCallBacks
__ CoreLocation: _OBJC_CLASS_$_CLEmergencyEnablementAssertion
__ CoreLocation: _OBJC_CLASS_$_CLLocationManager
__ CoreLocation: _kCLLocationAccuracyBest
__ CoreLocation: _kCLLocationAccuracyE911CallInviteHigh
__ CoreLocation: _kCLLocationAccuracyE911CallInviteLow
__ Foundation: _OBJC_CLASS_$_NSBundle
__ Foundation: _OBJC_CLASS_$_NSFileManager
__ Foundation: _OBJC_CLASS_$_NSJSONSerialization
__ Foundation: _OBJC_CLASS_$_NSNotificationCenter
__ Foundation: _OBJC_CLASS_$_NSNumber
__ Foundation: _OBJC_CLASS_$_NSProcessInfo
__ Foundation: _OBJC_CLASS_$_NSPropertyListSerialization
__ Foundation: _OBJC_CLASS_$_NSRegularExpression
__ Foundation: _OBJC_CLASS_$_NSString
__ Foundation: _OBJC_CLASS_$_NSURLComponents
__ IOKit: _IOAllowPowerChange
__ IOKit: _IODeregisterForSystemPower
__ IOKit: _IONotificationPortGetRunLoopSource
__ IOKit: _IOPMAssertionDeclareSystemActivity
__ IOKit: _IOPMAssertionRelease
__ IOKit: _IOPMAssertionSetProperty
__ IOKit: _IORegisterForSystemPower
__ IOKit: _IOServiceClose
__ MobileWiFi: _WiFiManagerClientCreate
__ MobileWiFi: _WiFiManagerClientSetWoWState
__ Network: _OBJC_CLASS_$_NWInterface
__ Network: _OBJC_CLASS_$_NWParameters
__ Network: _OBJC_CLASS_$_NWPathEvaluator
__ PersistentConnection: _OBJC_CLASS_$_PCConnectionManager
__ Security: _SSLClose
__ Security: _SSLCreateContext
__ Security: _SSLGetBufferedReadSize
__ Security: _SSLGetNegotiatedCipher
__ Security: _SSLGetSessionState
__ Security: _SSLHandshake
__ Security: _SSLRead
__ Security: _SSLSetConnection
__ Security: _SSLSetIOFuncs
__ Security: _SSLWrite
__ SystemConfiguration: _SCDynamicStoreCreate
__ SystemConfiguration: _SCDynamicStoreCreateRunLoopSource
__ SystemConfiguration: _SCDynamicStoreSetNotificationKeys
__ SystemConfiguration: _SCNetworkReachabilityCreateWithAddressPair
__ SystemConfiguration: _SCNetworkReachabilityGetFlags
__ SystemConfiguration: _SCNetworkReachabilityScheduleWithRunLoop
__ SystemConfiguration: _SCNetworkReachabilitySetCallback
__ SystemConfiguration: _SCNetworkReachabilityUnscheduleFromRunLoop
__ WirelessDiagnostics: __Z13AWDPostMetricjRKN20wireless_diagnostics6google8protobuf11MessageLiteE
__ WirelessDiagnostics: __ZN3awd19AWDServerConnectionC1Ej
__ libARI.dylib: __Z8asString14AriResult_enum
__ libARI.dylib: __ZN3Ari10MsgDefByIdEjj
__ libARI.dylib: __ZN3Ari3LogEjPKcz
__ libARI.dylib: __ZN6AriMsg10GetBufGmidEPKhm
__ libARI.dylib: __ZN6AriOsa10LogSrcInfoEPKcS1_
__ libARI.dylib: __ZN6AriSdk14ARI_AriACK_SDK6unpackEv
__ libARI.dylib: __ZN6AriSdk14ARI_AriACK_SDKC1EPKhj
__ libARI.dylib: __ZN6AriSdk14ARI_AriACK_SDKD1Ev
__ libARI.dylib: __ZN6AriSdk23ARI_IBICallPsRtpReq_SDKC1Ev
__ libARI.dylib: __ZN6AriSdk23ARI_IBICallPsRtpReq_SDKD1Ev
__ libARI.dylib: __ZN6AriSdk25ARI_IBICallPsRtpRspCb_SDK6unpackEv
__ libARI.dylib: __ZN6AriSdk25ARI_IBICallPsRtpRspCb_SDKC1EPKhj
__ libARI.dylib: __ZN6AriSdk25ARI_IBICallPsRtpRspCb_SDKD1Ev
__ libARI.dylib: __ZN6AriSdk28ARI_IBIImsMEStopMediaReq_SDKC1Ev
__ libARI.dylib: __ZN6AriSdk28ARI_IBIImsMEStopMediaReq_SDKD1Ev
__ libARI.dylib: __ZN6AriSdk29ARI_CsiIceAudCallEventReq_SDKC1Ev
__ libARI.dylib: __ZN6AriSdk29ARI_CsiIceAudCallEventReq_SDKD1Ev
__ libARI.dylib: __ZN6AriSdk29ARI_IBIImsMEStartMediaReq_SDKC1Ev
__ libARI.dylib: __ZN6AriSdk29ARI_IBIImsMEStartMediaReq_SDKD1Ev
__ libARI.dylib: __ZN6AriSdk30ARI_IBIImsMEStopMediaRspCb_SDK6unpackEv
__ libARI.dylib: __ZN6AriSdk30ARI_IBIImsMEStopMediaRspCb_SDKC1EPKhj
__ libARI.dylib: __ZN6AriSdk30ARI_IBIImsMEStopMediaRspCb_SDKD1Ev
__ libARI.dylib: __ZN6AriSdk31ARI_IBIImsMEStartMediaRspCb_SDK6unpackEv
__ libARI.dylib: __ZN6AriSdk31ARI_IBIImsMEStartMediaRspCb_SDKC1EPKhj
__ libARI.dylib: __ZN6AriSdk31ARI_IBIImsMEStartMediaRspCb_SDKD1Ev
__ libARI.dylib: __ZN6AriSdk31ARI_IBIImsMEStopDTMFCodeReq_SDKC1Ev
__ libARI.dylib: __ZN6AriSdk31ARI_IBIImsMEStopDTMFCodeReq_SDKD1Ev
__ libARI.dylib: __ZN6AriSdk32ARI_CsiIceAudCallEventRespCb_SDK6unpackEv
__ libARI.dylib: __ZN6AriSdk32ARI_CsiIceAudCallEventRespCb_SDKC1EPKhj
__ libARI.dylib: __ZN6AriSdk32ARI_CsiIceAudCallEventRespCb_SDKD1Ev
__ libARI.dylib: __ZN6AriSdk32ARI_IBIImsMEStartDTMFCodeReq_SDKC1Ev
__ libARI.dylib: __ZN6AriSdk32ARI_IBIImsMEStartDTMFCodeReq_SDKD1Ev
__ libARI.dylib: __ZN6AriSdk33ARI_IBIImsMEStopDTMFCodeRspCb_SDK6unpackEv
__ libARI.dylib: __ZN6AriSdk33ARI_IBIImsMEStopDTMFCodeRspCb_SDKC1EPKhj
__ libARI.dylib: __ZN6AriSdk33ARI_IBIImsMEStopDTMFCodeRspCb_SDKD1Ev
__ libARI.dylib: __ZN6AriSdk33ARI_IBINetGetAcBarringInfoReq_SDKC1Ev
__ libARI.dylib: __ZN6AriSdk33ARI_IBINetGetAcBarringInfoReq_SDKD1Ev
__ libARI.dylib: __ZN6AriSdk34ARI_IBIImsMEStartDTMFCodeRspCb_SDK6unpackEv
__ libARI.dylib: __ZN6AriSdk34ARI_IBIImsMEStartDTMFCodeRspCb_SDKC1EPKhj
__ libARI.dylib: __ZN6AriSdk34ARI_IBIImsMEStartDTMFCodeRspCb_SDKD1Ev
__ libARI.dylib: __ZN6AriSdk34ARI_IBINetDcSsacBarringInfoReq_SDKC1Ev
__ libARI.dylib: __ZN6AriSdk34ARI_IBINetDcSsacBarringInfoReq_SDKD1Ev
__ libARI.dylib: __ZN6AriSdk35ARI_IBIImsMERtcpSDESReportIndCb_SDK6unpackEv
__ libARI.dylib: __ZN6AriSdk35ARI_IBIImsMERtcpSDESReportIndCb_SDKC1EPKhj
__ libARI.dylib: __ZN6AriSdk35ARI_IBIImsMERtcpSDESReportIndCb_SDKD1Ev
__ libARI.dylib: __ZN6AriSdk35ARI_IBINetGetAcBarringInfoRspCb_SDK6unpackEv
__ libARI.dylib: __ZN6AriSdk35ARI_IBINetGetAcBarringInfoRspCb_SDKC1EPKhj
__ libARI.dylib: __ZN6AriSdk35ARI_IBINetGetAcBarringInfoRspCb_SDKD1Ev
__ libARI.dylib: __ZN6AriSdk36ARI_IBIImsMEConfigureRTTMediaReq_SDKC1Ev
__ libARI.dylib: __ZN6AriSdk36ARI_IBIImsMEConfigureRTTMediaReq_SDKD1Ev
__ libARI.dylib: __ZN6AriSdk36ARI_IBIImsMEMediaSessionErrIndCb_SDK6unpackEv
__ libARI.dylib: __ZN6AriSdk36ARI_IBIImsMEMediaSessionErrIndCb_SDKC1EPKhj
__ libARI.dylib: __ZN6AriSdk36ARI_IBIImsMEMediaSessionErrIndCb_SDKD1Ev
__ libARI.dylib: __ZN6AriSdk36ARI_IBINetDcSsacBarringInfoIndCb_SDK6unpackEv
__ libARI.dylib: __ZN6AriSdk36ARI_IBINetDcSsacBarringInfoIndCb_SDKC1EPKhj
__ libARI.dylib: __ZN6AriSdk36ARI_IBINetDcSsacBarringInfoIndCb_SDKD1Ev
__ libARI.dylib: __ZN6AriSdk36ARI_IBINetDcSsacBarringInfoRspCb_SDK6unpackEv
__ libARI.dylib: __ZN6AriSdk36ARI_IBINetDcSsacBarringInfoRspCb_SDKC1EPKhj
__ libARI.dylib: __ZN6AriSdk36ARI_IBINetDcSsacBarringInfoRspCb_SDKD1Ev
__ libARI.dylib: __ZN6AriSdk36ARI_IBISipMessageInjectToCpTrace_SDKC1Ev
__ libARI.dylib: __ZN6AriSdk36ARI_IBISipMessageInjectToCpTrace_SDKD1Ev
__ libARI.dylib: __ZN6AriSdk37ARI_IBIImsMERtcpSenderReportIndCb_SDK6unpackEv
__ libARI.dylib: __ZN6AriSdk37ARI_IBIImsMERtcpSenderReportIndCb_SDKC1EPKhj
__ libARI.dylib: __ZN6AriSdk37ARI_IBIImsMERtcpSenderReportIndCb_SDKD1Ev
__ libARI.dylib: __ZN6AriSdk38ARI_IBIImsMEConfigureAudioMediaReq_SDKC1Ev
__ libARI.dylib: __ZN6AriSdk38ARI_IBIImsMEConfigureAudioMediaReq_SDKD1Ev
__ libARI.dylib: __ZN6AriSdk38ARI_IBIImsMEConfigureRTTMediaRspCb_SDK6unpackEv
__ libARI.dylib: __ZN6AriSdk38ARI_IBIImsMEConfigureRTTMediaRspCb_SDKC1EPKhj
__ libARI.dylib: __ZN6AriSdk38ARI_IBIImsMEConfigureRTTMediaRspCb_SDKD1Ev
__ libARI.dylib: __ZN6AriSdk38ARI_IBISipMsgInjectToCpIMSTraceReq_SDKC1Ev
__ libARI.dylib: __ZN6AriSdk38ARI_IBISipMsgInjectToCpIMSTraceReq_SDKD1Ev
__ libARI.dylib: __ZN6AriSdk39ARI_IBIImsMEGetMediaCapabilityRspCb_SDKC1EPKhj
__ libARI.dylib: __ZN6AriSdk39ARI_IBIImsMEGetMediaCapabilityRspCb_SDKD1Ev
__ libARI.dylib: __ZN6AriSdk39ARI_IBIImsMERtcpReceiverReportIndCb_SDK6unpackEv
__ libARI.dylib: __ZN6AriSdk39ARI_IBIImsMERtcpReceiverReportIndCb_SDKC1EPKhj
__ libARI.dylib: __ZN6AriSdk39ARI_IBIImsMERtcpReceiverReportIndCb_SDKD1Ev
__ libARI.dylib: __ZN6AriSdk40ARI_IBIImsMEConfigureAudioMediaRspCb_SDK6unpackEv
__ libARI.dylib: __ZN6AriSdk40ARI_IBIImsMEConfigureAudioMediaRspCb_SDKC1EPKhj
__ libARI.dylib: __ZN6AriSdk40ARI_IBIImsMEConfigureAudioMediaRspCb_SDKD1Ev
__ libARI.dylib: __ZN6AriSdk40ARI_IBIImsMECreateRTTMediaSessionReq_SDKC1Ev
__ libARI.dylib: __ZN6AriSdk40ARI_IBIImsMECreateRTTMediaSessionReq_SDKD1Ev
__ libARI.dylib: __ZN6AriSdk40ARI_IBIImsMETerminateMediaSessionReq_SDKC1Ev
__ libARI.dylib: __ZN6AriSdk40ARI_IBIImsMETerminateMediaSessionReq_SDKD1Ev
__ libARI.dylib: __ZN6AriSdk41ARI_IBINetCellLteAcBarringStatusIndCb_SDK6unpackEv
__ libARI.dylib: __ZN6AriSdk41ARI_IBINetCellLteAcBarringStatusIndCb_SDKC1EPKhj
__ libARI.dylib: __ZN6AriSdk41ARI_IBINetCellLteAcBarringStatusIndCb_SDKD1Ev
__ libARI.dylib: __ZN6AriSdk42ARI_IBIImsMECreateAudioMediaSessionReq_SDKC1Ev
__ libARI.dylib: __ZN6AriSdk42ARI_IBIImsMECreateAudioMediaSessionReq_SDKD1Ev
__ libARI.dylib: __ZN6AriSdk42ARI_IBIImsMECreateRTTMediaSessionRspCb_SDK6unpackEv
__ libARI.dylib: __ZN6AriSdk42ARI_IBIImsMECreateRTTMediaSessionRspCb_SDKC1EPKhj
__ libARI.dylib: __ZN6AriSdk42ARI_IBIImsMECreateRTTMediaSessionRspCb_SDKD1Ev
__ libARI.dylib: __ZN6AriSdk42ARI_IBIImsMETerminateMediaSessionRspCb_SDK6unpackEv
__ libARI.dylib: __ZN6AriSdk42ARI_IBIImsMETerminateMediaSessionRspCb_SDKC1EPKhj
__ libARI.dylib: __ZN6AriSdk42ARI_IBIImsMETerminateMediaSessionRspCb_SDKD1Ev
__ libARI.dylib: __ZN6AriSdk44ARI_IBIImsMECreateAudioMediaSessionRspCb_SDK6unpackEv
__ libARI.dylib: __ZN6AriSdk44ARI_IBIImsMECreateAudioMediaSessionRspCb_SDKC1EPKhj
__ libARI.dylib: __ZN6AriSdk44ARI_IBIImsMECreateAudioMediaSessionRspCb_SDKD1Ev
__ libARI.dylib: __ZN6AriSdk44ARI_IBINetDcImsRegistrationStatusInfoReq_SDKC1Ev
__ libARI.dylib: __ZN6AriSdk44ARI_IBINetDcImsRegistrationStatusInfoReq_SDKD1Ev
__ libARI.dylib: __ZN6AriSdk46ARI_IBINetDcImsRegistrationStatusInfoRspCb_SDK6unpackEv
__ libARI.dylib: __ZN6AriSdk46ARI_IBINetDcImsRegistrationStatusInfoRspCb_SDKC1EPKhj
__ libARI.dylib: __ZN6AriSdk46ARI_IBINetDcImsRegistrationStatusInfoRspCb_SDKD1Ev
__ libARI.dylib: __ZN6AriSdk52ARI_IBIMsCallCsVoimsProvideMMTelSessionStatusReq_SDKC1Ev
__ libARI.dylib: __ZN6AriSdk52ARI_IBIMsCallCsVoimsProvideMMTelSessionStatusReq_SDKD1Ev
__ libARI.dylib: __ZN6AriSdk54ARI_IBIMsCallCsVoimsProvideMMTelSessionStatusRspCb_SDK6unpackEv
__ libARI.dylib: __ZN6AriSdk54ARI_IBIMsCallCsVoimsProvideMMTelSessionStatusRspCb_SDKC1EPKhj
__ libARI.dylib: __ZN6AriSdk54ARI_IBIMsCallCsVoimsProvideMMTelSessionStatusRspCb_SDKD1Ev
__ libARI.dylib: __ZNK6AriSdk7MsgBase7getGMIDEv
__ libATCommandStudioDynamic.dylib: __ZN13QMIServiceMsg6createERKN3qmi18MutableMessageBaseE
__ libATCommandStudioDynamic.dylib: __ZN3qmi6Client6createERKNSt3__112basic_stringIcNS1_11char_traitsIcEENS1_9allocatorIcEEEENS_11ServiceTypeEP16dispatch_queue_sS9_P17_xpc_connection_s
__ libATCommandStudioDynamic.dylib: __ZN3qmi6Client7releaseEv
__ libATCommandStudioDynamic.dylib: __ZN3qmi6ClientD1Ev
__ libATCommandStudioDynamic.dylib: __ZNK13QMIServiceMsg11getNewErrorEv
__ libATCommandStudioDynamic.dylib: __ZNK13QMIServiceMsg9serializeEv
__ libATCommandStudioDynamic.dylib: __ZNK3qmi6Client10setHandlerENS0_5EventEU13block_pointerFvvE
__ libATCommandStudioDynamic.dylib: __ZNK3qmi6Client13setIndHandlerEtU13block_pointerFvRK13QMIServiceMsgE
__ libATCommandStudioDynamic.dylib: __ZNK3qmi6Client16setIndShouldWakeEtb
__ libATCommandStudioDynamic.dylib: __ZNK3qmi6Client4sendERNS0_9SendProxyE
__ libATCommandStudioDynamic.dylib: __ZNK3qmi6Client4stopEv
__ libATCommandStudioDynamic.dylib: __ZNK3qmi6Client5startEv
__ libICEClient.dylib: __ZN3ice16SendMsgBaseProxyC1ENSt3__110shared_ptrINS_6ClientEEERN6AriSdk7MsgBaseE
__ libICEClient.dylib: __ZN3ice16SendMsgBaseProxyD1Ev
__ libICEClient.dylib: __ZN3ice18isARIResponseValidERKN6AriSdk7MsgBaseEj
__ libICEClient.dylib: __ZN3ice6Client16setIndShouldWakeEjb
__ libICEClient.dylib: __ZN3ice6Client21regIndicationInternalEjN8dispatch5blockIU13block_pointerFiPhjEEE
__ libICEClient.dylib: __ZN3ice6Client23regEventHandlerInternalENS0_5EventEN8dispatch5blockIU13block_pointerFiP16dispatch_group_sEEE
__ libICEClient.dylib: __ZN3ice6Client5startEv
__ libICEClient.dylib: __ZN3ice6Client6createEN8dispatch5queueERKNSt3__112basic_stringIcNS3_11char_traitsIcEENS3_9allocatorIcEEEENS3_10shared_ptrIN3ctu9LogServerEEE
__ libICEClient.dylib: __ZNR3ice16SendMsgBaseProxy8callbackEN8dispatch5blockIU13block_pointerFiPhjEEE
__ libMobileGestalt.dylib: _MGCopyAnswer
__ libQMIParserDynamic.dylib: __ZN3qmi11MessageBase13validateMsgIdEt
__ libQMIParserDynamic.dylib: __ZN3qmi11MessageBase20sParsingErrorHandlerE
__ libQMIParserDynamic.dylib: __ZN3qmi11MessageBaseC2EPKvm
__ libQMIParserDynamic.dylib: __ZN3qmi11MessageBaseC2EtNS_5ErrorE
__ libQMIParserDynamic.dylib: __ZN3qmi11MessageBaseD2Ev
__ libQMIParserDynamic.dylib: __ZN3qmi12ResponseBaseC2EPKvm
__ libQMIParserDynamic.dylib: __ZN3qmi18MutableMessageBaseC2Et
__ libQMIParserDynamic.dylib: __ZN3qmi18MutableMessageBaseD2Ev
__ libQMIParserDynamic.dylib: __ZN3qmi18MutableMessageBaseaSEOS0_
__ libQMIParserDynamic.dylib: __ZN3qmi8asStringENS_5ErrorE
__ libQMIParserDynamic.dylib: __ZNK3qmi11MessageBase12findTlvValueEt
__ libSystem.B.dylib: _CCHmac
__ libSystem.B.dylib: _CC_MD5_Final
__ libSystem.B.dylib: _CC_MD5_Init
__ libSystem.B.dylib: _CC_MD5_Update
__ libSystem.B.dylib: _CC_SHA1_Final
__ libSystem.B.dylib: _CC_SHA1_Init
__ libSystem.B.dylib: _CC_SHA1_Update
__ libSystem.B.dylib: _CC_SHA256_Final
__ libSystem.B.dylib: _CC_SHA256_Init
__ libSystem.B.dylib: _CC_SHA256_Update
__ libSystem.B.dylib: __Block_copy
__ libSystem.B.dylib: __Block_object_assign
__ libSystem.B.dylib: __Block_object_dispose
__ libSystem.B.dylib: __Block_release
__ libSystem.B.dylib: __DefaultRuneLocale
__ libSystem.B.dylib: __NSConcreteGlobalBlock
__ libSystem.B.dylib: __NSConcreteStackBlock
__ libSystem.B.dylib: __Unwind_Resume
__ libSystem.B.dylib: ___assert_rtn
__ libSystem.B.dylib: ___chkstk_darwin
__ libSystem.B.dylib: ___cxa_atexit
__ libSystem.B.dylib: ___error
__ libSystem.B.dylib: ___stack_chk_fail
__ libSystem.B.dylib: ___stack_chk_guard
__ libSystem.B.dylib: ___tolower
__ libSystem.B.dylib: ___toupper
__ libSystem.B.dylib: __dispatch_main_q
__ libSystem.B.dylib: __os_log_default
__ libSystem.B.dylib: __os_log_error_impl
__ libSystem.B.dylib: __os_log_impl
__ libSystem.B.dylib: __xpc_error_connection_interrupted
__ libSystem.B.dylib: __xpc_error_connection_invalid
__ libSystem.B.dylib: __xpc_error_key_description
__ libSystem.B.dylib: __xpc_type_array
__ libSystem.B.dylib: __xpc_type_bool
__ libSystem.B.dylib: __xpc_type_connection
__ libSystem.B.dylib: __xpc_type_data
__ libSystem.B.dylib: __xpc_type_date
__ libSystem.B.dylib: __xpc_type_dictionary
__ libSystem.B.dylib: __xpc_type_double
__ libSystem.B.dylib: __xpc_type_error
__ libSystem.B.dylib: __xpc_type_fd
__ libSystem.B.dylib: __xpc_type_int64
__ libSystem.B.dylib: __xpc_type_null
__ libSystem.B.dylib: __xpc_type_shmem
__ libSystem.B.dylib: __xpc_type_string
__ libSystem.B.dylib: __xpc_type_uint64
__ libSystem.B.dylib: __xpc_type_uuid
__ libSystem.B.dylib: _atoi
__ libSystem.B.dylib: _atol
__ libSystem.B.dylib: _atoll
__ libSystem.B.dylib: _bind
__ libSystem.B.dylib: _bzero
__ libSystem.B.dylib: _close
__ libSystem.B.dylib: _ctime_r
__ libSystem.B.dylib: _dispatch_after
__ libSystem.B.dylib: _dispatch_async
__ libSystem.B.dylib: _dispatch_get_global_queue
__ libSystem.B.dylib: _dispatch_once
__ libSystem.B.dylib: _dispatch_once_f
__ libSystem.B.dylib: _dispatch_queue_create
__ libSystem.B.dylib: _dispatch_release
__ libSystem.B.dylib: _dispatch_retain
__ libSystem.B.dylib: _dispatch_set_context
__ libSystem.B.dylib: _dispatch_set_finalizer_f
__ libSystem.B.dylib: _dispatch_set_target_queue
__ libSystem.B.dylib: _dispatch_sync
__ libSystem.B.dylib: _dispatch_time
__ libSystem.B.dylib: _dlclose
__ libSystem.B.dylib: _dlopen
__ libSystem.B.dylib: _dlsym
__ libSystem.B.dylib: _fclose
__ libSystem.B.dylib: _fflush
__ libSystem.B.dylib: _fopen
__ libSystem.B.dylib: _fread
__ libSystem.B.dylib: _free
__ libSystem.B.dylib: _freeaddrinfo
__ libSystem.B.dylib: _freeifaddrs
__ libSystem.B.dylib: _fseek
__ libSystem.B.dylib: _fseeko
__ libSystem.B.dylib: _ftello
__ libSystem.B.dylib: _fwrite
__ libSystem.B.dylib: _gai_strerror
__ libSystem.B.dylib: _getaddrinfo
__ libSystem.B.dylib: _getifaddrs
__ libSystem.B.dylib: _getnameinfo
__ libSystem.B.dylib: _getpeername
__ libSystem.B.dylib: _getpwnam_r
__ libSystem.B.dylib: _getpwuid_r
__ libSystem.B.dylib: _getsockname
__ libSystem.B.dylib: _gettimeofday
__ libSystem.B.dylib: _getuid
__ libSystem.B.dylib: _gmtime_r
__ libSystem.B.dylib: _if_nametoindex
__ libSystem.B.dylib: _in6addr_any
__ libSystem.B.dylib: _inet_ntop
__ libSystem.B.dylib: _inet_pton
__ libSystem.B.dylib: _ioctl
__ libSystem.B.dylib: _listen
__ libSystem.B.dylib: _localtime_r
__ libSystem.B.dylib: _memchr
__ libSystem.B.dylib: _memcmp
__ libSystem.B.dylib: _memcpy
__ libSystem.B.dylib: _memmove
__ libSystem.B.dylib: _memset
__ libSystem.B.dylib: _os_log_create
__ libSystem.B.dylib: _os_log_type_enabled
__ libSystem.B.dylib: _os_release
__ libSystem.B.dylib: _os_variant_has_internal_content
__ libSystem.B.dylib: _pthread_mutex_destroy
__ libSystem.B.dylib: _pthread_mutex_init
__ libSystem.B.dylib: _pthread_mutex_lock
__ libSystem.B.dylib: _pthread_mutex_unlock
__ libSystem.B.dylib: _pthread_once
__ libSystem.B.dylib: _random
__ libSystem.B.dylib: _read
__ libSystem.B.dylib: _readlink
__ libSystem.B.dylib: _select
__ libSystem.B.dylib: _send
__ libSystem.B.dylib: _sendto
__ libSystem.B.dylib: _setsockopt
__ libSystem.B.dylib: _shutdown
__ libSystem.B.dylib: _snprintf
__ libSystem.B.dylib: _socket
__ libSystem.B.dylib: _srandomdev
__ libSystem.B.dylib: _stat
__ libSystem.B.dylib: _strcasecmp
__ libSystem.B.dylib: _strchr
__ libSystem.B.dylib: _strcmp
__ libSystem.B.dylib: _strerror_r
__ libSystem.B.dylib: _strlen
__ libSystem.B.dylib: _strncasecmp
__ libSystem.B.dylib: _strncpy
__ libSystem.B.dylib: _strtod
__ libSystem.B.dylib: _strtol
__ libSystem.B.dylib: _strtoul
__ libSystem.B.dylib: _symlink
__ libSystem.B.dylib: _sysconf
__ libSystem.B.dylib: _syslog
__ libSystem.B.dylib: _time
__ libSystem.B.dylib: _timegm
__ libSystem.B.dylib: _unlink
__ libSystem.B.dylib: _uuid_generate
__ libSystem.B.dylib: _uuid_parse
__ libSystem.B.dylib: _uuid_unparse
__ libSystem.B.dylib: _xpc_bool_create
__ libSystem.B.dylib: _xpc_connection_cancel
__ libSystem.B.dylib: _xpc_connection_create_mach_service
__ libSystem.B.dylib: _xpc_connection_get_pid
__ libSystem.B.dylib: _xpc_connection_resume
__ libSystem.B.dylib: _xpc_connection_send_message
__ libSystem.B.dylib: _xpc_connection_send_message_with_reply
__ libSystem.B.dylib: _xpc_connection_set_event_handler
__ libSystem.B.dylib: _xpc_connection_set_target_queue
__ libSystem.B.dylib: _xpc_copy_description
__ libSystem.B.dylib: _xpc_dictionary_create
__ libSystem.B.dylib: _xpc_dictionary_create_reply
__ libSystem.B.dylib: _xpc_dictionary_get_remote_connection
__ libSystem.B.dylib: _xpc_dictionary_get_string
__ libSystem.B.dylib: _xpc_dictionary_get_value
__ libSystem.B.dylib: _xpc_dictionary_set_fd
__ libSystem.B.dylib: _xpc_dictionary_set_value
__ libSystem.B.dylib: _xpc_get_type
__ libSystem.B.dylib: _xpc_int64_create
__ libSystem.B.dylib: _xpc_null_create
__ libSystem.B.dylib: _xpc_release
__ libSystem.B.dylib: _xpc_retain
__ libSystem.B.dylib: _xpc_string_create
__ libSystem.B.dylib: _xpc_string_get_string_ptr
__ libSystem.B.dylib: _xpc_uint64_create
__ libSystem.B.dylib: dyld_stub_binder
__ libTelephonyUtilDynamic.dylib: _TelephonyRadiosGetRadio
__ libTelephonyUtilDynamic.dylib: _TelephonyRadiosGetRadioVendor
__ libTelephonyUtilDynamic.dylib: __ZN3ctu2cf4showEPKv
__ libTelephonyUtilDynamic.dylib: __ZN3ctu2cf6assignERNSt3__112basic_stringIcNS1_11char_traitsIcEENS1_9allocatorIcEEEEPK10__CFString
__ libTelephonyUtilDynamic.dylib: __ZN3ctu2cf6assignERNSt3__112basic_stringIcNS1_11char_traitsIcEENS1_9allocatorIcEEEEPKv
__ libTelephonyUtilDynamic.dylib: __ZN3ctu2cf6assignERNSt3__16vectorIhNS1_9allocatorIhEEEEPK8__CFData
__ libTelephonyUtilDynamic.dylib: __ZN3ctu2cf6assignERbPK11__CFBoolean
__ libTelephonyUtilDynamic.dylib: __ZN3ctu2cf6assignERdPK10__CFNumber
__ libTelephonyUtilDynamic.dylib: __ZN3ctu2cf6assignERhPK10__CFNumber
__ libTelephonyUtilDynamic.dylib: __ZN3ctu2cf6assignERiPK10__CFNumber
__ libTelephonyUtilDynamic.dylib: __ZN3ctu2cf6assignERjPK10__CFNumber
__ libTelephonyUtilDynamic.dylib: __ZN3ctu9LogServer6createERKNSt3__112basic_stringIcNS1_11char_traitsIcEENS1_9allocatorIcEEEE
__ libTelephonyUtilDynamic.dylib: __ZN3ctu9LogServer9addWriterENSt3__110shared_ptrINS_9LogWriterEEE
__ libTelephonyUtilDynamic.dylib: __ZN3ctu9LogWriter13getFullConfigEv
__ libTelephonyUtilDynamic.dylib: __ZN3ctu9LogWriter15getSimpleConfigEv
__ libTelephonyUtilDynamic.dylib: __ZN3ctu9LogWriter5flushEN8dispatch13group_sessionE
__ libTelephonyUtilDynamic.dylib: __ZN3ctu9LogWriter5writeENSt3__110shared_ptrINS_10LogMessageEEE
__ libTelephonyUtilDynamic.dylib: __ZN3ctu9cf_to_xpcEPKv
__ libTelephonyUtilDynamic.dylib: __ZN3xpc19dyn_cast_or_defaultERKNS_6objectERKNSt3__112basic_stringIcNS3_11char_traitsIcEENS3_9allocatorIcEEEE
__ libTelephonyUtilDynamic.dylib: __ZN3xpc19dyn_cast_or_defaultERKNS_6objectEb
__ libTelephonyUtilDynamic.dylib: __ZN3xpc19dyn_cast_or_defaultERKNS_6objectEi
__ libTelephonyUtilDynamic.dylib: __ZN3xpc19dyn_cast_or_defaultERKNS_6objectEx
__ libTelephonyUtilDynamic.dylib: __ZN3xpc6bridgeERKNS_6objectE
__ libTelephonyUtilDynamic.dylib: __ZTIN3ctu9LogWriterE
__ libc++.1.dylib: __ZNKSt3__112basic_stringIcNS_11char_traitsIcEENS_9allocatorIcEEE2atEm
__ libc++.1.dylib: __ZNKSt3__112basic_stringIcNS_11char_traitsIcEENS_9allocatorIcEEE4findEcm
__ libc++.1.dylib: __ZNKSt3__112basic_stringIcNS_11char_traitsIcEENS_9allocatorIcEEE5rfindEcm
__ libc++.1.dylib: __ZNKSt3__112basic_stringIcNS_11char_traitsIcEENS_9allocatorIcEEE7compareEPKc
__ libc++.1.dylib: __ZNKSt3__112basic_stringIcNS_11char_traitsIcEENS_9allocatorIcEEE7compareEmmPKc
__ libc++.1.dylib: __ZNKSt3__112basic_stringIcNS_11char_traitsIcEENS_9allocatorIcEEE7compareEmmPKcm
__ libc++.1.dylib: __ZNKSt3__119__shared_weak_count13__get_deleterERKSt9type_info
__ libc++.1.dylib: __ZNKSt3__120__vector_base_commonILb1EE20__throw_length_errorEv
__ libc++.1.dylib: __ZNKSt3__120__vector_base_commonILb1EE20__throw_out_of_rangeEv
__ libc++.1.dylib: __ZNKSt3__121__basic_string_commonILb1EE20__throw_length_errorEv
__ libc++.1.dylib: __ZNKSt3__16locale9has_facetERNS0_2idE
__ libc++.1.dylib: __ZNKSt3__16locale9use_facetERNS0_2idE
__ libc++.1.dylib: __ZNKSt3__18ios_base6getlocEv
__ libc++.1.dylib: __ZNKSt9exception4whatEv
__ libc++.1.dylib: __ZNSt11logic_errorC2EPKc
__ libc++.1.dylib: __ZNSt11logic_errorC2ERKS_
__ libc++.1.dylib: __ZNSt12length_errorD1Ev
__ libc++.1.dylib: __ZNSt12out_of_rangeD1Ev
__ libc++.1.dylib: __ZNSt16invalid_argumentD1Ev
__ libc++.1.dylib: __ZNSt3__112__next_primeEm
__ libc++.1.dylib: __ZNSt3__112bad_weak_ptrD1Ev
__ libc++.1.dylib: __ZNSt3__112basic_stringIcNS_11char_traitsIcEENS_9allocatorIcEEE5eraseEmm
__ libc++.1.dylib: __ZNSt3__112basic_stringIcNS_11char_traitsIcEENS_9allocatorIcEEE6appendEPKc
__ libc++.1.dylib: __ZNSt3__112basic_stringIcNS_11char_traitsIcEENS_9allocatorIcEEE6appendEPKcm
__ libc++.1.dylib: __ZNSt3__112basic_stringIcNS_11char_traitsIcEENS_9allocatorIcEEE6appendEmc
__ libc++.1.dylib: __ZNSt3__112basic_stringIcNS_11char_traitsIcEENS_9allocatorIcEEE6assignEPKc
__ libc++.1.dylib: __ZNSt3__112basic_stringIcNS_11char_traitsIcEENS_9allocatorIcEEE6assignEPKcm
__ libc++.1.dylib: __ZNSt3__112basic_stringIcNS_11char_traitsIcEENS_9allocatorIcEEE6assignERKS5_mm
__ libc++.1.dylib: __ZNSt3__112basic_stringIcNS_11char_traitsIcEENS_9allocatorIcEEE6insertEmPKc
__ libc++.1.dylib: __ZNSt3__112basic_stringIcNS_11char_traitsIcEENS_9allocatorIcEEE6insertEmPKcm
__ libc++.1.dylib: __ZNSt3__112basic_stringIcNS_11char_traitsIcEENS_9allocatorIcEEE6resizeEmc
__ libc++.1.dylib: __ZNSt3__112basic_stringIcNS_11char_traitsIcEENS_9allocatorIcEEE9push_backEc
__ libc++.1.dylib: __ZNSt3__112basic_stringIcNS_11char_traitsIcEENS_9allocatorIcEEEC1ERKS5_
__ libc++.1.dylib: __ZNSt3__112basic_stringIcNS_11char_traitsIcEENS_9allocatorIcEEEC1ERKS5_mmRKS4_
__ libc++.1.dylib: __ZNSt3__112basic_stringIcNS_11char_traitsIcEENS_9allocatorIcEEED1Ev
__ libc++.1.dylib: __ZNSt3__112basic_stringIcNS_11char_traitsIcEENS_9allocatorIcEEEaSERKS5_
__ libc++.1.dylib: __ZNSt3__112basic_stringIcNS_11char_traitsIcEENS_9allocatorIcEEEaSEc
__ libc++.1.dylib: __ZNSt3__113basic_istreamIcNS_11char_traitsIcEEE3getEv
__ libc++.1.dylib: __ZNSt3__113basic_istreamIcNS_11char_traitsIcEEE6sentryC1ERS3_b
__ libc++.1.dylib: __ZNSt3__113basic_istreamIcNS_11char_traitsIcEEED0Ev
__ libc++.1.dylib: __ZNSt3__113basic_istreamIcNS_11char_traitsIcEEED1Ev
__ libc++.1.dylib: __ZNSt3__113basic_istreamIcNS_11char_traitsIcEEED2Ev
__ libc++.1.dylib: __ZNSt3__113basic_istreamIcNS_11char_traitsIcEEErsERj
__ libc++.1.dylib: __ZNSt3__113basic_istreamIcNS_11char_traitsIcEEErsERt
__ libc++.1.dylib: __ZNSt3__113basic_istreamIcNS_11char_traitsIcEEErsERy
__ libc++.1.dylib: __ZNSt3__113basic_ostreamIcNS_11char_traitsIcEEE3putEc
__ libc++.1.dylib: __ZNSt3__113basic_ostreamIcNS_11char_traitsIcEEE5flushEv
__ libc++.1.dylib: __ZNSt3__113basic_ostreamIcNS_11char_traitsIcEEE6sentryC1ERS3_
__ libc++.1.dylib: __ZNSt3__113basic_ostreamIcNS_11char_traitsIcEEE6sentryD1Ev
__ libc++.1.dylib: __ZNSt3__113basic_ostreamIcNS_11char_traitsIcEEED0Ev
__ libc++.1.dylib: __ZNSt3__113basic_ostreamIcNS_11char_traitsIcEEED1Ev
__ libc++.1.dylib: __ZNSt3__113basic_ostreamIcNS_11char_traitsIcEEED2Ev
__ libc++.1.dylib: __ZNSt3__113basic_ostreamIcNS_11char_traitsIcEEElsEPKv
__ libc++.1.dylib: __ZNSt3__113basic_ostreamIcNS_11char_traitsIcEEElsEb
__ libc++.1.dylib: __ZNSt3__113basic_ostreamIcNS_11char_traitsIcEEElsEd
__ libc++.1.dylib: __ZNSt3__113basic_ostreamIcNS_11char_traitsIcEEElsEi
__ libc++.1.dylib: __ZNSt3__113basic_ostreamIcNS_11char_traitsIcEEElsEj
__ libc++.1.dylib: __ZNSt3__113basic_ostreamIcNS_11char_traitsIcEEElsEl
__ libc++.1.dylib: __ZNSt3__113basic_ostreamIcNS_11char_traitsIcEEElsEm
__ libc++.1.dylib: __ZNSt3__113basic_ostreamIcNS_11char_traitsIcEEElsEs
__ libc++.1.dylib: __ZNSt3__113basic_ostreamIcNS_11char_traitsIcEEElsEt
__ libc++.1.dylib: __ZNSt3__113basic_ostreamIcNS_11char_traitsIcEEElsEy
__ libc++.1.dylib: __ZNSt3__113random_deviceC1ERKNS_12basic_stringIcNS_11char_traitsIcEENS_9allocatorIcEEEE
__ libc++.1.dylib: __ZNSt3__113random_deviceD1Ev
__ libc++.1.dylib: __ZNSt3__113random_deviceclEv
__ libc++.1.dylib: __ZNSt3__114basic_iostreamIcNS_11char_traitsIcEEED0Ev
__ libc++.1.dylib: __ZNSt3__114basic_iostreamIcNS_11char_traitsIcEEED1Ev
__ libc++.1.dylib: __ZNSt3__114basic_iostreamIcNS_11char_traitsIcEEED2Ev
__ libc++.1.dylib: __ZNSt3__115basic_streambufIcNS_11char_traitsIcEEE4syncEv
__ libc++.1.dylib: __ZNSt3__115basic_streambufIcNS_11char_traitsIcEEE5imbueERKNS_6localeE
__ libc++.1.dylib: __ZNSt3__115basic_streambufIcNS_11char_traitsIcEEE5uflowEv
__ libc++.1.dylib: __ZNSt3__115basic_streambufIcNS_11char_traitsIcEEE6setbufEPcl
__ libc++.1.dylib: __ZNSt3__115basic_streambufIcNS_11char_traitsIcEEE6xsgetnEPcl
__ libc++.1.dylib: __ZNSt3__115basic_streambufIcNS_11char_traitsIcEEE6xsputnEPKcl
__ libc++.1.dylib: __ZNSt3__115basic_streambufIcNS_11char_traitsIcEEE7seekoffExNS_8ios_base7seekdirEj
__ libc++.1.dylib: __ZNSt3__115basic_streambufIcNS_11char_traitsIcEEE7seekposENS_4fposI11__mbstate_tEEj
__ libc++.1.dylib: __ZNSt3__115basic_streambufIcNS_11char_traitsIcEEE9pbackfailEi
__ libc++.1.dylib: __ZNSt3__115basic_streambufIcNS_11char_traitsIcEEE9showmanycEv
__ libc++.1.dylib: __ZNSt3__115basic_streambufIcNS_11char_traitsIcEEE9underflowEv
__ libc++.1.dylib: __ZNSt3__115basic_streambufIcNS_11char_traitsIcEEEC2Ev
__ libc++.1.dylib: __ZNSt3__115basic_streambufIcNS_11char_traitsIcEEED2Ev
__ libc++.1.dylib: __ZNSt3__119__shared_weak_count14__release_weakEv
__ libc++.1.dylib: __ZNSt3__119__shared_weak_count4lockEv
__ libc++.1.dylib: __ZNSt3__119__shared_weak_countD2Ev
__ libc++.1.dylib: __ZNSt3__14cerrE
__ libc++.1.dylib: __ZNSt3__14coutE
__ libc++.1.dylib: __ZNSt3__14stoiERKNS_12basic_stringIcNS_11char_traitsIcEENS_9allocatorIcEEEEPmi
__ libc++.1.dylib: __ZNSt3__15ctypeIcE2idE
__ libc++.1.dylib: __ZNSt3__16chrono12system_clock3nowEv
__ libc++.1.dylib: __ZNSt3__16localeC1ERKS0_
__ libc++.1.dylib: __ZNSt3__16localeD1Ev
__ libc++.1.dylib: __ZNSt3__17codecvtIcc11__mbstate_tE2idE
__ libc++.1.dylib: __ZNSt3__18ios_base33__set_badbit_and_consider_rethrowEv
__ libc++.1.dylib: __ZNSt3__18ios_base4initEPv
__ libc++.1.dylib: __ZNSt3__18ios_base5clearEj
__ libc++.1.dylib: __ZNSt3__19basic_iosIcNS_11char_traitsIcEEED2Ev
__ libc++.1.dylib: __ZNSt3__19to_stringEd
__ libc++.1.dylib: __ZNSt3__19to_stringEi
__ libc++.1.dylib: __ZNSt3__19to_stringEj
__ libc++.1.dylib: __ZNSt3__19to_stringEm
__ libc++.1.dylib: __ZNSt3__19to_stringEy
__ libc++.1.dylib: __ZNSt3__1plIcNS_11char_traitsIcEENS_9allocatorIcEEEENS_12basic_stringIT_T0_T1_EEPKS6_RKS9_
__ libc++.1.dylib: __ZNSt8bad_castC1Ev
__ libc++.1.dylib: __ZNSt8bad_castD1Ev
__ libc++.1.dylib: __ZNSt9exceptionD2Ev
__ libc++.1.dylib: __ZSt9terminatev
__ libc++.1.dylib: __ZTINSt3__112bad_weak_ptrE
__ libc++.1.dylib: __ZTINSt3__113basic_istreamIcNS_11char_traitsIcEEEE
__ libc++.1.dylib: __ZTINSt3__113basic_ostreamIcNS_11char_traitsIcEEEE
__ libc++.1.dylib: __ZTINSt3__114basic_iostreamIcNS_11char_traitsIcEEEE
__ libc++.1.dylib: __ZTINSt3__115basic_streambufIcNS_11char_traitsIcEEEE
__ libc++.1.dylib: __ZTINSt3__119__shared_weak_countE
__ libc++.1.dylib: __ZTISt12length_error
__ libc++.1.dylib: __ZTISt12out_of_range
__ libc++.1.dylib: __ZTISt16invalid_argument
__ libc++.1.dylib: __ZTISt8bad_cast
__ libc++.1.dylib: __ZTISt9exception
__ libc++.1.dylib: __ZTVN10__cxxabiv117__class_type_infoE
__ libc++.1.dylib: __ZTVN10__cxxabiv120__si_class_type_infoE
__ libc++.1.dylib: __ZTVN10__cxxabiv121__vmi_class_type_infoE
__ libc++.1.dylib: __ZTVNSt3__112bad_weak_ptrE
__ libc++.1.dylib: __ZTVNSt3__113basic_ostreamIcNS_11char_traitsIcEEEE
__ libc++.1.dylib: __ZTVSt12length_error
__ libc++.1.dylib: __ZTVSt12out_of_range
__ libc++.1.dylib: __ZTVSt16invalid_argument
__ libc++.1.dylib: __ZThn16_NSt3__114basic_iostreamIcNS_11char_traitsIcEEED0Ev
__ libc++.1.dylib: __ZThn16_NSt3__114basic_iostreamIcNS_11char_traitsIcEEED1Ev
__ libc++.1.dylib: __ZTv0_n24_NSt3__113basic_istreamIcNS_11char_traitsIcEEED0Ev
__ libc++.1.dylib: __ZTv0_n24_NSt3__113basic_istreamIcNS_11char_traitsIcEEED1Ev
__ libc++.1.dylib: __ZTv0_n24_NSt3__113basic_ostreamIcNS_11char_traitsIcEEED0Ev
__ libc++.1.dylib: __ZTv0_n24_NSt3__113basic_ostreamIcNS_11char_traitsIcEEED1Ev
__ libc++.1.dylib: __ZTv0_n24_NSt3__114basic_iostreamIcNS_11char_traitsIcEEED0Ev
__ libc++.1.dylib: __ZTv0_n24_NSt3__114basic_iostreamIcNS_11char_traitsIcEEED1Ev
__ libc++.1.dylib: __ZdaPv
__ libc++.1.dylib: __ZdlPv
__ libc++.1.dylib: __Znam
__ libc++.1.dylib: __Znwm
__ libc++.1.dylib: ___cxa_allocate_exception
__ libc++.1.dylib: ___cxa_bad_cast
__ libc++.1.dylib: ___cxa_bad_typeid
__ libc++.1.dylib: ___cxa_begin_catch
__ libc++.1.dylib: ___cxa_end_catch
__ libc++.1.dylib: ___cxa_free_exception
__ libc++.1.dylib: ___cxa_get_exception_ptr
__ libc++.1.dylib: ___cxa_guard_abort
__ libc++.1.dylib: ___cxa_guard_acquire
__ libc++.1.dylib: ___cxa_guard_release
__ libc++.1.dylib: ___cxa_pure_virtual
__ libc++.1.dylib: ___cxa_rethrow
__ libc++.1.dylib: ___cxa_throw
__ libc++.1.dylib: ___dynamic_cast
__ libc++.1.dylib: ___gxx_personality_v0
__ libobjc.A.dylib: _OBJC_CLASS_$_NSObject
__ libobjc.A.dylib: _OBJC_METACLASS_$_NSObject
__ libobjc.A.dylib: __objc_empty_cache
__ libobjc.A.dylib: _objc_alloc
__ libobjc.A.dylib: _objc_alloc_init
__ libobjc.A.dylib: _objc_autorelease
__ libobjc.A.dylib: _objc_autoreleasePoolPop
__ libobjc.A.dylib: _objc_autoreleasePoolPush
__ libobjc.A.dylib: _objc_enumerationMutation
__ libobjc.A.dylib: _objc_getProperty
__ libobjc.A.dylib: _objc_msgSend
__ libobjc.A.dylib: _objc_msgSendSuper2
__ libobjc.A.dylib: _objc_opt_class
__ libobjc.A.dylib: _objc_opt_isKindOfClass
__ libobjc.A.dylib: _objc_opt_new
__ libobjc.A.dylib: _objc_release
__ libobjc.A.dylib: _objc_retain
__ libobjc.A.dylib: _objc_retainAutoreleasedReturnValue
__ libobjc.A.dylib: _objc_setProperty_atomic_copy
__ libobjc.A.dylib: _objc_setProperty_nonatomic
__ libobjc.A.dylib: _objc_storeStrong
__ libprotobuf-lite.dylib: __ZN20wireless_diagnostics6google8protobuf11MessageLiteD2Ev
__ libprotobuf-lite.dylib: __ZN20wireless_diagnostics6google8protobuf2io16CodedInputStream15ReadTagFallbackEv
__ libprotobuf-lite.dylib: __ZN20wireless_diagnostics6google8protobuf2io16CodedInputStream20ReadVarint32FallbackEPj
__ libprotobuf-lite.dylib: __ZN20wireless_diagnostics6google8protobuf2io16CodedInputStream20ReadVarint64FallbackEPy
__ libprotobuf-lite.dylib: __ZN20wireless_diagnostics6google8protobuf2io16CodedInputStream26ReadLittleEndian32FallbackEPj
__ libprotobuf-lite.dylib: __ZN20wireless_diagnostics6google8protobuf2io16CodedInputStream8PopLimitEi
__ libprotobuf-lite.dylib: __ZN20wireless_diagnostics6google8protobuf2io16CodedInputStream9PushLimitEi
__ libprotobuf-lite.dylib: __ZN20wireless_diagnostics6google8protobuf2io17CodedOutputStream12VarintSize64Ey
__ libprotobuf-lite.dylib: __ZN20wireless_diagnostics6google8protobuf2io17CodedOutputStream20VarintSize32FallbackEj
__ libprotobuf-lite.dylib: __ZN20wireless_diagnostics6google8protobuf8internal10LogMessageC1ENS1_8LogLevelEPKci
__ libprotobuf-lite.dylib: __ZN20wireless_diagnostics6google8protobuf8internal10LogMessageD1Ev
__ libprotobuf-lite.dylib: __ZN20wireless_diagnostics6google8protobuf8internal10LogMessagelsEPKc
__ libprotobuf-lite.dylib: __ZN20wireless_diagnostics6google8protobuf8internal10OnShutdownEPFvvE
__ libprotobuf-lite.dylib: __ZN20wireless_diagnostics6google8protobuf8internal11LogFinisheraSERNS2_10LogMessageE
__ libprotobuf-lite.dylib: __ZN20wireless_diagnostics6google8protobuf8internal12kEmptyStringE
__ libprotobuf-lite.dylib: __ZN20wireless_diagnostics6google8protobuf8internal13VerifyVersionEiiPKc
__ libprotobuf-lite.dylib: __ZN20wireless_diagnostics6google8protobuf8internal14WireFormatLite10ReadStringEPNS1_2io16CodedInputStreamEPNSt3__112basic_stringIcNS7_11char_traitsIcEENS7_9allocatorIcEEEE
__ libprotobuf-lite.dylib: __ZN20wireless_diagnostics6google8protobuf8internal14WireFormatLite10WriteInt32EiiPNS1_2io17CodedOutputStreamE
__ libprotobuf-lite.dylib: __ZN20wireless_diagnostics6google8protobuf8internal14WireFormatLite11WriteSInt32EiiPNS1_2io17CodedOutputStreamE
__ libprotobuf-lite.dylib: __ZN20wireless_diagnostics6google8protobuf8internal14WireFormatLite11WriteStringEiRKNSt3__112basic_stringIcNS4_11char_traitsIcEENS4_9allocatorIcEEEEPNS1_2io17CodedOutputStreamE
__ libprotobuf-lite.dylib: __ZN20wireless_diagnostics6google8protobuf8internal14WireFormatLite11WriteUInt32EijPNS1_2io17CodedOutputStreamE
__ libprotobuf-lite.dylib: __ZN20wireless_diagnostics6google8protobuf8internal14WireFormatLite11WriteUInt64EiyPNS1_2io17CodedOutputStreamE
__ libprotobuf-lite.dylib: __ZN20wireless_diagnostics6google8protobuf8internal14WireFormatLite12WriteFixed32EijPNS1_2io17CodedOutputStreamE
__ libprotobuf-lite.dylib: __ZN20wireless_diagnostics6google8protobuf8internal14WireFormatLite12WriteMessageEiRKNS1_11MessageLiteEPNS1_2io17CodedOutputStreamE
__ libprotobuf-lite.dylib: __ZN20wireless_diagnostics6google8protobuf8internal14WireFormatLite9SkipFieldEPNS1_2io16CodedInputStreamEj
__ libprotobuf-lite.dylib: __ZN20wireless_diagnostics6google8protobuf8internal14WireFormatLite9WriteBoolEibPNS1_2io17CodedOutputStreamE
__ libprotobuf-lite.dylib: __ZN20wireless_diagnostics6google8protobuf8internal14WireFormatLite9WriteEnumEiiPNS1_2io17CodedOutputStreamE
__ libprotobuf-lite.dylib: __ZN20wireless_diagnostics6google8protobuf8internal20RepeatedPtrFieldBase7ReserveEi
__ libprotobuf-lite.dylib: __ZN20wireless_diagnostics6google8protobuf8internal21StringTypeHandlerBase3NewEv
__ libprotobuf-lite.dylib: __ZN20wireless_diagnostics6google8protobuf8internal21StringTypeHandlerBase6DeleteEPNSt3__112basic_stringIcNS4_11char_traitsIcEENS4_9allocatorIcEEEE
__ libprotobuf-lite.dylib: __ZNK20wireless_diagnostics6google8protobuf11MessageLite25InitializationErrorStringEv
__ libprotobuf-lite.dylib: __ZNK20wireless_diagnostics6google8protobuf11MessageLite31SerializeWithCachedSizesToArrayEPh
__ libprotobuf-lite.dylib: __ZNK20wireless_diagnostics6google8protobuf2io16CodedInputStream15BytesUntilLimitEv
__ libprotobuf-lite.dylib: __ZTIN20wireless_diagnostics6google8protobuf11MessageLiteE
__ libxml2.2.dylib: ___xmlIndentTreeOutput
__ libxml2.2.dylib: _xmlAddChild
__ libxml2.2.dylib: _xmlDocDumpFormatMemory
__ libxml2.2.dylib: _xmlDocGetRootElement
__ libxml2.2.dylib: _xmlDocSetRootElement
__ libxml2.2.dylib: _xmlFree
__ libxml2.2.dylib: _xmlFreeDoc
__ libxml2.2.dylib: _xmlNewDoc
__ libxml2.2.dylib: _xmlNewNode
__ libxml2.2.dylib: _xmlNewNs
__ libxml2.2.dylib: _xmlNewProp
__ libxml2.2.dylib: _xmlNewText
__ libxml2.2.dylib: _xmlNewTextChild
__ libxml2.2.dylib: _xmlNodeSetName
__ libxml2.2.dylib: _xmlReadMemory
__ libxml2.2.dylib: _xmlSetNs
