|| __DATA.__common _ats_symbolication_log
|| __TEXT.__const _AppleTracingSupportSymbolicationVersionNumber
|| __TEXT.__const _AppleTracingSupportSymbolicationVersionString
|| __TEXT.__text __Z26ats_symbolication_log_initv
|| __TEXT.__text __ZN10SourceInfo26initializeWithCSSourceInfoE10_CSTypeRef
|| __TEXT.__text __ZN10SourceInfo5debugEv
|| __TEXT.__text __ZN10SourceInfoC1E10_CSTypeRef
|| __TEXT.__text __ZN10SourceInfoC2E10_CSTypeRef
|| __TEXT.__text __ZN10StringPool11cacheStringERKNSt3__112basic_stringIcNS0_11char_traitsIcEENS0_9allocatorIcEEEE
|| __TEXT.__text __ZN11SharedCacheC1E22SharedCacheDescription
|| __TEXT.__text __ZN11SharedCacheC1E22SharedCacheDescriptionRKNSt3__110shared_ptrI10StringPoolEE
|| __TEXT.__text __ZN11SharedCacheC1EOS_
|| __TEXT.__text __ZN11SharedCacheC1ERKS_
|| __TEXT.__text __ZN11SharedCacheC2E22SharedCacheDescription
|| __TEXT.__text __ZN11SharedCacheC2E22SharedCacheDescriptionRKNSt3__110shared_ptrI10StringPoolEE
|| __TEXT.__text __ZN11SharedCacheC2EOS_
|| __TEXT.__text __ZN11SharedCacheC2ERKS_
|| __TEXT.__text __ZN11SharedCacheD1Ev
|| __TEXT.__text __ZN11SharedCacheD2Ev
|| __TEXT.__text __ZN11SharedCacheaSEOS_
|| __TEXT.__text __ZN11SharedCacheaSERKS_
|| __TEXT.__text __ZN12InlineSymbol37initializeWithCSSymbolAndCSSourceInfoE10_CSTypeRefS0_
|| __TEXT.__text __ZN12InlineSymbol5debugEv
|| __TEXT.__text __ZN12InlineSymbolC1E10_CSTypeRefS0_
|| __TEXT.__text __ZN12InlineSymbolC2E10_CSTypeRefS0_
|| __TEXT.__text __ZN13MergedLibrary9mergeWithERK18LibraryDescription
|| __TEXT.__text __ZN13SharedLibrary10addAddressEy
|| __TEXT.__text __ZN13SharedLibrary20generateFBSSignatureEv
|| __TEXT.__text __ZN13SharedLibrary27initializeWithCSSymbolOwnerEv
|| __TEXT.__text __ZN13SharedLibraryC1E10_CSTypeRefRKNSt3__110shared_ptrI10StringPoolEE
|| __TEXT.__text __ZN13SharedLibraryC1E4UUIDNSt3__117basic_string_viewIcNS1_11char_traitsIcEEEERKNS1_10shared_ptrI10StringPoolEE
|| __TEXT.__text __ZN13SharedLibraryC1Ev
|| __TEXT.__text __ZN13SharedLibraryC2E10_CSTypeRefRKNSt3__110shared_ptrI10StringPoolEE
|| __TEXT.__text __ZN13SharedLibraryC2E4UUIDNSt3__117basic_string_viewIcNS1_11char_traitsIcEEEERKNS1_10shared_ptrI10StringPoolEE
|| __TEXT.__text __ZN13SharedLibraryC2Ev
|| __TEXT.__text __ZN13SharedLibraryD1Ev
|| __TEXT.__text __ZN13SharedLibraryD2Ev
|| __TEXT.__text __ZN14AOTSharedCacheC1E25AOTSharedCacheDescription
|| __TEXT.__text __ZN14AOTSharedCacheC2E25AOTSharedCacheDescription
|| __TEXT.__text __ZN14ProcessLibrary10addAddressEy
|| __TEXT.__text __ZN14ProcessLibraryC1EyNSt3__110shared_ptrI13SharedLibraryEE
|| __TEXT.__text __ZN14ProcessLibraryC2EyNSt3__110shared_ptrI13SharedLibraryEE
|| __TEXT.__text __ZN17DyldKdebugHandler17consumeTracepointEPK11trace_point
|| __TEXT.__text __ZN17DyldKdebugHandler23handleLibraryCompletionER28DyldKdebugLibraryDescription
|| __TEXT.__text __ZN17DyldKdebugHandler23toggleResetLibraryStateEv
|| __TEXT.__text __ZN17DyldKdebugHandler25libraryDescriptionsForPidEi
|| __TEXT.__text __ZN17DyldKdebugHandler25resetInternalLibraryStateEv
|| __TEXT.__text __ZN17DyldKdebugHandler26aotImageDescriptionsForPidEi
|| __TEXT.__text __ZN17DyldKdebugHandler29sharedCacheDescriptionsForPidEi
|| __TEXT.__text __ZN17DyldKdebugHandler32aotSharedCacheDescriptionsForPidEi
|| __TEXT.__text __ZN17DyldKdebugHandler7allPidsEv
|| __TEXT.__text __ZN17DyldKdebugHandlerC1ERKNSt3__110shared_ptrI10StringPoolEE
|| __TEXT.__text __ZN17DyldKdebugHandlerC1Ev
|| __TEXT.__text __ZN17DyldKdebugHandlerC2ERKNSt3__110shared_ptrI10StringPoolEE
|| __TEXT.__text __ZN17DyldKdebugHandlerC2Ev
|| __TEXT.__text __ZN18KernelSymbolicator21kernelSymbolicatorPtrEv
|| __TEXT.__text __ZN18KernelSymbolicator24sharedKernelSymbolicatorEv
|| __TEXT.__text __ZN18KernelSymbolicator28initializeKernelSymbolicatorEv
|| __TEXT.__text __ZN18LibraryDescription11setLocationEy
|| __TEXT.__text __ZN18LibraryDescription9setLengthEy
|| __TEXT.__text __ZN18LibraryDescriptionC1Ev
|| __TEXT.__text __ZN18LibraryDescriptionC1Ey4UUID
|| __TEXT.__text __ZN18LibraryDescriptionC2Ev
|| __TEXT.__text __ZN18LibraryDescriptionC2Ey4UUID
|| __TEXT.__text __ZN19AOTImageDescriptionC1Ev
|| __TEXT.__text __ZN19AOTImageDescriptionC1EyyyPKh
|| __TEXT.__text __ZN19AOTImageDescriptionC2Ev
|| __TEXT.__text __ZN19AOTImageDescriptionC2EyyyPKh
|| __TEXT.__text __ZN19SharedCacheMetadata10uuidStringEv
|| __TEXT.__text __ZN19SharedCacheMetadata35populateWithSharedCacheSymbolicatorE10_CSTypeRef
|| __TEXT.__text __ZN19SharedCacheMetadataC1E10_CSTypeRef
|| __TEXT.__text __ZN19SharedCacheMetadataC1E10_CSTypeRefRKNSt3__110shared_ptrI10StringPoolEE
|| __TEXT.__text __ZN19SharedCacheMetadataC2E10_CSTypeRef
|| __TEXT.__text __ZN19SharedCacheMetadataC2E10_CSTypeRefRKNSt3__110shared_ptrI10StringPoolEE
|| __TEXT.__text __ZN20SymbolicationSession14parseStackshotE11kcdata_iter
|| __TEXT.__text __ZN20SymbolicationSession15handleInterruptEP7ProcessPK11trace_point
|| __TEXT.__text __ZN20SymbolicationSession15handleInterruptEPK11trace_point
|| __TEXT.__text __ZN20SymbolicationSession15handleUserStackEPK11trace_point
|| __TEXT.__text __ZN20SymbolicationSession15learnPidLibraryEiRK18LibraryDescriptionRNSt3__113unordered_setIS0_NS3_4hashIS0_EENS3_8equal_toIS0_EENS3_9allocatorIS0_EEEE
|| __TEXT.__text __ZN20SymbolicationSession16setKtraceSessionEP14ktrace_session
|| __TEXT.__text __ZN20SymbolicationSession17handleDTraceProbeEPK11trace_point
|| __TEXT.__text __ZN20SymbolicationSession17handleKernelStackEP7ProcessPK11trace_point
|| __TEXT.__text __ZN20SymbolicationSession17handleKernelStackEPK11trace_point
|| __TEXT.__text __ZN20SymbolicationSession18addNeededAddressesERKNSt3__16vectorI11trace_pointNS0_9allocatorIS2_EEEE
|| __TEXT.__text __ZN20SymbolicationSession18forEachSymbolChunkENSt3__18functionIFvPK8__CFDataEEE
|| __TEXT.__text __ZN20SymbolicationSession20processPointerForPidEi
|| __TEXT.__text __ZN20SymbolicationSession22parseDyldKdebugEntriesERKNSt3__16vectorI11trace_pointNS0_9allocatorIS2_EEEE
|| __TEXT.__text __ZN20SymbolicationSession23registerKtraceCallbacksEv
|| __TEXT.__text __ZN20SymbolicationSession23updateKdebugLibraryViewEv
|| __TEXT.__text __ZN20SymbolicationSession26sharedCacheWithDescriptionE22SharedCacheDescription
|| __TEXT.__text __ZN20SymbolicationSession27writeSymbolDataToKtraceFileEP11ktrace_file
|| __TEXT.__text __ZN20SymbolicationSession28sharedLibraryWithUUIDAndPathE4UUIDNSt3__117basic_string_viewIcNS1_11char_traitsIcEEEE
|| __TEXT.__text __ZN20SymbolicationSession30aotSymbolicatorWithDescriptionE25AOTSharedCacheDescription
|| __TEXT.__text __ZN20SymbolicationSession30sharedLibraryWithCSSymbolOwnerE10_CSTypeRef
|| __TEXT.__text __ZN20SymbolicationSession34updateBestKnownLibraryDescriptionsERK18LibraryDescription
|| __TEXT.__text __ZN20SymbolicationSession36collectLiveLibraryDescriptionsForPidEiRNSt3__113unordered_setI18LibraryDescriptionNS0_4hashIS2_EENS0_8equal_toIS2_EENS0_9allocatorIS2_EEEE
|| __TEXT.__text __ZN20SymbolicationSession8learnPidEi
|| __TEXT.__text __ZN20SymbolicationSessionC1EP24ats_symbolication_config
|| __TEXT.__text __ZN20SymbolicationSessionC1Ev
|| __TEXT.__text __ZN20SymbolicationSessionC2EP24ats_symbolication_config
|| __TEXT.__text __ZN20SymbolicationSessionC2Ev
|| __TEXT.__text __ZN20SymbolicationSessionD1Ev
|| __TEXT.__text __ZN20SymbolicationSessionD2Ev
|| __TEXT.__text __ZN21SharedLibraryMetadata27initializeWithCSSymbolOwnerE10_CSTypeRef
|| __TEXT.__text __ZN21SharedLibraryMetadata5debugEv
|| __TEXT.__text __ZN21SharedLibraryMetadataC1ENSt3__110shared_ptrI10StringPoolEE
|| __TEXT.__text __ZN21SharedLibraryMetadataC1ENSt3__110shared_ptrI10StringPoolEE10_CSTypeRef
|| __TEXT.__text __ZN21SharedLibraryMetadataC2ENSt3__110shared_ptrI10StringPoolEE
|| __TEXT.__text __ZN21SharedLibraryMetadataC2ENSt3__110shared_ptrI10StringPoolEE10_CSTypeRef
|| __TEXT.__text __ZN22SharedCacheDescription33baseAddressForSharedCacheWithUUIDE4UUID
|| __TEXT.__text __ZN22SharedCacheDescriptionC1Ev
|| __TEXT.__text __ZN22SharedCacheDescriptionC1Ey4UUID
|| __TEXT.__text __ZN22SharedCacheDescriptionC1Eyy4UUID
|| __TEXT.__text __ZN22SharedCacheDescriptionC2Ev
|| __TEXT.__text __ZN22SharedCacheDescriptionC2Ey4UUID
|| __TEXT.__text __ZN22SharedCacheDescriptionC2Eyy4UUID
|| __TEXT.__text __ZN24DyldKdebugFilesystemInfo10setFsobjIdE8fsobj_id
|| __TEXT.__text __ZN24DyldKdebugFilesystemInfo10setFsobjIdEy
|| __TEXT.__text __ZN24DyldKdebugFilesystemInfo4pathEv
|| __TEXT.__text __ZN24DyldKdebugFilesystemInfo7setFsidE4fsid
|| __TEXT.__text __ZN24DyldKdebugFilesystemInfo7setFsidEy
|| __TEXT.__text __ZN24DyldKdebugFilesystemInfoC1E4fsid8fsobj_id
|| __TEXT.__text __ZN24DyldKdebugFilesystemInfoC2E4fsid8fsobj_id
|| __TEXT.__text __ZN24SharedCacheSymbolicators26sharedCacheSymbolicatorMapEv
|| __TEXT.__text __ZN24SharedCacheSymbolicators34initializeSharedCacheSymbolicatorsEv
|| __TEXT.__text __ZN24SharedCacheSymbolicators35cachedSharedCacheSymbolicatorByUUIDE4UUID
|| __TEXT.__text __ZN24SharedCacheSymbolicators35createSharedCacheSymbolicatorByUUIDE4UUID
|| __TEXT.__text __ZN25AOTSharedCacheDescriptionC1E4UUIDS0_yy
|| __TEXT.__text __ZN25AOTSharedCacheDescriptionC1Ev
|| __TEXT.__text __ZN25AOTSharedCacheDescriptionC2E4UUIDS0_yy
|| __TEXT.__text __ZN25AOTSharedCacheDescriptionC2Ev
|| __TEXT.__text __ZN27StackshotLibraryDescriptionC1EP17dyld_uuid_info_32
|| __TEXT.__text __ZN27StackshotLibraryDescriptionC1EP17dyld_uuid_info_64
|| __TEXT.__text __ZN27StackshotLibraryDescriptionC2EP17dyld_uuid_info_32
|| __TEXT.__text __ZN27StackshotLibraryDescriptionC2EP17dyld_uuid_info_64
|| __TEXT.__text __ZN28DyldKdebugLibraryDescription18consumeTracepointAEPK11trace_point
|| __TEXT.__text __ZN28DyldKdebugLibraryDescription18consumeTracepointBEPK11trace_point
|| __TEXT.__text __ZN28DyldKdebugLibraryDescription20consumeTracepoint32AEPK11trace_point
|| __TEXT.__text __ZN28DyldKdebugLibraryDescription20consumeTracepoint32BEPK11trace_point
|| __TEXT.__text __ZN28DyldKdebugLibraryDescription20consumeTracepoint32CEPK11trace_point
|| __TEXT.__text __ZN28DyldKdebugLibraryDescription6fsInfoEv
|| __TEXT.__text __ZN28StackshotAotImageDescriptionC1EP20user64_dyld_aot_info
|| __TEXT.__text __ZN28StackshotAotImageDescriptionC2EP20user64_dyld_aot_info
|| __TEXT.__text __ZN29DyldKdebugAOTImageDescription18consumeTracepointAEPK11trace_point
|| __TEXT.__text __ZN29DyldKdebugAOTImageDescription18consumeTracepointBEPK11trace_point
|| __TEXT.__text __ZN31StackshotSharedCacheDescriptionC1EP20dyld_uuid_info_64_v2
|| __TEXT.__text __ZN31StackshotSharedCacheDescriptionC2EP20dyld_uuid_info_64_v2
|| __TEXT.__text __ZN32DyldKdebugSharedCacheDescription18consumeTracepointAEPK11trace_point
|| __TEXT.__text __ZN32DyldKdebugSharedCacheDescription18consumeTracepointBEPK11trace_point
|| __TEXT.__text __ZN32DyldKdebugSharedCacheDescription20consumeTracepoint32AEPK11trace_point
|| __TEXT.__text __ZN32DyldKdebugSharedCacheDescription20consumeTracepoint32BEPK11trace_point
|| __TEXT.__text __ZN32DyldKdebugSharedCacheDescription20consumeTracepoint32CEPK11trace_point
|| __TEXT.__text __ZN34StackshotAOTSharedCacheDescriptionC1EP24dyld_aot_cache_uuid_info
|| __TEXT.__text __ZN34StackshotAOTSharedCacheDescriptionC2EP24dyld_aot_cache_uuid_info
|| __TEXT.__text __ZN35DyldKdebugAOTSharedCacheDescription18consumeTracepointAEPK11trace_point
|| __TEXT.__text __ZN35DyldKdebugAOTSharedCacheDescription18consumeTracepointBEPK11trace_point
|| __TEXT.__text __ZN6Symbol22initializeWithCSSymbolE10_CSTypeRef
|| __TEXT.__text __ZN6Symbol5debugEv
|| __TEXT.__text __ZN6SymbolC1E10_CSTypeRef
|| __TEXT.__text __ZN6SymbolC2E10_CSTypeRef
|| __TEXT.__text __ZN7Process10addAddressEy
|| __TEXT.__text __ZN7Process12addAOTImagesENSt3__16vectorI8AOTImageNS0_9allocatorIS2_EEEE
|| __TEXT.__text __ZN7Process12addAddressesERKNSt3__16vectorIyNS0_9allocatorIyEEEE
|| __TEXT.__text __ZN7Process12addLibrariesENSt3__16vectorI14ProcessLibraryNS0_9allocatorIS2_EEEE
|| __TEXT.__text __ZN7Process12setAOTImagesENSt3__16vectorI8AOTImageNS0_9allocatorIS2_EEEE
|| __TEXT.__text __ZN7Process14setSharedCacheERKNSt3__110shared_ptrI11SharedCacheEE
|| __TEXT.__text __ZN7Process17setAOTSharedCacheE14AOTSharedCache
|| __TEXT.__text __ZN7Process18setAOTSymbolicatorENSt3__110shared_ptrIPvEE
|| __TEXT.__text __ZN7Process21findLibraryForAddressEy
|| __TEXT.__text __ZN7Process27addAddressAndTryTranslationEy
|| __TEXT.__text __ZN7Process29addAddressesAndTryTranslationERKNSt3__16vectorIyNS0_9allocatorIyEEEE
|| __TEXT.__text __ZN7ProcessC1EiNSt3__16vectorI14ProcessLibraryNS0_9allocatorIS2_EEEE
|| __TEXT.__text __ZN7ProcessC2EiNSt3__16vectorI14ProcessLibraryNS0_9allocatorIS2_EEEE
|| __TEXT.__text __ZN7Section23initializeWithCSSectionE10_CSTypeRef
|| __TEXT.__text __ZN7Section5debugEv
|| __TEXT.__text __ZN7SectionC1E10_CSTypeRef
|| __TEXT.__text __ZN7SectionC2E10_CSTypeRef
|| __TEXT.__text __ZN7Segment23initializeWithCSSegmentE10_CSTypeRef
|| __TEXT.__text __ZN7Segment5debugEv
|| __TEXT.__text __ZN7SegmentC1E10_CSTypeRef
|| __TEXT.__text __ZN7SegmentC2E10_CSTypeRef
|| __TEXT.__text __ZN8AOTImageC1E19AOTImageDescription
|| __TEXT.__text __ZN8AOTImageC2E19AOTImageDescription
|| __TEXT.__text __ZN9Stackshot16consumeStackshotEv
|| __TEXT.__text __ZN9Stackshot20consumeTaskContainerE11kcdata_iter
|| __TEXT.__text __ZN9Stackshot7allPidsEv
|| __TEXT.__text __ZN9StackshotC1E11kcdata_iter
|| __TEXT.__text __ZN9StackshotC2E11kcdata_iter
|| __TEXT.__text __ZNK10SourceInfo10lineNumberEv
|| __TEXT.__text __ZNK10SourceInfo12columnNumberEv
|| __TEXT.__text __ZNK10SourceInfo4pathEv
|| __TEXT.__text __ZNK11SharedCache11baseAddressEv
|| __TEXT.__text __ZNK11SharedCache12symbolicatorEv
|| __TEXT.__text __ZNK11SharedCache19libraryDescriptionsEv
|| __TEXT.__text __ZNK12InlineSymbol11symbolFlagsEv
|| __TEXT.__text __ZNK12InlineSymbol14symbolContentsEv
|| __TEXT.__text __ZNK12InlineSymbol16symbolSourceTypeEv
|| __TEXT.__text __ZNK12InlineSymbol4nameEv
|| __TEXT.__text __ZNK12InlineSymbol7asmNameEv
|| __TEXT.__text __ZNK13MergedLibrary4hashEv
|| __TEXT.__text __ZNK13MergedLibrary4pathEv
|| __TEXT.__text __ZNK13MergedLibrary4uuidEv
|| __TEXT.__text __ZNK13MergedLibrary6lengthEv
|| __TEXT.__text __ZNK13MergedLibraryeqERKS_
|| __TEXT.__text __ZNK13SharedLibrary11baseAddressEv
|| __TEXT.__text __ZNK13SharedLibrary12architectureEv
|| __TEXT.__text __ZNK13SharedLibrary13csSymbolOwnerEv
|| __TEXT.__text __ZNK13SharedLibrary4hashEv
|| __TEXT.__text __ZNK13SharedLibrary4pathEv
|| __TEXT.__text __ZNK13SharedLibrary4uuidEv
|| __TEXT.__text __ZNK13SharedLibraryeqERKS_
|| __TEXT.__text __ZNK14AOTSharedCache18aotSharedCacheInfoEv
|| __TEXT.__text __ZNK14AOTSharedCache26translateFromNativeAddressEPvy
|| __TEXT.__text __ZNK14ProcessLibrary11loadAddressEv
|| __TEXT.__text __ZNK14ProcessLibrary12architectureEv
|| __TEXT.__text __ZNK14ProcessLibrary4pathEv
|| __TEXT.__text __ZNK14ProcessLibrary4uuidEv
|| __TEXT.__text __ZNK14ProcessLibrary5slideEv
|| __TEXT.__text __ZNK17DyldKdebugHandler23shouldResetLibraryStateEv
|| __TEXT.__text __ZNK18LibraryDescription11loadAddressEv
|| __TEXT.__text __ZNK18LibraryDescription12libraryRangeEv
|| __TEXT.__text __ZNK18LibraryDescription4hashEv
|| __TEXT.__text __ZNK18LibraryDescription4pathEv
|| __TEXT.__text __ZNK18LibraryDescription4uuidEv
|| __TEXT.__text __ZNK18LibraryDescriptioneqERKS_
|| __TEXT.__text __ZNK19AOTImageDescription10aotAddressEv
|| __TEXT.__text __ZNK19AOTImageDescription10x86AddressEv
|| __TEXT.__text __ZNK19AOTImageDescription11aotImageKeyEv
|| __TEXT.__text __ZNK19AOTImageDescription15aotImageKeySizeEv
|| __TEXT.__text __ZNK19AOTImageDescription7aotSizeEv
|| __TEXT.__text __ZNK19SharedCacheMetadata11baseAddressEv
|| __TEXT.__text __ZNK19SharedCacheMetadata12architectureEv
|| __TEXT.__text __ZNK20SymbolicationSession9processesEv
|| __TEXT.__text __ZNK21SharedLibraryMetadata10uuidStringEv
|| __TEXT.__text __ZNK21SharedLibraryMetadata12architectureEv
|| __TEXT.__text __ZNK21SharedLibraryMetadata13bundleVersionEv
|| __TEXT.__text __ZNK21SharedLibraryMetadata4fsidEv
|| __TEXT.__text __ZNK21SharedLibraryMetadata4pathEv
|| __TEXT.__text __ZNK21SharedLibraryMetadata4uuidEv
|| __TEXT.__text __ZNK21SharedLibraryMetadata8bundleIDEv
|| __TEXT.__text __ZNK21SharedLibraryMetadata8dsymPathEv
|| __TEXT.__text __ZNK21SharedLibraryMetadata8fsobj_idEv
|| __TEXT.__text __ZNK22SharedCacheDescription11baseAddressEv
|| __TEXT.__text __ZNK22SharedCacheDescription11loadAddressEv
|| __TEXT.__text __ZNK22SharedCacheDescription4hashEv
|| __TEXT.__text __ZNK22SharedCacheDescription4uuidEv
|| __TEXT.__text __ZNK22SharedCacheDescription5slideEv
|| __TEXT.__text __ZNK22SharedCacheDescriptioneqERKS_
|| __TEXT.__text __ZNK24DyldKdebugFilesystemInfo4fsidEv
|| __TEXT.__text __ZNK24DyldKdebugFilesystemInfo7fsobjIdEv
|| __TEXT.__text __ZNK25AOTSharedCacheDescription14aotLoadAddressEv
|| __TEXT.__text __ZNK25AOTSharedCacheDescription14x86LoadAddressEv
|| __TEXT.__text __ZNK25AOTSharedCacheDescription4hashEv
|| __TEXT.__text __ZNK25AOTSharedCacheDescription7aotUuidEv
|| __TEXT.__text __ZNK25AOTSharedCacheDescription7x86UuidEv
|| __TEXT.__text __ZNK25AOTSharedCacheDescriptioneqERKS_
|| __TEXT.__text __ZNK32DyldKdebugSharedCacheDescription6fsInfoEv
|| __TEXT.__text __ZNK6Symbol11symbolFlagsEv
|| __TEXT.__text __ZNK6Symbol14symbolContentsEv
|| __TEXT.__text __ZNK6Symbol16symbolSourceTypeEv
|| __TEXT.__text __ZNK6Symbol4nameEv
|| __TEXT.__text __ZNK6Symbol7asmNameEv
|| __TEXT.__text __ZNK7Process11sharedCacheEv
|| __TEXT.__text __ZNK7Process14aotSharedCacheEv
|| __TEXT.__text __ZNK7Process26translateFromNativeAddressEy
|| __TEXT.__text __ZNK7Process3pidEv
|| __TEXT.__text __ZNK7Process9aotImagesEv
|| __TEXT.__text __ZNK7Process9librariesEv
|| __TEXT.__text __ZNK7Section4nameEv
|| __TEXT.__text __ZNK7Section8contentsEv
|| __TEXT.__text __ZNK7Segment4nameEv
|| __TEXT.__text __ZNK7Segment7symbolsEv
|| __TEXT.__text __ZNK7Segment8contentsEv
|| __TEXT.__text __ZNK7Segment8sectionsEv
|| __TEXT.__text __ZNK8AOTImage12aotImageInfoEv
|| __TEXT.__text __ZNK8AOTImage26translateFromNativeAddressEPvy
|| __TEXT.__text __ZNK9Stackshot25libraryDescriptionsForPidEi
|| __TEXT.__text __ZNK9Stackshot26allSharedCacheDescriptionsEv
|| __TEXT.__text __ZNK9Stackshot26aotImageDescriptionsForPidEi
|| __TEXT.__text __ZNK9Stackshot26isValidPidAndUniquePidPairEiy
|| __TEXT.__text __ZNK9Stackshot29allAOTSharedCacheDescriptionsEv
|| __TEXT.__text __ZNK9Stackshot29defaultSharedCacheDescriptionEv
|| __TEXT.__text __ZNK9Stackshot29sharedCacheDescriptionsForPidEi
|| __TEXT.__text __ZNK9Stackshot32aotSharedCacheDescriptionsForPidEi
|| __TEXT.__text __ZNK9Stackshot32defaultAOTSharedCacheDescriptionEv
|| __TEXT.__text _ats_configure_postprocessing
|| __TEXT.__text _ats_configure_postprocessing_with_config
|| __TEXT.__text _ats_create_symbolication_config
|| __TEXT.__text _ats_destroy_symbolication_config
|| __TEXT.__text _ats_postprocessing_complete
|| __TEXT.__text _ats_will_start_tracing
__ CoreFoundation: _CFDataGetBytePtr
__ CoreFoundation: _CFDataGetLength
__ CoreFoundation: _CFRelease
__ CoreSymbolication: _CSAddressSetAddRange
__ CoreSymbolication: _CSAddressSetCreate
__ CoreSymbolication: _CSArchitectureGetFamilyName
__ CoreSymbolication: _CSIsNull
__ CoreSymbolication: _CSRegionForeachSymbol
__ CoreSymbolication: _CSRegionGetName
__ CoreSymbolication: _CSRegionGetRange
__ CoreSymbolication: _CSRelease
__ CoreSymbolication: _CSRetain
__ CoreSymbolication: _CSSegmentForeachSection
__ CoreSymbolication: _CSSourceInfoGetColumn
__ CoreSymbolication: _CSSourceInfoGetFilename
__ CoreSymbolication: _CSSourceInfoGetLineNumber
__ CoreSymbolication: _CSSourceInfoGetPath
__ CoreSymbolication: _CSSourceInfoGetRange
__ CoreSymbolication: _CSSymbolForeachInlineRangeAtDepth
__ CoreSymbolication: _CSSymbolForeachSourceInfo
__ CoreSymbolication: _CSSymbolGetFlags
__ CoreSymbolication: _CSSymbolGetMangledName
__ CoreSymbolication: _CSSymbolGetName
__ CoreSymbolication: _CSSymbolGetRange
__ CoreSymbolication: _CSSymbolOwnerCreateSignature
__ CoreSymbolication: _CSSymbolOwnerCreateSparseDataWithBlock
__ CoreSymbolication: _CSSymbolOwnerCreateSparseSignatureWithFlags
__ CoreSymbolication: _CSSymbolOwnerForeachSegment
__ CoreSymbolication: _CSSymbolOwnerGetArchitecture
__ CoreSymbolication: _CSSymbolOwnerGetBaseAddress
__ CoreSymbolication: _CSSymbolOwnerGetCFUUIDBytes
__ CoreSymbolication: _CSSymbolOwnerGetPath
__ CoreSymbolication: _CSSymbolOwnerGetSymbolWithAddress
__ CoreSymbolication: _CSSymbolOwnerGetSymbolicator
__ CoreSymbolication: _CSSymbolOwnerGetVersion
__ CoreSymbolication: _CSSymbolOwnerIsDyldSharedCache
__ CoreSymbolication: _CSSymbolicatorCreateWithMachKernel
__ CoreSymbolication: _CSSymbolicatorCreateWithPid
__ CoreSymbolication: _CSSymbolicatorCreateWithSharedCacheUUID
__ CoreSymbolication: _CSSymbolicatorForeachSharedCache
__ CoreSymbolication: _CSSymbolicatorForeachSymbolOwnerAtTime
__ CoreSymbolication: _CSSymbolicatorForeachSymbolicatorWithPath
__ CoreSymbolication: _CSSymbolicatorGetArchitecture
__ CoreSymbolication: _CSSymbolicatorGetSharedCacheBaseAddress
__ CoreSymbolication: _CSSymbolicatorGetSharedCacheUUID
__ CoreSymbolication: _CSSymbolicatorGetSymbolOwner
__ CoreSymbolication: _CSSymbolicatorIsKernelSymbolicator
__ LoggingSupport: _OSLogLookupPathWithUUID
__ ktrace: _ktrace_events_range
__ ktrace: _ktrace_events_single
__ ktrace: _ktrace_file_append_chunk
__ ktrace: _ktrace_session_destroy
__ ktrace: _ktrace_stackshot
__ libSystem.B.dylib: __Block_object_dispose
__ libSystem.B.dylib: __NSConcreteGlobalBlock
__ libSystem.B.dylib: __NSConcreteStackBlock
__ libSystem.B.dylib: __Unwind_Resume
__ libSystem.B.dylib: ___cxa_atexit
__ libSystem.B.dylib: ___stack_chk_fail
__ libSystem.B.dylib: ___stack_chk_guard
__ libSystem.B.dylib: __os_log_debug_impl
__ libSystem.B.dylib: __os_log_error_impl
__ libSystem.B.dylib: __os_log_impl
__ libSystem.B.dylib: _dispatch_queue_create
__ libSystem.B.dylib: _dispatch_release
__ libSystem.B.dylib: _fsgetpath
__ libSystem.B.dylib: _memcmp
__ libSystem.B.dylib: _memcpy
__ libSystem.B.dylib: _memmove
__ libSystem.B.dylib: _os_log_create
__ libSystem.B.dylib: _os_log_type_enabled
__ libSystem.B.dylib: _printf
__ libSystem.B.dylib: _putchar
__ libSystem.B.dylib: _puts
__ libSystem.B.dylib: _statfs
__ libSystem.B.dylib: _strcmp
__ libSystem.B.dylib: _strlen
__ libSystem.B.dylib: _strncmp
__ libSystem.B.dylib: _uuid_is_null
__ libSystem.B.dylib: _uuid_unparse
__ libc++.1.dylib: __ZNKSt3__119__shared_weak_count13__get_deleterERKSt9type_info
__ libc++.1.dylib: __ZNKSt3__120__vector_base_commonILb1EE20__throw_length_errorEv
__ libc++.1.dylib: __ZNKSt3__121__basic_string_commonILb1EE20__throw_length_errorEv
__ libc++.1.dylib: __ZNKSt9exception4whatEv
__ libc++.1.dylib: __ZNSt11logic_errorC2EPKc
__ libc++.1.dylib: __ZNSt12length_errorD1Ev
__ libc++.1.dylib: __ZNSt19bad_optional_accessD1Ev
__ libc++.1.dylib: __ZNSt3__111__call_onceERVmPvPFvS2_E
__ libc++.1.dylib: __ZNSt3__112__next_primeEm
__ libc++.1.dylib: __ZNSt3__112basic_stringIcNS_11char_traitsIcEENS_9allocatorIcEEEC1ERKS5_
__ libc++.1.dylib: __ZNSt3__119__shared_weak_count14__release_weakEv
__ libc++.1.dylib: __ZNSt3__119__shared_weak_countD2Ev
__ libc++.1.dylib: __ZNSt9exceptionD2Ev
__ libc++.1.dylib: __ZSt9terminatev
__ libc++.1.dylib: __ZTINSt3__119__shared_weak_countE
__ libc++.1.dylib: __ZTISt12length_error
__ libc++.1.dylib: __ZTISt19bad_optional_access
__ libc++.1.dylib: __ZTISt9exception
__ libc++.1.dylib: __ZTVN10__cxxabiv117__class_type_infoE
__ libc++.1.dylib: __ZTVN10__cxxabiv120__si_class_type_infoE
__ libc++.1.dylib: __ZTVSt12length_error
__ libc++.1.dylib: __ZTVSt19bad_optional_access
__ libc++.1.dylib: __ZdlPv
__ libc++.1.dylib: __Znwm
__ libc++.1.dylib: ___cxa_allocate_exception
__ libc++.1.dylib: ___cxa_begin_catch
__ libc++.1.dylib: ___cxa_free_exception
__ libc++.1.dylib: ___cxa_guard_acquire
__ libc++.1.dylib: ___cxa_guard_release
__ libc++.1.dylib: ___cxa_throw
__ libc++.1.dylib: ___gxx_personality_v0
__ libobjc.A.dylib: _objc_msgSend
