|| __TEXT.__text __SparseAMD
|| __TEXT.__text __SparseAMDWorkspaceSize
|| __TEXT.__text __SparseCGIterate_Double
|| __TEXT.__text __SparseCGIterate_Float
|| __TEXT.__text __SparseCGSolve_Double
|| __TEXT.__text __SparseCGSolve_Float
|| __TEXT.__text __SparseCOLAMD
|| __TEXT.__text __SparseCOLAMDWorkspaceSize
|| __TEXT.__text __SparseConvertFromCoordinate_Double
|| __TEXT.__text __SparseConvertFromCoordinate_Float
|| __TEXT.__text __SparseConvertFromOpaque_Double
|| __TEXT.__text __SparseConvertFromOpaque_Float
|| __TEXT.__text __SparseCreatePreconditioner_Double
|| __TEXT.__text __SparseCreatePreconditioner_Float
|| __TEXT.__text __SparseDestroyOpaqueNumeric_Double
|| __TEXT.__text __SparseDestroyOpaqueNumeric_Float
|| __TEXT.__text __SparseDestroyOpaqueSymbolic
|| __TEXT.__text __SparseFactorQR_Double
|| __TEXT.__text __SparseFactorQR_Float
|| __TEXT.__text __SparseFactorSymmetric_Double
|| __TEXT.__text __SparseFactorSymmetric_Float
|| __TEXT.__text __SparseGMRESIterate_Double
|| __TEXT.__text __SparseGMRESIterate_Float
|| __TEXT.__text __SparseGMRESSolve_Double
|| __TEXT.__text __SparseGMRESSolve_Float
|| __TEXT.__text __SparseGetIterativeStateSize_Double
|| __TEXT.__text __SparseGetIterativeStateSize_Float
|| __TEXT.__text __SparseGetOptionsFromNumericFactor_Double
|| __TEXT.__text __SparseGetOptionsFromNumericFactor_Float
|| __TEXT.__text __SparseGetOptionsFromSymbolicFactor
|| __TEXT.__text __SparseGetWorkspaceRequired_Double
|| __TEXT.__text __SparseGetWorkspaceRequired_Float
|| __TEXT.__text __SparseLSMRIterate_Double
|| __TEXT.__text __SparseLSMRIterate_Float
|| __TEXT.__text __SparseLSMRSolve_Double
|| __TEXT.__text __SparseLSMRSolve_Float
|| __TEXT.__text __SparseMultiplySubfactor_Double
|| __TEXT.__text __SparseMultiplySubfactor_Float
|| __TEXT.__text __SparseNumericFactorQR_Double
|| __TEXT.__text __SparseNumericFactorQR_Float
|| __TEXT.__text __SparseNumericFactorSymmetric_Double
|| __TEXT.__text __SparseNumericFactorSymmetric_Float
|| __TEXT.__text __SparseRefactorQR_Double
|| __TEXT.__text __SparseRefactorQR_Float
|| __TEXT.__text __SparseRefactorSymmetric_Double
|| __TEXT.__text __SparseRefactorSymmetric_Float
|| __TEXT.__text __SparseReleaseOpaquePreconditioner_Double
|| __TEXT.__text __SparseReleaseOpaquePreconditioner_Float
|| __TEXT.__text __SparseRetainNumeric_Double
|| __TEXT.__text __SparseRetainNumeric_Float
|| __TEXT.__text __SparseRetainSymbolic
|| __TEXT.__text __SparseSolveOpaque_Double
|| __TEXT.__text __SparseSolveOpaque_Float
|| __TEXT.__text __SparseSolveSubfactor_Double
|| __TEXT.__text __SparseSolveSubfactor_Float
|| __TEXT.__text __SparseSpMV_Double
|| __TEXT.__text __SparseSpMV_Float
|| __TEXT.__text __SparseSymbolicFactorQR
|| __TEXT.__text __SparseSymbolicFactorSymmetric
|| __TEXT.__text __SparseTrap
|| __TEXT.__text __Z10SparseLSMR17SparseLSMROptions
|| __TEXT.__text __Z10SparseLSMRv
|| __TEXT.__text __Z11SparseGMRES18SparseGMRESOptions
|| __TEXT.__text __Z11SparseGMRESv
|| __TEXT.__text __Z11SparseSolve21SparseIterativeMethod18SparseMatrix_Float17DenseMatrix_FloatS1_
|| __TEXT.__text __Z11SparseSolve21SparseIterativeMethod18SparseMatrix_Float17DenseMatrix_FloatS1_32SparseOpaquePreconditioner_Float
|| __TEXT.__text __Z11SparseSolve21SparseIterativeMethod18SparseMatrix_Float17DenseMatrix_FloatS1_i
|| __TEXT.__text __Z11SparseSolve21SparseIterativeMethod18SparseMatrix_Float17DenseVector_FloatS1_
|| __TEXT.__text __Z11SparseSolve21SparseIterativeMethod18SparseMatrix_Float17DenseVector_FloatS1_32SparseOpaquePreconditioner_Float
|| __TEXT.__text __Z11SparseSolve21SparseIterativeMethod18SparseMatrix_Float17DenseVector_FloatS1_i
|| __TEXT.__text __Z11SparseSolve21SparseIterativeMethod19SparseMatrix_Double18DenseMatrix_DoubleS1_
|| __TEXT.__text __Z11SparseSolve21SparseIterativeMethod19SparseMatrix_Double18DenseMatrix_DoubleS1_33SparseOpaquePreconditioner_Double
|| __TEXT.__text __Z11SparseSolve21SparseIterativeMethod19SparseMatrix_Double18DenseMatrix_DoubleS1_i
|| __TEXT.__text __Z11SparseSolve21SparseIterativeMethod19SparseMatrix_Double18DenseVector_DoubleS1_
|| __TEXT.__text __Z11SparseSolve21SparseIterativeMethod19SparseMatrix_Double18DenseVector_DoubleS1_33SparseOpaquePreconditioner_Double
|| __TEXT.__text __Z11SparseSolve21SparseIterativeMethod19SparseMatrix_Double18DenseVector_DoubleS1_i
|| __TEXT.__text __Z11SparseSolve21SparseIterativeMethodU13block_pointerFvb15CBLAS_TRANSPOSE17DenseMatrix_FloatS1_ES1_S1_
|| __TEXT.__text __Z11SparseSolve21SparseIterativeMethodU13block_pointerFvb15CBLAS_TRANSPOSE17DenseMatrix_FloatS1_ES1_S1_32SparseOpaquePreconditioner_Float
|| __TEXT.__text __Z11SparseSolve21SparseIterativeMethodU13block_pointerFvb15CBLAS_TRANSPOSE17DenseVector_FloatS1_ES1_S1_
|| __TEXT.__text __Z11SparseSolve21SparseIterativeMethodU13block_pointerFvb15CBLAS_TRANSPOSE17DenseVector_FloatS1_ES1_S1_32SparseOpaquePreconditioner_Float
|| __TEXT.__text __Z11SparseSolve21SparseIterativeMethodU13block_pointerFvb15CBLAS_TRANSPOSE18DenseMatrix_DoubleS1_ES1_S1_
|| __TEXT.__text __Z11SparseSolve21SparseIterativeMethodU13block_pointerFvb15CBLAS_TRANSPOSE18DenseMatrix_DoubleS1_ES1_S1_33SparseOpaquePreconditioner_Double
|| __TEXT.__text __Z11SparseSolve21SparseIterativeMethodU13block_pointerFvb15CBLAS_TRANSPOSE18DenseVector_DoubleS1_ES1_S1_
|| __TEXT.__text __Z11SparseSolve21SparseIterativeMethodU13block_pointerFvb15CBLAS_TRANSPOSE18DenseVector_DoubleS1_ES1_S1_33SparseOpaquePreconditioner_Double
|| __TEXT.__text __Z11SparseSolve27SparseOpaqueSubfactor_Float17DenseMatrix_Float
|| __TEXT.__text __Z11SparseSolve27SparseOpaqueSubfactor_Float17DenseMatrix_FloatPv
|| __TEXT.__text __Z11SparseSolve27SparseOpaqueSubfactor_Float17DenseMatrix_FloatS0_
|| __TEXT.__text __Z11SparseSolve27SparseOpaqueSubfactor_Float17DenseMatrix_FloatS0_Pv
|| __TEXT.__text __Z11SparseSolve27SparseOpaqueSubfactor_Float17DenseVector_Float
|| __TEXT.__text __Z11SparseSolve27SparseOpaqueSubfactor_Float17DenseVector_FloatPv
|| __TEXT.__text __Z11SparseSolve27SparseOpaqueSubfactor_Float17DenseVector_FloatS0_
|| __TEXT.__text __Z11SparseSolve27SparseOpaqueSubfactor_Float17DenseVector_FloatS0_Pv
|| __TEXT.__text __Z11SparseSolve28SparseOpaqueSubfactor_Double18DenseMatrix_Double
|| __TEXT.__text __Z11SparseSolve28SparseOpaqueSubfactor_Double18DenseMatrix_DoublePv
|| __TEXT.__text __Z11SparseSolve28SparseOpaqueSubfactor_Double18DenseMatrix_DoubleS0_
|| __TEXT.__text __Z11SparseSolve28SparseOpaqueSubfactor_Double18DenseMatrix_DoubleS0_Pv
|| __TEXT.__text __Z11SparseSolve28SparseOpaqueSubfactor_Double18DenseVector_Double
|| __TEXT.__text __Z11SparseSolve28SparseOpaqueSubfactor_Double18DenseVector_DoublePv
|| __TEXT.__text __Z11SparseSolve28SparseOpaqueSubfactor_Double18DenseVector_DoubleS0_
|| __TEXT.__text __Z11SparseSolve28SparseOpaqueSubfactor_Double18DenseVector_DoubleS0_Pv
|| __TEXT.__text __Z11SparseSolve31SparseOpaqueFactorization_Float17DenseMatrix_Float
|| __TEXT.__text __Z11SparseSolve31SparseOpaqueFactorization_Float17DenseMatrix_FloatPv
|| __TEXT.__text __Z11SparseSolve31SparseOpaqueFactorization_Float17DenseMatrix_FloatS0_
|| __TEXT.__text __Z11SparseSolve31SparseOpaqueFactorization_Float17DenseMatrix_FloatS0_Pv
|| __TEXT.__text __Z11SparseSolve31SparseOpaqueFactorization_Float17DenseVector_Float
|| __TEXT.__text __Z11SparseSolve31SparseOpaqueFactorization_Float17DenseVector_FloatPv
|| __TEXT.__text __Z11SparseSolve31SparseOpaqueFactorization_Float17DenseVector_FloatS0_
|| __TEXT.__text __Z11SparseSolve31SparseOpaqueFactorization_Float17DenseVector_FloatS0_Pv
|| __TEXT.__text __Z11SparseSolve32SparseOpaqueFactorization_Double18DenseMatrix_Double
|| __TEXT.__text __Z11SparseSolve32SparseOpaqueFactorization_Double18DenseMatrix_DoublePv
|| __TEXT.__text __Z11SparseSolve32SparseOpaqueFactorization_Double18DenseMatrix_DoubleS0_
|| __TEXT.__text __Z11SparseSolve32SparseOpaqueFactorization_Double18DenseMatrix_DoubleS0_Pv
|| __TEXT.__text __Z11SparseSolve32SparseOpaqueFactorization_Double18DenseVector_Double
|| __TEXT.__text __Z11SparseSolve32SparseOpaqueFactorization_Double18DenseVector_DoublePv
|| __TEXT.__text __Z11SparseSolve32SparseOpaqueFactorization_Double18DenseVector_DoubleS0_
|| __TEXT.__text __Z11SparseSolve32SparseOpaqueFactorization_Double18DenseVector_DoubleS0_Pv
|| __TEXT.__text __Z12SparseFactor33SparseOpaqueSymbolicFactorization18SparseMatrix_Float
|| __TEXT.__text __Z12SparseFactor33SparseOpaqueSymbolicFactorization18SparseMatrix_Float26SparseNumericFactorOptions
|| __TEXT.__text __Z12SparseFactor33SparseOpaqueSymbolicFactorization18SparseMatrix_Float26SparseNumericFactorOptionsPvS2_
|| __TEXT.__text __Z12SparseFactor33SparseOpaqueSymbolicFactorization19SparseMatrix_Double
|| __TEXT.__text __Z12SparseFactor33SparseOpaqueSymbolicFactorization19SparseMatrix_Double26SparseNumericFactorOptions
|| __TEXT.__text __Z12SparseFactor33SparseOpaqueSymbolicFactorization19SparseMatrix_Double26SparseNumericFactorOptionsPvS2_
|| __TEXT.__text __Z12SparseFactorh18SparseMatrix_Float
|| __TEXT.__text __Z12SparseFactorh18SparseMatrix_Float27SparseSymbolicFactorOptions26SparseNumericFactorOptions
|| __TEXT.__text __Z12SparseFactorh19SparseMatrix_Double
|| __TEXT.__text __Z12SparseFactorh19SparseMatrix_Double27SparseSymbolicFactorOptions26SparseNumericFactorOptions
|| __TEXT.__text __Z12SparseFactorh21SparseMatrixStructure
|| __TEXT.__text __Z12SparseFactorh21SparseMatrixStructure27SparseSymbolicFactorOptions
|| __TEXT.__text __Z12SparseRetain27SparseOpaqueSubfactor_Float
|| __TEXT.__text __Z12SparseRetain28SparseOpaqueSubfactor_Double
|| __TEXT.__text __Z12SparseRetain31SparseOpaqueFactorization_Float
|| __TEXT.__text __Z12SparseRetain32SparseOpaqueFactorization_Double
|| __TEXT.__text __Z12SparseRetain33SparseOpaqueSymbolicFactorization
|| __TEXT.__text __Z13SparseCleanup18SparseMatrix_Float
|| __TEXT.__text __Z13SparseCleanup19SparseMatrix_Double
|| __TEXT.__text __Z13SparseCleanup27SparseOpaqueSubfactor_Float
|| __TEXT.__text __Z13SparseCleanup28SparseOpaqueSubfactor_Double
|| __TEXT.__text __Z13SparseCleanup31SparseOpaqueFactorization_Float
|| __TEXT.__text __Z13SparseCleanup32SparseOpaqueFactorization_Double
|| __TEXT.__text __Z13SparseCleanup32SparseOpaquePreconditioner_Float
|| __TEXT.__text __Z13SparseCleanup33SparseOpaquePreconditioner_Double
|| __TEXT.__text __Z13SparseCleanup33SparseOpaqueSymbolicFactorization
|| __TEXT.__text __Z13SparseIterate21SparseIterativeMethodiPKbPvU13block_pointerFvb15CBLAS_TRANSPOSE17DenseMatrix_FloatS4_ES4_S4_S4_
|| __TEXT.__text __Z13SparseIterate21SparseIterativeMethodiPKbPvU13block_pointerFvb15CBLAS_TRANSPOSE17DenseMatrix_FloatS4_ES4_S4_S4_32SparseOpaquePreconditioner_Float
|| __TEXT.__text __Z13SparseIterate21SparseIterativeMethodiPKbPvU13block_pointerFvb15CBLAS_TRANSPOSE18DenseMatrix_DoubleS4_ES4_S4_S4_
|| __TEXT.__text __Z13SparseIterate21SparseIterativeMethodiPKbPvU13block_pointerFvb15CBLAS_TRANSPOSE18DenseMatrix_DoubleS4_ES4_S4_S4_33SparseOpaquePreconditioner_Double
|| __TEXT.__text __Z14SparseMultiply18SparseMatrix_Float17DenseMatrix_FloatS0_
|| __TEXT.__text __Z14SparseMultiply18SparseMatrix_Float17DenseVector_FloatS0_
|| __TEXT.__text __Z14SparseMultiply19SparseMatrix_Double18DenseMatrix_DoubleS0_
|| __TEXT.__text __Z14SparseMultiply19SparseMatrix_Double18DenseVector_DoubleS0_
|| __TEXT.__text __Z14SparseMultiply27SparseOpaqueSubfactor_Float17DenseMatrix_Float
|| __TEXT.__text __Z14SparseMultiply27SparseOpaqueSubfactor_Float17DenseMatrix_FloatPv
|| __TEXT.__text __Z14SparseMultiply27SparseOpaqueSubfactor_Float17DenseMatrix_FloatS0_
|| __TEXT.__text __Z14SparseMultiply27SparseOpaqueSubfactor_Float17DenseMatrix_FloatS0_Pv
|| __TEXT.__text __Z14SparseMultiply27SparseOpaqueSubfactor_Float17DenseVector_Float
|| __TEXT.__text __Z14SparseMultiply27SparseOpaqueSubfactor_Float17DenseVector_FloatPv
|| __TEXT.__text __Z14SparseMultiply27SparseOpaqueSubfactor_Float17DenseVector_FloatS0_
|| __TEXT.__text __Z14SparseMultiply27SparseOpaqueSubfactor_Float17DenseVector_FloatS0_Pv
|| __TEXT.__text __Z14SparseMultiply28SparseOpaqueSubfactor_Double18DenseMatrix_Double
|| __TEXT.__text __Z14SparseMultiply28SparseOpaqueSubfactor_Double18DenseMatrix_DoublePv
|| __TEXT.__text __Z14SparseMultiply28SparseOpaqueSubfactor_Double18DenseMatrix_DoubleS0_
|| __TEXT.__text __Z14SparseMultiply28SparseOpaqueSubfactor_Double18DenseMatrix_DoubleS0_Pv
|| __TEXT.__text __Z14SparseMultiply28SparseOpaqueSubfactor_Double18DenseVector_Double
|| __TEXT.__text __Z14SparseMultiply28SparseOpaqueSubfactor_Double18DenseVector_DoublePv
|| __TEXT.__text __Z14SparseMultiply28SparseOpaqueSubfactor_Double18DenseVector_DoubleS0_
|| __TEXT.__text __Z14SparseMultiply28SparseOpaqueSubfactor_Double18DenseVector_DoubleS0_Pv
|| __TEXT.__text __Z14SparseMultiplyd19SparseMatrix_Double18DenseMatrix_DoubleS0_
|| __TEXT.__text __Z14SparseMultiplyd19SparseMatrix_Double18DenseVector_DoubleS0_
|| __TEXT.__text __Z14SparseMultiplyf18SparseMatrix_Float17DenseMatrix_FloatS0_
|| __TEXT.__text __Z14SparseMultiplyf18SparseMatrix_Float17DenseVector_FloatS0_
|| __TEXT.__text __Z14SparseRefactor18SparseMatrix_FloatP31SparseOpaqueFactorization_Float
|| __TEXT.__text __Z14SparseRefactor18SparseMatrix_FloatP31SparseOpaqueFactorization_Float26SparseNumericFactorOptions
|| __TEXT.__text __Z14SparseRefactor18SparseMatrix_FloatP31SparseOpaqueFactorization_Float26SparseNumericFactorOptionsPv
|| __TEXT.__text __Z14SparseRefactor18SparseMatrix_FloatP31SparseOpaqueFactorization_FloatPv
|| __TEXT.__text __Z14SparseRefactor19SparseMatrix_DoubleP32SparseOpaqueFactorization_Double
|| __TEXT.__text __Z14SparseRefactor19SparseMatrix_DoubleP32SparseOpaqueFactorization_Double26SparseNumericFactorOptions
|| __TEXT.__text __Z14SparseRefactor19SparseMatrix_DoubleP32SparseOpaqueFactorization_Double26SparseNumericFactorOptionsPv
|| __TEXT.__text __Z14SparseRefactor19SparseMatrix_DoubleP32SparseOpaqueFactorization_DoublePv
|| __TEXT.__text __Z17SparseMultiplyAdd18SparseMatrix_Float17DenseMatrix_FloatS0_
|| __TEXT.__text __Z17SparseMultiplyAdd18SparseMatrix_Float17DenseVector_FloatS0_
|| __TEXT.__text __Z17SparseMultiplyAdd19SparseMatrix_Double18DenseMatrix_DoubleS0_
|| __TEXT.__text __Z17SparseMultiplyAdd19SparseMatrix_Double18DenseVector_DoubleS0_
|| __TEXT.__text __Z17SparseMultiplyAddd19SparseMatrix_Double18DenseMatrix_DoubleS0_
|| __TEXT.__text __Z17SparseMultiplyAddd19SparseMatrix_Double18DenseVector_DoubleS0_
|| __TEXT.__text __Z17SparseMultiplyAddf18SparseMatrix_Float17DenseMatrix_FloatS0_
|| __TEXT.__text __Z17SparseMultiplyAddf18SparseMatrix_Float17DenseVector_FloatS0_
|| __TEXT.__text __Z17SparseWriteMatrixP7__sFILEjPKc18SparseMatrix_Float
|| __TEXT.__text __Z17SparseWriteMatrixP7__sFILEjPKc19SparseMatrix_Double
|| __TEXT.__text __Z18SparseGetTranspose18SparseMatrix_Float
|| __TEXT.__text __Z18SparseGetTranspose19SparseMatrix_Double
|| __TEXT.__text __Z18SparseGetTranspose27SparseOpaqueSubfactor_Float
|| __TEXT.__text __Z18SparseGetTranspose28SparseOpaqueSubfactor_Double
|| __TEXT.__text __Z18SparseGetTranspose31SparseOpaqueFactorization_Float
|| __TEXT.__text __Z18SparseGetTranspose32SparseOpaqueFactorization_Double
|| __TEXT.__text __Z21SparseCreateSubfactorh31SparseOpaqueFactorization_Float
|| __TEXT.__text __Z21SparseCreateSubfactorh32SparseOpaqueFactorization_Double
|| __TEXT.__text __Z22SparseReadMatrix_FloatP7__sFILEjmPc
|| __TEXT.__text __Z23SparseConjugateGradient15SparseCGOptions
|| __TEXT.__text __Z23SparseConjugateGradientv
|| __TEXT.__text __Z23SparseConvertFromOpaqueP14sparse_m_float
|| __TEXT.__text __Z23SparseConvertFromOpaqueP15sparse_m_double
|| __TEXT.__text __Z23SparseReadMatrix_DoubleP7__sFILEjmPc
|| __TEXT.__text __Z24SparseGetStateSize_Float21SparseIterativeMethodbiii
|| __TEXT.__text __Z25SparseGetStateSize_Double21SparseIterativeMethodbiii
|| __TEXT.__text __Z26SparseCreatePreconditioneri18SparseMatrix_Float
|| __TEXT.__text __Z26SparseCreatePreconditioneri19SparseMatrix_Double
|| __TEXT.__text __Z27SparseConvertFromCoordinateiilh18SparseAttributes_tPKiS1_PKd
|| __TEXT.__text __Z27SparseConvertFromCoordinateiilh18SparseAttributes_tPKiS1_PKdPvS4_
|| __TEXT.__text __Z27SparseConvertFromCoordinateiilh18SparseAttributes_tPKiS1_PKf
|| __TEXT.__text __Z27SparseConvertFromCoordinateiilh18SparseAttributes_tPKiS1_PKfPvS4_
__ libBLAS.dylib: _APL_dgemm
__ libBLAS.dylib: _APL_dtrsm
__ libBLAS.dylib: _APL_sgemm
__ libBLAS.dylib: _APL_strsm
__ libBLAS.dylib: _APPLE_NTHREADS
__ libBLAS.dylib: _cblas_daxpy
__ libBLAS.dylib: _cblas_ddot
__ libBLAS.dylib: _cblas_dgemm
__ libBLAS.dylib: _cblas_dgemv
__ libBLAS.dylib: _cblas_dnrm2
__ libBLAS.dylib: _cblas_drotg
__ libBLAS.dylib: _cblas_dscal
__ libBLAS.dylib: _cblas_dsyrk
__ libBLAS.dylib: _cblas_dtrmm
__ libBLAS.dylib: _cblas_dtrsm
__ libBLAS.dylib: _cblas_dtrsv
__ libBLAS.dylib: _cblas_saxpy
__ libBLAS.dylib: _cblas_sdot
__ libBLAS.dylib: _cblas_sgemm
__ libBLAS.dylib: _cblas_sgemv
__ libBLAS.dylib: _cblas_snrm2
__ libBLAS.dylib: _cblas_srotg
__ libBLAS.dylib: _cblas_sscal
__ libBLAS.dylib: _cblas_ssyrk
__ libBLAS.dylib: _cblas_strmm
__ libBLAS.dylib: _cblas_strsm
__ libBLAS.dylib: _cblas_strsv
__ libLAPACK.dylib: _dlarfb_
__ libLAPACK.dylib: _dlarfg_
__ libLAPACK.dylib: _dlarft_
__ libLAPACK.dylib: _dormlq_
__ libLAPACK.dylib: _dpotf2_
__ libLAPACK.dylib: _ilaenv_
__ libLAPACK.dylib: _slarf_
__ libLAPACK.dylib: _slarfb_
__ libLAPACK.dylib: _slarfg_
__ libLAPACK.dylib: _slarft_
__ libLAPACK.dylib: _sormlq_
__ libLAPACK.dylib: _spotf2_
__ libSparseBLAS.dylib: _sparse_commit
__ libSystem.B.dylib: __Block_object_assign
__ libSystem.B.dylib: __Block_object_dispose
__ libSystem.B.dylib: __NSConcreteStackBlock
__ libSystem.B.dylib: ___chkstk_darwin
__ libSystem.B.dylib: ___stack_chk_fail
__ libSystem.B.dylib: ___stack_chk_guard
__ libSystem.B.dylib: ___stderrp
__ libSystem.B.dylib: ___ulock_wait
__ libSystem.B.dylib: ___ulock_wake
__ libSystem.B.dylib: __os_log_default
__ libSystem.B.dylib: __os_log_error_impl
__ libSystem.B.dylib: __tlv_bootstrap
__ libSystem.B.dylib: _bzero
__ libSystem.B.dylib: _dispatch_apply
__ libSystem.B.dylib: _exit
__ libSystem.B.dylib: _fflush
__ libSystem.B.dylib: _fprintf
__ libSystem.B.dylib: _fputc
__ libSystem.B.dylib: _free
__ libSystem.B.dylib: _fwrite
__ libSystem.B.dylib: _getline
__ libSystem.B.dylib: _getrusage
__ libSystem.B.dylib: _log2
__ libSystem.B.dylib: _longjmp
__ libSystem.B.dylib: _malloc
__ libSystem.B.dylib: _memcpy
__ libSystem.B.dylib: _memmove
__ libSystem.B.dylib: _memset
__ libSystem.B.dylib: _memset_pattern16
__ libSystem.B.dylib: _os_log_type_enabled
__ libSystem.B.dylib: _printf
__ libSystem.B.dylib: _putchar
__ libSystem.B.dylib: _puts
__ libSystem.B.dylib: _raise
__ libSystem.B.dylib: _rand
__ libSystem.B.dylib: _realloc
__ libSystem.B.dylib: _setjmp
__ libSystem.B.dylib: _signal
__ libSystem.B.dylib: _snprintf
__ libSystem.B.dylib: _srand
__ libSystem.B.dylib: _sscanf
__ libSystem.B.dylib: _strcasecmp
__ libSystem.B.dylib: _strlen
__ libSystem.B.dylib: _strncmp
__ libSystem.B.dylib: _strncpy
__ libSystem.B.dylib: _strtod
__ libSystem.B.dylib: _strtok
__ libSystem.B.dylib: _strtol
__ libSystem.B.dylib: _vfprintf
