|| __DATA_CONST.__const _ARIMSGDEF_GROUPS
|| __DATA_CONST.__const __ZTIN3Ari17AriClientGcdProxyE
|| __DATA_CONST.__const __ZTIN3Ari17AriClientXpcProxyE
|| __DATA_CONST.__const __ZTIN6AriSdk7MsgBaseE
|| __DATA_CONST.__const __ZTVN3Ari17AriClientGcdProxyE
|| __DATA_CONST.__const __ZTVN3Ari17AriClientXpcProxyE
|| __DATA_CONST.__const __ZTVN6AriSdk7MsgBaseE
|| __DATA_DIRTY.__common __ZN9AriHostRt23ClientTransitionTracker14tokenGeneratorE
|| __TEXT.__const _ARIMSGDEF_GROUPS_SZ
|| __TEXT.__const __ZTSN3Ari17AriClientGcdProxyE
|| __TEXT.__const __ZTSN3Ari17AriClientXpcProxyE
|| __TEXT.__const __ZTSN6AriSdk7MsgBaseE
|| __TEXT.__text _AriRuntimeDeregisterClient
|| __TEXT.__text _AriRuntimeDeregisterIndication
|| __TEXT.__text _AriRuntimeNotifyAck
|| __TEXT.__text _AriRuntimePushAllIndications
|| __TEXT.__text _AriRuntimeRegisterAllIndications
|| __TEXT.__text _AriRuntimeRegisterClient
|| __TEXT.__text _AriRuntimeRegisterIndication
|| __TEXT.__text _AriRuntimeReportError
|| __TEXT.__text _AriRuntimeSendRaw
|| __TEXT.__text __Z8asStringN9AriHostRt20ARI_CLIENT_ERROR_EVTE
|| __TEXT.__text __ZN3Ari11LogConfigRtEjPFvjPKcEPFviNSt3__112basic_stringIcNS4_11char_traitsIcEENS4_9allocatorIcEEEEjPKvjE
|| __TEXT.__text __ZN3Ari12AriXpcServer4initEv
|| __TEXT.__text __ZN3Ari12AriXpcServer6createEv
|| __TEXT.__text __ZN3Ari12AriXpcServerC1Ev
|| __TEXT.__text __ZN3Ari12AriXpcServerC2Ev
|| __TEXT.__text __ZN3Ari12AriXpcServerD1Ev
|| __TEXT.__text __ZN3Ari12AriXpcServerD2Ev
|| __TEXT.__text __ZN3Ari14AriClientProxy23AriClientProxyDebugDumpEijRNSt3__110shared_ptrIS0_EE
|| __TEXT.__text __ZN3Ari17AriClientGcdProxy11notifyEventE18ARI_XPC_NOTIFY_IDSy
|| __TEXT.__text __ZN3Ari17AriClientGcdProxy15forwardResponseENSt3__110shared_ptrINS1_6vectorIhNS1_9allocatorIhEEEEEE
|| __TEXT.__text __ZN3Ari17AriClientGcdProxy17cancelTransactionEiji
|| __TEXT.__text __ZN3Ari17AriClientGcdProxy17forwardIndicationENSt3__110shared_ptrINS1_6vectorIhNS1_9allocatorIhEEEEEE
|| __TEXT.__text __ZN3Ari17AriClientGcdProxy21getConnectDescriptionEv
|| __TEXT.__text __ZN3Ari17AriClientGcdProxyC1EPKcP16dispatch_queue_s
|| __TEXT.__text __ZN3Ari17AriClientGcdProxyC2EPKcP16dispatch_queue_s
|| __TEXT.__text __ZN3Ari17AriClientGcdProxyD0Ev
|| __TEXT.__text __ZN3Ari17AriClientGcdProxyD1Ev
|| __TEXT.__text __ZN3Ari17AriClientGcdProxyD2Ev
|| __TEXT.__text __ZN3Ari17AriClientXpcProxy11notifyEventE18ARI_XPC_NOTIFY_IDSy
|| __TEXT.__text __ZN3Ari17AriClientXpcProxy15forwardResponseENSt3__110shared_ptrINS1_6vectorIhNS1_9allocatorIhEEEEEE
|| __TEXT.__text __ZN3Ari17AriClientXpcProxy17cancelTransactionEiji
|| __TEXT.__text __ZN3Ari17AriClientXpcProxy17forwardIndicationENSt3__110shared_ptrINS1_6vectorIhNS1_9allocatorIhEEEEEE
|| __TEXT.__text __ZN3Ari17AriClientXpcProxy21getConnectDescriptionEv
|| __TEXT.__text __ZN3Ari17AriClientXpcProxyC1ENSt3__110shared_ptrINS_22AriXpcServerConnectionEEERKNS1_12basic_stringIcNS1_11char_traitsIcEENS1_9allocatorIcEEEE
|| __TEXT.__text __ZN3Ari17AriClientXpcProxyC2ENSt3__110shared_ptrINS_22AriXpcServerConnectionEEERKNS1_12basic_stringIcNS1_11char_traitsIcEENS1_9allocatorIcEEEE
|| __TEXT.__text __ZN3Ari17AriClientXpcProxyD0Ev
|| __TEXT.__text __ZN3Ari17AriClientXpcProxyD1Ev
|| __TEXT.__text __ZN3Ari17AriClientXpcProxyD2Ev
|| __TEXT.__text __ZN3Ari22AriXpcServerConnection18handleRegistrationEPv
|| __TEXT.__text __ZN3Ari22AriXpcServerConnection19handleClientMessageEPv
|| __TEXT.__text __ZN3Ari22AriXpcServerConnection20handleDeregistrationEPv
|| __TEXT.__text __ZN3Ari22AriXpcServerConnection4initEv
|| __TEXT.__text __ZN3Ari22AriXpcServerConnection6createEP17_xpc_connection_sNSt3__18functionIFvNS3_10shared_ptrIS0_EEEEE
|| __TEXT.__text __ZN3Ari22AriXpcServerConnectionC1EP17_xpc_connection_sNSt3__18functionIFvNS3_10shared_ptrIS0_EEEEE
|| __TEXT.__text __ZN3Ari22AriXpcServerConnectionC2EP17_xpc_connection_sNSt3__18functionIFvNS3_10shared_ptrIS0_EEEEE
|| __TEXT.__text __ZN3Ari22AriXpcServerConnectionD1Ev
|| __TEXT.__text __ZN3Ari22AriXpcServerConnectionD2Ev
|| __TEXT.__text __ZN6AriOsa10IpcFreeBufEPhm
|| __TEXT.__text __ZN6AriOsa7IpcInitEPNS_13IpcDescriptorE
|| __TEXT.__text __ZN6AriOsa7IpcPollEPNS_13IpcDescriptorEPm
|| __TEXT.__text __ZN6AriOsa7IpcReadEPNS_13IpcDescriptorEPhm
|| __TEXT.__text __ZN6AriOsa8IpcCloseEPNS_13IpcDescriptorE
|| __TEXT.__text __ZN6AriOsa8IpcWriteEPNS_13IpcDescriptorEPKhmPKNS_10IpcOptionsE
|| __TEXT.__text __ZN6AriSdk7MsgBase4sendEiU13block_pointerFiPhjE
|| __TEXT.__text __ZN6AriSdk7MsgBaseC2EPKhj
|| __TEXT.__text __ZN6AriSdk7MsgBaseC2Ejb
|| __TEXT.__text __ZN6AriSdk7MsgBaseD0Ev
|| __TEXT.__text __ZN6AriSdk7MsgBaseD1Ev
|| __TEXT.__text __ZN6AriSdk7MsgBaseD2Ev
|| __TEXT.__text __ZN7AriHost4SendER6AriMsgiU13block_pointerFiPhjEbj
|| __TEXT.__text __ZN9AriFramer4initEPKcPFiPhmEPFiS2_m8AriIpcFdEPFvN6AriOsa13IpcExceptionsEiE
|| __TEXT.__text __ZN9AriFramer5closeEv
|| __TEXT.__text __ZN9AriFramer8fmrMsgCbEPhm
|| __TEXT.__text __ZN9AriFramer9IpcDataCbEPhmPv
|| __TEXT.__text __ZN9AriHostRt11GetInstanceEv
|| __TEXT.__text __ZN9AriHostRt12InboundIndCBENSt3__110shared_ptrINS0_6vectorIhNS0_9allocatorIhEEEEEE
|| __TEXT.__text __ZN9AriHostRt12InboundMsgCBEPhm
|| __TEXT.__text __ZN9AriHostRt13InboundRespCBENSt3__110shared_ptrINS0_6vectorIhNS0_9allocatorIhEEEEEE
|| __TEXT.__text __ZN9AriHostRt13RegIndicationEjj
|| __TEXT.__text __ZN9AriHostRt13RtTransaction11isLaterThanENSt3__16chrono10time_pointINS2_12system_clockENS2_8durationIxNS1_5ratioILl1ELl1000000EEEEEEE
|| __TEXT.__text __ZN9AriHostRt13RtTransaction14getClientProxyEv
|| __TEXT.__text __ZN9AriHostRt13RtTransaction16getFullContextIdEv
|| __TEXT.__text __ZN9AriHostRt13RtTransaction21startTimeoutCountDownEv
|| __TEXT.__text __ZN9AriHostRt13RtTransaction6cancelEi
|| __TEXT.__text __ZN9AriHostRt13RtTransaction6createEPKhjNSt3__110shared_ptrIN3Ari14AriClientProxyEEEP16dispatch_queue_syy
|| __TEXT.__text __ZN9AriHostRt13RtTransaction7getGMIDEv
|| __TEXT.__text __ZN9AriHostRt13RtTransaction9updateSeqEj
|| __TEXT.__text __ZN9AriHostRt13RtTransactionC1ENSt3__110shared_ptrINS1_6vectorIhNS1_9allocatorIhEEEEEENS2_IN3Ari14AriClientProxyEEEP16dispatch_queue_syy
|| __TEXT.__text __ZN9AriHostRt13RtTransactionC2ENSt3__110shared_ptrINS1_6vectorIhNS1_9allocatorIhEEEEEENS2_IN3Ari14AriClientProxyEEEP16dispatch_queue_syy
|| __TEXT.__text __ZN9AriHostRt13RtTransactionD1Ev
|| __TEXT.__text __ZN9AriHostRt13RtTransactionD2Ev
|| __TEXT.__text __ZN9AriHostRt14HasEntitlementEPv
|| __TEXT.__text __ZN9AriHostRt14RegisterClientENSt3__110shared_ptrIN3Ari22AriXpcServerConnectionEEERKNS0_12basic_stringIcNS0_11char_traitsIcEENS0_9allocatorIcEEEEPj
|| __TEXT.__text __ZN9AriHostRt14RegisterClientEPKcPjP16dispatch_queue_s
|| __TEXT.__text __ZN9AriHostRt15DeregIndicationEjj
|| __TEXT.__text __ZN9AriHostRt15RegisterSnifferEP16dispatch_queue_sPFiPhmEb
|| __TEXT.__text __ZN9AriHostRt15setMsgAttrib_nlEP17AriMsgAttribParam
|| __TEXT.__text __ZN9AriHostRt16DeregisterClientEj
|| __TEXT.__text __ZN9AriHostRt16regIndication_nlEjj
|| __TEXT.__text __ZN9AriHostRt17RegAllIndicationsEj
|| __TEXT.__text __ZN9AriHostRt18ProcessClientErrorEi21ARI_CLIENT_ERROR_TYPENSt3__112basic_stringIcNS1_11char_traitsIcEENS1_9allocatorIcEEEE
|| __TEXT.__text __ZN9AriHostRt18PushAllIndicationsEjRKNSt3__14listIjNS0_9allocatorIjEEEE
|| __TEXT.__text __ZN9AriHostRt18sendRawInternal_nlEPhj
|| __TEXT.__text __ZN9AriHostRt20processStartEvent_nlEv
|| __TEXT.__text __ZN9AriHostRt21CancelAllTransactionsEv
|| __TEXT.__text __ZN9AriHostRt22ProcessClientNotifyAckEi18ARI_XPC_NOTIFY_IDSy
|| __TEXT.__text __ZN9AriHostRt23ClientTransitionTracker11trackClientENSt3__110shared_ptrIN3Ari14AriClientProxyEEE18ARI_XPC_NOTIFY_IDS
|| __TEXT.__text __ZN9AriHostRt23ClientTransitionTracker12removeClientEjy
|| __TEXT.__text __ZN9AriHostRt23ClientTransitionTracker17removeAllTrackingEj
|| __TEXT.__text __ZN9AriHostRt23ClientTransitionTracker19logRemainingClientsEv
|| __TEXT.__text __ZN9AriHostRt23ClientTransitionTracker6createENSt3__18functionIFvvEEE
|| __TEXT.__text __ZN9AriHostRt23ClientTransitionTrackerC1ENSt3__18functionIFvvEEE
|| __TEXT.__text __ZN9AriHostRt23ClientTransitionTrackerC2ENSt3__18functionIFvvEEE
|| __TEXT.__text __ZN9AriHostRt23ClientTransitionTrackerD1Ev
|| __TEXT.__text __ZN9AriHostRt23ClientTransitionTrackerD2Ev
|| __TEXT.__text __ZN9AriHostRt23SetMsgTimeoutMultiplierEj
|| __TEXT.__text __ZN9AriHostRt23sendBootStateRequest_nlEv
|| __TEXT.__text __ZN9AriHostRt24sendGroupRegistration_nlEP21AriGrpMsgsAttribParam
|| __TEXT.__text __ZN9AriHostRt26RegisterEntitlementCheckerENSt3__18functionIFbPvEEE
|| __TEXT.__text __ZN9AriHostRt29RegisterBasebandResetDelegateENSt3__18functionIFvNS_20ARI_CLIENT_ERROR_EVTENS0_12basic_stringIcNS0_11char_traitsIcEENS0_9allocatorIcEEEEijEEE
|| __TEXT.__text __ZN9AriHostRt29checkShouldDeregIndication_nlENSt3__16vectorIiNS0_9allocatorIiEEEE
|| __TEXT.__text __ZN9AriHostRt4InitEPKcU13block_pointerFvvEP16dispatch_queue_sj
|| __TEXT.__text __ZN9AriHostRt4InitEPKcj
|| __TEXT.__text __ZN9AriHostRt4InitEv
|| __TEXT.__text __ZN9AriHostRt7SendRawEPhjj
|| __TEXT.__text __ZN9AriHostRt8ShutdownEv
|| __TEXT.__text __ZN9AriHostRt9DumpStateEv
|| __TEXT.__text __ZN9AriHostRt9SetOPModeENS_11ARI_OP_MODEEP16dispatch_group_sj
|| __TEXT.__text __ZN9AriHostRt9commitLPMEj
|| __TEXT.__text __ZN9AriHostRtC1Ev
|| __TEXT.__text __ZN9AriHostRtC2Ev
|| __TEXT.__text __ZN9AriHostRtD1Ev
|| __TEXT.__text __ZN9AriHostRtD2Ev
|| __TEXT.__text __ZNK3Ari12AriXpcServer9dumpStateEv
|| __TEXT.__text __ZNK3Ari22AriXpcServerConnection21getConnectDescriptionEv
|| __TEXT.__text __ZNK3Ari22AriXpcServerConnection4sendEPv
|| __TEXT.__text __ZNK3Ari22AriXpcServerConnection9dumpStateEv
|| __TEXT.__text __ZNK9AriHostRt13RtTransaction12getTimeoutMsEv
|| __TEXT.__text __ZNK9AriHostRt13RtTransaction8asStringEv
__ CoreFoundation: _CFNotificationCenterGetDarwinNotifyCenter
__ CoreFoundation: _CFNotificationCenterPostNotification
__ CoreFoundation: ___CFConstantStringClassReference
__ libARI.dylib: _ARIMSGDEF_GROUP01_bsp
__ libARI.dylib: _ARI_AriACK_Extract
__ libARI.dylib: _ARI_AriMsgAttribResp_Extract
__ libARI.dylib: _ARI_AriNACK_Extract
__ libARI.dylib: _ARI_CsiGetCurrentBootStateRspCb_Extract
__ libARI.dylib: __Z12GetBufDigestPKhmPKc
__ libARI.dylib: __Z18make_shared_bufferPKhm
__ libARI.dylib: __Z25AriFramer_HeaderMagicScanPKhmPiPm
__ libARI.dylib: __Z8asString13AriAttribType
__ libARI.dylib: __Z8asString14AriAttribValue
__ libARI.dylib: __Z8asString14AriResult_enum
__ libARI.dylib: __Z8asString18ARI_XPC_NOTIFY_IDS
__ libARI.dylib: __Z8asString19AriAttribActionType
__ libARI.dylib: __Z8asStringN3Ari7OpStateE
__ libARI.dylib: __Z8asStringPv
__ libARI.dylib: __ZN11AriDispatch5Timer3setEyU13block_pointerFvvE
__ libARI.dylib: __ZN11AriDispatch5Timer6CreateEP16dispatch_queue_s
__ libARI.dylib: __ZN11AriDispatch5Timer6cancelEv
__ libARI.dylib: __ZN11AriDispatch9Semaphore4waitEy
__ libARI.dylib: __ZN11AriDispatch9Semaphore6CreateENSt3__112basic_stringIcNS1_11char_traitsIcEENS1_9allocatorIcEEEEl
__ libARI.dylib: __ZN11AriDispatch9Semaphore6signalEv
__ libARI.dylib: __ZN3Ari12GetLogLevelsEv
__ libARI.dylib: __ZN3Ari15LogTransportBufENSt3__112basic_stringIcNS0_11char_traitsIcEENS0_9allocatorIcEEEEjPKvi
__ libARI.dylib: __ZN3Ari3LogEjPKcz
__ libARI.dylib: __ZN3Ari6LogBufEPKcS1_jPKvmj
__ libARI.dylib: __ZN3Ari6SWTrapEbPKcS1_i
__ libARI.dylib: __ZN3Ari9LogConfigEjPFvjPKcEPFviNSt3__112basic_stringIcNS4_11char_traitsIcEENS4_9allocatorIcEEEEjPKvjE
__ libARI.dylib: __ZN3Ari9LogHeaderEPKh
__ libARI.dylib: __ZN5IDMgr4dumpEb
__ libARI.dylib: __ZN5IDMgr4freeEib
__ libARI.dylib: __ZN5IDMgr7isAllocEi
__ libARI.dylib: __ZN5IDMgr8allocateEPib
__ libARI.dylib: __ZN5IDMgr8allocateEi
__ libARI.dylib: __ZN5IDMgrC1Eii
__ libARI.dylib: __ZN6AriMsg10GetBufGmidEPKhm
__ libARI.dylib: __ZN6AriMsg21ReleaseEncodedMessageEPh
__ libARI.dylib: __ZN6AriMsg4packEjPKvm
__ libARI.dylib: __ZN6AriMsg9GetBufCtxEPKhm
__ libARI.dylib: __ZN6AriMsg9GetBufSeqEPKhmPj
__ libARI.dylib: __ZN6AriMsg9SetBufSeqEPKhmj
__ libARI.dylib: __ZN6AriMsgC1Ej
__ libARI.dylib: __ZN6AriMsgD1Ev
__ libARI.dylib: __ZN6AriOsa10LogSrcInfoEPKcS1_
__ libARI.dylib: __ZN6AriOsa11OsMutexFreeEP20dispatch_semaphore_s
__ libARI.dylib: __ZN6AriOsa11OsMutexGiveEP20dispatch_semaphore_s
__ libARI.dylib: __ZN6AriOsa11OsMutexTakeEP20dispatch_semaphore_sj
__ libARI.dylib: __ZN6AriOsa11OsTimeStampEv
__ libARI.dylib: __ZN6AriOsa13OsMutexCreateEPP20dispatch_semaphore_s
__ libARI.dylib: __ZN6AriOsa7OsSleepEj
__ libARI.dylib: __ZNK6AriMsg13getEncodedBufEPj
__ libPCITransport.dylib: _TelephonyBasebandPCITransportCreate
__ libPCITransport.dylib: _TelephonyBasebandPCITransportInitParameters
__ libSystem.B.dylib: __Block_copy
__ libSystem.B.dylib: __Block_object_dispose
__ libSystem.B.dylib: __Block_release
__ libSystem.B.dylib: __NSConcreteGlobalBlock
__ libSystem.B.dylib: __NSConcreteStackBlock
__ libSystem.B.dylib: __Unwind_Resume
__ libSystem.B.dylib: ___cxa_atexit
__ libSystem.B.dylib: ___stack_chk_fail
__ libSystem.B.dylib: ___stack_chk_guard
__ libSystem.B.dylib: __xpc_error_termination_imminent
__ libSystem.B.dylib: __xpc_type_connection
__ libSystem.B.dylib: __xpc_type_dictionary
__ libSystem.B.dylib: __xpc_type_error
__ libSystem.B.dylib: _bzero
__ libSystem.B.dylib: _clock_gettime_nsec_np
__ libSystem.B.dylib: _dispatch_async
__ libSystem.B.dylib: _dispatch_group_async
__ libSystem.B.dylib: _dispatch_once
__ libSystem.B.dylib: _dispatch_queue_attr_make_with_qos_class
__ libSystem.B.dylib: _dispatch_queue_create
__ libSystem.B.dylib: _dispatch_queue_get_label
__ libSystem.B.dylib: _dispatch_release
__ libSystem.B.dylib: _dispatch_retain
__ libSystem.B.dylib: _dispatch_sync
__ libSystem.B.dylib: _dispatch_time
__ libSystem.B.dylib: _dispatch_walltime
__ libSystem.B.dylib: _dlclose
__ libSystem.B.dylib: _dlopen
__ libSystem.B.dylib: _dlsym
__ libSystem.B.dylib: _free
__ libSystem.B.dylib: _getprogname
__ libSystem.B.dylib: _malloc
__ libSystem.B.dylib: _memcpy
__ libSystem.B.dylib: _memmove
__ libSystem.B.dylib: _memset
__ libSystem.B.dylib: _strcmp
__ libSystem.B.dylib: _strlcpy
__ libSystem.B.dylib: _strlen
__ libSystem.B.dylib: _strncmp
__ libSystem.B.dylib: _xpc_array_apply
__ libSystem.B.dylib: _xpc_connection_cancel
__ libSystem.B.dylib: _xpc_connection_create_mach_service
__ libSystem.B.dylib: _xpc_connection_resume
__ libSystem.B.dylib: _xpc_connection_send_message
__ libSystem.B.dylib: _xpc_connection_set_event_handler
__ libSystem.B.dylib: _xpc_connection_set_target_queue
__ libSystem.B.dylib: _xpc_dictionary_create
__ libSystem.B.dylib: _xpc_dictionary_create_reply
__ libSystem.B.dylib: _xpc_dictionary_get_array
__ libSystem.B.dylib: _xpc_dictionary_get_bool
__ libSystem.B.dylib: _xpc_dictionary_get_data
__ libSystem.B.dylib: _xpc_dictionary_get_string
__ libSystem.B.dylib: _xpc_dictionary_get_uint64
__ libSystem.B.dylib: _xpc_dictionary_set_data
__ libSystem.B.dylib: _xpc_dictionary_set_int64
__ libSystem.B.dylib: _xpc_dictionary_set_uint64
__ libSystem.B.dylib: _xpc_get_type
__ libSystem.B.dylib: _xpc_release
__ libSystem.B.dylib: _xpc_retain
__ libSystem.B.dylib: _xpc_uint64_get_value
__ libTelephonyUtilDynamic.dylib: _TelephonyCapabilitiesRadioARITransportTimeoutInMsec
__ libTelephonyUtilDynamic.dylib: _TelephonyUtilTransportFree
__ libc++.1.dylib: __ZNKSt3__115basic_stringbufIcNS_11char_traitsIcEENS_9allocatorIcEEE3strEv
__ libc++.1.dylib: __ZNKSt3__119__shared_weak_count13__get_deleterERKSt9type_info
__ libc++.1.dylib: __ZNKSt3__120__vector_base_commonILb1EE20__throw_length_errorEv
__ libc++.1.dylib: __ZNKSt3__121__basic_string_commonILb1EE20__throw_length_errorEv
__ libc++.1.dylib: __ZNKSt3__16locale9use_facetERNS0_2idE
__ libc++.1.dylib: __ZNKSt3__18ios_base6getlocEv
__ libc++.1.dylib: __ZNKSt9exception4whatEv
__ libc++.1.dylib: __ZNSt11logic_errorC2EPKc
__ libc++.1.dylib: __ZNSt12length_errorD1Ev
__ libc++.1.dylib: __ZNSt3__112__next_primeEm
__ libc++.1.dylib: __ZNSt3__112bad_weak_ptrD1Ev
__ libc++.1.dylib: __ZNSt3__112basic_stringIcNS_11char_traitsIcEENS_9allocatorIcEEE5eraseEmm
__ libc++.1.dylib: __ZNSt3__112basic_stringIcNS_11char_traitsIcEENS_9allocatorIcEEE6appendEPKc
__ libc++.1.dylib: __ZNSt3__112basic_stringIcNS_11char_traitsIcEENS_9allocatorIcEEE6appendEPKcm
__ libc++.1.dylib: __ZNSt3__112basic_stringIcNS_11char_traitsIcEENS_9allocatorIcEEE6assignEPKc
__ libc++.1.dylib: __ZNSt3__112basic_stringIcNS_11char_traitsIcEENS_9allocatorIcEEE6insertEmPKc
__ libc++.1.dylib: __ZNSt3__112basic_stringIcNS_11char_traitsIcEENS_9allocatorIcEEE9push_backEc
__ libc++.1.dylib: __ZNSt3__112basic_stringIcNS_11char_traitsIcEENS_9allocatorIcEEEC1ERKS5_
__ libc++.1.dylib: __ZNSt3__112basic_stringIcNS_11char_traitsIcEENS_9allocatorIcEEED1Ev
__ libc++.1.dylib: __ZNSt3__112basic_stringIcNS_11char_traitsIcEENS_9allocatorIcEEEaSERKS5_
__ libc++.1.dylib: __ZNSt3__113basic_ostreamIcNS_11char_traitsIcEEE6sentryC1ERS3_
__ libc++.1.dylib: __ZNSt3__113basic_ostreamIcNS_11char_traitsIcEEE6sentryD1Ev
__ libc++.1.dylib: __ZNSt3__113basic_ostreamIcNS_11char_traitsIcEEED2Ev
__ libc++.1.dylib: __ZNSt3__113basic_ostreamIcNS_11char_traitsIcEEElsEi
__ libc++.1.dylib: __ZNSt3__113basic_ostreamIcNS_11char_traitsIcEEElsEm
__ libc++.1.dylib: __ZNSt3__115basic_streambufIcNS_11char_traitsIcEEEC2Ev
__ libc++.1.dylib: __ZNSt3__115basic_streambufIcNS_11char_traitsIcEEED2Ev
__ libc++.1.dylib: __ZNSt3__119__shared_weak_count14__release_weakEv
__ libc++.1.dylib: __ZNSt3__119__shared_weak_count4lockEv
__ libc++.1.dylib: __ZNSt3__119__shared_weak_countD2Ev
__ libc++.1.dylib: __ZNSt3__15ctypeIcE2idE
__ libc++.1.dylib: __ZNSt3__15mutex4lockEv
__ libc++.1.dylib: __ZNSt3__15mutex6unlockEv
__ libc++.1.dylib: __ZNSt3__15mutexD1Ev
__ libc++.1.dylib: __ZNSt3__16chrono12system_clock3nowEv
__ libc++.1.dylib: __ZNSt3__16localeD1Ev
__ libc++.1.dylib: __ZNSt3__18ios_base33__set_badbit_and_consider_rethrowEv
__ libc++.1.dylib: __ZNSt3__18ios_base4initEPv
__ libc++.1.dylib: __ZNSt3__18ios_base5clearEj
__ libc++.1.dylib: __ZNSt3__19basic_iosIcNS_11char_traitsIcEEED2Ev
__ libc++.1.dylib: __ZNSt3__1plIcNS_11char_traitsIcEENS_9allocatorIcEEEENS_12basic_stringIT_T0_T1_EEPKS6_RKS9_
__ libc++.1.dylib: __ZNSt9exceptionD2Ev
__ libc++.1.dylib: __ZSt9terminatev
__ libc++.1.dylib: __ZTINSt3__112bad_weak_ptrE
__ libc++.1.dylib: __ZTINSt3__119__shared_weak_countE
__ libc++.1.dylib: __ZTISt12length_error
__ libc++.1.dylib: __ZTISt9exception
__ libc++.1.dylib: __ZTTNSt3__119basic_ostringstreamIcNS_11char_traitsIcEENS_9allocatorIcEEEE
__ libc++.1.dylib: __ZTVN10__cxxabiv117__class_type_infoE
__ libc++.1.dylib: __ZTVN10__cxxabiv119__pointer_type_infoE
__ libc++.1.dylib: __ZTVN10__cxxabiv120__function_type_infoE
__ libc++.1.dylib: __ZTVN10__cxxabiv120__si_class_type_infoE
__ libc++.1.dylib: __ZTVN10__cxxabiv121__vmi_class_type_infoE
__ libc++.1.dylib: __ZTVNSt3__112bad_weak_ptrE
__ libc++.1.dylib: __ZTVNSt3__115basic_stringbufIcNS_11char_traitsIcEENS_9allocatorIcEEEE
__ libc++.1.dylib: __ZTVNSt3__119basic_ostringstreamIcNS_11char_traitsIcEENS_9allocatorIcEEEE
__ libc++.1.dylib: __ZTVSt12length_error
__ libc++.1.dylib: __ZdlPv
__ libc++.1.dylib: __Znwm
__ libc++.1.dylib: ___cxa_allocate_exception
__ libc++.1.dylib: ___cxa_begin_catch
__ libc++.1.dylib: ___cxa_end_catch
__ libc++.1.dylib: ___cxa_free_exception
__ libc++.1.dylib: ___cxa_guard_abort
__ libc++.1.dylib: ___cxa_guard_acquire
__ libc++.1.dylib: ___cxa_guard_release
__ libc++.1.dylib: ___cxa_pure_virtual
__ libc++.1.dylib: ___cxa_throw
__ libc++.1.dylib: ___gxx_personality_v0
