|| __DATA_CONST.__const __ZN3awd27AwddStartedNotificationNameE
|| __DATA_CONST.__const __ZN3awd29AwddStartedNotificationObjectE
|| __DATA_CONST.__const __ZTI25AwdMetadataLoaderDelegate
|| __DATA_CONST.__const __ZTI32BestChoiceMetadataLoaderDelegate
|| __DATA_CONST.__const __ZTV25AwdMetadataLoaderDelegate
|| __DATA_CONST.__const __ZTV32BestChoiceMetadataLoaderDelegate
|| __TEXT.__const __ZTS25AwdMetadataLoaderDelegate
|| __TEXT.__const __ZTS32BestChoiceMetadataLoaderDelegate
|| __TEXT.__text __Z14sDumpMetricLogNSt3__110shared_ptrI17AwdMetadataLoaderEEPKvm10DumpFormat
|| __TEXT.__text __Z14sGetMetricNameRKNSt3__110shared_ptrI17AwdMetadataLoaderEEj
|| __TEXT.__text __Z15sDumpMetricFileNSt3__110shared_ptrI17AwdMetadataLoaderEEPKvm10DumpFormat
|| __TEXT.__text __Z19sConvertMetricToXpcRKNSt3__110shared_ptrI17AwdMetadataLoaderEEPKhm
|| __TEXT.__text __Z19sResolveMetricNamesRKNSt3__110shared_ptrI17AwdMetadataLoaderEERKNS_13unordered_setINS_12basic_stringIcNS_11char_traitsIcEENS_9allocatorIcEEEENS_4hashISB_EENS_8equal_toISB_EENS9_ISB_EEEE
|| __TEXT.__text __Z20sConvertMetricToJsonRKNSt3__110shared_ptrI17AwdMetadataLoaderEEPKhm
|| __TEXT.__text __Z21sConvertTriggerToJsonRKNSt3__110shared_ptrI17AwdMetadataLoaderEEPKhm
|| __TEXT.__text __Z24sDumpDeviceConfigurationNSt3__110shared_ptrI17AwdMetadataLoaderEEPKvm10DumpFormat
|| __TEXT.__text __Z39sCreateBestChoiceMetadataLoaderDelegatev
|| __TEXT.__text __Z40sCreateAwdMetadataLoaderForXpcConversionv
|| __TEXT.__text __Z41sCreateAwdMetadataLoaderForJsonConversionv
|| __TEXT.__text __Z44sCreateLazyAwdMetadataLoaderForXpcConversionv
|| __TEXT.__text __ZN14MetadataHelperC1ERKNSt3__110shared_ptrI17AwdMetadataLoaderEE
|| __TEXT.__text __ZN14MetadataHelperC2ERKNSt3__110shared_ptrI17AwdMetadataLoaderEE
|| __TEXT.__text __ZN17AwdMetadataLoader21loadComponentMetadataEj
|| __TEXT.__text __ZN17AwdMetadataLoader22loadMetricFileMetadataEv
|| __TEXT.__text __ZN17AwdMetadataLoader24loadDeviceConfigMetadataEv
|| __TEXT.__text __ZN17AwdMetadataLoaderC1E21ComponentMetadataKindNSt3__110unique_ptrI25AwdMetadataLoaderDelegateNS1_14default_deleteIS3_EEEE
|| __TEXT.__text __ZN17AwdMetadataLoaderC2E21ComponentMetadataKindNSt3__110unique_ptrI25AwdMetadataLoaderDelegateNS1_14default_deleteIS3_EEEE
|| __TEXT.__text __ZN18LazyMetadataLoader15setBaseMetadataEPv
|| __TEXT.__text __ZN18LazyMetadataLoader19baseMetadataIsValidEv
|| __TEXT.__text __ZN18LazyMetadataLoader21shouldRequestMetadataEy
|| __TEXT.__text __ZN18LazyMetadataLoader23hasMetadataForComponentEj
|| __TEXT.__text __ZN18LazyMetadataLoader23setMetadataForComponentEPvj
|| __TEXT.__text __ZN24MetricFileMetadataHelper23setupMetricFileSentinelEv
|| __TEXT.__text __ZN24MetricFileMetadataHelperC1E16MetricScopeTag_tRKNSt3__110shared_ptrI17AwdMetadataLoaderEEj
|| __TEXT.__text __ZN24MetricFileMetadataHelperC1E19MetricLogScopeTag_tRKNSt3__110shared_ptrI17AwdMetadataLoaderEE
|| __TEXT.__text __ZN24MetricFileMetadataHelperC1E20MetricFileScopeTag_tRKNSt3__110shared_ptrI17AwdMetadataLoaderEE
|| __TEXT.__text __ZN24MetricFileMetadataHelperC2E16MetricScopeTag_tRKNSt3__110shared_ptrI17AwdMetadataLoaderEEj
|| __TEXT.__text __ZN24MetricFileMetadataHelperC2E19MetricLogScopeTag_tRKNSt3__110shared_ptrI17AwdMetadataLoaderEE
|| __TEXT.__text __ZN24MetricFileMetadataHelperC2E20MetricFileScopeTag_tRKNSt3__110shared_ptrI17AwdMetadataLoaderEE
|| __TEXT.__text __ZN25AwdMetadataLoaderDelegateD0Ev
|| __TEXT.__text __ZN25AwdMetadataLoaderDelegateD1Ev
|| __TEXT.__text __ZN25AwdMetadataLoaderDelegateD2Ev
|| __TEXT.__text __ZN26DeviceConfigMetadataHelperC1ERKNSt3__110shared_ptrI17AwdMetadataLoaderEE
|| __TEXT.__text __ZN26DeviceConfigMetadataHelperC2ERKNSt3__110shared_ptrI17AwdMetadataLoaderEE
|| __TEXT.__text __ZN32BestChoiceMetadataLoaderDelegate14getMetricIndexEv
|| __TEXT.__text __ZN32BestChoiceMetadataLoaderDelegate16ensureCacheReadyEv
|| __TEXT.__text __ZN32BestChoiceMetadataLoaderDelegate16loadBaseMetadataEv
|| __TEXT.__text __ZN32BestChoiceMetadataLoaderDelegate16readOverrideFileEjRKNSt3__112basic_stringIcNS0_11char_traitsIcEENS0_9allocatorIcEEEE
|| __TEXT.__text __ZN32BestChoiceMetadataLoaderDelegate17readComponentDataE21ComponentMetadataKindj
|| __TEXT.__text __ZN32BestChoiceMetadataLoaderDelegate20loadOverrideMetadataEj
|| __TEXT.__text __ZN32BestChoiceMetadataLoaderDelegate20markOverrideFileUsedEjRK13MetadataIndex
|| __TEXT.__text __ZN32BestChoiceMetadataLoaderDelegate22getComponentsAvailableE21ComponentMetadataKind
|| __TEXT.__text __ZN32BestChoiceMetadataLoaderDelegate22readMetricFileMetadataE21ComponentMetadataKind
|| __TEXT.__text __ZN32BestChoiceMetadataLoaderDelegate23markOverrideFileSkippedEjRK13MetadataIndex
|| __TEXT.__text __ZN32BestChoiceMetadataLoaderDelegate7pickMapE21ComponentMetadataKind
|| __TEXT.__text __ZN32BestChoiceMetadataLoaderDelegateC1Ev
|| __TEXT.__text __ZN32BestChoiceMetadataLoaderDelegateC2Ev
|| __TEXT.__text __ZN32BestChoiceMetadataLoaderDelegateD0Ev
|| __TEXT.__text __ZN32BestChoiceMetadataLoaderDelegateD1Ev
|| __TEXT.__text __ZN32BestChoiceMetadataLoaderDelegateD2Ev
|| __TEXT.__text __ZN3awd14GetProtobufTagEPKhm
|| __TEXT.__text __ZN3awd14GetProtobufTagERKNSt3__16vectorIhNS0_9allocatorIhEEEE
|| __TEXT.__text __ZN3awd15getAWDTimestampEv
|| __TEXT.__text __ZN3awd15serializeMetricERKN20wireless_diagnostics6google8protobuf11MessageLiteEj
|| __TEXT.__text __ZN3awd15serializeMetricERKN2PB4BaseEj
|| __TEXT.__text __ZN3awd18timevalToTimestampER7timeval
|| __TEXT.__text __ZN3awd20createTagForProtobufEjm
|| __TEXT.__text __ZN3awd21tagSerializedProtobufEjRNSt3__16vectorIhNS0_9allocatorIhEEEE
|| __TEXT.__text __ZN3awd23getComponentForMetricIdEj
|| __TEXT.__text __ZN3awd25getCoreAnalyticsEventNameEj
|| __TEXT.__text __ZN3awd7reflect13getPackedTypeENS0_4TypeE
|| __TEXT.__text __ZN3awd7reflect15getDecodingTypeENS0_4TypeENS0_8WireTypeE
|| __TEXT.__text __ZN3awd7reflect15getUnpackedTypeENS0_4TypeE
|| __TEXT.__text __ZN3awd7reflect18getWireTypeForTypeENS0_4TypeE
|| __TEXT.__text __ZN3awd7reflect9decodeTagEj
|| __TEXT.__text __ZN3awd7reflect9encodeTagENS0_8WireTypeEj
|| __TEXT.__text __ZN3awd8asStringENS_15DiagnosticsModeE
|| __TEXT.__text __ZN3awd8asStringERKNS_7TriggerE
|| __TEXT.__text __ZN3awd8protobuf15NumberConverterILNS_7reflect4TypeE1EE6decodeEy
|| __TEXT.__text __ZN3awd8protobuf15NumberConverterILNS_7reflect4TypeE1EE6encodeEd
|| __TEXT.__text __ZN3awd8protobuf15NumberConverterILNS_7reflect4TypeE2EE6decodeEy
|| __TEXT.__text __ZN3awd8protobuf15NumberConverterILNS_7reflect4TypeE2EE6encodeEf
|| __TEXT.__text __ZN3awd8protobuf15NumberConverterILNS_7reflect4TypeE5EE6decodeEy
|| __TEXT.__text __ZN3awd8protobuf15NumberConverterILNS_7reflect4TypeE5EE6encodeEx
|| __TEXT.__text __ZN3awd8protobuf15NumberConverterILNS_7reflect4TypeE8EE6decodeEy
|| __TEXT.__text __ZN3awd8protobuf15NumberConverterILNS_7reflect4TypeE8EE6encodeEi
|| __TEXT.__text __ZN3awd8protobuf9skipFieldERN20wireless_diagnostics6google8protobuf2io16CodedInputStreamENS_7reflect8WireTypeE
|| __TEXT.__text __ZNK14MetadataHandle10getMessageEv
|| __TEXT.__text __ZNK14MetadataHandle7getEnumEv
|| __TEXT.__text __ZNK14MetadataHandle8getFieldEv
|| __TEXT.__text __ZNK14MetadataHelper14getBuiltinTypeE14MetadataHandle
|| __TEXT.__text __ZNK14MetadataHelper18descendIntoMessageE14MetadataHandle
|| __TEXT.__text __ZNK14MetadataHelper23resolveSubfieldInHandleE14MetadataHandlej
|| __TEXT.__text __ZNK14MetadataHelper8getFieldE14MetadataHandle
|| __TEXT.__text __ZNK17AwdMetadataLoader14getMetricIndexEv
|| __TEXT.__text __ZNK17AwdMetadataLoader22getComponentsAvailableEv
|| __TEXT.__text __ZNK24MetricFileMetadataHelper11getSubfieldE14MetadataHandlej
|| __TEXT.__text __ZNK24MetricFileMetadataHelper15getComponentIdsEv
|| __TEXT.__text __ZNK24MetricFileMetadataHelper15getSubfieldTypeE14MetadataHandlej
|| __TEXT.__text __ZNK24MetricFileMetadataHelper15isTopLevelFieldE14MetadataHandle
|| __TEXT.__text __ZNK24MetricFileMetadataHelper18getHandleForMetricEj
|| __TEXT.__text __ZNK24MetricFileMetadataHelper21getMetricsInComponentEj
|| __TEXT.__text __ZNK24MetricFileMetadataHelper23getMetadataForComponentEj
|| __TEXT.__text __ZNK24MetricFileMetadataHelper26createMetadataForComponentEj
|| __TEXT.__text __ZNK24MetricFileMetadataHelper29resolveSubfieldInMetricHandleE14MetadataHandlej
|| __TEXT.__text __ZNK26DeviceConfigMetadataHelper15getSubfieldTypeE14MetadataHandlej
|| __TEXT.__text _createDescriptionForMetriclogFile
|| __TEXT.__text _setupAWDConnection
|| __TEXT.__text _teardownAWDConnection
__ CoreFoundation: _CFStringCreateWithCString
__ CoreFoundation: _CFStringGetCString
__ CoreFoundation: _CFStringGetLength
__ CoreFoundation: _CFStringGetMaximumSizeForEncoding
__ CoreFoundation: ___CFConstantStringClassReference
__ CoreFoundation: _kCFAllocatorDefault
__ ProtocolBuffer: __ZN2PB13TextFormatter11beginObjectEPKc
__ ProtocolBuffer: __ZN2PB13TextFormatter6formatEPKcRKNSt3__112basic_stringIcNS3_11char_traitsIcEENS3_9allocatorIcEEEE
__ ProtocolBuffer: __ZN2PB13TextFormatter6formatEPKcb
__ ProtocolBuffer: __ZN2PB13TextFormatter6formatEPKci
__ ProtocolBuffer: __ZN2PB13TextFormatter6formatEPKcj
__ ProtocolBuffer: __ZN2PB13TextFormatter6formatEPKcx
__ ProtocolBuffer: __ZN2PB13TextFormatter6formatEPKcy
__ ProtocolBuffer: __ZN2PB13TextFormatter9endObjectEv
__ ProtocolBuffer: __ZN2PB4BaseD2Ev
__ ProtocolBuffer: __ZN2PB6Reader10recallMarkERKNS_10ReaderMarkE
__ ProtocolBuffer: __ZN2PB6Reader4readERNSt3__112basic_stringIcNS1_11char_traitsIcEENS1_9allocatorIcEEEE
__ ProtocolBuffer: __ZN2PB6Reader4skipEjhi
__ ProtocolBuffer: __ZN2PB6Reader9placeMarkERNS_10ReaderMarkE
__ ProtocolBuffer: __ZN2PB6ReaderC1EPKhm
__ ProtocolBuffer: __ZN2PB6Writer11writeVarIntEij
__ ProtocolBuffer: __ZN2PB6Writer11writeVarIntEjj
__ ProtocolBuffer: __ZN2PB6Writer11writeVarIntExj
__ ProtocolBuffer: __ZN2PB6Writer11writeVarIntEyj
__ ProtocolBuffer: __ZN2PB6Writer15writeSubmessageERKNS_4BaseEj
__ ProtocolBuffer: __ZN2PB6Writer5writeERKNSt3__112basic_stringIcNS1_11char_traitsIcEENS1_9allocatorIcEEEEj
__ ProtocolBuffer: __ZN2PB6Writer5writeEbj
__ ProtocolBuffer: __ZN2PB6WriterC1Ev
__ ProtocolBuffer: __ZN2PB6WriterD1Ev
__ ProtocolBuffer: __ZTIN2PB4BaseE
__ libSystem.B.dylib: __DefaultRuneLocale
__ libSystem.B.dylib: __Unwind_Resume
__ libSystem.B.dylib: ___cxa_atexit
__ libSystem.B.dylib: ___error
__ libSystem.B.dylib: ___maskrune
__ libSystem.B.dylib: ___stack_chk_fail
__ libSystem.B.dylib: ___stack_chk_guard
__ libSystem.B.dylib: __os_log_debug_impl
__ libSystem.B.dylib: __os_log_default
__ libSystem.B.dylib: __os_log_error_impl
__ libSystem.B.dylib: __os_log_impl
__ libSystem.B.dylib: __xpc_type_array
__ libSystem.B.dylib: __xpc_type_dictionary
__ libSystem.B.dylib: __xpc_type_null
__ libSystem.B.dylib: __xpc_type_shmem
__ libSystem.B.dylib: _bzero
__ libSystem.B.dylib: _chdir
__ libSystem.B.dylib: _close
__ libSystem.B.dylib: _closedir
__ libSystem.B.dylib: _fchmodat
__ libSystem.B.dylib: _fclose
__ libSystem.B.dylib: _fileno
__ libSystem.B.dylib: _fopen
__ libSystem.B.dylib: _free
__ libSystem.B.dylib: _fstat
__ libSystem.B.dylib: _getcwd
__ libSystem.B.dylib: _getenv
__ libSystem.B.dylib: _gettimeofday
__ libSystem.B.dylib: _link
__ libSystem.B.dylib: _localeconv
__ libSystem.B.dylib: _localtime
__ libSystem.B.dylib: _lstat
__ libSystem.B.dylib: _malloc
__ libSystem.B.dylib: _memcmp
__ libSystem.B.dylib: _memcpy
__ libSystem.B.dylib: _memmove
__ libSystem.B.dylib: _memset
__ libSystem.B.dylib: _mkdir
__ libSystem.B.dylib: _mmap
__ libSystem.B.dylib: _munmap
__ libSystem.B.dylib: _open
__ libSystem.B.dylib: _opendir
__ libSystem.B.dylib: _os_log_type_enabled
__ libSystem.B.dylib: _read
__ libSystem.B.dylib: _readdir
__ libSystem.B.dylib: _readdir_r
__ libSystem.B.dylib: _readlink
__ libSystem.B.dylib: _rename
__ libSystem.B.dylib: _rmdir
__ libSystem.B.dylib: _snprintf
__ libSystem.B.dylib: _stat
__ libSystem.B.dylib: _statfs
__ libSystem.B.dylib: _strcpy
__ libSystem.B.dylib: _strerror_r
__ libSystem.B.dylib: _strftime
__ libSystem.B.dylib: _strlen
__ libSystem.B.dylib: _symlink
__ libSystem.B.dylib: _sysconf
__ libSystem.B.dylib: _truncate
__ libSystem.B.dylib: _unlink
__ libSystem.B.dylib: _utime
__ libSystem.B.dylib: _vsnprintf
__ libSystem.B.dylib: _write
__ libSystem.B.dylib: _xpc_array_append_value
__ libSystem.B.dylib: _xpc_array_create
__ libSystem.B.dylib: _xpc_array_get_count
__ libSystem.B.dylib: _xpc_array_get_value
__ libSystem.B.dylib: _xpc_bool_create
__ libSystem.B.dylib: _xpc_data_create
__ libSystem.B.dylib: _xpc_dictionary_create
__ libSystem.B.dylib: _xpc_dictionary_get_value
__ libSystem.B.dylib: _xpc_dictionary_set_value
__ libSystem.B.dylib: _xpc_double_create
__ libSystem.B.dylib: _xpc_get_type
__ libSystem.B.dylib: _xpc_int64_create
__ libSystem.B.dylib: _xpc_null_create
__ libSystem.B.dylib: _xpc_release
__ libSystem.B.dylib: _xpc_retain
__ libSystem.B.dylib: _xpc_shmem_map
__ libSystem.B.dylib: _xpc_string_create
__ libSystem.B.dylib: _xpc_uint64_create
__ libSystem.B.dylib: dyld_stub_binder
__ libTelephonyUtilDynamic.dylib: __ZN3ctu3hexEj
__ libc++.1.dylib: __ZNKSt13runtime_error4whatEv
__ libc++.1.dylib: __ZNKSt3__112basic_stringIcNS_11char_traitsIcEENS_9allocatorIcEEE5rfindEcm
__ libc++.1.dylib: __ZNKSt3__112basic_stringIcNS_11char_traitsIcEENS_9allocatorIcEEE7compareEmmPKcm
__ libc++.1.dylib: __ZNKSt3__119__shared_weak_count13__get_deleterERKSt9type_info
__ libc++.1.dylib: __ZNKSt3__120__vector_base_commonILb1EE20__throw_length_errorEv
__ libc++.1.dylib: __ZNKSt3__121__basic_string_commonILb1EE20__throw_length_errorEv
__ libc++.1.dylib: __ZNKSt3__16locale9use_facetERNS0_2idE
__ libc++.1.dylib: __ZNKSt3__18ios_base6getlocEv
__ libc++.1.dylib: __ZNSt11logic_errorC2EPKc
__ libc++.1.dylib: __ZNSt11logic_errorC2ERKNSt3__112basic_stringIcNS0_11char_traitsIcEENS0_9allocatorIcEEEE
__ libc++.1.dylib: __ZNSt12domain_errorD1Ev
__ libc++.1.dylib: __ZNSt12length_errorD1Ev
__ libc++.1.dylib: __ZNSt12out_of_rangeD1Ev
__ libc++.1.dylib: __ZNSt13runtime_errorC1EPKc
__ libc++.1.dylib: __ZNSt13runtime_errorC2ERKNSt3__112basic_stringIcNS0_11char_traitsIcEENS0_9allocatorIcEEEE
__ libc++.1.dylib: __ZNSt13runtime_errorD1Ev
__ libc++.1.dylib: __ZNSt13runtime_errorD2Ev
__ libc++.1.dylib: __ZNSt3__112__next_primeEm
__ libc++.1.dylib: __ZNSt3__112basic_stringIcNS_11char_traitsIcEENS_9allocatorIcEEE5eraseEmm
__ libc++.1.dylib: __ZNSt3__112basic_stringIcNS_11char_traitsIcEENS_9allocatorIcEEE6appendEPKc
__ libc++.1.dylib: __ZNSt3__112basic_stringIcNS_11char_traitsIcEENS_9allocatorIcEEE6appendEPKcm
__ libc++.1.dylib: __ZNSt3__112basic_stringIcNS_11char_traitsIcEENS_9allocatorIcEEE6appendEmc
__ libc++.1.dylib: __ZNSt3__112basic_stringIcNS_11char_traitsIcEENS_9allocatorIcEEE6assignEPKc
__ libc++.1.dylib: __ZNSt3__112basic_stringIcNS_11char_traitsIcEENS_9allocatorIcEEE6insertEmPKc
__ libc++.1.dylib: __ZNSt3__112basic_stringIcNS_11char_traitsIcEENS_9allocatorIcEEE6resizeEmc
__ libc++.1.dylib: __ZNSt3__112basic_stringIcNS_11char_traitsIcEENS_9allocatorIcEEE7reserveEm
__ libc++.1.dylib: __ZNSt3__112basic_stringIcNS_11char_traitsIcEENS_9allocatorIcEEE9__grow_byEmmmmmm
__ libc++.1.dylib: __ZNSt3__112basic_stringIcNS_11char_traitsIcEENS_9allocatorIcEEE9push_backEc
__ libc++.1.dylib: __ZNSt3__112basic_stringIcNS_11char_traitsIcEENS_9allocatorIcEEEC1ERKS5_
__ libc++.1.dylib: __ZNSt3__112basic_stringIcNS_11char_traitsIcEENS_9allocatorIcEEEC1ERKS5_mmRKS4_
__ libc++.1.dylib: __ZNSt3__112basic_stringIcNS_11char_traitsIcEENS_9allocatorIcEEED1Ev
__ libc++.1.dylib: __ZNSt3__112basic_stringIcNS_11char_traitsIcEENS_9allocatorIcEEEaSERKS5_
__ libc++.1.dylib: __ZNSt3__112basic_stringIcNS_11char_traitsIcEENS_9allocatorIcEEEaSEc
__ libc++.1.dylib: __ZNSt3__113basic_istreamIcNS_11char_traitsIcEEED0Ev
__ libc++.1.dylib: __ZNSt3__113basic_istreamIcNS_11char_traitsIcEEED1Ev
__ libc++.1.dylib: __ZNSt3__113basic_ostreamIcNS_11char_traitsIcEEE6sentryC1ERS3_
__ libc++.1.dylib: __ZNSt3__113basic_ostreamIcNS_11char_traitsIcEEE6sentryD1Ev
__ libc++.1.dylib: __ZNSt3__113basic_ostreamIcNS_11char_traitsIcEEED0Ev
__ libc++.1.dylib: __ZNSt3__113basic_ostreamIcNS_11char_traitsIcEEED1Ev
__ libc++.1.dylib: __ZNSt3__113basic_ostreamIcNS_11char_traitsIcEEED2Ev
__ libc++.1.dylib: __ZNSt3__113basic_ostreamIcNS_11char_traitsIcEEElsEj
__ libc++.1.dylib: __ZNSt3__114basic_iostreamIcNS_11char_traitsIcEEED0Ev
__ libc++.1.dylib: __ZNSt3__114basic_iostreamIcNS_11char_traitsIcEEED1Ev
__ libc++.1.dylib: __ZNSt3__114basic_iostreamIcNS_11char_traitsIcEEED2Ev
__ libc++.1.dylib: __ZNSt3__114error_categoryD2Ev
__ libc++.1.dylib: __ZNSt3__115basic_streambufIcNS_11char_traitsIcEEE4syncEv
__ libc++.1.dylib: __ZNSt3__115basic_streambufIcNS_11char_traitsIcEEE5imbueERKNS_6localeE
__ libc++.1.dylib: __ZNSt3__115basic_streambufIcNS_11char_traitsIcEEE5uflowEv
__ libc++.1.dylib: __ZNSt3__115basic_streambufIcNS_11char_traitsIcEEE6setbufEPcl
__ libc++.1.dylib: __ZNSt3__115basic_streambufIcNS_11char_traitsIcEEE6xsgetnEPcl
__ libc++.1.dylib: __ZNSt3__115basic_streambufIcNS_11char_traitsIcEEE6xsputnEPKcl
__ libc++.1.dylib: __ZNSt3__115basic_streambufIcNS_11char_traitsIcEEE9showmanycEv
__ libc++.1.dylib: __ZNSt3__115basic_streambufIcNS_11char_traitsIcEEEC2Ev
__ libc++.1.dylib: __ZNSt3__115basic_streambufIcNS_11char_traitsIcEEED2Ev
__ libc++.1.dylib: __ZNSt3__116generic_categoryEv
__ libc++.1.dylib: __ZNSt3__119__shared_weak_count14__release_weakEv
__ libc++.1.dylib: __ZNSt3__119__shared_weak_countD2Ev
__ libc++.1.dylib: __ZNSt3__15ctypeIcE2idE
__ libc++.1.dylib: __ZNSt3__16locale14__install_ctorERKS0_PNS0_5facetEl
__ libc++.1.dylib: __ZNSt3__16locale2id5__getEv
__ libc++.1.dylib: __ZNSt3__16locale5facet16__on_zero_sharedEv
__ libc++.1.dylib: __ZNSt3__16localeC1ERKS0_
__ libc++.1.dylib: __ZNSt3__16localeC1Ev
__ libc++.1.dylib: __ZNSt3__16localeD1Ev
__ libc++.1.dylib: __ZNSt3__16localeaSERKS0_
__ libc++.1.dylib: __ZNSt3__17codecvtIwc11__mbstate_tE2idE
__ libc++.1.dylib: __ZNSt3__17codecvtIwc11__mbstate_tEC2Em
__ libc++.1.dylib: __ZNSt3__17codecvtIwc11__mbstate_tED2Ev
__ libc++.1.dylib: __ZNSt3__18ios_base33__set_badbit_and_consider_rethrowEv
__ libc++.1.dylib: __ZNSt3__18ios_base4initEPv
__ libc++.1.dylib: __ZNSt3__18ios_base5clearEj
__ libc++.1.dylib: __ZNSt3__19basic_iosIcNS_11char_traitsIcEEED2Ev
__ libc++.1.dylib: __ZNSt3__19to_stringEd
__ libc++.1.dylib: __ZNSt3__19to_stringEf
__ libc++.1.dylib: __ZNSt3__19to_stringEi
__ libc++.1.dylib: __ZNSt3__19to_stringEj
__ libc++.1.dylib: __ZNSt3__19to_stringEm
__ libc++.1.dylib: __ZNSt3__19to_stringEx
__ libc++.1.dylib: __ZNSt3__19to_stringEy
__ libc++.1.dylib: __ZSt9terminatev
__ libc++.1.dylib: __ZTINSt3__113basic_istreamIcNS_11char_traitsIcEEEE
__ libc++.1.dylib: __ZTINSt3__113basic_ostreamIcNS_11char_traitsIcEEEE
__ libc++.1.dylib: __ZTINSt3__114basic_iostreamIcNS_11char_traitsIcEEEE
__ libc++.1.dylib: __ZTINSt3__114error_categoryE
__ libc++.1.dylib: __ZTINSt3__115basic_streambufIcNS_11char_traitsIcEEEE
__ libc++.1.dylib: __ZTINSt3__119__shared_weak_countE
__ libc++.1.dylib: __ZTINSt3__17codecvtIwc11__mbstate_tEE
__ libc++.1.dylib: __ZTISt12domain_error
__ libc++.1.dylib: __ZTISt12length_error
__ libc++.1.dylib: __ZTISt12out_of_range
__ libc++.1.dylib: __ZTISt13runtime_error
__ libc++.1.dylib: __ZTVN10__cxxabiv117__class_type_infoE
__ libc++.1.dylib: __ZTVN10__cxxabiv120__si_class_type_infoE
__ libc++.1.dylib: __ZTVN10__cxxabiv121__vmi_class_type_infoE
__ libc++.1.dylib: __ZTVSt12domain_error
__ libc++.1.dylib: __ZTVSt12length_error
__ libc++.1.dylib: __ZTVSt12out_of_range
__ libc++.1.dylib: __ZThn16_NSt3__114basic_iostreamIcNS_11char_traitsIcEEED0Ev
__ libc++.1.dylib: __ZThn16_NSt3__114basic_iostreamIcNS_11char_traitsIcEEED1Ev
__ libc++.1.dylib: __ZTv0_n24_NSt3__113basic_istreamIcNS_11char_traitsIcEEED0Ev
__ libc++.1.dylib: __ZTv0_n24_NSt3__113basic_istreamIcNS_11char_traitsIcEEED1Ev
__ libc++.1.dylib: __ZTv0_n24_NSt3__113basic_ostreamIcNS_11char_traitsIcEEED0Ev
__ libc++.1.dylib: __ZTv0_n24_NSt3__113basic_ostreamIcNS_11char_traitsIcEEED1Ev
__ libc++.1.dylib: __ZTv0_n24_NSt3__114basic_iostreamIcNS_11char_traitsIcEEED0Ev
__ libc++.1.dylib: __ZTv0_n24_NSt3__114basic_iostreamIcNS_11char_traitsIcEEED1Ev
__ libc++.1.dylib: __ZdaPv
__ libc++.1.dylib: __ZdlPv
__ libc++.1.dylib: __Znam
__ libc++.1.dylib: __Znwm
__ libc++.1.dylib: ___cxa_allocate_exception
__ libc++.1.dylib: ___cxa_begin_catch
__ libc++.1.dylib: ___cxa_end_catch
__ libc++.1.dylib: ___cxa_free_exception
__ libc++.1.dylib: ___cxa_guard_abort
__ libc++.1.dylib: ___cxa_guard_acquire
__ libc++.1.dylib: ___cxa_guard_release
__ libc++.1.dylib: ___cxa_pure_virtual
__ libc++.1.dylib: ___cxa_rethrow
__ libc++.1.dylib: ___cxa_throw
__ libc++.1.dylib: ___dynamic_cast
__ libc++.1.dylib: ___gxx_personality_v0
__ libprotobuf-lite.dylib: __ZN20wireless_diagnostics6google8protobuf2io16CodedInputStream10ReadStringEPNSt3__112basic_stringIcNS4_11char_traitsIcEENS4_9allocatorIcEEEEi
__ libprotobuf-lite.dylib: __ZN20wireless_diagnostics6google8protobuf2io16CodedInputStream15ReadTagFallbackEv
__ libprotobuf-lite.dylib: __ZN20wireless_diagnostics6google8protobuf2io16CodedInputStream20ReadVarint32FallbackEPj
__ libprotobuf-lite.dylib: __ZN20wireless_diagnostics6google8protobuf2io16CodedInputStream20ReadVarint64FallbackEPy
__ libprotobuf-lite.dylib: __ZN20wireless_diagnostics6google8protobuf2io16CodedInputStream24default_recursion_limit_E
__ libprotobuf-lite.dylib: __ZN20wireless_diagnostics6google8protobuf2io16CodedInputStream26ReadLittleEndian32FallbackEPj
__ libprotobuf-lite.dylib: __ZN20wireless_diagnostics6google8protobuf2io16CodedInputStream26ReadLittleEndian64FallbackEPy
__ libprotobuf-lite.dylib: __ZN20wireless_diagnostics6google8protobuf2io16CodedInputStream4SkipEi
__ libprotobuf-lite.dylib: __ZN20wireless_diagnostics6google8protobuf2io16CodedInputStream7ReadRawEPvi
__ libprotobuf-lite.dylib: __ZN20wireless_diagnostics6google8protobuf2io16CodedInputStream8PopLimitEi
__ libprotobuf-lite.dylib: __ZN20wireless_diagnostics6google8protobuf2io16CodedInputStream9PushLimitEi
__ libprotobuf-lite.dylib: __ZN20wireless_diagnostics6google8protobuf2io16CodedInputStreamD1Ev
__ libprotobuf-lite.dylib: __ZNK20wireless_diagnostics6google8protobuf11MessageLite16SerializeToArrayEPvi
__ libprotobuf-lite.dylib: __ZNK20wireless_diagnostics6google8protobuf2io16CodedInputStream15BytesUntilLimitEv
