|| __DATA.__common __ZN3awd7metrics29LocationMobileAssetStatistics17default_instance_E
|| __DATA.__common __ZN3awd7metrics30LocationEmergencyPOIStatistics17default_instance_E
|| __DATA.__common __ZN3awd7metrics47static_descriptor_initializer_Location_2eproto_E
|| __DATA.__common __ZN3awd7metrics51LocationMobileAssetStatistics_CarrierSettingsStatus17default_instance_E
|| __DATA.__common __ZN3awd7metrics52static_descriptor_initializer_MicroLocation_2eproto_E
|| __DATA.__common __ZN3awd7metrics58static_descriptor_initializer_LocationPeerRanging_2eproto_E
|| __DATA.__common __ZN3awd7metrics60static_descriptor_initializer_LocationAlsCacheTiles_2eproto_E
|| __DATA_CONST.__const __ZTIN3awd7metrics11MotionStateE
|| __DATA_CONST.__const __ZTIN3awd7metrics13MotionTriggerE
|| __DATA_CONST.__const __ZTIN3awd7metrics14CompassSessionE
|| __DATA_CONST.__const __ZTIN3awd7metrics14MotionSOSEventE
|| __DATA_CONST.__const __ZTIN3awd7metrics15MotionGyroDailyE
|| __DATA_CONST.__const __ZTIN3awd7metrics16LocationTileFileE
|| __DATA_CONST.__const __ZTIN3awd7metrics17LocationWifiUsageE
|| __DATA_CONST.__const __ZTIN3awd7metrics17MotionGyroMiniCalE
|| __DATA_CONST.__const __ZTIN3awd7metrics18LocationSessionDayE
|| __DATA_CONST.__const __ZTIN3awd7metrics18LocationTilesUsageE
|| __DATA_CONST.__const __ZTIN3awd7metrics18MotionFitnessDailyE
|| __DATA_CONST.__const __ZTIN3awd7metrics19LocationMapMatchingE
|| __DATA_CONST.__const __ZTIN3awd7metrics19MotionDropDetectionE
|| __DATA_CONST.__const __ZTIN3awd7metrics19MotionFitnessAllDayE
|| __DATA_CONST.__const __ZTIN3awd7metrics20LocationBatteryStateE
|| __DATA_CONST.__const __ZTIN3awd7metrics20LocationWifiTileSyncE
|| __DATA_CONST.__const __ZTIN3awd7metrics20MotionFitnessSessionE
|| __DATA_CONST.__const __ZTIN3awd7metrics20MotionNoGPSRunAllDayE
|| __DATA_CONST.__const __ZTIN3awd7metrics21LocationALSCacheUsageE
|| __DATA_CONST.__const __ZTIN3awd7metrics21LocationCellTileUsageE
|| __DATA_CONST.__const __ZTIN3awd7metrics21LocationServicesStateE
|| __DATA_CONST.__const __ZTIN3awd7metrics21LocationTileFileUsageE
|| __DATA_CONST.__const __ZTIN3awd7metrics21LocationUpdateSessionE
|| __DATA_CONST.__const __ZTIN3awd7metrics21MotionElevationAllDayE
|| __DATA_CONST.__const __ZTIN3awd7metrics22LocationMonitorSessionE
|| __DATA_CONST.__const __ZTIN3awd7metrics22LocationMonitorTriggerE
|| __DATA_CONST.__const __ZTIN3awd7metrics22LocationNetworkQueriesE
|| __DATA_CONST.__const __ZTIN3awd7metrics22MotionFitnessPedometerE
|| __DATA_CONST.__const __ZTIN3awd7metrics23CompassSession_RotationE
|| __DATA_CONST.__const __ZTIN3awd7metrics23LocationALSNetworkUsageE
|| __DATA_CONST.__const __ZTIN3awd7metrics23LocationRealTimeHarvestE
|| __DATA_CONST.__const __ZTIN3awd7metrics24LocationEmergencySessionE
|| __DATA_CONST.__const __ZTIN3awd7metrics24LocationServicesApprovalE
|| __DATA_CONST.__const __ZTIN3awd7metrics24MotionGyroBiasEstimationE
|| __DATA_CONST.__const __ZTIN3awd7metrics25LocationNavigationSessionE
|| __DATA_CONST.__const __ZTIN3awd7metrics25MotionPressureTemperatureE
|| __DATA_CONST.__const __ZTIN3awd7metrics26LocationCompassSaturationsE
|| __DATA_CONST.__const __ZTIN3awd7metrics26LocationPeerRangingMetricsE
|| __DATA_CONST.__const __ZTIN3awd7metrics26MotionBarometerCalibrationE
|| __DATA_CONST.__const __ZTIN3awd7metrics26MotionPedometerCalibrationE
|| __DATA_CONST.__const __ZTIN3awd7metrics27LocationPeerRangingDecisionE
|| __DATA_CONST.__const __ZTIN3awd7metrics27LocationPeerRangingMetaDataE
|| __DATA_CONST.__const __ZTIN3awd7metrics27LocationSubHarvesterMetricsE
|| __DATA_CONST.__const __ZTIN3awd7metrics27LocationVisibilityAssertionE
|| __DATA_CONST.__const __ZTIN3awd7metrics28LocationBeaconMonitorSessionE
|| __DATA_CONST.__const __ZTIN3awd7metrics28LocationBeaconMonitorTriggerE
|| __DATA_CONST.__const __ZTIN3awd7metrics28LocationBeaconRangingSessionE
|| __DATA_CONST.__const __ZTIN3awd7metrics28LocationGPSSessionStatisticsE
|| __DATA_CONST.__const __ZTIN3awd7metrics28LocationMainHarvesterMetricsE
|| __DATA_CONST.__const __ZTIN3awd7metrics28MotionFitnessAccelSampleRateE
|| __DATA_CONST.__const __ZTIN3awd7metrics29LocationMicroLocationMetaDataE
|| __DATA_CONST.__const __ZTIN3awd7metrics29LocationMobileAssetStatisticsE
|| __DATA_CONST.__const __ZTIN3awd7metrics30LocationEmergencyPOIStatisticsE
|| __DATA_CONST.__const __ZTIN3awd7metrics30LocationSecondaryDeviceRequestE
|| __DATA_CONST.__const __ZTIN3awd7metrics30MotionFitnessStrideCalibrationE
|| __DATA_CONST.__const __ZTIN3awd7metrics31LocationMicroLocationModelStateE
|| __DATA_CONST.__const __ZTIN3awd7metrics31LocationMicroLocationStatisticsE
|| __DATA_CONST.__const __ZTIN3awd7metrics31LocationPeerRangingBurstMetricsE
|| __DATA_CONST.__const __ZTIN3awd7metrics31LocationPhoneNumberAvailabilityE
|| __DATA_CONST.__const __ZTIN3awd7metrics32LocationGnssSWRecoveryStatisticsE
|| __DATA_CONST.__const __ZTIN3awd7metrics33LocationSubHarvesterUploadAttemptE
|| __DATA_CONST.__const __ZTIN3awd7metrics33MotionGyroBiasEstimation_EndCountE
|| __DATA_CONST.__const __ZTIN3awd7metrics34LocationEmergencySessionStatisticsE
|| __DATA_CONST.__const __ZTIN3awd7metrics34LocationMicroLocationLearningStateE
|| __DATA_CONST.__const __ZTIN3awd7metrics35LocationMicroLocationAnalyticsStateE
|| __DATA_CONST.__const __ZTIN3awd7metrics35LocationMicroLocationEventHistogramE
|| __DATA_CONST.__const __ZTIN3awd7metrics37LocationPeerRangingMeasurementMetricsE
|| __DATA_CONST.__const __ZTIN3awd7metrics37LocationWifiAPLocationProviderSessionE
|| __DATA_CONST.__const __ZTIN3awd7metrics38LocationMicroLocationClusteringByModelE
|| __DATA_CONST.__const __ZTIN3awd7metrics38LocationMicroLocationEventTypeAndCountE
|| __DATA_CONST.__const __ZTIN3awd7metrics39LocationMicroLocationSignificanceMetricE
|| __DATA_CONST.__const __ZTIN3awd7metrics40LocationMicroLocationUserEventStatisticsE
|| __DATA_CONST.__const __ZTIN3awd7metrics40LocationPeerRangingEarlyTerminateMetricsE
|| __DATA_CONST.__const __ZTIN3awd7metrics40LocationPeerRangingUnlockDecisionMetricsE
|| __DATA_CONST.__const __ZTIN3awd7metrics41LocationGPSSessionStatistics_ChecksumDataE
|| __DATA_CONST.__const __ZTIN3awd7metrics41LocationMicroLocationClusteringStatisticsE
|| __DATA_CONST.__const __ZTIN3awd7metrics41LocationPeerRangingEstimatorConfigurationE
|| __DATA_CONST.__const __ZTIN3awd7metrics42LocationMicroLocationMeasurementStatisticsE
|| __DATA_CONST.__const __ZTIN3awd7metrics43LocationGPSSessionStatistics_PowerStateDataE
|| __DATA_CONST.__const __ZTIN3awd7metrics43LocationMicroLocationLocalizationStatisticsE
|| __DATA_CONST.__const __ZTIN3awd7metrics44LocationGPSSessionStatistics_MovingStateDataE
|| __DATA_CONST.__const __ZTIN3awd7metrics44LocationMicroLocationEventSignificanceMetricE
|| __DATA_CONST.__const __ZTIN3awd7metrics45LocationGPSSessionStatistics_MountedStateDataE
|| __DATA_CONST.__const __ZTIN3awd7metrics46LocationMicroLocationEventClusteringStatisticsE
|| __DATA_CONST.__const __ZTIN3awd7metrics47LocationGPSSessionStatistics_MotionActivityDataE
|| __DATA_CONST.__const __ZTIN3awd7metrics49LocationGPSSessionStatistics_PowerMeasurementDataE
|| __DATA_CONST.__const __ZTIN3awd7metrics49LocationGPSSessionStatistics_UncertaintyRangeDataE
|| __DATA_CONST.__const __ZTIN3awd7metrics50LocationGPSSessionStatistics_DeviceOrientationDataE
|| __DATA_CONST.__const __ZTIN3awd7metrics50LocationGPSSessionStatistics_SatelliteCNORangeDataE
|| __DATA_CONST.__const __ZTIN3awd7metrics50LocationGPSSessionStatistics_SignalEnvironmentDataE
|| __DATA_CONST.__const __ZTIN3awd7metrics51LocationMobileAssetStatistics_CarrierSettingsStatusE
|| __DATA_CONST.__const __ZTIN3awd7metrics52LocationGPSSessionStatistics_SatelliteCountRangeDataE
|| __DATA_CONST.__const __ZTIN3awd7metrics54LocationGnssSWRecoveryStatistics_LocationRecoveryPointE
|| __DATA_CONST.__const __ZTIN3awd7metrics55LocationGnssSWRecoveryStatistics_LocationRecoveryStatusE
|| __DATA_CONST.__const __ZTIN3awd7metrics57LocationGnssSWRecoveryStatistics_LocationGnssRecoveryInfoE
|| __DATA_CONST.__const __ZTIN3awd7metrics60LocationGPSSessionStatistics_LocationGpsPersistentStatisticsE
|| __DATA_CONST.__const __ZTVN3awd7metrics11MotionStateE
|| __DATA_CONST.__const __ZTVN3awd7metrics13MotionTriggerE
|| __DATA_CONST.__const __ZTVN3awd7metrics14CompassSessionE
|| __DATA_CONST.__const __ZTVN3awd7metrics14MotionSOSEventE
|| __DATA_CONST.__const __ZTVN3awd7metrics15MotionGyroDailyE
|| __DATA_CONST.__const __ZTVN3awd7metrics16LocationTileFileE
|| __DATA_CONST.__const __ZTVN3awd7metrics17LocationWifiUsageE
|| __DATA_CONST.__const __ZTVN3awd7metrics17MotionGyroMiniCalE
|| __DATA_CONST.__const __ZTVN3awd7metrics18LocationSessionDayE
|| __DATA_CONST.__const __ZTVN3awd7metrics18LocationTilesUsageE
|| __DATA_CONST.__const __ZTVN3awd7metrics18MotionFitnessDailyE
|| __DATA_CONST.__const __ZTVN3awd7metrics19LocationMapMatchingE
|| __DATA_CONST.__const __ZTVN3awd7metrics19MotionDropDetectionE
|| __DATA_CONST.__const __ZTVN3awd7metrics19MotionFitnessAllDayE
|| __DATA_CONST.__const __ZTVN3awd7metrics20LocationBatteryStateE
|| __DATA_CONST.__const __ZTVN3awd7metrics20LocationWifiTileSyncE
|| __DATA_CONST.__const __ZTVN3awd7metrics20MotionFitnessSessionE
|| __DATA_CONST.__const __ZTVN3awd7metrics20MotionNoGPSRunAllDayE
|| __DATA_CONST.__const __ZTVN3awd7metrics21LocationALSCacheUsageE
|| __DATA_CONST.__const __ZTVN3awd7metrics21LocationCellTileUsageE
|| __DATA_CONST.__const __ZTVN3awd7metrics21LocationServicesStateE
|| __DATA_CONST.__const __ZTVN3awd7metrics21LocationTileFileUsageE
|| __DATA_CONST.__const __ZTVN3awd7metrics21LocationUpdateSessionE
|| __DATA_CONST.__const __ZTVN3awd7metrics21MotionElevationAllDayE
|| __DATA_CONST.__const __ZTVN3awd7metrics22LocationMonitorSessionE
|| __DATA_CONST.__const __ZTVN3awd7metrics22LocationMonitorTriggerE
|| __DATA_CONST.__const __ZTVN3awd7metrics22LocationNetworkQueriesE
|| __DATA_CONST.__const __ZTVN3awd7metrics22MotionFitnessPedometerE
|| __DATA_CONST.__const __ZTVN3awd7metrics23CompassSession_RotationE
|| __DATA_CONST.__const __ZTVN3awd7metrics23LocationALSNetworkUsageE
|| __DATA_CONST.__const __ZTVN3awd7metrics23LocationRealTimeHarvestE
|| __DATA_CONST.__const __ZTVN3awd7metrics24LocationEmergencySessionE
|| __DATA_CONST.__const __ZTVN3awd7metrics24LocationServicesApprovalE
|| __DATA_CONST.__const __ZTVN3awd7metrics24MotionGyroBiasEstimationE
|| __DATA_CONST.__const __ZTVN3awd7metrics25LocationNavigationSessionE
|| __DATA_CONST.__const __ZTVN3awd7metrics25MotionPressureTemperatureE
|| __DATA_CONST.__const __ZTVN3awd7metrics26LocationCompassSaturationsE
|| __DATA_CONST.__const __ZTVN3awd7metrics26LocationPeerRangingMetricsE
|| __DATA_CONST.__const __ZTVN3awd7metrics26MotionBarometerCalibrationE
|| __DATA_CONST.__const __ZTVN3awd7metrics26MotionPedometerCalibrationE
|| __DATA_CONST.__const __ZTVN3awd7metrics27LocationPeerRangingDecisionE
|| __DATA_CONST.__const __ZTVN3awd7metrics27LocationPeerRangingMetaDataE
|| __DATA_CONST.__const __ZTVN3awd7metrics27LocationSubHarvesterMetricsE
|| __DATA_CONST.__const __ZTVN3awd7metrics27LocationVisibilityAssertionE
|| __DATA_CONST.__const __ZTVN3awd7metrics28LocationBeaconMonitorSessionE
|| __DATA_CONST.__const __ZTVN3awd7metrics28LocationBeaconMonitorTriggerE
|| __DATA_CONST.__const __ZTVN3awd7metrics28LocationBeaconRangingSessionE
|| __DATA_CONST.__const __ZTVN3awd7metrics28LocationGPSSessionStatisticsE
|| __DATA_CONST.__const __ZTVN3awd7metrics28LocationMainHarvesterMetricsE
|| __DATA_CONST.__const __ZTVN3awd7metrics28MotionFitnessAccelSampleRateE
|| __DATA_CONST.__const __ZTVN3awd7metrics29LocationMicroLocationMetaDataE
|| __DATA_CONST.__const __ZTVN3awd7metrics29LocationMobileAssetStatisticsE
|| __DATA_CONST.__const __ZTVN3awd7metrics30LocationEmergencyPOIStatisticsE
|| __DATA_CONST.__const __ZTVN3awd7metrics30LocationSecondaryDeviceRequestE
|| __DATA_CONST.__const __ZTVN3awd7metrics30MotionFitnessStrideCalibrationE
|| __DATA_CONST.__const __ZTVN3awd7metrics31LocationMicroLocationModelStateE
|| __DATA_CONST.__const __ZTVN3awd7metrics31LocationMicroLocationStatisticsE
|| __DATA_CONST.__const __ZTVN3awd7metrics31LocationPeerRangingBurstMetricsE
|| __DATA_CONST.__const __ZTVN3awd7metrics31LocationPhoneNumberAvailabilityE
|| __DATA_CONST.__const __ZTVN3awd7metrics32LocationGnssSWRecoveryStatisticsE
|| __DATA_CONST.__const __ZTVN3awd7metrics33LocationSubHarvesterUploadAttemptE
|| __DATA_CONST.__const __ZTVN3awd7metrics33MotionGyroBiasEstimation_EndCountE
|| __DATA_CONST.__const __ZTVN3awd7metrics34LocationEmergencySessionStatisticsE
|| __DATA_CONST.__const __ZTVN3awd7metrics34LocationMicroLocationLearningStateE
|| __DATA_CONST.__const __ZTVN3awd7metrics35LocationMicroLocationAnalyticsStateE
|| __DATA_CONST.__const __ZTVN3awd7metrics35LocationMicroLocationEventHistogramE
|| __DATA_CONST.__const __ZTVN3awd7metrics37LocationPeerRangingMeasurementMetricsE
|| __DATA_CONST.__const __ZTVN3awd7metrics37LocationWifiAPLocationProviderSessionE
|| __DATA_CONST.__const __ZTVN3awd7metrics38LocationMicroLocationClusteringByModelE
|| __DATA_CONST.__const __ZTVN3awd7metrics38LocationMicroLocationEventTypeAndCountE
|| __DATA_CONST.__const __ZTVN3awd7metrics39LocationMicroLocationSignificanceMetricE
|| __DATA_CONST.__const __ZTVN3awd7metrics40LocationMicroLocationUserEventStatisticsE
|| __DATA_CONST.__const __ZTVN3awd7metrics40LocationPeerRangingEarlyTerminateMetricsE
|| __DATA_CONST.__const __ZTVN3awd7metrics40LocationPeerRangingUnlockDecisionMetricsE
|| __DATA_CONST.__const __ZTVN3awd7metrics41LocationGPSSessionStatistics_ChecksumDataE
|| __DATA_CONST.__const __ZTVN3awd7metrics41LocationMicroLocationClusteringStatisticsE
|| __DATA_CONST.__const __ZTVN3awd7metrics41LocationPeerRangingEstimatorConfigurationE
|| __DATA_CONST.__const __ZTVN3awd7metrics42LocationMicroLocationMeasurementStatisticsE
|| __DATA_CONST.__const __ZTVN3awd7metrics43LocationGPSSessionStatistics_PowerStateDataE
|| __DATA_CONST.__const __ZTVN3awd7metrics43LocationMicroLocationLocalizationStatisticsE
|| __DATA_CONST.__const __ZTVN3awd7metrics44LocationGPSSessionStatistics_MovingStateDataE
|| __DATA_CONST.__const __ZTVN3awd7metrics44LocationMicroLocationEventSignificanceMetricE
|| __DATA_CONST.__const __ZTVN3awd7metrics45LocationGPSSessionStatistics_MountedStateDataE
|| __DATA_CONST.__const __ZTVN3awd7metrics46LocationMicroLocationEventClusteringStatisticsE
|| __DATA_CONST.__const __ZTVN3awd7metrics47LocationGPSSessionStatistics_MotionActivityDataE
|| __DATA_CONST.__const __ZTVN3awd7metrics49LocationGPSSessionStatistics_PowerMeasurementDataE
|| __DATA_CONST.__const __ZTVN3awd7metrics49LocationGPSSessionStatistics_UncertaintyRangeDataE
|| __DATA_CONST.__const __ZTVN3awd7metrics50LocationGPSSessionStatistics_DeviceOrientationDataE
|| __DATA_CONST.__const __ZTVN3awd7metrics50LocationGPSSessionStatistics_SatelliteCNORangeDataE
|| __DATA_CONST.__const __ZTVN3awd7metrics50LocationGPSSessionStatistics_SignalEnvironmentDataE
|| __DATA_CONST.__const __ZTVN3awd7metrics51LocationMobileAssetStatistics_CarrierSettingsStatusE
|| __DATA_CONST.__const __ZTVN3awd7metrics52LocationGPSSessionStatistics_SatelliteCountRangeDataE
|| __DATA_CONST.__const __ZTVN3awd7metrics54LocationGnssSWRecoveryStatistics_LocationRecoveryPointE
|| __DATA_CONST.__const __ZTVN3awd7metrics55LocationGnssSWRecoveryStatistics_LocationRecoveryStatusE
|| __DATA_CONST.__const __ZTVN3awd7metrics57LocationGnssSWRecoveryStatistics_LocationGnssRecoveryInfoE
|| __DATA_CONST.__const __ZTVN3awd7metrics60LocationGPSSessionStatistics_LocationGpsPersistentStatisticsE
|| __DATA_DIRTY.__common __ZN3awd7metrics11MotionState17default_instance_E
|| __DATA_DIRTY.__common __ZN3awd7metrics13MotionTrigger17default_instance_E
|| __DATA_DIRTY.__common __ZN3awd7metrics14CompassSession17default_instance_E
|| __DATA_DIRTY.__common __ZN3awd7metrics14MotionSOSEvent17default_instance_E
|| __DATA_DIRTY.__common __ZN3awd7metrics15MotionGyroDaily17default_instance_E
|| __DATA_DIRTY.__common __ZN3awd7metrics16LocationTileFile17default_instance_E
|| __DATA_DIRTY.__common __ZN3awd7metrics17LocationWifiUsage17default_instance_E
|| __DATA_DIRTY.__common __ZN3awd7metrics17MotionGyroMiniCal17default_instance_E
|| __DATA_DIRTY.__common __ZN3awd7metrics18LocationSessionDay17default_instance_E
|| __DATA_DIRTY.__common __ZN3awd7metrics18LocationTilesUsage17default_instance_E
|| __DATA_DIRTY.__common __ZN3awd7metrics18MotionFitnessDaily17default_instance_E
|| __DATA_DIRTY.__common __ZN3awd7metrics19LocationMapMatching17default_instance_E
|| __DATA_DIRTY.__common __ZN3awd7metrics19MotionDropDetection17default_instance_E
|| __DATA_DIRTY.__common __ZN3awd7metrics19MotionFitnessAllDay17default_instance_E
|| __DATA_DIRTY.__common __ZN3awd7metrics20LocationBatteryState17default_instance_E
|| __DATA_DIRTY.__common __ZN3awd7metrics20LocationWifiTileSync17default_instance_E
|| __DATA_DIRTY.__common __ZN3awd7metrics20MotionFitnessSession17default_instance_E
|| __DATA_DIRTY.__common __ZN3awd7metrics20MotionNoGPSRunAllDay17default_instance_E
|| __DATA_DIRTY.__common __ZN3awd7metrics21LocationALSCacheUsage17default_instance_E
|| __DATA_DIRTY.__common __ZN3awd7metrics21LocationCellTileUsage17default_instance_E
|| __DATA_DIRTY.__common __ZN3awd7metrics21LocationServicesState17default_instance_E
|| __DATA_DIRTY.__common __ZN3awd7metrics21LocationTileFileUsage17default_instance_E
|| __DATA_DIRTY.__common __ZN3awd7metrics21LocationUpdateSession17default_instance_E
|| __DATA_DIRTY.__common __ZN3awd7metrics21MotionElevationAllDay17default_instance_E
|| __DATA_DIRTY.__common __ZN3awd7metrics22LocationMonitorSession17default_instance_E
|| __DATA_DIRTY.__common __ZN3awd7metrics22LocationMonitorTrigger17default_instance_E
|| __DATA_DIRTY.__common __ZN3awd7metrics22LocationNetworkQueries17default_instance_E
|| __DATA_DIRTY.__common __ZN3awd7metrics22MotionFitnessPedometer17default_instance_E
|| __DATA_DIRTY.__common __ZN3awd7metrics23CompassSession_Rotation17default_instance_E
|| __DATA_DIRTY.__common __ZN3awd7metrics23LocationALSNetworkUsage17default_instance_E
|| __DATA_DIRTY.__common __ZN3awd7metrics23LocationRealTimeHarvest17default_instance_E
|| __DATA_DIRTY.__common __ZN3awd7metrics24LocationEmergencySession17default_instance_E
|| __DATA_DIRTY.__common __ZN3awd7metrics24LocationServicesApproval17default_instance_E
|| __DATA_DIRTY.__common __ZN3awd7metrics24MotionGyroBiasEstimation17default_instance_E
|| __DATA_DIRTY.__common __ZN3awd7metrics25LocationNavigationSession17default_instance_E
|| __DATA_DIRTY.__common __ZN3awd7metrics25MotionPressureTemperature17default_instance_E
|| __DATA_DIRTY.__common __ZN3awd7metrics26LocationCompassSaturations17default_instance_E
|| __DATA_DIRTY.__common __ZN3awd7metrics26LocationPeerRangingMetrics17default_instance_E
|| __DATA_DIRTY.__common __ZN3awd7metrics26MotionBarometerCalibration17default_instance_E
|| __DATA_DIRTY.__common __ZN3awd7metrics26MotionPedometerCalibration17default_instance_E
|| __DATA_DIRTY.__common __ZN3awd7metrics27LocationPeerRangingDecision17default_instance_E
|| __DATA_DIRTY.__common __ZN3awd7metrics27LocationPeerRangingMetaData17default_instance_E
|| __DATA_DIRTY.__common __ZN3awd7metrics27LocationSubHarvesterMetrics17default_instance_E
|| __DATA_DIRTY.__common __ZN3awd7metrics27LocationVisibilityAssertion17default_instance_E
|| __DATA_DIRTY.__common __ZN3awd7metrics28LocationBeaconMonitorSession17default_instance_E
|| __DATA_DIRTY.__common __ZN3awd7metrics28LocationBeaconMonitorTrigger17default_instance_E
|| __DATA_DIRTY.__common __ZN3awd7metrics28LocationBeaconRangingSession17default_instance_E
|| __DATA_DIRTY.__common __ZN3awd7metrics28LocationGPSSessionStatistics17default_instance_E
|| __DATA_DIRTY.__common __ZN3awd7metrics28LocationMainHarvesterMetrics17default_instance_E
|| __DATA_DIRTY.__common __ZN3awd7metrics28MotionFitnessAccelSampleRate17default_instance_E
|| __DATA_DIRTY.__common __ZN3awd7metrics29LocationMicroLocationMetaData17default_instance_E
|| __DATA_DIRTY.__common __ZN3awd7metrics30LocationSecondaryDeviceRequest17default_instance_E
|| __DATA_DIRTY.__common __ZN3awd7metrics30MotionFitnessStrideCalibration17default_instance_E
|| __DATA_DIRTY.__common __ZN3awd7metrics31LocationMicroLocationModelState17default_instance_E
|| __DATA_DIRTY.__common __ZN3awd7metrics31LocationMicroLocationStatistics17default_instance_E
|| __DATA_DIRTY.__common __ZN3awd7metrics31LocationPeerRangingBurstMetrics17default_instance_E
|| __DATA_DIRTY.__common __ZN3awd7metrics31LocationPhoneNumberAvailability17default_instance_E
|| __DATA_DIRTY.__common __ZN3awd7metrics32LocationGnssSWRecoveryStatistics17default_instance_E
|| __DATA_DIRTY.__common __ZN3awd7metrics33LocationSubHarvesterUploadAttempt17default_instance_E
|| __DATA_DIRTY.__common __ZN3awd7metrics33MotionGyroBiasEstimation_EndCount17default_instance_E
|| __DATA_DIRTY.__common __ZN3awd7metrics34LocationEmergencySessionStatistics17default_instance_E
|| __DATA_DIRTY.__common __ZN3awd7metrics34LocationMicroLocationLearningState17default_instance_E
|| __DATA_DIRTY.__common __ZN3awd7metrics35LocationMicroLocationAnalyticsState17default_instance_E
|| __DATA_DIRTY.__common __ZN3awd7metrics35LocationMicroLocationEventHistogram17default_instance_E
|| __DATA_DIRTY.__common __ZN3awd7metrics37LocationPeerRangingMeasurementMetrics17default_instance_E
|| __DATA_DIRTY.__common __ZN3awd7metrics37LocationWifiAPLocationProviderSession17default_instance_E
|| __DATA_DIRTY.__common __ZN3awd7metrics38LocationMicroLocationClusteringByModel17default_instance_E
|| __DATA_DIRTY.__common __ZN3awd7metrics38LocationMicroLocationEventTypeAndCount17default_instance_E
|| __DATA_DIRTY.__common __ZN3awd7metrics39LocationMicroLocationSignificanceMetric17default_instance_E
|| __DATA_DIRTY.__common __ZN3awd7metrics40LocationMicroLocationUserEventStatistics17default_instance_E
|| __DATA_DIRTY.__common __ZN3awd7metrics40LocationPeerRangingEarlyTerminateMetrics17default_instance_E
|| __DATA_DIRTY.__common __ZN3awd7metrics40LocationPeerRangingUnlockDecisionMetrics17default_instance_E
|| __DATA_DIRTY.__common __ZN3awd7metrics41LocationGPSSessionStatistics_ChecksumData17default_instance_E
|| __DATA_DIRTY.__common __ZN3awd7metrics41LocationMicroLocationClusteringStatistics17default_instance_E
|| __DATA_DIRTY.__common __ZN3awd7metrics41LocationPeerRangingEstimatorConfiguration17default_instance_E
|| __DATA_DIRTY.__common __ZN3awd7metrics42LocationMicroLocationMeasurementStatistics17default_instance_E
|| __DATA_DIRTY.__common __ZN3awd7metrics43LocationGPSSessionStatistics_PowerStateData17default_instance_E
|| __DATA_DIRTY.__common __ZN3awd7metrics43LocationMicroLocationLocalizationStatistics17default_instance_E
|| __DATA_DIRTY.__common __ZN3awd7metrics44LocationGPSSessionStatistics_MovingStateData17default_instance_E
|| __DATA_DIRTY.__common __ZN3awd7metrics44LocationMicroLocationEventSignificanceMetric17default_instance_E
|| __DATA_DIRTY.__common __ZN3awd7metrics45LocationGPSSessionStatistics_MountedStateData17default_instance_E
|| __DATA_DIRTY.__common __ZN3awd7metrics46LocationMicroLocationEventClusteringStatistics17default_instance_E
|| __DATA_DIRTY.__common __ZN3awd7metrics47LocationGPSSessionStatistics_MotionActivityData17default_instance_E
|| __DATA_DIRTY.__common __ZN3awd7metrics49LocationGPSSessionStatistics_PowerMeasurementData17default_instance_E
|| __DATA_DIRTY.__common __ZN3awd7metrics49LocationGPSSessionStatistics_UncertaintyRangeData17default_instance_E
|| __DATA_DIRTY.__common __ZN3awd7metrics50LocationGPSSessionStatistics_DeviceOrientationData17default_instance_E
|| __DATA_DIRTY.__common __ZN3awd7metrics50LocationGPSSessionStatistics_SatelliteCNORangeData17default_instance_E
|| __DATA_DIRTY.__common __ZN3awd7metrics50LocationGPSSessionStatistics_SignalEnvironmentData17default_instance_E
|| __DATA_DIRTY.__common __ZN3awd7metrics52LocationGPSSessionStatistics_SatelliteCountRangeData17default_instance_E
|| __DATA_DIRTY.__common __ZN3awd7metrics54LocationGnssSWRecoveryStatistics_LocationRecoveryPoint17default_instance_E
|| __DATA_DIRTY.__common __ZN3awd7metrics55LocationGnssSWRecoveryStatistics_LocationRecoveryStatus17default_instance_E
|| __DATA_DIRTY.__common __ZN3awd7metrics57LocationGnssSWRecoveryStatistics_LocationGnssRecoveryInfo17default_instance_E
|| __DATA_DIRTY.__common __ZN3awd7metrics60LocationGPSSessionStatistics_LocationGpsPersistentStatistics17default_instance_E
|| __TEXT.__const __ZN3awd7metrics11MotionState19kEnabledFieldNumberE
|| __TEXT.__const __ZN3awd7metrics11MotionState20kBundleidFieldNumberE
|| __TEXT.__const __ZN3awd7metrics11MotionState21kTimestampFieldNumberE
|| __TEXT.__const __ZN3awd7metrics11MotionState22kMotionTypeFieldNumberE
|| __TEXT.__const __ZN3awd7metrics13MotionTrigger20kBundleidFieldNumberE
|| __TEXT.__const __ZN3awd7metrics13MotionTrigger21kTimestampFieldNumberE
|| __TEXT.__const __ZN3awd7metrics13MotionTrigger22kMotionTypeFieldNumberE
|| __TEXT.__const __ZN3awd7metrics13MotionTrigger22kPrototypesFieldNumberE
|| __TEXT.__const __ZN3awd7metrics13MotionTrigger23kNumTriggersFieldNumberE
|| __TEXT.__const __ZN3awd7metrics13MotionTrigger24kTimestampEndFieldNumberE
|| __TEXT.__const __ZN3awd7metrics14CompassSession10Level3DMedE
|| __TEXT.__const __ZN3awd7metrics14CompassSession10UnreliableE
|| __TEXT.__const __ZN3awd7metrics14CompassSession11Level2DWeakE
|| __TEXT.__const __ZN3awd7metrics14CompassSession11Level3DWeakE
|| __TEXT.__const __ZN3awd7metrics14CompassSession12NotAvailableE
|| __TEXT.__const __ZN3awd7metrics14CompassSession12UncalibratedE
|| __TEXT.__const __ZN3awd7metrics14CompassSession14CoverState_MAXE
|| __TEXT.__const __ZN3awd7metrics14CompassSession14CoverState_MINE
|| __TEXT.__const __ZN3awd7metrics14CompassSession19kGyroAgeFieldNumberE
|| __TEXT.__const __ZN3awd7metrics14CompassSession20CalibrationLevel_MAXE
|| __TEXT.__const __ZN3awd7metrics14CompassSession20CalibrationLevel_MINE
|| __TEXT.__const __ZN3awd7metrics14CompassSession20CoverState_ARRAYSIZEE
|| __TEXT.__const __ZN3awd7metrics14CompassSession20kBundleidFieldNumberE
|| __TEXT.__const __ZN3awd7metrics14CompassSession21AvailableAndConnectedE
|| __TEXT.__const __ZN3awd7metrics14CompassSession21kInitStateFieldNumberE
|| __TEXT.__const __ZN3awd7metrics14CompassSession21kTimestampFieldNumberE
|| __TEXT.__const __ZN3awd7metrics14CompassSession24AvailableAndDisconnectedE
|| __TEXT.__const __ZN3awd7metrics14CompassSession24kInitAccuracyFieldNumberE
|| __TEXT.__const __ZN3awd7metrics14CompassSession24kMagnitudeMaxFieldNumberE
|| __TEXT.__const __ZN3awd7metrics14CompassSession24kMagnitudeMinFieldNumberE
|| __TEXT.__const __ZN3awd7metrics14CompassSession24kQuality2DMaxFieldNumberE
|| __TEXT.__const __ZN3awd7metrics14CompassSession24kQuality2DMinFieldNumberE
|| __TEXT.__const __ZN3awd7metrics14CompassSession24kQuality3DMaxFieldNumberE
|| __TEXT.__const __ZN3awd7metrics14CompassSession24kQuality3DMinFieldNumberE
|| __TEXT.__const __ZN3awd7metrics14CompassSession24kTimestampEndFieldNumberE
|| __TEXT.__const __ZN3awd7metrics14CompassSession25kFinalAccuracyFieldNumberE
|| __TEXT.__const __ZN3awd7metrics14CompassSession25kGyroDeltaBiasFieldNumberE
|| __TEXT.__const __ZN3awd7metrics14CompassSession25kQuality2DMeanFieldNumberE
|| __TEXT.__const __ZN3awd7metrics14CompassSession25kQuality3DMeanFieldNumberE
|| __TEXT.__const __ZN3awd7metrics14CompassSession26CalibrationLevel_ARRAYSIZEE
|| __TEXT.__const __ZN3awd7metrics14CompassSession26kGyroDeltaSlopeFieldNumberE
|| __TEXT.__const __ZN3awd7metrics14CompassSession26kUncalibrationsFieldNumberE
|| __TEXT.__const __ZN3awd7metrics14CompassSession27kGyroFactoryBiasFieldNumberE
|| __TEXT.__const __ZN3awd7metrics14CompassSession28kAchievedAccuracyFieldNumberE
|| __TEXT.__const __ZN3awd7metrics14CompassSession28kGyroFactorySlopeFieldNumberE
|| __TEXT.__const __ZN3awd7metrics14CompassSession28kGyroMagnitudeMaxFieldNumberE
|| __TEXT.__const __ZN3awd7metrics14CompassSession28kPercentSession2DFieldNumberE
|| __TEXT.__const __ZN3awd7metrics14CompassSession30kCoverKeyboardStateFieldNumberE
|| __TEXT.__const __ZN3awd7metrics14CompassSession30kGyroDynamicL2ErrorFieldNumberE
|| __TEXT.__const __ZN3awd7metrics14CompassSession30kGyroDynamicMaxTempFieldNumberE
|| __TEXT.__const __ZN3awd7metrics14CompassSession30kGyroFactoryL2ErrorFieldNumberE
|| __TEXT.__const __ZN3awd7metrics14CompassSession31kAchievedCalibrationFieldNumberE
|| __TEXT.__const __ZN3awd7metrics14CompassSession31kPercentSessionOtherFieldNumberE
|| __TEXT.__const __ZN3awd7metrics14CompassSession31kPercentSessionStillFieldNumberE
|| __TEXT.__const __ZN3awd7metrics14CompassSession32kNum2DTo3DTransitionsFieldNumberE
|| __TEXT.__const __ZN3awd7metrics14CompassSession32kNum3DTo2DTransitionsFieldNumberE
|| __TEXT.__const __ZN3awd7metrics14CompassSession32kPercentSessionIndoorFieldNumberE
|| __TEXT.__const __ZN3awd7metrics14CompassSession33kLocationDataAvailableFieldNumberE
|| __TEXT.__const __ZN3awd7metrics14CompassSession33kPercentSessionCyclingFieldNumberE
|| __TEXT.__const __ZN3awd7metrics14CompassSession33kPercentSessionDrivingFieldNumberE
|| __TEXT.__const __ZN3awd7metrics14CompassSession35kPercentSessionDrivingHCFieldNumberE
|| __TEXT.__const __ZN3awd7metrics14CompassSession36kPercentSessionPedestrianFieldNumberE
|| __TEXT.__const __ZN3awd7metrics14CompassSession38kPercentSessionUncalibratedFieldNumberE
|| __TEXT.__const __ZN3awd7metrics14CompassSession7Level2DE
|| __TEXT.__const __ZN3awd7metrics14CompassSession7Level3DE
|| __TEXT.__const __ZN3awd7metrics14CompassSession8LevelMaxE
|| __TEXT.__const __ZN3awd7metrics14MotionSOSEvent13WORKOUT_OTHERE
|| __TEXT.__const __ZN3awd7metrics14MotionSOSEvent13WORKOUT_ROWERE
|| __TEXT.__const __ZN3awd7metrics14MotionSOSEvent15WORKOUT_UNKNOWNE
|| __TEXT.__const __ZN3awd7metrics14MotionSOSEvent15WorkoutType_MAXE
|| __TEXT.__const __ZN3awd7metrics14MotionSOSEvent15WorkoutType_MINE
|| __TEXT.__const __ZN3awd7metrics14MotionSOSEvent15kAgeFieldNumberE
|| __TEXT.__const __ZN3awd7metrics14MotionSOSEvent16WORKOUT_SWIMMINGE
|| __TEXT.__const __ZN3awd7metrics14MotionSOSEvent18WORKOUT_ELLIPTICALE
|| __TEXT.__const __ZN3awd7metrics14MotionSOSEvent18WORKOUT_INDOOR_RUNE
|| __TEXT.__const __ZN3awd7metrics14MotionSOSEvent18WORKOUT_WHEELCHAIRE
|| __TEXT.__const __ZN3awd7metrics14MotionSOSEvent19WORKOUT_INDOOR_WALKE
|| __TEXT.__const __ZN3awd7metrics14MotionSOSEvent19WORKOUT_OUTDOOR_RUNE
|| __TEXT.__const __ZN3awd7metrics14MotionSOSEvent19kDeltaHRFieldNumberE
|| __TEXT.__const __ZN3awd7metrics14MotionSOSEvent20WORKOUT_INDOOR_CYCLEE
|| __TEXT.__const __ZN3awd7metrics14MotionSOSEvent20WORKOUT_OUTDOOR_WALKE
|| __TEXT.__const __ZN3awd7metrics14MotionSOSEvent21WORKOUT_OUTDOOR_CYCLEE
|| __TEXT.__const __ZN3awd7metrics14MotionSOSEvent21WORKOUT_STAIR_STEPPERE
|| __TEXT.__const __ZN3awd7metrics14MotionSOSEvent21WorkoutType_ARRAYSIZEE
|| __TEXT.__const __ZN3awd7metrics14MotionSOSEvent21kIsCarModeFieldNumberE
|| __TEXT.__const __ZN3awd7metrics14MotionSOSEvent21kTimestampFieldNumberE
|| __TEXT.__const __ZN3awd7metrics14MotionSOSEvent22kIsSOSEventFieldNumberE
|| __TEXT.__const __ZN3awd7metrics14MotionSOSEvent23kWorkoutTypeFieldNumberE
|| __TEXT.__const __ZN3awd7metrics14MotionSOSEvent24kIsHighImpactFieldNumberE
|| __TEXT.__const __ZN3awd7metrics14MotionSOSEvent27kMeanPoseNext30SFieldNumberE
|| __TEXT.__const __ZN3awd7metrics14MotionSOSEvent27kStepsInLast120SFieldNumberE
|| __TEXT.__const __ZN3awd7metrics14MotionSOSEvent32kPeakAccelMagLast120SFieldNumberE
|| __TEXT.__const __ZN3awd7metrics14MotionSOSEvent33kIsAccelMagLowLast120SFieldNumberE
|| __TEXT.__const __ZN3awd7metrics14MotionSOSEvent43kSignedElevationChangeInLast120SFieldNumberE
|| __TEXT.__const __ZN3awd7metrics15MotionGyroDaily21kTimestampFieldNumberE
|| __TEXT.__const __ZN3awd7metrics15MotionGyroDaily22kGyroMagMaxFieldNumberE
|| __TEXT.__const __ZN3awd7metrics15MotionGyroDaily22kGyroMagMinFieldNumberE
|| __TEXT.__const __ZN3awd7metrics15MotionGyroDaily26kMinsGyroActiveFieldNumberE
|| __TEXT.__const __ZN3awd7metrics16LocationTileFile13kXFieldNumberE
|| __TEXT.__const __ZN3awd7metrics16LocationTileFile13kYFieldNumberE
|| __TEXT.__const __ZN3awd7metrics16LocationTileFile17kUsageFieldNumberE
|| __TEXT.__const __ZN3awd7metrics16LocationTileFile30kInitialDownloadDayFieldNumberE
|| __TEXT.__const __ZN3awd7metrics17LocationWifiUsage20kBundleidFieldNumberE
|| __TEXT.__const __ZN3awd7metrics17LocationWifiUsage21kTimestampFieldNumberE
|| __TEXT.__const __ZN3awd7metrics17LocationWifiUsage22kScanBusiesFieldNumberE
|| __TEXT.__const __ZN3awd7metrics17LocationWifiUsage22kTotalScansFieldNumberE
|| __TEXT.__const __ZN3awd7metrics17LocationWifiUsage24kScanFailuresFieldNumberE
|| __TEXT.__const __ZN3awd7metrics17LocationWifiUsage26kTriggeredScansFieldNumberE
|| __TEXT.__const __ZN3awd7metrics17LocationWifiUsage28kTriggeredScansS2FieldNumberE
|| __TEXT.__const __ZN3awd7metrics17MotionGyroMiniCal21kTimestampFieldNumberE
|| __TEXT.__const __ZN3awd7metrics17MotionGyroMiniCal23kTimeElapsedFieldNumberE
|| __TEXT.__const __ZN3awd7metrics18LocationSessionDay22kAlsAPCountFieldNumberE
|| __TEXT.__const __ZN3awd7metrics18LocationSessionDay22kSessionDayFieldNumberE
|| __TEXT.__const __ZN3awd7metrics18LocationSessionDay22kTilesUsageFieldNumberE
|| __TEXT.__const __ZN3awd7metrics18LocationSessionDay23kTileAPCountFieldNumberE
|| __TEXT.__const __ZN3awd7metrics18LocationSessionDay24kAlsScanCountFieldNumberE
|| __TEXT.__const __ZN3awd7metrics18LocationSessionDay24kCacheAPCountFieldNumberE
|| __TEXT.__const __ZN3awd7metrics18LocationSessionDay24kScanHitCountFieldNumberE
|| __TEXT.__const __ZN3awd7metrics18LocationSessionDay25kAlsCacheUsageFieldNumberE
|| __TEXT.__const __ZN3awd7metrics18LocationSessionDay25kApSearchCountFieldNumberE
|| __TEXT.__const __ZN3awd7metrics18LocationSessionDay25kTileScanCountFieldNumberE
|| __TEXT.__const __ZN3awd7metrics18LocationSessionDay26kCacheScanCountFieldNumberE
|| __TEXT.__const __ZN3awd7metrics18LocationSessionDay26kEmptyScanCountFieldNumberE
|| __TEXT.__const __ZN3awd7metrics18LocationSessionDay27kAlsNetworkUsageFieldNumberE
|| __TEXT.__const __ZN3awd7metrics18LocationSessionDay27kScanSearchCountFieldNumberE
|| __TEXT.__const __ZN3awd7metrics18LocationTilesUsage24kScanHitCountFieldNumberE
|| __TEXT.__const __ZN3awd7metrics18MotionFitnessDaily16WearableType_MAXE
|| __TEXT.__const __ZN3awd7metrics18MotionFitnessDaily16WearableType_MINE
|| __TEXT.__const __ZN3awd7metrics18MotionFitnessDaily21kTimestampFieldNumberE
|| __TEXT.__const __ZN3awd7metrics18MotionFitnessDaily21kUserTokenFieldNumberE
|| __TEXT.__const __ZN3awd7metrics18MotionFitnessDaily22WearableType_ARRAYSIZEE
|| __TEXT.__const __ZN3awd7metrics18MotionFitnessDaily23kHoursActiveFieldNumberE
|| __TEXT.__const __ZN3awd7metrics18MotionFitnessDaily24kWearableTypeFieldNumberE
|| __TEXT.__const __ZN3awd7metrics18MotionFitnessDaily25kMinutesActiveFieldNumberE
|| __TEXT.__const __ZN3awd7metrics18MotionFitnessDaily26kAccessoryModelFieldNumberE
|| __TEXT.__const __ZN3awd7metrics18MotionFitnessDaily26kFitnessAppUserFieldNumberE
|| __TEXT.__const __ZN3awd7metrics18MotionFitnessDaily26kFlightsClimbedFieldNumberE
|| __TEXT.__const __ZN3awd7metrics18MotionFitnessDaily26kWearableActiveFieldNumberE
|| __TEXT.__const __ZN3awd7metrics18MotionFitnessDaily28kIphoneStaticnessFieldNumberE
|| __TEXT.__const __ZN3awd7metrics18MotionFitnessDaily28kWatchStepsPerDayFieldNumberE
|| __TEXT.__const __ZN3awd7metrics18MotionFitnessDaily29kCoarseLocationLatFieldNumberE
|| __TEXT.__const __ZN3awd7metrics18MotionFitnessDaily29kWatchConnectivityFieldNumberE
|| __TEXT.__const __ZN3awd7metrics18MotionFitnessDaily30kCoarseLocationLongFieldNumberE
|| __TEXT.__const __ZN3awd7metrics18MotionFitnessDaily30kWatchConnectedTimeFieldNumberE
|| __TEXT.__const __ZN3awd7metrics18MotionFitnessDaily31kWatchNonPedWorkoutsFieldNumberE
|| __TEXT.__const __ZN3awd7metrics18MotionFitnessDaily32kCompanionStepsPerDayFieldNumberE
|| __TEXT.__const __ZN3awd7metrics18MotionFitnessDaily37kWatchNonPedWorkoutMinutesFieldNumberE
|| __TEXT.__const __ZN3awd7metrics18MotionFitnessDaily4NONEE
|| __TEXT.__const __ZN3awd7metrics18MotionFitnessDaily5MIXEDE
|| __TEXT.__const __ZN3awd7metrics18MotionFitnessDaily5OTHERE
|| __TEXT.__const __ZN3awd7metrics18MotionFitnessDaily5WATCHE
|| __TEXT.__const __ZN3awd7metrics19LocationMapMatching18kNoDataFieldNumberE
|| __TEXT.__const __ZN3awd7metrics19LocationMapMatching19kNoMatchFieldNumberE
|| __TEXT.__const __ZN3awd7metrics19LocationMapMatching20kAttemptsFieldNumberE
|| __TEXT.__const __ZN3awd7metrics19LocationMapMatching20kBundleidFieldNumberE
|| __TEXT.__const __ZN3awd7metrics19LocationMapMatching21kTimestampFieldNumberE
|| __TEXT.__const __ZN3awd7metrics19MotionDropDetection15kYawFieldNumberE
|| __TEXT.__const __ZN3awd7metrics19MotionDropDetection16kRollFieldNumberE
|| __TEXT.__const __ZN3awd7metrics19MotionDropDetection17kPitchFieldNumberE
|| __TEXT.__const __ZN3awd7metrics19MotionDropDetection21kTimestampFieldNumberE
|| __TEXT.__const __ZN3awd7metrics19MotionDropDetection24kDropDurationFieldNumberE
|| __TEXT.__const __ZN3awd7metrics19MotionFitnessAllDay17kJerkXFieldNumberE
|| __TEXT.__const __ZN3awd7metrics19MotionFitnessAllDay17kJerkYFieldNumberE
|| __TEXT.__const __ZN3awd7metrics19MotionFitnessAllDay17kJerkZFieldNumberE
|| __TEXT.__const __ZN3awd7metrics19MotionFitnessAllDay19kMinMaxXFieldNumberE
|| __TEXT.__const __ZN3awd7metrics19MotionFitnessAllDay19kMinMaxYFieldNumberE
|| __TEXT.__const __ZN3awd7metrics19MotionFitnessAllDay19kMinMaxZFieldNumberE
|| __TEXT.__const __ZN3awd7metrics19MotionFitnessAllDay21kAlertTypeFieldNumberE
|| __TEXT.__const __ZN3awd7metrics19MotionFitnessAllDay21kNumEventsFieldNumberE
|| __TEXT.__const __ZN3awd7metrics19MotionFitnessAllDay21kTimestampFieldNumberE
|| __TEXT.__const __ZN3awd7metrics19MotionFitnessAllDay22kPctEMBurstFieldNumberE
|| __TEXT.__const __ZN3awd7metrics19MotionFitnessAllDay25kEventDurationFieldNumberE
|| __TEXT.__const __ZN3awd7metrics19MotionFitnessAllDay25kNumFallAlertsFieldNumberE
|| __TEXT.__const __ZN3awd7metrics19MotionFitnessAllDay25kPctEMCoverageFieldNumberE
|| __TEXT.__const __ZN3awd7metrics19MotionFitnessAllDay26kEscalationTypeFieldNumberE
|| __TEXT.__const __ZN3awd7metrics19MotionFitnessAllDay26kPctEMThresholdFieldNumberE
|| __TEXT.__const __ZN3awd7metrics19MotionFitnessAllDay26kTimeSinceOptInFieldNumberE
|| __TEXT.__const __ZN3awd7metrics19MotionFitnessAllDay27kNumPushFailuresFieldNumberE
|| __TEXT.__const __ZN3awd7metrics19MotionFitnessAllDay27kPctCaloriesPushFieldNumberE
|| __TEXT.__const __ZN3awd7metrics19MotionFitnessAllDay27kUserStartedTypeFieldNumberE
|| __TEXT.__const __ZN3awd7metrics19MotionFitnessAllDay29kNumRecoveryEventsFieldNumberE
|| __TEXT.__const __ZN3awd7metrics19MotionFitnessAllDay29kPctCaloriesFrozenFieldNumberE
|| __TEXT.__const __ZN3awd7metrics19MotionFitnessAllDay29kPctCaloriesSSPushFieldNumberE
|| __TEXT.__const __ZN3awd7metrics19MotionFitnessAllDay30kPctAllDayEMOnGradeFieldNumberE
|| __TEXT.__const __ZN3awd7metrics19MotionFitnessAllDay30kTimeSinceLastAlertFieldNumberE
|| __TEXT.__const __ZN3awd7metrics19MotionFitnessAllDay31kBelongsToOlderGroupFieldNumberE
|| __TEXT.__const __ZN3awd7metrics19MotionFitnessAllDay32kPctCaloriesSSPostureFieldNumberE
|| __TEXT.__const __ZN3awd7metrics19MotionFitnessAllDay34kPctCaloriesSSIntensityFieldNumberE
|| __TEXT.__const __ZN3awd7metrics19MotionFitnessAllDay35kNumUserResponseRejectedFieldNumberE
|| __TEXT.__const __ZN3awd7metrics19MotionFitnessAllDay35kRunCalibrationAvailableFieldNumberE
|| __TEXT.__const __ZN3awd7metrics19MotionFitnessAllDay36kNumUserResponseDismissedFieldNumberE
|| __TEXT.__const __ZN3awd7metrics19MotionFitnessAllDay36kWalkCalibrationAvailableFieldNumberE
|| __TEXT.__const __ZN3awd7metrics19MotionFitnessAllDay37kDidEnableAnomalyDetectionFieldNumberE
|| __TEXT.__const __ZN3awd7metrics19MotionFitnessAllDay38kNumGatedFallAlertsOffWristFieldNumberE
|| __TEXT.__const __ZN3awd7metrics19MotionFitnessAllDay38kPctAllDayCaloriesFromGradeFieldNumberE
|| __TEXT.__const __ZN3awd7metrics19MotionFitnessAllDay39kNumGatedFallAlertsOnChargerFieldNumberE
|| __TEXT.__const __ZN3awd7metrics19MotionFitnessAllDay41kPctCaloriesSessionPedWorkoutsFieldNumberE
|| __TEXT.__const __ZN3awd7metrics19MotionFitnessAllDay42kPctCaloriesSessionSwimWorkoutsFieldNumberE
|| __TEXT.__const __ZN3awd7metrics19MotionFitnessAllDay43kPctCaloriesSessionOtherWorkoutsFieldNumberE
|| __TEXT.__const __ZN3awd7metrics19MotionFitnessAllDay43kPctCaloriesSessionWheelchairRunFieldNumberE
|| __TEXT.__const __ZN3awd7metrics19MotionFitnessAllDay44kPctCaloriesSessionWheelchairWalkFieldNumberE
|| __TEXT.__const __ZN3awd7metrics19MotionFitnessAllDay45kPctCaloriesSessionCyclingWorkoutsFieldNumberE
|| __TEXT.__const __ZN3awd7metrics19MotionFitnessAllDay50kIsImproveHealthAndActivityOptInEnabledFieldNumberE
|| __TEXT.__const __ZN3awd7metrics19MotionFitnessAllDay51kNumUserResponseAutomaticActionRequestedFieldNumberE
|| __TEXT.__const __ZN3awd7metrics19MotionFitnessAllDay51kNumUserResponseConfirmedActionRequestedFieldNumberE
|| __TEXT.__const __ZN3awd7metrics19MotionFitnessAllDay53kNumUserResponseConfirmedNoActionRequestedFieldNumberE
|| __TEXT.__const __ZN3awd7metrics20LocationBatteryState20kChargingFieldNumberE
|| __TEXT.__const __ZN3awd7metrics20LocationBatteryState21kTimestampFieldNumberE
|| __TEXT.__const __ZN3awd7metrics20LocationBatteryState32kBatteryLevelPer10000FieldNumberE
|| __TEXT.__const __ZN3awd7metrics20LocationWifiTileSync21kTimestampFieldNumberE
|| __TEXT.__const __ZN3awd7metrics20LocationWifiTileSync24kSyncSessionsFieldNumberE
|| __TEXT.__const __ZN3awd7metrics20LocationWifiTileSync25kEmptySessionsFieldNumberE
|| __TEXT.__const __ZN3awd7metrics20LocationWifiTileSync26kNumTilesSyncedFieldNumberE
|| __TEXT.__const __ZN3awd7metrics20LocationWifiTileSync27kErroredSessionsFieldNumberE
|| __TEXT.__const __ZN3awd7metrics20LocationWifiTileSync27kSizeTilesSyncedFieldNumberE
|| __TEXT.__const __ZN3awd7metrics20LocationWifiTileSync29kCompletedSessionsFieldNumberE
|| __TEXT.__const __ZN3awd7metrics20MotionFitnessSession10MOCAL_HELDE
|| __TEXT.__const __ZN3awd7metrics20MotionFitnessSession12HRSource_MAXE
|| __TEXT.__const __ZN3awd7metrics20MotionFitnessSession12HRSource_MINE
|| __TEXT.__const __ZN3awd7metrics20MotionFitnessSession12WORKOUT_HIITE
|| __TEXT.__const __ZN3awd7metrics20MotionFitnessSession12WORKOUT_YOGAE
|| __TEXT.__const __ZN3awd7metrics20MotionFitnessSession13WORKOUT_OTHERE
|| __TEXT.__const __ZN3awd7metrics20MotionFitnessSession13WORKOUT_ROWERE
|| __TEXT.__const __ZN3awd7metrics20MotionFitnessSession14WORKOUT_HIKINGE
|| __TEXT.__const __ZN3awd7metrics20MotionFitnessSession15HR_SOURCE_WATCHE
|| __TEXT.__const __ZN3awd7metrics20MotionFitnessSession15MOCAL_SUCCEEDEDE
|| __TEXT.__const __ZN3awd7metrics20MotionFitnessSession15WORKOUT_DANCINGE
|| __TEXT.__const __ZN3awd7metrics20MotionFitnessSession15WORKOUT_GOLFINGE
|| __TEXT.__const __ZN3awd7metrics20MotionFitnessSession15WORKOUT_UNKNOWNE
|| __TEXT.__const __ZN3awd7metrics20MotionFitnessSession15WorkoutType_MAXE
|| __TEXT.__const __ZN3awd7metrics20MotionFitnessSession15WorkoutType_MINE
|| __TEXT.__const __ZN3awd7metrics20MotionFitnessSession16MOCAL_NO_ATTEMPTE
|| __TEXT.__const __ZN3awd7metrics20MotionFitnessSession16WORKOUT_SWIMMINGE
|| __TEXT.__const __ZN3awd7metrics20MotionFitnessSession18HRSource_ARRAYSIZEE
|| __TEXT.__const __ZN3awd7metrics20MotionFitnessSession18HR_SOURCE_EXTERNALE
|| __TEXT.__const __ZN3awd7metrics20MotionFitnessSession18MOCAL_FAILED_OTHERE
|| __TEXT.__const __ZN3awd7metrics20MotionFitnessSession18WORKOUT_ELLIPTICALE
|| __TEXT.__const __ZN3awd7metrics20MotionFitnessSession18WORKOUT_INDOOR_RUNE
|| __TEXT.__const __ZN3awd7metrics20MotionFitnessSession18WORKOUT_WHEELCHAIRE
|| __TEXT.__const __ZN3awd7metrics20MotionFitnessSession19WORKOUT_INDOOR_WALKE
|| __TEXT.__const __ZN3awd7metrics20MotionFitnessSession19WORKOUT_OUTDOOR_RUNE
|| __TEXT.__const __ZN3awd7metrics20MotionFitnessSession20STRIDECAL_NO_ATTEMPTE
|| __TEXT.__const __ZN3awd7metrics20MotionFitnessSession20WORKOUT_INDOOR_CYCLEE
|| __TEXT.__const __ZN3awd7metrics20MotionFitnessSession20WORKOUT_OUTDOOR_WALKE
|| __TEXT.__const __ZN3awd7metrics20MotionFitnessSession20kHrSourceFieldNumberE
|| __TEXT.__const __ZN3awd7metrics20MotionFitnessSession21WORKOUT_OPEN_SWIMMINGE
|| __TEXT.__const __ZN3awd7metrics20MotionFitnessSession21WORKOUT_OUTDOOR_CYCLEE
|| __TEXT.__const __ZN3awd7metrics20MotionFitnessSession21WORKOUT_STAIR_STEPPERE
|| __TEXT.__const __ZN3awd7metrics20MotionFitnessSession21WorkoutType_ARRAYSIZEE
|| __TEXT.__const __ZN3awd7metrics20MotionFitnessSession21kRatioWRHRFieldNumberE
|| __TEXT.__const __ZN3awd7metrics20MotionFitnessSession21kTimestampFieldNumberE
|| __TEXT.__const __ZN3awd7metrics20MotionFitnessSession22STRIDECAL_FAILED_NOGPSE
|| __TEXT.__const __ZN3awd7metrics20MotionFitnessSession22STRIDECAL_FAILED_OTHERE
|| __TEXT.__const __ZN3awd7metrics20MotionFitnessSession22kPoolLengthFieldNumberE
|| __TEXT.__const __ZN3awd7metrics20MotionFitnessSession23WORKOUT_DOWNHILL_SKIINGE
|| __TEXT.__const __ZN3awd7metrics20MotionFitnessSession23kWorkoutTypeFieldNumberE
|| __TEXT.__const __ZN3awd7metrics20MotionFitnessSession24kNumPauseFastFieldNumberE
|| __TEXT.__const __ZN3awd7metrics20MotionFitnessSession24kNumPauseSlowFieldNumberE
|| __TEXT.__const __ZN3awd7metrics20MotionFitnessSession25STRIDECAL_FAILED_NOTRACKSE
|| __TEXT.__const __ZN3awd7metrics20MotionFitnessSession25kHrUtilizationFieldNumberE
|| __TEXT.__const __ZN3awd7metrics20MotionFitnessSession25kNumResumeFastFieldNumberE
|| __TEXT.__const __ZN3awd7metrics20MotionFitnessSession26STRIDECAL_FAILED_ELEVATIONE
|| __TEXT.__const __ZN3awd7metrics20MotionFitnessSession26kCompanionModelFieldNumberE
|| __TEXT.__const __ZN3awd7metrics20MotionFitnessSession26kHrAvailabilityFieldNumberE
|| __TEXT.__const __ZN3awd7metrics20MotionFitnessSession26kNumPauseNormalFieldNumberE
|| __TEXT.__const __ZN3awd7metrics20MotionFitnessSession26kNumResumeFalseFieldNumberE
|| __TEXT.__const __ZN3awd7metrics20MotionFitnessSession26kPctPaceFailureFieldNumberE
|| __TEXT.__const __ZN3awd7metrics20MotionFitnessSession26kPctSessionBackFieldNumberE
|| __TEXT.__const __ZN3awd7metrics20MotionFitnessSession26kPctSessionFreeFieldNumberE
|| __TEXT.__const __ZN3awd7metrics20MotionFitnessSession26kVo2ConsistencyFieldNumberE
|| __TEXT.__const __ZN3awd7metrics20MotionFitnessSession27MotionCalibrationStatus_MAXE
|| __TEXT.__const __ZN3awd7metrics20MotionFitnessSession27MotionCalibrationStatus_MINE
|| __TEXT.__const __ZN3awd7metrics20MotionFitnessSession27StrideCalibrationStatus_MAXE
|| __TEXT.__const __ZN3awd7metrics20MotionFitnessSession27StrideCalibrationStatus_MINE
|| __TEXT.__const __ZN3awd7metrics20MotionFitnessSession27kBeelineDistanceFieldNumberE
|| __TEXT.__const __ZN3awd7metrics20MotionFitnessSession27kGpsAvailabilityFieldNumberE
|| __TEXT.__const __ZN3awd7metrics20MotionFitnessSession27kIdsAvailabilityFieldNumberE
|| __TEXT.__const __ZN3awd7metrics20MotionFitnessSession27kMeanABSPressureFieldNumberE
|| __TEXT.__const __ZN3awd7metrics20MotionFitnessSession27kNumAutoDidPauseFieldNumberE
|| __TEXT.__const __ZN3awd7metrics20MotionFitnessSession27kNumAutoDidStartFieldNumberE
|| __TEXT.__const __ZN3awd7metrics20MotionFitnessSession27kNumResumeNormalFieldNumberE
|| __TEXT.__const __ZN3awd7metrics20MotionFitnessSession27kPctSessionOtherFieldNumberE
|| __TEXT.__const __ZN3awd7metrics20MotionFitnessSession27kVo2MaxAvailableFieldNumberE
|| __TEXT.__const __ZN3awd7metrics20MotionFitnessSession28kAutoPauseEnabledFieldNumberE
|| __TEXT.__const __ZN3awd7metrics20MotionFitnessSession28kAvgLapCorrectionFieldNumberE
|| __TEXT.__const __ZN3awd7metrics20MotionFitnessSession28kNumAutoWillPauseFieldNumberE
|| __TEXT.__const __ZN3awd7metrics20MotionFitnessSession28kNumAutoWillStartFieldNumberE
|| __TEXT.__const __ZN3awd7metrics20MotionFitnessSession28kNumLapInsertionsFieldNumberE
|| __TEXT.__const __ZN3awd7metrics20MotionFitnessSession28kPctSessionBreastFieldNumberE
|| __TEXT.__const __ZN3awd7metrics20MotionFitnessSession28kPctSessionButterFieldNumberE
|| __TEXT.__const __ZN3awd7metrics20MotionFitnessSession28kPctSessionUphillFieldNumberE
|| __TEXT.__const __ZN3awd7metrics20MotionFitnessSession28kPctTurnsRejectedFieldNumberE
|| __TEXT.__const __ZN3awd7metrics20MotionFitnessSession29kDemAltitudeChangeFieldNumberE
|| __TEXT.__const __ZN3awd7metrics20MotionFitnessSession29kOtherWorkoutLabelFieldNumberE
|| __TEXT.__const __ZN3awd7metrics20MotionFitnessSession30MOCAL_FAILED_INSUFFICIENT_DATAE
|| __TEXT.__const __ZN3awd7metrics20MotionFitnessSession30kBaroAltitudeChangeFieldNumberE
|| __TEXT.__const __ZN3awd7metrics20MotionFitnessSession30kCompanionAvailableFieldNumberE
|| __TEXT.__const __ZN3awd7metrics20MotionFitnessSession30kDefaultUtilizationFieldNumberE
|| __TEXT.__const __ZN3awd7metrics20MotionFitnessSession30kHistEventDeltaTimeFieldNumberE
|| __TEXT.__const __ZN3awd7metrics20MotionFitnessSession30kIndoorOutdoorStateFieldNumberE
|| __TEXT.__const __ZN3awd7metrics20MotionFitnessSession30kIsStopAlertEnabledFieldNumberE
|| __TEXT.__const __ZN3awd7metrics20MotionFitnessSession30kNumValidHRMetPairsFieldNumberE
|| __TEXT.__const __ZN3awd7metrics20MotionFitnessSession30kPctSessionDownhillFieldNumberE
|| __TEXT.__const __ZN3awd7metrics20MotionFitnessSession30kPctSessionSwimmingFieldNumberE
|| __TEXT.__const __ZN3awd7metrics20MotionFitnessSession31kBoolDidHrBoundsFailFieldNumberE
|| __TEXT.__const __ZN3awd7metrics20MotionFitnessSession31kHistSessionDurationFieldNumberE
|| __TEXT.__const __ZN3awd7metrics20MotionFitnessSession31kHrOnsetAvailabilityFieldNumberE
|| __TEXT.__const __ZN3awd7metrics20MotionFitnessSession31kIsStartAlertEnabledFieldNumberE
|| __TEXT.__const __ZN3awd7metrics20MotionFitnessSession31kNumBaroGoodBaroUsedFieldNumberE
|| __TEXT.__const __ZN3awd7metrics20MotionFitnessSession31kPALEstimationStatusFieldNumberE
|| __TEXT.__const __ZN3awd7metrics20MotionFitnessSession32kCoarseLocationLatMFSFieldNumberE
|| __TEXT.__const __ZN3awd7metrics20MotionFitnessSession32kPctDistanceTrackUsedFieldNumberE
|| __TEXT.__const __ZN3awd7metrics20MotionFitnessSession32kPctHRSamplesValidMaxFieldNumberE
|| __TEXT.__const __ZN3awd7metrics20MotionFitnessSession32kPctHRSamplesValidMinFieldNumberE
|| __TEXT.__const __ZN3awd7metrics20MotionFitnessSession32kRunCalibrationStatusFieldNumberE
|| __TEXT.__const __ZN3awd7metrics20MotionFitnessSession33MotionCalibrationStatus_ARRAYSIZEE
|| __TEXT.__const __ZN3awd7metrics20MotionFitnessSession33StrideCalibrationStatus_ARRAYSIZEE
|| __TEXT.__const __ZN3awd7metrics20MotionFitnessSession33kCoarseLocationLongMFSFieldNumberE
|| __TEXT.__const __ZN3awd7metrics20MotionFitnessSession33kMonthsSinceLastVo2MaxFieldNumberE
|| __TEXT.__const __ZN3awd7metrics20MotionFitnessSession33kNumLapsForConvergenceFieldNumberE
|| __TEXT.__const __ZN3awd7metrics20MotionFitnessSession33kSteadyStateDivergenceFieldNumberE
|| __TEXT.__const __ZN3awd7metrics20MotionFitnessSession33kVo2MaxDeltaPercentageFieldNumberE
|| __TEXT.__const __ZN3awd7metrics20MotionFitnessSession33kVo2MaxWalkRunDeltaPctFieldNumberE
|| __TEXT.__const __ZN3awd7metrics20MotionFitnessSession33kWalkCalibrationStatusFieldNumberE
|| __TEXT.__const __ZN3awd7metrics20MotionFitnessSession33kWorkoutElevationErrorFieldNumberE
|| __TEXT.__const __ZN3awd7metrics20MotionFitnessSession34kPctStrokeSamplesFailMAFieldNumberE
|| __TEXT.__const __ZN3awd7metrics20MotionFitnessSession34kVo2MaxEstimationStatusFieldNumberE
|| __TEXT.__const __ZN3awd7metrics20MotionFitnessSession35kAvgInterCalibrationTimeFieldNumberE
|| __TEXT.__const __ZN3awd7metrics20MotionFitnessSession35kNumStopAlertRetractionsFieldNumberE
|| __TEXT.__const __ZN3awd7metrics20MotionFitnessSession35kPctMETSamplesValidDeltaFieldNumberE
|| __TEXT.__const __ZN3awd7metrics20MotionFitnessSession35kPctPedestrianCalibratedFieldNumberE
|| __TEXT.__const __ZN3awd7metrics20MotionFitnessSession35kRunCalibrationAvailableFieldNumberE
|| __TEXT.__const __ZN3awd7metrics20MotionFitnessSession35kVo2MaxGradeAvailabilityFieldNumberE
|| __TEXT.__const __ZN3awd7metrics20MotionFitnessSession36kNumAlertsOfDetectedStopsFieldNumberE
|| __TEXT.__const __ZN3awd7metrics20MotionFitnessSession36kPctSessionGPSSourcePhoneFieldNumberE
|| __TEXT.__const __ZN3awd7metrics20MotionFitnessSession36kPctSessionGPSSourceWatchFieldNumberE
|| __TEXT.__const __ZN3awd7metrics20MotionFitnessSession36kWalkCalibrationAvailableFieldNumberE
|| __TEXT.__const __ZN3awd7metrics20MotionFitnessSession37kNumBaroBadDEMAvailDEMUsedFieldNumberE
|| __TEXT.__const __ZN3awd7metrics20MotionFitnessSession37kPctMETSamplesWithRecentHRFieldNumberE
|| __TEXT.__const __ZN3awd7metrics20MotionFitnessSession37kPctPedestrianGPSAvailableFieldNumberE
|| __TEXT.__const __ZN3awd7metrics20MotionFitnessSession37kPctStrokeSamplesFailAccelFieldNumberE
|| __TEXT.__const __ZN3awd7metrics20MotionFitnessSession38kAvgPedestrianMetSourceDiffFieldNumberE
|| __TEXT.__const __ZN3awd7metrics20MotionFitnessSession38kLoadCalibrationUtilizationFieldNumberE
|| __TEXT.__const __ZN3awd7metrics20MotionFitnessSession38kStdPedestrianMetSourceDiffFieldNumberE
|| __TEXT.__const __ZN3awd7metrics20MotionFitnessSession39kPctDistanceTrackInvalidGainFieldNumberE
|| __TEXT.__const __ZN3awd7metrics20MotionFitnessSession39kPctSessionCaloriesFromGradeFieldNumberE
|| __TEXT.__const __ZN3awd7metrics20MotionFitnessSession40kActivityTypeWhenStopDisabledFieldNumberE
|| __TEXT.__const __ZN3awd7metrics20MotionFitnessSession40kNumBaroBadDEMUnavailNoSourceFieldNumberE
|| __TEXT.__const __ZN3awd7metrics20MotionFitnessSession40kNumBaroUnkDEMUnavailBaroUsedFieldNumberE
|| __TEXT.__const __ZN3awd7metrics20MotionFitnessSession40kPctDistanceTrackInvalidSpeedFieldNumberE
|| __TEXT.__const __ZN3awd7metrics20MotionFitnessSession41kActivityTypeWhenStartDisabledFieldNumberE
|| __TEXT.__const __ZN3awd7metrics20MotionFitnessSession41kPctDistanceTrackInvalidLengthFieldNumberE
|| __TEXT.__const __ZN3awd7metrics20MotionFitnessSession41kPctStrokeSamplesFailCurvatureFieldNumberE
|| __TEXT.__const __ZN3awd7metrics20MotionFitnessSession41kStrideCalibrationAvailabilityFieldNumberE
|| __TEXT.__const __ZN3awd7metrics20MotionFitnessSession41kWeatherPressureAltitudeChangeFieldNumberE
|| __TEXT.__const __ZN3awd7metrics20MotionFitnessSession42kNumBaroUnkBaroDEMAgreeBaroUsedFieldNumberE
|| __TEXT.__const __ZN3awd7metrics20MotionFitnessSession43kPctDistanceTrackInvalidGradientFieldNumberE
|| __TEXT.__const __ZN3awd7metrics20MotionFitnessSession44kNumBaroUnkBaroDEMDisagreeDEMUsedFieldNumberE
|| __TEXT.__const __ZN3awd7metrics20MotionFitnessSession45kNumBaroUnkBaroDEMDisagreeBaroUsedFieldNumberE
|| __TEXT.__const __ZN3awd7metrics20MotionFitnessSession48kBoolSessionDurationThresholdExceededFieldNumberE
|| __TEXT.__const __ZN3awd7metrics20MotionFitnessSession48kNumGPSSelectedGPSAvailGPSUsedBaroBadFieldNumberE
|| __TEXT.__const __ZN3awd7metrics20MotionFitnessSession48kNumGPSSelectedGPSAvailGPSUsedBaroUnkFieldNumberE
|| __TEXT.__const __ZN3awd7metrics20MotionFitnessSession49kNumGPSSelectedGPSAvailGPSUsedBaroGoodFieldNumberE
|| __TEXT.__const __ZN3awd7metrics20MotionFitnessSession49kTimeSinceLastDetectedStopToWorkoutEndFieldNumberE
|| __TEXT.__const __ZN3awd7metrics20MotionFitnessSession51kNumGPSSelectedGPSUnavailNoUpdateBaroBadFieldNumberE
|| __TEXT.__const __ZN3awd7metrics20MotionFitnessSession51kNumGPSSelectedGPSUnavailNoUpdateBaroUnkFieldNumberE
|| __TEXT.__const __ZN3awd7metrics20MotionFitnessSession52kNumGPSSelectedGPSUnavailNoUpdateBaroGoodFieldNumberE
|| __TEXT.__const __ZN3awd7metrics20MotionNoGPSRunAllDay21kTimestampFieldNumberE
|| __TEXT.__const __ZN3awd7metrics20MotionNoGPSRunAllDay33kCompanionOnlyNoGPSRunFieldNumberE
|| __TEXT.__const __ZN3awd7metrics21LocationALSCacheUsage22kApHitCountFieldNumberE
|| __TEXT.__const __ZN3awd7metrics21LocationALSCacheUsage23kInsertCountFieldNumberE
|| __TEXT.__const __ZN3awd7metrics21LocationALSCacheUsage24kScanHitCountFieldNumberE
|| __TEXT.__const __ZN3awd7metrics21LocationALSCacheUsage28kOtherDeleteCountFieldNumberE
|| __TEXT.__const __ZN3awd7metrics21LocationALSCacheUsage29kUnusedDeleteCountFieldNumberE
|| __TEXT.__const __ZN3awd7metrics21LocationALSCacheUsage30kExpiredDeleteCountFieldNumberE
|| __TEXT.__const __ZN3awd7metrics21LocationALSCacheUsage30kRefreshDeleteCountFieldNumberE
|| __TEXT.__const __ZN3awd7metrics21LocationALSCacheUsage38kMaxSizeExceededDeleteCountFieldNumberE
|| __TEXT.__const __ZN3awd7metrics21LocationCellTileUsage21kTimestampFieldNumberE
|| __TEXT.__const __ZN3awd7metrics21LocationCellTileUsage26kNumAlsRequestsFieldNumberE
|| __TEXT.__const __ZN3awd7metrics21LocationCellTileUsage27kLocationUnknownFieldNumberE
|| __TEXT.__const __ZN3awd7metrics21LocationCellTileUsage28kLocationAttemptsFieldNumberE
|| __TEXT.__const __ZN3awd7metrics21LocationCellTileUsage29kLocationFromTilesFieldNumberE
|| __TEXT.__const __ZN3awd7metrics21LocationCellTileUsage31kNumAlsCellsReturnedFieldNumberE
|| __TEXT.__const __ZN3awd7metrics21LocationCellTileUsage31kNumCurrentDownloadsFieldNumberE
|| __TEXT.__const __ZN3awd7metrics21LocationCellTileUsage32kNumNeighborDownloadsFieldNumberE
|| __TEXT.__const __ZN3awd7metrics21LocationCellTileUsage32kSizeCurrentDownloadsFieldNumberE
|| __TEXT.__const __ZN3awd7metrics21LocationCellTileUsage33kSizeNeighborDownloadsFieldNumberE
|| __TEXT.__const __ZN3awd7metrics21LocationCellTileUsage36kLocationFromNetworkCacheFieldNumberE
|| __TEXT.__const __ZN3awd7metrics21LocationServicesState17kEventFieldNumberE
|| __TEXT.__const __ZN3awd7metrics21LocationServicesState19kEnabledFieldNumberE
|| __TEXT.__const __ZN3awd7metrics21LocationServicesState20kBundleidFieldNumberE
|| __TEXT.__const __ZN3awd7metrics21LocationServicesState21kTimestampFieldNumberE
|| __TEXT.__const __ZN3awd7metrics21LocationTileFileUsage22kApHitCountFieldNumberE
|| __TEXT.__const __ZN3awd7metrics21LocationTileFileUsage22kSessionDayFieldNumberE
|| __TEXT.__const __ZN3awd7metrics21LocationTileFileUsage23kAccessCountFieldNumberE
|| __TEXT.__const __ZN3awd7metrics21LocationTileFileUsage24kScanHitCountFieldNumberE
|| __TEXT.__const __ZN3awd7metrics21LocationTileFileUsage25kApSearchCountFieldNumberE
|| __TEXT.__const __ZN3awd7metrics21LocationTileFileUsage25kDownloadCountFieldNumberE
|| __TEXT.__const __ZN3awd7metrics21LocationTileFileUsage27kScanSearchCountFieldNumberE
|| __TEXT.__const __ZN3awd7metrics21LocationTileFileUsage28kOnTileAPHitCountFieldNumberE
|| __TEXT.__const __ZN3awd7metrics21LocationTileFileUsage28kOtherDeleteCountFieldNumberE
|| __TEXT.__const __ZN3awd7metrics21LocationTileFileUsage29kUnusedDeleteCountFieldNumberE
|| __TEXT.__const __ZN3awd7metrics21LocationTileFileUsage30kExpiredDeleteCountFieldNumberE
|| __TEXT.__const __ZN3awd7metrics21LocationTileFileUsage30kOnTileScanHitCountFieldNumberE
|| __TEXT.__const __ZN3awd7metrics21LocationTileFileUsage30kRefreshDeleteCountFieldNumberE
|| __TEXT.__const __ZN3awd7metrics21LocationTileFileUsage31kOnTileAPSearchCountFieldNumberE
|| __TEXT.__const __ZN3awd7metrics21LocationTileFileUsage33kOnTileScanSearchCountFieldNumberE
|| __TEXT.__const __ZN3awd7metrics21LocationTileFileUsage34kDownloadLocationHintXsFieldNumberE
|| __TEXT.__const __ZN3awd7metrics21LocationTileFileUsage34kDownloadLocationHintYsFieldNumberE
|| __TEXT.__const __ZN3awd7metrics21LocationTileFileUsage38kExceededMaxSizeDeleteCountFieldNumberE
|| __TEXT.__const __ZN3awd7metrics21LocationTileFileUsage38kMissingOnTileAPSearchCountFieldNumberE
|| __TEXT.__const __ZN3awd7metrics21LocationTileFileUsage39kImmediateNeighborAPHitCountFieldNumberE
|| __TEXT.__const __ZN3awd7metrics21LocationTileFileUsage40kMissingOnTileScanSearchCountFieldNumberE
|| __TEXT.__const __ZN3awd7metrics21LocationTileFileUsage41kImmediateNeighborScanHitCountFieldNumberE
|| __TEXT.__const __ZN3awd7metrics21LocationTileFileUsage42kImmediateNeighborAPSearchCountFieldNumberE
|| __TEXT.__const __ZN3awd7metrics21LocationTileFileUsage44kImmediateNeighborScanSearchCountFieldNumberE
|| __TEXT.__const __ZN3awd7metrics21LocationTileFileUsage49kMissingImmediateNeighborAPSearchCountFieldNumberE
|| __TEXT.__const __ZN3awd7metrics21LocationTileFileUsage51kMissingImmediateNeighborScanSearchCountFieldNumberE
|| __TEXT.__const __ZN3awd7metrics21LocationUpdateSession16kTtffFieldNumberE
|| __TEXT.__const __ZN3awd7metrics21LocationUpdateSession19kPoweredFieldNumberE
|| __TEXT.__const __ZN3awd7metrics21LocationUpdateSession19kTtffGpsFieldNumberE
|| __TEXT.__const __ZN3awd7metrics21LocationUpdateSession20kBundleidFieldNumberE
|| __TEXT.__const __ZN3awd7metrics21LocationUpdateSession21kGpsCoexBtFieldNumberE
|| __TEXT.__const __ZN3awd7metrics21LocationUpdateSession21kTimestampFieldNumberE
|| __TEXT.__const __ZN3awd7metrics21LocationUpdateSession23kAutoStoppedFieldNumberE
|| __TEXT.__const __ZN3awd7metrics21LocationUpdateSession23kGpsCoexWifiFieldNumberE
|| __TEXT.__const __ZN3awd7metrics21LocationUpdateSession24kAirplaneModeFieldNumberE
|| __TEXT.__const __ZN3awd7metrics21LocationUpdateSession24kReachabilityFieldNumberE
|| __TEXT.__const __ZN3awd7metrics21LocationUpdateSession24kTimestampEndFieldNumberE
|| __TEXT.__const __ZN3awd7metrics21LocationUpdateSession25kAccessoryNameFieldNumberE
|| __TEXT.__const __ZN3awd7metrics21LocationUpdateSession25kAccessoryUsedFieldNumberE
|| __TEXT.__const __ZN3awd7metrics21LocationUpdateSession25kAchievedSpeedFieldNumberE
|| __TEXT.__const __ZN3awd7metrics21LocationUpdateSession25kBtDeviceTypesFieldNumberE
|| __TEXT.__const __ZN3awd7metrics21LocationUpdateSession25kCellAvailableFieldNumberE
|| __TEXT.__const __ZN3awd7metrics21LocationUpdateSession25kWifiAvailableFieldNumberE
|| __TEXT.__const __ZN3awd7metrics21LocationUpdateSession26kAccessoryModelFieldNumberE
|| __TEXT.__const __ZN3awd7metrics21LocationUpdateSession26kBtEyesfreeModeFieldNumberE
|| __TEXT.__const __ZN3awd7metrics21LocationUpdateSession26kPasscodeLockedFieldNumberE
|| __TEXT.__const __ZN3awd7metrics21LocationUpdateSession27kDesiredAccuracyFieldNumberE
|| __TEXT.__const __ZN3awd7metrics21LocationUpdateSession27kMountedDurationFieldNumberE
|| __TEXT.__const __ZN3awd7metrics21LocationUpdateSession27kPersonalHotspotFieldNumberE
|| __TEXT.__const __ZN3awd7metrics21LocationUpdateSession27kPoweredDurationFieldNumberE
|| __TEXT.__const __ZN3awd7metrics21LocationUpdateSession28kAchievedAccuracyFieldNumberE
|| __TEXT.__const __ZN3awd7metrics21LocationUpdateSession28kHasAccessoryGyroFieldNumberE
|| __TEXT.__const __ZN3awd7metrics21LocationUpdateSession29kDeferredLocationsFieldNumberE
|| __TEXT.__const __ZN3awd7metrics21LocationUpdateSession29kHasAccessoryAccelFieldNumberE
|| __TEXT.__const __ZN3awd7metrics21LocationUpdateSession29kHasAccessorySpeedFieldNumberE
|| __TEXT.__const __ZN3awd7metrics21LocationUpdateSession32kHasAccessoryLocationFieldNumberE
|| __TEXT.__const __ZN3awd7metrics21LocationUpdateSession33kAccessoryManufacturerFieldNumberE
|| __TEXT.__const __ZN3awd7metrics21MotionElevationAllDay17kSlopeFieldNumberE
|| __TEXT.__const __ZN3awd7metrics21MotionElevationAllDay18HasWetWorkouts_MAXE
|| __TEXT.__const __ZN3awd7metrics21MotionElevationAllDay18HasWetWorkouts_MINE
|| __TEXT.__const __ZN3awd7metrics21MotionElevationAllDay21kTimestampFieldNumberE
|| __TEXT.__const __ZN3awd7metrics21MotionElevationAllDay23kMaxAbsSlopeFieldNumberE
|| __TEXT.__const __ZN3awd7metrics21MotionElevationAllDay24HasWetWorkouts_ARRAYSIZEE
|| __TEXT.__const __ZN3awd7metrics21MotionElevationAllDay25kHistWetPeriodFieldNumberE
|| __TEXT.__const __ZN3awd7metrics21MotionElevationAllDay26kDeltaTimeDailyFieldNumberE
|| __TEXT.__const __ZN3awd7metrics21MotionElevationAllDay26kHasWetWorkoutsFieldNumberE
|| __TEXT.__const __ZN3awd7metrics21MotionElevationAllDay27kDeltaTimeWeeklyFieldNumberE
|| __TEXT.__const __ZN3awd7metrics21MotionElevationAllDay27kNumAscendEventsFieldNumberE
|| __TEXT.__const __ZN3awd7metrics21MotionElevationAllDay27kParkingSessionsFieldNumberE
|| __TEXT.__const __ZN3awd7metrics21MotionElevationAllDay28kNumDescendEventsFieldNumberE
|| __TEXT.__const __ZN3awd7metrics21MotionElevationAllDay28kNumFailureByTypeFieldNumberE
|| __TEXT.__const __ZN3awd7metrics21MotionElevationAllDay29kConfirmedSessionsFieldNumberE
|| __TEXT.__const __ZN3awd7metrics21MotionElevationAllDay29kEscalatedSessionsFieldNumberE
|| __TEXT.__const __ZN3awd7metrics21MotionElevationAllDay29kSignalEnvironmentFieldNumberE
|| __TEXT.__const __ZN3awd7metrics21MotionElevationAllDay2NAE
|| __TEXT.__const __ZN3awd7metrics21MotionElevationAllDay33kHistPressureAmplitudeFieldNumberE
|| __TEXT.__const __ZN3awd7metrics21MotionElevationAllDay34kNumOccludedDaysInAWeekFieldNumberE
|| __TEXT.__const __ZN3awd7metrics21MotionElevationAllDay35kPressureChangeRateDailyFieldNumberE
|| __TEXT.__const __ZN3awd7metrics21MotionElevationAllDay36kPressureChangeRateWeeklyFieldNumberE
|| __TEXT.__const __ZN3awd7metrics21MotionElevationAllDay37kGroundAltitudeUncertaintyFieldNumberE
|| __TEXT.__const __ZN3awd7metrics21MotionElevationAllDay4TrueE
|| __TEXT.__const __ZN3awd7metrics21MotionElevationAllDay5FalseE
|| __TEXT.__const __ZN3awd7metrics22LocationMonitorSession15kSlcFieldNumberE
|| __TEXT.__const __ZN3awd7metrics22LocationMonitorSession20kBundleidFieldNumberE
|| __TEXT.__const __ZN3awd7metrics22LocationMonitorSession21kNumFencesFieldNumberE
|| __TEXT.__const __ZN3awd7metrics22LocationMonitorSession21kTimestampFieldNumberE
|| __TEXT.__const __ZN3awd7metrics22LocationMonitorSession23kFenceRadiusFieldNumberE
|| __TEXT.__const __ZN3awd7metrics22LocationMonitorSession25kCellAvailableFieldNumberE
|| __TEXT.__const __ZN3awd7metrics22LocationMonitorSession25kWifiAvailableFieldNumberE
|| __TEXT.__const __ZN3awd7metrics22LocationMonitorSession26kFenceRadiusMaxFieldNumberE
|| __TEXT.__const __ZN3awd7metrics22LocationMonitorSession26kFenceRadiusMinFieldNumberE
|| __TEXT.__const __ZN3awd7metrics22LocationMonitorSession26kPasscodeLockedFieldNumberE
|| __TEXT.__const __ZN3awd7metrics22LocationMonitorSession28kNumFencesRemovedFieldNumberE
|| __TEXT.__const __ZN3awd7metrics22LocationMonitorTrigger20kBundleidFieldNumberE
|| __TEXT.__const __ZN3awd7metrics22LocationMonitorTrigger21kEventMaskFieldNumberE
|| __TEXT.__const __ZN3awd7metrics22LocationMonitorTrigger21kEventTypeFieldNumberE
|| __TEXT.__const __ZN3awd7metrics22LocationMonitorTrigger21kSlcEventsFieldNumberE
|| __TEXT.__const __ZN3awd7metrics22LocationMonitorTrigger21kTimestampFieldNumberE
|| __TEXT.__const __ZN3awd7metrics22LocationMonitorTrigger22kFenceExitsFieldNumberE
|| __TEXT.__const __ZN3awd7metrics22LocationMonitorTrigger23kEventRadiusFieldNumberE
|| __TEXT.__const __ZN3awd7metrics22LocationMonitorTrigger24kEventLatencyFieldNumberE
|| __TEXT.__const __ZN3awd7metrics22LocationMonitorTrigger24kFenceEntriesFieldNumberE
|| __TEXT.__const __ZN3awd7metrics22LocationMonitorTrigger25kCellAvailableFieldNumberE
|| __TEXT.__const __ZN3awd7metrics22LocationMonitorTrigger25kEventDistanceFieldNumberE
|| __TEXT.__const __ZN3awd7metrics22LocationMonitorTrigger25kWifiAvailableFieldNumberE
|| __TEXT.__const __ZN3awd7metrics22LocationMonitorTrigger26kPasscodeLockedFieldNumberE
|| __TEXT.__const __ZN3awd7metrics22LocationNetworkQueries20kBundleidFieldNumberE
|| __TEXT.__const __ZN3awd7metrics22LocationNetworkQueries21kTimestampFieldNumberE
|| __TEXT.__const __ZN3awd7metrics22LocationNetworkQueries24kCellsQueriedFieldNumberE
|| __TEXT.__const __ZN3awd7metrics22LocationNetworkQueries24kWifisQueriedFieldNumberE
|| __TEXT.__const __ZN3awd7metrics22LocationNetworkQueries25kTotalRequestsFieldNumberE
|| __TEXT.__const __ZN3awd7metrics22LocationNetworkQueries27kCellTilesCachedFieldNumberE
|| __TEXT.__const __ZN3awd7metrics22LocationNetworkQueries27kWifiTilesCachedFieldNumberE
|| __TEXT.__const __ZN3awd7metrics22LocationNetworkQueries28kLocationsQueriedFieldNumberE
|| __TEXT.__const __ZN3awd7metrics22LocationNetworkQueries30kDemTilesDownloadedFieldNumberE
|| __TEXT.__const __ZN3awd7metrics22LocationNetworkQueries31kCellTilesDownloadedFieldNumberE
|| __TEXT.__const __ZN3awd7metrics22LocationNetworkQueries31kWifiTilesDownloadedFieldNumberE
|| __TEXT.__const __ZN3awd7metrics22LocationNetworkQueries33kCellTilesDownloaded3GFieldNumberE
|| __TEXT.__const __ZN3awd7metrics22LocationNetworkQueries33kWifiTilesDownloaded3GFieldNumberE
|| __TEXT.__const __ZN3awd7metrics22LocationNetworkQueries35kTotalRequestsSuccessfulFieldNumberE
|| __TEXT.__const __ZN3awd7metrics22MotionFitnessPedometer21kTimestampFieldNumberE
|| __TEXT.__const __ZN3awd7metrics22MotionFitnessPedometer24kPctStepsFlatFieldNumberE
|| __TEXT.__const __ZN3awd7metrics22MotionFitnessPedometer29kPctStepsIndoorRunFieldNumberE
|| __TEXT.__const __ZN3awd7metrics22MotionFitnessPedometer30kPctStepsIndoorWalkFieldNumberE
|| __TEXT.__const __ZN3awd7metrics22MotionFitnessPedometer30kPctStepsOutdoorRunFieldNumberE
|| __TEXT.__const __ZN3awd7metrics22MotionFitnessPedometer31kPctStepsOutdoorWalkFieldNumberE
|| __TEXT.__const __ZN3awd7metrics22MotionFitnessPedometer31kPctStepsSteepInlineFieldNumberE
|| __TEXT.__const __ZN3awd7metrics22MotionFitnessPedometer32kPctStepsOtherSessionFieldNumberE
|| __TEXT.__const __ZN3awd7metrics22MotionFitnessPedometer32kPctStepsSteepDeclineFieldNumberE
|| __TEXT.__const __ZN3awd7metrics22MotionFitnessPedometer34kPctStepsGradualDeclineFieldNumberE
|| __TEXT.__const __ZN3awd7metrics22MotionFitnessPedometer34kPctStepsGradualInclineFieldNumberE
|| __TEXT.__const __ZN3awd7metrics22MotionFitnessPedometer35kPctStepsOutOfSessionRunFieldNumberE
|| __TEXT.__const __ZN3awd7metrics22MotionFitnessPedometer40kPctStepsOutOfSessionWalkLongFieldNumberE
|| __TEXT.__const __ZN3awd7metrics22MotionFitnessPedometer41kPctStepsOutOfSessionWalkShortFieldNumberE
|| __TEXT.__const __ZN3awd7metrics22MotionFitnessPedometer42kPctStepsOutOfSessionWalkMediumFieldNumberE
|| __TEXT.__const __ZN3awd7metrics22MotionFitnessPedometer48kPctStepErrorBetweenGizmoCompanionRunFieldNumberE
|| __TEXT.__const __ZN3awd7metrics22MotionFitnessPedometer49kPctStepErrorBetweenGizmoCompanionWalkFieldNumberE
|| __TEXT.__const __ZN3awd7metrics22MotionFitnessPedometer52kPctDistanceErrorBetweenGizmoCompanionRunFieldNumberE
|| __TEXT.__const __ZN3awd7metrics22MotionFitnessPedometer53kPctDistanceErrorBetweenGizmoCompanionWalkFieldNumberE
|| __TEXT.__const __ZN3awd7metrics23CompassSession_Rotation13kXFieldNumberE
|| __TEXT.__const __ZN3awd7metrics23CompassSession_Rotation13kYFieldNumberE
|| __TEXT.__const __ZN3awd7metrics23CompassSession_Rotation13kZFieldNumberE
|| __TEXT.__const __ZN3awd7metrics23LocationALSNetworkUsage22kApHitCountFieldNumberE
|| __TEXT.__const __ZN3awd7metrics23LocationALSNetworkUsage24kScanHitCountFieldNumberE
|| __TEXT.__const __ZN3awd7metrics23LocationALSNetworkUsage25kApSearchCountFieldNumberE
|| __TEXT.__const __ZN3awd7metrics23LocationALSNetworkUsage27kScanSearchCountFieldNumberE
|| __TEXT.__const __ZN3awd7metrics23LocationALSNetworkUsage29kRequestOtherCountFieldNumberE
|| __TEXT.__const __ZN3awd7metrics23LocationALSNetworkUsage33kNoRequestOtherAPCountFieldNumberE
|| __TEXT.__const __ZN3awd7metrics23LocationALSNetworkUsage35kNoRequestOtherScanCountFieldNumberE
|| __TEXT.__const __ZN3awd7metrics23LocationALSNetworkUsage36kNoRequestKnownAPsAPCountFieldNumberE
|| __TEXT.__const __ZN3awd7metrics23LocationALSNetworkUsage36kRequestCacheRefreshCountFieldNumberE
|| __TEXT.__const __ZN3awd7metrics23LocationALSNetworkUsage36kRequestUnknownAPsAPCountFieldNumberE
|| __TEXT.__const __ZN3awd7metrics23LocationALSNetworkUsage38kNoRequestKnownAPsScanCountFieldNumberE
|| __TEXT.__const __ZN3awd7metrics23LocationALSNetworkUsage38kRequestUnknownAPsScanCountFieldNumberE
|| __TEXT.__const __ZN3awd7metrics23LocationALSNetworkUsage46kNoRequestNetworkUnavailableAPCountFieldNumberE
|| __TEXT.__const __ZN3awd7metrics23LocationALSNetworkUsage48kNoRequestNetworkUnavailableScanCountFieldNumberE
|| __TEXT.__const __ZN3awd7metrics23LocationRealTimeHarvest21kTimestampFieldNumberE
|| __TEXT.__const __ZN3awd7metrics23LocationRealTimeHarvest27kRemainingBudgetFieldNumberE
|| __TEXT.__const __ZN3awd7metrics23LocationRealTimeHarvest29kRemainingIntervalFieldNumberE
|| __TEXT.__const __ZN3awd7metrics23LocationRealTimeHarvest30kPointsLostByBudgetFieldNumberE
|| __TEXT.__const __ZN3awd7metrics23LocationRealTimeHarvest36kPointsLostByBatchRestartFieldNumberE
|| __TEXT.__const __ZN3awd7metrics24LocationEmergencySession15kMccFieldNumberE
|| __TEXT.__const __ZN3awd7metrics24LocationEmergencySession15kMncFieldNumberE
|| __TEXT.__const __ZN3awd7metrics24LocationEmergencySession16kTtffFieldNumberE
|| __TEXT.__const __ZN3awd7metrics24LocationEmergencySession20kBundleidFieldNumberE
|| __TEXT.__const __ZN3awd7metrics24LocationEmergencySession21kTimestampFieldNumberE
|| __TEXT.__const __ZN3awd7metrics24LocationEmergencySession28kAchievedAccuracyFieldNumberE
|| __TEXT.__const __ZN3awd7metrics24LocationServicesApproval20kApprovedFieldNumberE
|| __TEXT.__const __ZN3awd7metrics24LocationServicesApproval20kBundleidFieldNumberE
|| __TEXT.__const __ZN3awd7metrics24LocationServicesApproval21kTimestampFieldNumberE
|| __TEXT.__const __ZN3awd7metrics24LocationServicesApproval25kAuthorizationFieldNumberE
|| __TEXT.__const __ZN3awd7metrics24LocationServicesApproval28kBundleidApprovedFieldNumberE
|| __TEXT.__const __ZN3awd7metrics24MotionGyroBiasEstimation21kTimestampFieldNumberE
|| __TEXT.__const __ZN3awd7metrics24MotionGyroBiasEstimation23kMaxDurationFieldNumberE
|| __TEXT.__const __ZN3awd7metrics24MotionGyroBiasEstimation23kMinDurationFieldNumberE
|| __TEXT.__const __ZN3awd7metrics24MotionGyroBiasEstimation24kMeanDurationFieldNumberE
|| __TEXT.__const __ZN3awd7metrics24MotionGyroBiasEstimation25kEndConditionsFieldNumberE
|| __TEXT.__const __ZN3awd7metrics24MotionGyroBiasEstimation25kImageSessionsFieldNumberE
|| __TEXT.__const __ZN3awd7metrics24MotionGyroBiasEstimation26kMaxTemperatureFieldNumberE
|| __TEXT.__const __ZN3awd7metrics24MotionGyroBiasEstimation26kMinTemperatureFieldNumberE
|| __TEXT.__const __ZN3awd7metrics24MotionGyroBiasEstimation27kBiasCorrectionsFieldNumberE
|| __TEXT.__const __ZN3awd7metrics25LocationNavigationSession20kDurationFieldNumberE
|| __TEXT.__const __ZN3awd7metrics25LocationNavigationSession20kMapsUsedFieldNumberE
|| __TEXT.__const __ZN3awd7metrics25LocationNavigationSession21kTimestampFieldNumberE
|| __TEXT.__const __ZN3awd7metrics25LocationNavigationSession22kIdentifierFieldNumberE
|| __TEXT.__const __ZN3awd7metrics25LocationNavigationSession23kGpsDurationFieldNumberE
|| __TEXT.__const __ZN3awd7metrics25LocationNavigationSession25kBatteryStatesFieldNumberE
|| __TEXT.__const __ZN3awd7metrics25LocationNavigationSession32kProactiveGpsDurationFieldNumberE
|| __TEXT.__const __ZN3awd7metrics25LocationNavigationSession38kAutomotiveActivityDurationFieldNumberE
|| __TEXT.__const __ZN3awd7metrics25LocationNavigationSession38kIsVehicleConnectedDurationFieldNumberE
|| __TEXT.__const __ZN3awd7metrics25MotionPressureTemperature21kTimestampFieldNumberE
|| __TEXT.__const __ZN3awd7metrics25MotionPressureTemperature40kPressureTemperatureAllDayMaxFieldNumberE
|| __TEXT.__const __ZN3awd7metrics25MotionPressureTemperature40kPressureTemperatureAllDayMinFieldNumberE
|| __TEXT.__const __ZN3awd7metrics25MotionPressureTemperature42kPressureTemperatureLargeWindowFieldNumberE
|| __TEXT.__const __ZN3awd7metrics25MotionPressureTemperature42kPressureTemperatureSmallWindowFieldNumberE
|| __TEXT.__const __ZN3awd7metrics25MotionPressureTemperature43kPressureTemperatureMediumWindowFieldNumberE
|| __TEXT.__const __ZN3awd7metrics25MotionPressureTemperature47kPressureTemperatureStepsSmallWindowFieldNumberE
|| __TEXT.__const __ZN3awd7metrics25MotionPressureTemperature48kPressureTemperatureStepsMediumWindowFieldNumberE
|| __TEXT.__const __ZN3awd7metrics26LocationCompassSaturations21kTimestampFieldNumberE
|| __TEXT.__const __ZN3awd7metrics26LocationCompassSaturations26kNumSaturationsFieldNumberE
|| __TEXT.__const __ZN3awd7metrics26LocationCompassSaturations27kMagMagnitudeMaxFieldNumberE
|| __TEXT.__const __ZN3awd7metrics26LocationCompassSaturations27kMagMagnitudeMinFieldNumberE
|| __TEXT.__const __ZN3awd7metrics26LocationCompassSaturations31kNumCoverAttachmentsFieldNumberE
|| __TEXT.__const __ZN3awd7metrics26LocationCompassSaturations34kDeltaBiasHighQuality3DFieldNumberE
|| __TEXT.__const __ZN3awd7metrics26LocationCompassSaturations35kMaxCalibrationQuality3DFieldNumberE
|| __TEXT.__const __ZN3awd7metrics26LocationCompassSaturations36kDeltaRadiusHighQuality3DFieldNumberE
|| __TEXT.__const __ZN3awd7metrics26LocationCompassSaturations40kMeanDeltaTimeSaturationsMsecFieldNumberE
|| __TEXT.__const __ZN3awd7metrics26LocationPeerRangingMetrics20kMetaDataFieldNumberE
|| __TEXT.__const __ZN3awd7metrics26LocationPeerRangingMetrics21kTimestampFieldNumberE
|| __TEXT.__const __ZN3awd7metrics26LocationPeerRangingMetrics24kBurstMetricsFieldNumberE
|| __TEXT.__const __ZN3awd7metrics26LocationPeerRangingMetrics30kMeasurementMetricsFieldNumberE
|| __TEXT.__const __ZN3awd7metrics26LocationPeerRangingMetrics33kEarlyTerminateMetricsFieldNumberE
|| __TEXT.__const __ZN3awd7metrics26LocationPeerRangingMetrics33kUnlockDecisionMetricsFieldNumberE
|| __TEXT.__const __ZN3awd7metrics26LocationPeerRangingMetrics34kEstimatorConfigurationFieldNumberE
|| __TEXT.__const __ZN3awd7metrics26MotionBarometerCalibration17kSlopeFieldNumberE
|| __TEXT.__const __ZN3awd7metrics26MotionBarometerCalibration20kResidualFieldNumberE
|| __TEXT.__const __ZN3awd7metrics26MotionBarometerCalibration21kTimestampFieldNumberE
|| __TEXT.__const __ZN3awd7metrics26MotionBarometerCalibration27kNumCalibrationsFieldNumberE
|| __TEXT.__const __ZN3awd7metrics26MotionBarometerCalibration34kMedianCalibrationValueFieldNumberE
|| __TEXT.__const __ZN3awd7metrics26MotionPedometerCalibration17kStepsFieldNumberE
|| __TEXT.__const __ZN3awd7metrics26MotionPedometerCalibration19kKfactorFieldNumberE
|| __TEXT.__const __ZN3awd7metrics26MotionPedometerCalibration20kDistanceFieldNumberE
|| __TEXT.__const __ZN3awd7metrics26MotionPedometerCalibration21kTimestampFieldNumberE
|| __TEXT.__const __ZN3awd7metrics26MotionPedometerCalibration22kTrackScoreFieldNumberE
|| __TEXT.__const __ZN3awd7metrics26MotionPedometerCalibration25kTrackDistanceFieldNumberE
|| __TEXT.__const __ZN3awd7metrics26MotionPedometerCalibration26kKfactorUpdatedFieldNumberE
|| __TEXT.__const __ZN3awd7metrics26MotionPedometerCalibration29kTrackPaceVarianceFieldNumberE
|| __TEXT.__const __ZN3awd7metrics27LocationPeerRangingDecision18kReasonFieldNumberE
|| __TEXT.__const __ZN3awd7metrics27LocationPeerRangingDecision25kDecisionCountFieldNumberE
|| __TEXT.__const __ZN3awd7metrics27LocationPeerRangingMetaData39kStatisticsTimePeriodInHoursFieldNumberE
|| __TEXT.__const __ZN3awd7metrics27LocationSubHarvesterMetrics21kTimestampFieldNumberE
|| __TEXT.__const __ZN3awd7metrics27LocationSubHarvesterMetrics23kPointsSavedFieldNumberE
|| __TEXT.__const __ZN3awd7metrics27LocationSubHarvesterMetrics24kPointsPrunedFieldNumberE
|| __TEXT.__const __ZN3awd7metrics27LocationSubHarvesterMetrics25kPointsClearedFieldNumberE
|| __TEXT.__const __ZN3awd7metrics27LocationSubHarvesterMetrics26kPointsReceivedFieldNumberE
|| __TEXT.__const __ZN3awd7metrics27LocationSubHarvesterMetrics26kPointsUploadedFieldNumberE
|| __TEXT.__const __ZN3awd7metrics27LocationSubHarvesterMetrics26kUploadAttemptsFieldNumberE
|| __TEXT.__const __ZN3awd7metrics27LocationSubHarvesterMetrics29kMetricsIdentifierFieldNumberE
|| __TEXT.__const __ZN3awd7metrics27LocationSubHarvesterMetrics33kDurationUploadCapableFieldNumberE
|| __TEXT.__const __ZN3awd7metrics27LocationSubHarvesterMetrics34kSubHarvesterIdentifierFieldNumberE
|| __TEXT.__const __ZN3awd7metrics27LocationSubHarvesterMetrics35kDurationUploadIncapableFieldNumberE
|| __TEXT.__const __ZN3awd7metrics27LocationVisibilityAssertion12DisconnectedE
|| __TEXT.__const __ZN3awd7metrics27LocationVisibilityAssertion19kElapsedFieldNumberE
|| __TEXT.__const __ZN3awd7metrics27LocationVisibilityAssertion20kBundleidFieldNumberE
|| __TEXT.__const __ZN3awd7metrics27LocationVisibilityAssertion21kTimestampFieldNumberE
|| __TEXT.__const __ZN3awd7metrics27LocationVisibilityAssertion22InvalidationReason_MAXE
|| __TEXT.__const __ZN3awd7metrics27LocationVisibilityAssertion22InvalidationReason_MINE
|| __TEXT.__const __ZN3awd7metrics27LocationVisibilityAssertion28InvalidationReason_ARRAYSIZEE
|| __TEXT.__const __ZN3awd7metrics27LocationVisibilityAssertion28kEverInBackgroundFieldNumberE
|| __TEXT.__const __ZN3awd7metrics27LocationVisibilityAssertion30kAuthorizationStateFieldNumberE
|| __TEXT.__const __ZN3awd7metrics27LocationVisibilityAssertion30kInvalidationReasonFieldNumberE
|| __TEXT.__const __ZN3awd7metrics27LocationVisibilityAssertion31kStartedInBackgroundFieldNumberE
|| __TEXT.__const __ZN3awd7metrics27LocationVisibilityAssertion31kStoppedInBackgroundFieldNumberE
|| __TEXT.__const __ZN3awd7metrics27LocationVisibilityAssertion32kEverHiddenBySettingsFieldNumberE
|| __TEXT.__const __ZN3awd7metrics27LocationVisibilityAssertion9RequestedE
|| __TEXT.__const __ZN3awd7metrics28LocationBeaconMonitorSession20kBundleIdFieldNumberE
|| __TEXT.__const __ZN3awd7metrics28LocationBeaconMonitorSession21kTimestampFieldNumberE
|| __TEXT.__const __ZN3awd7metrics28LocationBeaconMonitorSession24kAddedRegionsFieldNumberE
|| __TEXT.__const __ZN3awd7metrics28LocationBeaconMonitorSession26kRemovedRegionsFieldNumberE
|| __TEXT.__const __ZN3awd7metrics28LocationBeaconMonitorSession27kAddedWildCardedFieldNumberE
|| __TEXT.__const __ZN3awd7metrics28LocationBeaconMonitorSession28kOnBehalfBundleIdFieldNumberE
|| __TEXT.__const __ZN3awd7metrics28LocationBeaconMonitorSession29kRemovedWildCardedFieldNumberE
|| __TEXT.__const __ZN3awd7metrics28LocationBeaconMonitorSession34kAddedConservativeEntryFieldNumberE
|| __TEXT.__const __ZN3awd7metrics28LocationBeaconMonitorSession36kAddedEntryStateOnDisplayFieldNumberE
|| __TEXT.__const __ZN3awd7metrics28LocationBeaconMonitorSession36kRemovedConservativeEntryFieldNumberE
|| __TEXT.__const __ZN3awd7metrics28LocationBeaconMonitorSession38kRemovedEntryStateOnDisplayFieldNumberE
|| __TEXT.__const __ZN3awd7metrics28LocationBeaconMonitorTrigger20kBundleIdFieldNumberE
|| __TEXT.__const __ZN3awd7metrics28LocationBeaconMonitorTrigger21kEventTypeFieldNumberE
|| __TEXT.__const __ZN3awd7metrics28LocationBeaconMonitorTrigger21kTimestampFieldNumberE
|| __TEXT.__const __ZN3awd7metrics28LocationBeaconMonitorTrigger22kRegionmaskFieldNumberE
|| __TEXT.__const __ZN3awd7metrics28LocationBeaconMonitorTrigger28kOnBehalfBundleIdFieldNumberE
|| __TEXT.__const __ZN3awd7metrics28LocationBeaconMonitorTrigger32kMonitoredZonesDeviceFieldNumberE
|| __TEXT.__const __ZN3awd7metrics28LocationBeaconMonitorTrigger34kMonitoredRegionsClientFieldNumberE
|| __TEXT.__const __ZN3awd7metrics28LocationBeaconRangingSession20kBundleIdFieldNumberE
|| __TEXT.__const __ZN3awd7metrics28LocationBeaconRangingSession21kRssiTraceFieldNumberE
|| __TEXT.__const __ZN3awd7metrics28LocationBeaconRangingSession21kTimestampFieldNumberE
|| __TEXT.__const __ZN3awd7metrics28LocationBeaconRangingSession25kRangedRegionsFieldNumberE
|| __TEXT.__const __ZN3awd7metrics28LocationBeaconRangingSession26kRangingBeaconsFieldNumberE
|| __TEXT.__const __ZN3awd7metrics28LocationBeaconRangingSession27kRangingDurationFieldNumberE
|| __TEXT.__const __ZN3awd7metrics28LocationBeaconRangingSession31kRangingMeasurementsFieldNumberE
|| __TEXT.__const __ZN3awd7metrics28LocationGPSSessionStatistics15kMccFieldNumberE
|| __TEXT.__const __ZN3awd7metrics28LocationGPSSessionStatistics15kMncFieldNumberE
|| __TEXT.__const __ZN3awd7metrics28LocationGPSSessionStatistics15kNidFieldNumberE
|| __TEXT.__const __ZN3awd7metrics28LocationGPSSessionStatistics15kSidFieldNumberE
|| __TEXT.__const __ZN3awd7metrics28LocationGPSSessionStatistics16kTtffFieldNumberE
|| __TEXT.__const __ZN3awd7metrics28LocationGPSSessionStatistics18PowerStateType_MAXE
|| __TEXT.__const __ZN3awd7metrics28LocationGPSSessionStatistics18PowerStateType_MINE
|| __TEXT.__const __ZN3awd7metrics28LocationGPSSessionStatistics19MovingStateType_MAXE
|| __TEXT.__const __ZN3awd7metrics28LocationGPSSessionStatistics19MovingStateType_MINE
|| __TEXT.__const __ZN3awd7metrics28LocationGPSSessionStatistics20MountedStateType_MAXE
|| __TEXT.__const __ZN3awd7metrics28LocationGPSSessionStatistics20MountedStateType_MINE
|| __TEXT.__const __ZN3awd7metrics28LocationGPSSessionStatistics20kBundleidFieldNumberE
|| __TEXT.__const __ZN3awd7metrics28LocationGPSSessionStatistics20kPctYieldFieldNumberE
|| __TEXT.__const __ZN3awd7metrics28LocationGPSSessionStatistics21kTimestampFieldNumberE
|| __TEXT.__const __ZN3awd7metrics28LocationGPSSessionStatistics22MotionActivityType_MAXE
|| __TEXT.__const __ZN3awd7metrics28LocationGPSSessionStatistics22MotionActivityType_MINE
|| __TEXT.__const __ZN3awd7metrics28LocationGPSSessionStatistics22kEpochCountFieldNumberE
|| __TEXT.__const __ZN3awd7metrics28LocationGPSSessionStatistics22kMovingStateTypeFrozenE
|| __TEXT.__const __ZN3awd7metrics28LocationGPSSessionStatistics22kMovingStateTypeMovingE
|| __TEXT.__const __ZN3awd7metrics28LocationGPSSessionStatistics22kYieldCountFieldNumberE
|| __TEXT.__const __ZN3awd7metrics28LocationGPSSessionStatistics23kIsEmergencyFieldNumberE
|| __TEXT.__const __ZN3awd7metrics28LocationGPSSessionStatistics24PowerStateType_ARRAYSIZEE
|| __TEXT.__const __ZN3awd7metrics28LocationGPSSessionStatistics24UncertaintyRangeType_MAXE
|| __TEXT.__const __ZN3awd7metrics28LocationGPSSessionStatistics24UncertaintyRangeType_MINE
|| __TEXT.__const __ZN3awd7metrics28LocationGPSSessionStatistics24kMountedStateTypeMountedE
|| __TEXT.__const __ZN3awd7metrics28LocationGPSSessionStatistics24kOrbitFileAgeFieldNumberE
|| __TEXT.__const __ZN3awd7metrics28LocationGPSSessionStatistics24kRATOccupancyFieldNumberE
|| __TEXT.__const __ZN3awd7metrics28LocationGPSSessionStatistics24kRtiUsedCountFieldNumberE
|| __TEXT.__const __ZN3awd7metrics28LocationGPSSessionStatistics24kUncertaintyRangeInvalidE
|| __TEXT.__const __ZN3awd7metrics28LocationGPSSessionStatistics24kUncertaintyRangeType0_5E
|| __TEXT.__const __ZN3awd7metrics28LocationGPSSessionStatistics25DeviceOrientationType_MAXE
|| __TEXT.__const __ZN3awd7metrics28LocationGPSSessionStatistics25DeviceOrientationType_MINE
|| __TEXT.__const __ZN3awd7metrics28LocationGPSSessionStatistics25MovingStateType_ARRAYSIZEE
|| __TEXT.__const __ZN3awd7metrics28LocationGPSSessionStatistics25PowerMeasurementRange_MAXE
|| __TEXT.__const __ZN3awd7metrics28LocationGPSSessionStatistics25PowerMeasurementRange_MINE
|| __TEXT.__const __ZN3awd7metrics28LocationGPSSessionStatistics25RadioAccessTechnology_MAXE
|| __TEXT.__const __ZN3awd7metrics28LocationGPSSessionStatistics25RadioAccessTechnology_MINE
|| __TEXT.__const __ZN3awd7metrics28LocationGPSSessionStatistics25SatelliteCNORangeType_MAXE
|| __TEXT.__const __ZN3awd7metrics28LocationGPSSessionStatistics25SatelliteCNORangeType_MINE
|| __TEXT.__const __ZN3awd7metrics28LocationGPSSessionStatistics25SignalEnvironmentType_MAXE
|| __TEXT.__const __ZN3awd7metrics28LocationGPSSessionStatistics25SignalEnvironmentType_MINE
|| __TEXT.__const __ZN3awd7metrics28LocationGPSSessionStatistics25kMotionActivityTypeMovingE
|| __TEXT.__const __ZN3awd7metrics28LocationGPSSessionStatistics25kMovingStateTypeNotMovingE
|| __TEXT.__const __ZN3awd7metrics28LocationGPSSessionStatistics25kPowerMeasurementRange0_5E
|| __TEXT.__const __ZN3awd7metrics28LocationGPSSessionStatistics25kPowerStateTypeDutyCycledE
|| __TEXT.__const __ZN3awd7metrics28LocationGPSSessionStatistics25kRadioAccessTechnologyGSME
|| __TEXT.__const __ZN3awd7metrics28LocationGPSSessionStatistics25kRadioAccessTechnologyLTEE
|| __TEXT.__const __ZN3awd7metrics28LocationGPSSessionStatistics25kSatelliteCountRangeType0E
|| __TEXT.__const __ZN3awd7metrics28LocationGPSSessionStatistics25kSatelliteCountRangeType1E
|| __TEXT.__const __ZN3awd7metrics28LocationGPSSessionStatistics25kSatelliteCountRangeType2E
|| __TEXT.__const __ZN3awd7metrics28LocationGPSSessionStatistics25kSatelliteCountRangeType3E
|| __TEXT.__const __ZN3awd7metrics28LocationGPSSessionStatistics25kSatelliteCountRangeType4E
|| __TEXT.__const __ZN3awd7metrics28LocationGPSSessionStatistics25kUncertaintyRangeType0_20E
|| __TEXT.__const __ZN3awd7metrics28LocationGPSSessionStatistics25kUncertaintyRangeType5_10E
|| __TEXT.__const __ZN3awd7metrics28LocationGPSSessionStatistics26MountedStateType_ARRAYSIZEE
|| __TEXT.__const __ZN3awd7metrics28LocationGPSSessionStatistics26kDisplayOnCountFieldNumberE
|| __TEXT.__const __ZN3awd7metrics28LocationGPSSessionStatistics26kHistMountStateFieldNumberE
|| __TEXT.__const __ZN3awd7metrics28LocationGPSSessionStatistics26kHistPowerStateFieldNumberE
|| __TEXT.__const __ZN3awd7metrics28LocationGPSSessionStatistics26kMotionActivityTypeCyclingE
|| __TEXT.__const __ZN3awd7metrics28LocationGPSSessionStatistics26kMotionActivityTypeDrivingE
|| __TEXT.__const __ZN3awd7metrics28LocationGPSSessionStatistics26kMotionActivityTypeRunningE
|| __TEXT.__const __ZN3awd7metrics28LocationGPSSessionStatistics26kMotionActivityTypeUnknownE
|| __TEXT.__const __ZN3awd7metrics28LocationGPSSessionStatistics26kMotionActivityTypeWalkingE
|| __TEXT.__const __ZN3awd7metrics28LocationGPSSessionStatistics26kMountedStateTypeUnmountedE
|| __TEXT.__const __ZN3awd7metrics28LocationGPSSessionStatistics26kPowerMeasurementRange5_10E
|| __TEXT.__const __ZN3awd7metrics28LocationGPSSessionStatistics26kPowerStateTypeAcquisitionE
|| __TEXT.__const __ZN3awd7metrics28LocationGPSSessionStatistics26kPowerStateTypeUnavailableE
|| __TEXT.__const __ZN3awd7metrics28LocationGPSSessionStatistics26kRadioAccessTechnologyHRPDE
|| __TEXT.__const __ZN3awd7metrics28LocationGPSSessionStatistics26kRadioAccessTechnologyUMTSE
|| __TEXT.__const __ZN3awd7metrics28LocationGPSSessionStatistics26kReachableCountFieldNumberE
|| __TEXT.__const __ZN3awd7metrics28LocationGPSSessionStatistics26kSatelliteCNORangeType0_16E
|| __TEXT.__const __ZN3awd7metrics28LocationGPSSessionStatistics26kTransmissionBWFieldNumberE
|| __TEXT.__const __ZN3awd7metrics28LocationGPSSessionStatistics26kUncertaintyRangeType10_15E
|| __TEXT.__const __ZN3awd7metrics28LocationGPSSessionStatistics26kUncertaintyRangeType15_20E
|| __TEXT.__const __ZN3awd7metrics28LocationGPSSessionStatistics26kUncertaintyRangeType20_30E
|| __TEXT.__const __ZN3awd7metrics28LocationGPSSessionStatistics26kUncertaintyRangeType20_50E
|| __TEXT.__const __ZN3awd7metrics28LocationGPSSessionStatistics26kUncertaintyRangeType30_40E
|| __TEXT.__const __ZN3awd7metrics28LocationGPSSessionStatistics26kUncertaintyRangeType40_50E
|| __TEXT.__const __ZN3awd7metrics28LocationGPSSessionStatistics27SatelliteCountRangeType_MAXE
|| __TEXT.__const __ZN3awd7metrics28LocationGPSSessionStatistics27SatelliteCountRangeType_MINE
|| __TEXT.__const __ZN3awd7metrics28LocationGPSSessionStatistics27kMotionActivityTypeAirborneE
|| __TEXT.__const __ZN3awd7metrics28LocationGPSSessionStatistics27kMotionActivityTypeSwimmingE
|| __TEXT.__const __ZN3awd7metrics28LocationGPSSessionStatistics27kMovingStateTypeUnavailableE
|| __TEXT.__const __ZN3awd7metrics28LocationGPSSessionStatistics27kPowerMeasurementRange10_15E
|| __TEXT.__const __ZN3awd7metrics28LocationGPSSessionStatistics27kPowerMeasurementRange15_20E
|| __TEXT.__const __ZN3awd7metrics28LocationGPSSessionStatistics27kPowerMeasurementRange20_25E
|| __TEXT.__const __ZN3awd7metrics28LocationGPSSessionStatistics27kPowerMeasurementRange25_30E
|| __TEXT.__const __ZN3awd7metrics28LocationGPSSessionStatistics27kPowerMeasurementRange30_35E
|| __TEXT.__const __ZN3awd7metrics28LocationGPSSessionStatistics27kPowerMeasurementRange35_40E
|| __TEXT.__const __ZN3awd7metrics28LocationGPSSessionStatistics27kPowerMeasurementRange40_45E
|| __TEXT.__const __ZN3awd7metrics28LocationGPSSessionStatistics27kPowerMeasurementRange45_50E
|| __TEXT.__const __ZN3awd7metrics28LocationGPSSessionStatistics27kPowerMeasurementRange50_55E
|| __TEXT.__const __ZN3awd7metrics28LocationGPSSessionStatistics27kPowerMeasurementRange55_60E
|| __TEXT.__const __ZN3awd7metrics28LocationGPSSessionStatistics27kPowerMeasurementRange60_65E
|| __TEXT.__const __ZN3awd7metrics28LocationGPSSessionStatistics27kPowerMeasurementRange65_70E
|| __TEXT.__const __ZN3awd7metrics28LocationGPSSessionStatistics27kPowerMeasurementRange70_75E
|| __TEXT.__const __ZN3awd7metrics28LocationGPSSessionStatistics27kPowerMeasurementRange75_80E
|| __TEXT.__const __ZN3awd7metrics28LocationGPSSessionStatistics27kPowerMeasurementRange80_85E
|| __TEXT.__const __ZN3awd7metrics28LocationGPSSessionStatistics27kPowerMeasurementRange85_90E
|| __TEXT.__const __ZN3awd7metrics28LocationGPSSessionStatistics27kPowerMeasurementRange90_95E
|| __TEXT.__const __ZN3awd7metrics28LocationGPSSessionStatistics27kPowerStateTypeFullTrackingE
|| __TEXT.__const __ZN3awd7metrics28LocationGPSSessionStatistics27kRadioAccessTechnologySCDMAE
|| __TEXT.__const __ZN3awd7metrics28LocationGPSSessionStatistics27kRadioAccessTechnologyUTRANE
|| __TEXT.__const __ZN3awd7metrics28LocationGPSSessionStatistics27kRtiFileChecksumFieldNumberE
|| __TEXT.__const __ZN3awd7metrics28LocationGPSSessionStatistics27kSatelliteCNORangeType16_20E
|| __TEXT.__const __ZN3awd7metrics28LocationGPSSessionStatistics27kSatelliteCNORangeType20_24E
|| __TEXT.__const __ZN3awd7metrics28LocationGPSSessionStatistics27kSatelliteCNORangeType24_28E
|| __TEXT.__const __ZN3awd7metrics28LocationGPSSessionStatistics27kSatelliteCNORangeType28_32E
|| __TEXT.__const __ZN3awd7metrics28LocationGPSSessionStatistics27kSatelliteCNORangeType32_36E
|| __TEXT.__const __ZN3awd7metrics28LocationGPSSessionStatistics27kSatelliteCNORangeType36_40E
|| __TEXT.__const __ZN3awd7metrics28LocationGPSSessionStatistics27kSatelliteCNORangeType40_44E
|| __TEXT.__const __ZN3awd7metrics28LocationGPSSessionStatistics27kSatelliteCountRangeType5_8E
|| __TEXT.__const __ZN3awd7metrics28LocationGPSSessionStatistics27kSessionDurationFieldNumberE
|| __TEXT.__const __ZN3awd7metrics28LocationGPSSessionStatistics27kSignalEnvironmentTypeRuralE
|| __TEXT.__const __ZN3awd7metrics28LocationGPSSessionStatistics27kSignalEnvironmentTypeUrbanE
|| __TEXT.__const __ZN3awd7metrics28LocationGPSSessionStatistics27kUncertaintyRangeType50_100E
|| __TEXT.__const __ZN3awd7metrics28LocationGPSSessionStatistics28MotionActivityType_ARRAYSIZEE
|| __TEXT.__const __ZN3awd7metrics28LocationGPSSessionStatistics28kDeviceOrientationTypeFaceUpE
|| __TEXT.__const __ZN3awd7metrics28LocationGPSSessionStatistics28kMountedStateTypeUnavailableE
|| __TEXT.__const __ZN3awd7metrics28LocationGPSSessionStatistics28kPowerMeasurementRange95_100E
|| __TEXT.__const __ZN3awd7metrics28LocationGPSSessionStatistics28kRadioAccessTechnologyCDMA1xE
|| __TEXT.__const __ZN3awd7metrics28LocationGPSSessionStatistics28kRtiProvidedCountFieldNumberE
|| __TEXT.__const __ZN3awd7metrics28LocationGPSSessionStatistics28kSatelliteCountRangeType9_12E
|| __TEXT.__const __ZN3awd7metrics28LocationGPSSessionStatistics28kSignalEnvironmentTypeMarineE
|| __TEXT.__const __ZN3awd7metrics28LocationGPSSessionStatistics28kUncertaintyRangeType100_200E
|| __TEXT.__const __ZN3awd7metrics28LocationGPSSessionStatistics28kUncertaintyRangeType200_400E
|| __TEXT.__const __ZN3awd7metrics28LocationGPSSessionStatistics29kGyroDataUsedCountFieldNumberE
|| __TEXT.__const __ZN3awd7metrics28LocationGPSSessionStatistics29kMotionActivityTypeWheelchairE
|| __TEXT.__const __ZN3awd7metrics28LocationGPSSessionStatistics29kPowerMeasurementRange100_110E
|| __TEXT.__const __ZN3awd7metrics28LocationGPSSessionStatistics29kPowerMeasurementRange110_120E
|| __TEXT.__const __ZN3awd7metrics28LocationGPSSessionStatistics29kPowerMeasurementRange120_130E
|| __TEXT.__const __ZN3awd7metrics28LocationGPSSessionStatistics29kPowerMeasurementRange130_140E
|| __TEXT.__const __ZN3awd7metrics28LocationGPSSessionStatistics29kPowerMeasurementRange140_150E
|| __TEXT.__const __ZN3awd7metrics28LocationGPSSessionStatistics29kPowerMeasurementRange150_160E
|| __TEXT.__const __ZN3awd7metrics28LocationGPSSessionStatistics29kPowerMeasurementRange160_170E
|| __TEXT.__const __ZN3awd7metrics28LocationGPSSessionStatistics29kPowerMeasurementRange170_180E
|| __TEXT.__const __ZN3awd7metrics28LocationGPSSessionStatistics29kPowerMeasurementRange180_190E
|| __TEXT.__const __ZN3awd7metrics28LocationGPSSessionStatistics29kPowerMeasurementRange190_200E
|| __TEXT.__const __ZN3awd7metrics28LocationGPSSessionStatistics29kPowerMeasurementRangeInvalidE
|| __TEXT.__const __ZN3awd7metrics28LocationGPSSessionStatistics29kRadioAccessTechnologyUnknownE
|| __TEXT.__const __ZN3awd7metrics28LocationGPSSessionStatistics29kRtiFileAgeSecondsFieldNumberE
|| __TEXT.__const __ZN3awd7metrics28LocationGPSSessionStatistics29kSatelliteCNORangeTypeInvalidE
|| __TEXT.__const __ZN3awd7metrics28LocationGPSSessionStatistics29kSignalEnvironmentTypeFoliageE
|| __TEXT.__const __ZN3awd7metrics28LocationGPSSessionStatistics29kUncertaintyRangeType400_1000E
|| __TEXT.__const __ZN3awd7metrics28LocationGPSSessionStatistics30UncertaintyRangeType_ARRAYSIZEE
|| __TEXT.__const __ZN3awd7metrics28LocationGPSSessionStatistics30kAccelDataUsedCountFieldNumberE
|| __TEXT.__const __ZN3awd7metrics28LocationGPSSessionStatistics30kDeresFinalAltitudeFieldNumberE
|| __TEXT.__const __ZN3awd7metrics28LocationGPSSessionStatistics30kDeresFinalLatitudeFieldNumberE
|| __TEXT.__const __ZN3awd7metrics28LocationGPSSessionStatistics30kDeviceOrientationTypeFaceDownE
|| __TEXT.__const __ZN3awd7metrics28LocationGPSSessionStatistics30kDeviceOrientationTypePortraitE
|| __TEXT.__const __ZN3awd7metrics28LocationGPSSessionStatistics30kEphemerisUsedCountFieldNumberE
|| __TEXT.__const __ZN3awd7metrics28LocationGPSSessionStatistics30kHistNoOfGALSVsUsedFieldNumberE
|| __TEXT.__const __ZN3awd7metrics28LocationGPSSessionStatistics30kHistNoOfGLOSVsUsedFieldNumberE
|| __TEXT.__const __ZN3awd7metrics28LocationGPSSessionStatistics30kHistNoOfGPSSVsUsedFieldNumberE
|| __TEXT.__const __ZN3awd7metrics28LocationGPSSessionStatistics30kIsRtiFileAvailableFieldNumberE
|| __TEXT.__const __ZN3awd7metrics28LocationGPSSessionStatistics30kRadioAccessTechnologyCDMAEVDOE
|| __TEXT.__const __ZN3awd7metrics28LocationGPSSessionStatistics31DeviceOrientationType_ARRAYSIZEE
|| __TEXT.__const __ZN3awd7metrics28LocationGPSSessionStatistics31PowerMeasurementRange_ARRAYSIZEE
|| __TEXT.__const __ZN3awd7metrics28LocationGPSSessionStatistics31RadioAccessTechnology_ARRAYSIZEE
|| __TEXT.__const __ZN3awd7metrics28LocationGPSSessionStatistics31SatelliteCNORangeType_ARRAYSIZEE
|| __TEXT.__const __ZN3awd7metrics28LocationGPSSessionStatistics31SignalEnvironmentType_ARRAYSIZEE
|| __TEXT.__const __ZN3awd7metrics28LocationGPSSessionStatistics31kDeresFinalLongitudeFieldNumberE
|| __TEXT.__const __ZN3awd7metrics28LocationGPSSessionStatistics31kDeviceOrientationTypeAmbiguousE
|| __TEXT.__const __ZN3awd7metrics28LocationGPSSessionStatistics31kHistNoOfQZSSSVsUsedFieldNumberE
|| __TEXT.__const __ZN3awd7metrics28LocationGPSSessionStatistics31kMotionDataUsedCountFieldNumberE
|| __TEXT.__const __ZN3awd7metrics28LocationGPSSessionStatistics31kMountStateUsedCountFieldNumberE
|| __TEXT.__const __ZN3awd7metrics28LocationGPSSessionStatistics31kSatelliteCNORangeTypeLessThan0E
|| __TEXT.__const __ZN3awd7metrics28LocationGPSSessionStatistics32kHistCNOForUsedGALSVsFieldNumberE
|| __TEXT.__const __ZN3awd7metrics28LocationGPSSessionStatistics32kHistCNOForUsedGLOSVsFieldNumberE
|| __TEXT.__const __ZN3awd7metrics28LocationGPSSessionStatistics32kHistCNOForUsedGPSSVsFieldNumberE
|| __TEXT.__const __ZN3awd7metrics28LocationGPSSessionStatistics32kHistPowerMeasurementFieldNumberE
|| __TEXT.__const __ZN3awd7metrics28LocationGPSSessionStatistics32kIsOrbitFileAvailableFieldNumberE
|| __TEXT.__const __ZN3awd7metrics28LocationGPSSessionStatistics32kMsToFirstBdsCodeLockFieldNumberE
|| __TEXT.__const __ZN3awd7metrics28LocationGPSSessionStatistics32kMsToFirstBdsFullSyncFieldNumberE
|| __TEXT.__const __ZN3awd7metrics28LocationGPSSessionStatistics32kMsToFirstGalCodeLockFieldNumberE
|| __TEXT.__const __ZN3awd7metrics28LocationGPSSessionStatistics32kMsToFirstGalFullSyncFieldNumberE
|| __TEXT.__const __ZN3awd7metrics28LocationGPSSessionStatistics32kMsToFirstGloCodeLockFieldNumberE
|| __TEXT.__const __ZN3awd7metrics28LocationGPSSessionStatistics32kMsToFirstGloFullSyncFieldNumberE
|| __TEXT.__const __ZN3awd7metrics28LocationGPSSessionStatistics32kMsToFirstGpsCodeLockFieldNumberE
|| __TEXT.__const __ZN3awd7metrics28LocationGPSSessionStatistics32kMsToFirstGpsFullSyncFieldNumberE
|| __TEXT.__const __ZN3awd7metrics28LocationGPSSessionStatistics32kRadioAccessTechnologyCDMAHybridE
|| __TEXT.__const __ZN3awd7metrics28LocationGPSSessionStatistics32kRadioAccessTechnologyGSMCompactE
|| __TEXT.__const __ZN3awd7metrics28LocationGPSSessionStatistics32kSignalEnvironmentTypeDenseUrbanE
|| __TEXT.__const __ZN3awd7metrics28LocationGPSSessionStatistics33SatelliteCountRangeType_ARRAYSIZEE
|| __TEXT.__const __ZN3awd7metrics28LocationGPSSessionStatistics33kGyroDataProvidedCountFieldNumberE
|| __TEXT.__const __ZN3awd7metrics28LocationGPSSessionStatistics33kHistCNOForUsedQZSSSVsFieldNumberE
|| __TEXT.__const __ZN3awd7metrics28LocationGPSSessionStatistics33kHistDeviceOrientationFieldNumberE
|| __TEXT.__const __ZN3awd7metrics28LocationGPSSessionStatistics33kHistSignalEnvironmentFieldNumberE
|| __TEXT.__const __ZN3awd7metrics28LocationGPSSessionStatistics33kMMAssistanceUsedCountFieldNumberE
|| __TEXT.__const __ZN3awd7metrics28LocationGPSSessionStatistics33kPressureDataUsedCountFieldNumberE
|| __TEXT.__const __ZN3awd7metrics28LocationGPSSessionStatistics33kSignalEnvironmentTypeUnavailableE
|| __TEXT.__const __ZN3awd7metrics28LocationGPSSessionStatistics33kTAAssistanceUsedCountFieldNumberE
|| __TEXT.__const __ZN3awd7metrics28LocationGPSSessionStatistics33kTransmissionFrequencyFieldNumberE
|| __TEXT.__const __ZN3awd7metrics28LocationGPSSessionStatistics34kAccelDataProvidedCountFieldNumberE
|| __TEXT.__const __ZN3awd7metrics28LocationGPSSessionStatistics34kAssistanceFileChecksumFieldNumberE
|| __TEXT.__const __ZN3awd7metrics28LocationGPSSessionStatistics34kDEMAssistanceUsedCountFieldNumberE
|| __TEXT.__const __ZN3awd7metrics28LocationGPSSessionStatistics34kEphemerisProvidedCountFieldNumberE
|| __TEXT.__const __ZN3awd7metrics28LocationGPSSessionStatistics34kHistMovingStateContextFieldNumberE
|| __TEXT.__const __ZN3awd7metrics28LocationGPSSessionStatistics34kMsToFirstBdsTowDecodedFieldNumberE
|| __TEXT.__const __ZN3awd7metrics28LocationGPSSessionStatistics34kMsToFirstGalTowDecodedFieldNumberE
|| __TEXT.__const __ZN3awd7metrics28LocationGPSSessionStatistics34kMsToFirstGloTodDecodedFieldNumberE
|| __TEXT.__const __ZN3awd7metrics28LocationGPSSessionStatistics34kMsToFirstGpsTowDecodedFieldNumberE
|| __TEXT.__const __ZN3awd7metrics28LocationGPSSessionStatistics34kTimeAssistanceProvidedFieldNumberE
|| __TEXT.__const __ZN3awd7metrics28LocationGPSSessionStatistics35EphemerisFileIntegrityCheckType_MAXE
|| __TEXT.__const __ZN3awd7metrics28LocationGPSSessionStatistics35EphemerisFileIntegrityCheckType_MINE
|| __TEXT.__const __ZN3awd7metrics28LocationGPSSessionStatistics35kBatterySaverModeOnCountFieldNumberE
|| __TEXT.__const __ZN3awd7metrics28LocationGPSSessionStatistics35kDeviceOrientationTypeLandscapeLeftE
|| __TEXT.__const __ZN3awd7metrics28LocationGPSSessionStatistics35kMotionDataProvidedCountFieldNumberE
|| __TEXT.__const __ZN3awd7metrics28LocationGPSSessionStatistics35kMountStateProvidedCountFieldNumberE
|| __TEXT.__const __ZN3awd7metrics28LocationGPSSessionStatistics35kSatelliteCNORangeTypeGreaterThan44E
|| __TEXT.__const __ZN3awd7metrics28LocationGPSSessionStatistics35kTimeAssistanceUsedCountFieldNumberE
|| __TEXT.__const __ZN3awd7metrics28LocationGPSSessionStatistics36kDeviceOrientationTypeLandscapeRightE
|| __TEXT.__const __ZN3awd7metrics28LocationGPSSessionStatistics36kPowerMeasurementRangeGreaterThan200E
|| __TEXT.__const __ZN3awd7metrics28LocationGPSSessionStatistics36kRunningOrSimulationFlagsFieldNumberE
|| __TEXT.__const __ZN3awd7metrics28LocationGPSSessionStatistics36kUncertaintyRangeTypeGreaterThan1000E
|| __TEXT.__const __ZN3awd7metrics28LocationGPSSessionStatistics37kHistMotionActivityContextFieldNumberE
|| __TEXT.__const __ZN3awd7metrics28LocationGPSSessionStatistics37kPressureDataProvidedCountFieldNumberE
|| __TEXT.__const __ZN3awd7metrics28LocationGPSSessionStatistics37kSatelliteCountRangeTypeGreaterThan12E
|| __TEXT.__const __ZN3awd7metrics28LocationGPSSessionStatistics37kTAAssistanceProvidedCountFieldNumberE
|| __TEXT.__const __ZN3awd7metrics28LocationGPSSessionStatistics37kTransmissionFrequencyBandFieldNumberE
|| __TEXT.__const __ZN3awd7metrics28LocationGPSSessionStatistics38kDEMAssistanceProvidedCountFieldNumberE
|| __TEXT.__const __ZN3awd7metrics28LocationGPSSessionStatistics38kEphemerisFileIntegrityCheckTypeNotEofE
|| __TEXT.__const __ZN3awd7metrics28LocationGPSSessionStatistics38kEphemerisFileIntegrityCheckTypePassedE
|| __TEXT.__const __ZN3awd7metrics28LocationGPSSessionStatistics38kMMPAssistanceProvidedCountFieldNumberE
|| __TEXT.__const __ZN3awd7metrics28LocationGPSSessionStatistics38kSignalEnvironmentTypeDenseUrbanCanyonE
|| __TEXT.__const __ZN3awd7metrics28LocationGPSSessionStatistics39kFrequencyAssistanceProvidedFieldNumberE
|| __TEXT.__const __ZN3awd7metrics28LocationGPSSessionStatistics39kPedometerSpeedDataUsedCountFieldNumberE
|| __TEXT.__const __ZN3awd7metrics28LocationGPSSessionStatistics39kTimeAssistanceProvidedCountFieldNumberE
|| __TEXT.__const __ZN3awd7metrics28LocationGPSSessionStatistics40kDeviceOrientationTypePortraitUpsideDownE
|| __TEXT.__const __ZN3awd7metrics28LocationGPSSessionStatistics40kFrequencyAssistanceUsedCountFieldNumberE
|| __TEXT.__const __ZN3awd7metrics28LocationGPSSessionStatistics40kHistVerticalAccuracyAchievedFieldNumberE
|| __TEXT.__const __ZN3awd7metrics28LocationGPSSessionStatistics41EphemerisFileIntegrityCheckType_ARRAYSIZEE
|| __TEXT.__const __ZN3awd7metrics28LocationGPSSessionStatistics42kCPIPositionAssistanceUsedCountFieldNumberE
|| __TEXT.__const __ZN3awd7metrics28LocationGPSSessionStatistics42kEphemerisFileIntegrityCheckTypeSizeIsZeroE
|| __TEXT.__const __ZN3awd7metrics28LocationGPSSessionStatistics42kHistHorizontalAccuracyAchievedFieldNumberE
|| __TEXT.__const __ZN3awd7metrics28LocationGPSSessionStatistics42kMotionActivityContextUsedCountFieldNumberE
|| __TEXT.__const __ZN3awd7metrics28LocationGPSSessionStatistics42kNumWirelessChargingTransitionsFieldNumberE
|| __TEXT.__const __ZN3awd7metrics28LocationGPSSessionStatistics42kSignalEnvironmentDataUsedCountFieldNumberE
|| __TEXT.__const __ZN3awd7metrics28LocationGPSSessionStatistics43kEphemerisFileIntegrityCheckTypeCheckFailedE
|| __TEXT.__const __ZN3awd7metrics28LocationGPSSessionStatistics43kLocationGpsPersistentStatisticsFieldNumberE
|| __TEXT.__const __ZN3awd7metrics28LocationGPSSessionStatistics43kPedometerSpeedDataProvidedCountFieldNumberE
|| __TEXT.__const __ZN3awd7metrics28LocationGPSSessionStatistics44kEphemerisFileIntegrityCheckTypeFileTooLargeE
|| __TEXT.__const __ZN3awd7metrics28LocationGPSSessionStatistics44kEphemerisFileIntegrityCheckTypeFileTooSmallE
|| __TEXT.__const __ZN3awd7metrics28LocationGPSSessionStatistics44kFrequencyAssistanceProvidedCountFieldNumberE
|| __TEXT.__const __ZN3awd7metrics28LocationGPSSessionStatistics45kEphemerisFileIntegrityCheckResultFieldNumberE
|| __TEXT.__const __ZN3awd7metrics28LocationGPSSessionStatistics45kEphemerisFileIntegrityCheckTypeFailedUnknownE
|| __TEXT.__const __ZN3awd7metrics28LocationGPSSessionStatistics46kCPIPositionAssistanceProvidedCountFieldNumberE
|| __TEXT.__const __ZN3awd7metrics28LocationGPSSessionStatistics46kEphemerisFileIntegrityCheckTypeSizeBeyondBuffE
|| __TEXT.__const __ZN3awd7metrics28LocationGPSSessionStatistics46kMotionActivityContextProvidedCountFieldNumberE
|| __TEXT.__const __ZN3awd7metrics28LocationGPSSessionStatistics46kNumEpochsSimulationStatusAuthenticFieldNumberE
|| __TEXT.__const __ZN3awd7metrics28LocationGPSSessionStatistics46kNumEpochsSimulationStatusSimulatedFieldNumberE
|| __TEXT.__const __ZN3awd7metrics28LocationGPSSessionStatistics46kSignalEnvironmentDataProvidedCountFieldNumberE
|| __TEXT.__const __ZN3awd7metrics28LocationGPSSessionStatistics48kEphemerisFileIntegrityCheckTypeInvalidByteOrderE
|| __TEXT.__const __ZN3awd7metrics28LocationGPSSessionStatistics49kPedometerSpeedConstraintDataUsedCountFieldNumberE
|| __TEXT.__const __ZN3awd7metrics28LocationGPSSessionStatistics51kEphemerisFileIntegrityCheckTypeSignatureBeyondBuffE
|| __TEXT.__const __ZN3awd7metrics28LocationGPSSessionStatistics51kEphemerisFileIntegrityCheckTypeSizeFieldBeyondBuffE
|| __TEXT.__const __ZN3awd7metrics28LocationGPSSessionStatistics52kNumEpochsSimulationStatusNoDeterminationFieldNumberE
|| __TEXT.__const __ZN3awd7metrics28LocationGPSSessionStatistics53kEphemerisFileIntegrityCheckTypeOffsetFieldBeyondBuffE
|| __TEXT.__const __ZN3awd7metrics28LocationGPSSessionStatistics53kPedometerSpeedConstraintDataProvidedCountFieldNumberE
|| __TEXT.__const __ZN3awd7metrics28LocationGPSSessionStatistics56kCPITightlyCoupledPositionAssistanceUsedCountFieldNumberE
|| __TEXT.__const __ZN3awd7metrics28LocationGPSSessionStatistics56kEphemerisFileIntegrityCheckTypeSignatureFieldBeyondBuffE
|| __TEXT.__const __ZN3awd7metrics28LocationGPSSessionStatistics59kEphemerisFileIntegrityCheckTypeMaxSizeAndFileMisconfiguredE
|| __TEXT.__const __ZN3awd7metrics28LocationGPSSessionStatistics60kCPITightlyCoupledPositionAssistanceProvidedCountFieldNumberE
|| __TEXT.__const __ZN3awd7metrics28LocationMainHarvesterMetrics21kTimestampFieldNumberE
|| __TEXT.__const __ZN3awd7metrics28LocationMainHarvesterMetrics29kMetricsIdentifierFieldNumberE
|| __TEXT.__const __ZN3awd7metrics28LocationMainHarvesterMetrics31kRawGpsNotificationsFieldNumberE
|| __TEXT.__const __ZN3awd7metrics28LocationMainHarvesterMetrics32kBatteryNotificationsFieldNumberE
|| __TEXT.__const __ZN3awd7metrics28LocationMainHarvesterMetrics32kManagerNotificationsFieldNumberE
|| __TEXT.__const __ZN3awd7metrics28LocationMainHarvesterMetrics32kThermalNotificationsFieldNumberE
|| __TEXT.__const __ZN3awd7metrics28LocationMainHarvesterMetrics33kLocationNotificationsFieldNumberE
|| __TEXT.__const __ZN3awd7metrics28LocationMainHarvesterMetrics37kReachabilityNotificationsFieldNumberE
|| __TEXT.__const __ZN3awd7metrics28LocationMainHarvesterMetrics37kValidatedGpsNotificationsFieldNumberE
|| __TEXT.__const __ZN3awd7metrics28LocationMainHarvesterMetrics49kDurationMinimumUploadsRequirementsMetFieldNumberE
|| __TEXT.__const __ZN3awd7metrics28LocationMainHarvesterMetrics52kDurationMinimumUploadsRequirementsNotMetFieldNumberE
|| __TEXT.__const __ZN3awd7metrics28MotionFitnessAccelSampleRate21kTimestampFieldNumberE
|| __TEXT.__const __ZN3awd7metrics28MotionFitnessAccelSampleRate28kSampleRateGyroOnFieldNumberE
|| __TEXT.__const __ZN3awd7metrics28MotionFitnessAccelSampleRate29kSampleRateGyroOffFieldNumberE
|| __TEXT.__const __ZN3awd7metrics29LocationMicroLocationMetaData19kZipCodeFieldNumberE
|| __TEXT.__const __ZN3awd7metrics29LocationMicroLocationMetaData21kTimestampFieldNumberE
|| __TEXT.__const __ZN3awd7metrics29LocationMicroLocationMetaData29kSupportedLoiTypesFieldNumberE
|| __TEXT.__const __ZN3awd7metrics29LocationMicroLocationMetaData39kStatisticsTimePeriodInHoursFieldNumberE
|| __TEXT.__const __ZN3awd7metrics29LocationMobileAssetStatistics13AssetType_MAXE
|| __TEXT.__const __ZN3awd7metrics29LocationMobileAssetStatistics13AssetType_MINE
|| __TEXT.__const __ZN3awd7metrics29LocationMobileAssetStatistics14AEUnknownEventE
|| __TEXT.__const __ZN3awd7metrics29LocationMobileAssetStatistics14AssetEvent_MAXE
|| __TEXT.__const __ZN3awd7metrics29LocationMobileAssetStatistics14AssetEvent_MINE
|| __TEXT.__const __ZN3awd7metrics29LocationMobileAssetStatistics18ACUnknownComponentE
|| __TEXT.__const __ZN3awd7metrics29LocationMobileAssetStatistics18ATUnknownAssetTypeE
|| __TEXT.__const __ZN3awd7metrics29LocationMobileAssetStatistics18AssetComponent_MAXE
|| __TEXT.__const __ZN3awd7metrics29LocationMobileAssetStatistics18AssetComponent_MINE
|| __TEXT.__const __ZN3awd7metrics29LocationMobileAssetStatistics19ACEmergencyLocationE
|| __TEXT.__const __ZN3awd7metrics29LocationMobileAssetStatistics19AssetType_ARRAYSIZEE
|| __TEXT.__const __ZN3awd7metrics29LocationMobileAssetStatistics20ATCoreLocationConfigE
|| __TEXT.__const __ZN3awd7metrics29LocationMobileAssetStatistics20AssetEvent_ARRAYSIZEE
|| __TEXT.__const __ZN3awd7metrics29LocationMobileAssetStatistics20kBundleidFieldNumberE
|| __TEXT.__const __ZN3awd7metrics29LocationMobileAssetStatistics21AEAssetDownloadFailedE
|| __TEXT.__const __ZN3awd7metrics29LocationMobileAssetStatistics21kAssetTypeFieldNumberE
|| __TEXT.__const __ZN3awd7metrics29LocationMobileAssetStatistics21kComponentFieldNumberE
|| __TEXT.__const __ZN3awd7metrics29LocationMobileAssetStatistics21kTimestampFieldNumberE
|| __TEXT.__const __ZN3awd7metrics29LocationMobileAssetStatistics22kAssetEventFieldNumberE
|| __TEXT.__const __ZN3awd7metrics29LocationMobileAssetStatistics23AEAssetVersionReportingE
|| __TEXT.__const __ZN3awd7metrics29LocationMobileAssetStatistics23AECatalogDownloadFailedE
|| __TEXT.__const __ZN3awd7metrics29LocationMobileAssetStatistics24AEAssetDownloadSucceededE
|| __TEXT.__const __ZN3awd7metrics29LocationMobileAssetStatistics24AssetComponent_ARRAYSIZEE
|| __TEXT.__const __ZN3awd7metrics29LocationMobileAssetStatistics26AECatalogDownloadSucceededE
|| __TEXT.__const __ZN3awd7metrics29LocationMobileAssetStatistics26kDownloadResultFieldNumberE
|| __TEXT.__const __ZN3awd7metrics29LocationMobileAssetStatistics28kDownloadDurationFieldNumberE
|| __TEXT.__const __ZN3awd7metrics29LocationMobileAssetStatistics28kGenericAssetUsedFieldNumberE
|| __TEXT.__const __ZN3awd7metrics29LocationMobileAssetStatistics29kSim1CarrierStatusFieldNumberE
|| __TEXT.__const __ZN3awd7metrics29LocationMobileAssetStatistics29kSim2CarrierStatusFieldNumberE
|| __TEXT.__const __ZN3awd7metrics29LocationMobileAssetStatistics30kSim1OperatorStatusFieldNumberE
|| __TEXT.__const __ZN3awd7metrics29LocationMobileAssetStatistics30kSim2OperatorStatusFieldNumberE
|| __TEXT.__const __ZN3awd7metrics29LocationMobileAssetStatistics37AECatalogDownloadActivityNotTriggeredE
|| __TEXT.__const __ZN3awd7metrics29LocationMobileAssetStatistics38kCurrentAssetContentVersionFieldNumberE
|| __TEXT.__const __ZN3awd7metrics29LocationMobileAssetStatistics42kAggressiveDownloadCriteriaUsedFieldNumberE
|| __TEXT.__const __ZN3awd7metrics29LocationMobileAssetStatistics44kCurrentAssetCompatibilityVersionFieldNumberE
|| __TEXT.__const __ZN3awd7metrics29LocationMobileAssetStatistics45kDaysSinceLastAssetDownloadAttemptFieldNumberE
|| __TEXT.__const __ZN3awd7metrics29LocationMobileAssetStatistics45kDaysSinceLastAssetDownloadSuccessFieldNumberE
|| __TEXT.__const __ZN3awd7metrics29LocationMobileAssetStatistics47kDaysSinceLastCatalogDownloadAttemptFieldNumberE
|| __TEXT.__const __ZN3awd7metrics29LocationMobileAssetStatistics47kDaysSinceLastCatalogDownloadSuccessFieldNumberE
|| __TEXT.__const __ZN3awd7metrics29LocationMobileAssetStatistics5ACCLXE
|| __TEXT.__const __ZN3awd7metrics29LocationMobileAssetStatistics6ACGNSSE
|| __TEXT.__const __ZN3awd7metrics29LocationMobileAssetStatistics8ACNearbyE
|| __TEXT.__const __ZN3awd7metrics30LocationEmergencyPOIStatistics10POITypeGymE
|| __TEXT.__const __ZN3awd7metrics30LocationEmergencyPOIStatistics11ErrorDeniedE
|| __TEXT.__const __ZN3awd7metrics30LocationEmergencyPOIStatistics11POITypeHomeE
|| __TEXT.__const __ZN3awd7metrics30LocationEmergencyPOIStatistics11POITypeWorkE
|| __TEXT.__const __ZN3awd7metrics30LocationEmergencyPOIStatistics11POIType_MAXE
|| __TEXT.__const __ZN3awd7metrics30LocationEmergencyPOIStatistics11POIType_MINE
|| __TEXT.__const __ZN3awd7metrics30LocationEmergencyPOIStatistics13POISourceNoneE
|| __TEXT.__const __ZN3awd7metrics30LocationEmergencyPOIStatistics13POISourceUserE
|| __TEXT.__const __ZN3awd7metrics30LocationEmergencyPOIStatistics13POISource_MAXE
|| __TEXT.__const __ZN3awd7metrics30LocationEmergencyPOIStatistics13POISource_MINE
|| __TEXT.__const __ZN3awd7metrics30LocationEmergencyPOIStatistics13POITypeSchoolE
|| __TEXT.__const __ZN3awd7metrics30LocationEmergencyPOIStatistics13ResultUnknownE
|| __TEXT.__const __ZN3awd7metrics30LocationEmergencyPOIStatistics14POITypeUnknownE
|| __TEXT.__const __ZN3awd7metrics30LocationEmergencyPOIStatistics15POISourceMeCardE
|| __TEXT.__const __ZN3awd7metrics30LocationEmergencyPOIStatistics16ErrorUnsupportedE
|| __TEXT.__const __ZN3awd7metrics30LocationEmergencyPOIStatistics16POISourceUnknownE
|| __TEXT.__const __ZN3awd7metrics30LocationEmergencyPOIStatistics17POIType_ARRAYSIZEE
|| __TEXT.__const __ZN3awd7metrics30LocationEmergencyPOIStatistics18LOIQueryResult_MAXE
|| __TEXT.__const __ZN3awd7metrics30LocationEmergencyPOIStatistics18LOIQueryResult_MINE
|| __TEXT.__const __ZN3awd7metrics30LocationEmergencyPOIStatistics18POISourceTopMedianE
|| __TEXT.__const __ZN3awd7metrics30LocationEmergencyPOIStatistics19POISource_ARRAYSIZEE
|| __TEXT.__const __ZN3awd7metrics30LocationEmergencyPOIStatistics19kBundledFieldNumberE
|| __TEXT.__const __ZN3awd7metrics30LocationEmergencyPOIStatistics21POISourcePatternBasedE
|| __TEXT.__const __ZN3awd7metrics30LocationEmergencyPOIStatistics21kTimestampFieldNumberE
|| __TEXT.__const __ZN3awd7metrics30LocationEmergencyPOIStatistics24LOIQueryResult_ARRAYSIZEE
|| __TEXT.__const __ZN3awd7metrics30LocationEmergencyPOIStatistics26POISourceAggregateInferredE
|| __TEXT.__const __ZN3awd7metrics30LocationEmergencyPOIStatistics26kLoiQueryResultFieldNumberE
|| __TEXT.__const __ZN3awd7metrics30LocationEmergencyPOIStatistics26kNearestPOITypeFieldNumberE
|| __TEXT.__const __ZN3awd7metrics30LocationEmergencyPOIStatistics28kNearestPOISourceFieldNumberE
|| __TEXT.__const __ZN3awd7metrics30LocationEmergencyPOIStatistics34kNormDevOverReportedUncFieldNumberE
|| __TEXT.__const __ZN3awd7metrics30LocationEmergencyPOIStatistics38kFixDeviationFromNearestPOIFieldNumberE
|| __TEXT.__const __ZN3awd7metrics30LocationEmergencyPOIStatistics44kNormDevOverSumLOIUncAndReportUncFieldNumberE
|| __TEXT.__const __ZN3awd7metrics30LocationEmergencyPOIStatistics7SuccessE
|| __TEXT.__const __ZN3awd7metrics30LocationSecondaryDeviceRequest21kTimestampFieldNumberE
|| __TEXT.__const __ZN3awd7metrics30LocationSecondaryDeviceRequest23kFullResyncsFieldNumberE
|| __TEXT.__const __ZN3awd7metrics30LocationSecondaryDeviceRequest25kRequestsTotalFieldNumberE
|| __TEXT.__const __ZN3awd7metrics30LocationSecondaryDeviceRequest27kFailedConnectedFieldNumberE
|| __TEXT.__const __ZN3awd7metrics30LocationSecondaryDeviceRequest27kFailedTunnelledFieldNumberE
|| __TEXT.__const __ZN3awd7metrics30LocationSecondaryDeviceRequest28kFailedStandaloneFieldNumberE
|| __TEXT.__const __ZN3awd7metrics30LocationSecondaryDeviceRequest29kRequestStandaloneFieldNumberE
|| __TEXT.__const __ZN3awd7metrics30LocationSecondaryDeviceRequest29kRequestsTunnelledFieldNumberE
|| __TEXT.__const __ZN3awd7metrics30LocationSecondaryDeviceRequest30kApInTilePercentageFieldNumberE
|| __TEXT.__const __ZN3awd7metrics30MotionFitnessStrideCalibration21kHeightBinFieldNumberE
|| __TEXT.__const __ZN3awd7metrics30MotionFitnessStrideCalibration21kTimestampFieldNumberE
|| __TEXT.__const __ZN3awd7metrics30MotionFitnessStrideCalibration25kNumStepsTrackFieldNumberE
|| __TEXT.__const __ZN3awd7metrics30MotionFitnessStrideCalibration25kTimespanTrackFieldNumberE
|| __TEXT.__const __ZN3awd7metrics30MotionFitnessStrideCalibration25kTrackGradientFieldNumberE
|| __TEXT.__const __ZN3awd7metrics30MotionFitnessStrideCalibration28kGpsTrackDistanceFieldNumberE
|| __TEXT.__const __ZN3awd7metrics30MotionFitnessStrideCalibration29kCalibrationStatusFieldNumberE
|| __TEXT.__const __ZN3awd7metrics30MotionFitnessStrideCalibration31kRawPedTrackDistanceFieldNumberE
|| __TEXT.__const __ZN3awd7metrics31LocationMicroLocationModelState19kLoiTypeFieldNumberE
|| __TEXT.__const __ZN3awd7metrics31LocationMicroLocationModelState21kModelTypeFieldNumberE
|| __TEXT.__const __ZN3awd7metrics31LocationMicroLocationModelState21kTimestampFieldNumberE
|| __TEXT.__const __ZN3awd7metrics31LocationMicroLocationModelState28kAgeOfNewestModelFieldNumberE
|| __TEXT.__const __ZN3awd7metrics31LocationMicroLocationModelState28kNumberOfClustersFieldNumberE
|| __TEXT.__const __ZN3awd7metrics31LocationMicroLocationModelState31kGenerationAlgorithmFieldNumberE
|| __TEXT.__const __ZN3awd7metrics31LocationMicroLocationStatistics20kMetaDataFieldNumberE
|| __TEXT.__const __ZN3awd7metrics31LocationMicroLocationStatistics21kTimestampFieldNumberE
|| __TEXT.__const __ZN3awd7metrics31LocationMicroLocationStatistics22kModelStateFieldNumberE
|| __TEXT.__const __ZN3awd7metrics31LocationMicroLocationStatistics25kLearningStateFieldNumberE
|| __TEXT.__const __ZN3awd7metrics31LocationMicroLocationStatistics26kAnalyticsStateFieldNumberE
|| __TEXT.__const __ZN3awd7metrics31LocationMicroLocationStatistics31kUserEventStatisticsFieldNumberE
|| __TEXT.__const __ZN3awd7metrics31LocationMicroLocationStatistics32kClusteringStatisticsFieldNumberE
|| __TEXT.__const __ZN3awd7metrics31LocationMicroLocationStatistics33kMeasurementStatisticsFieldNumberE
|| __TEXT.__const __ZN3awd7metrics31LocationMicroLocationStatistics34kLocalizationStatisticsFieldNumberE
|| __TEXT.__const __ZN3awd7metrics31LocationMicroLocationStatistics37kEventClusteringStatisticsFieldNumberE
|| __TEXT.__const __ZN3awd7metrics31LocationMicroLocationStatistics40kClusteringHistogramsByModelsFieldNumberE
|| __TEXT.__const __ZN3awd7metrics31LocationPeerRangingBurstMetrics34kNumberOfBurstsReceivedFieldNumberE
|| __TEXT.__const __ZN3awd7metrics31LocationPeerRangingBurstMetrics35kNumberOfBurstsRequestedFieldNumberE
|| __TEXT.__const __ZN3awd7metrics31LocationPeerRangingBurstMetrics55kAverageNumberOfMeasurementsPerReceivedBurstFieldNumberE
|| __TEXT.__const __ZN3awd7metrics31LocationPeerRangingBurstMetrics56kAverageNumberOfMeasurementsPerRequestedBurstFieldNumberE
|| __TEXT.__const __ZN3awd7metrics31LocationPhoneNumberAvailability16SPNStatusUnknownE
|| __TEXT.__const __ZN3awd7metrics31LocationPhoneNumberAvailability17SPNNoSubscriptionE
|| __TEXT.__const __ZN3awd7metrics31LocationPhoneNumberAvailability18kSimMccFieldNumberE
|| __TEXT.__const __ZN3awd7metrics31LocationPhoneNumberAvailability18kSimMncFieldNumberE
|| __TEXT.__const __ZN3awd7metrics31LocationPhoneNumberAvailability19SPNNativeNumberOnlyE
|| __TEXT.__const __ZN3awd7metrics31LocationPhoneNumberAvailability20SPNNumberUnavailableE
|| __TEXT.__const __ZN3awd7metrics31LocationPhoneNumberAvailability20kBundleidFieldNumberE
|| __TEXT.__const __ZN3awd7metrics31LocationPhoneNumberAvailability21SPNNativeAndCompanionE
|| __TEXT.__const __ZN3awd7metrics31LocationPhoneNumberAvailability21kNInstanceFieldNumberE
|| __TEXT.__const __ZN3awd7metrics31LocationPhoneNumberAvailability21kTimestampFieldNumberE
|| __TEXT.__const __ZN3awd7metrics31LocationPhoneNumberAvailability22SPNCompanionNumberOnlyE
|| __TEXT.__const __ZN3awd7metrics31LocationPhoneNumberAvailability31kIsEEDEnabledCarrierFieldNumberE
|| __TEXT.__const __ZN3awd7metrics31LocationPhoneNumberAvailability33kTimeSinceProvisioningFieldNumberE
|| __TEXT.__const __ZN3awd7metrics31LocationPhoneNumberAvailability35kPhoneNumberAvailabilityFieldNumberE
|| __TEXT.__const __ZN3awd7metrics31LocationPhoneNumberAvailability35kTimeWithoutNativeNumberFieldNumberE
|| __TEXT.__const __ZN3awd7metrics31LocationPhoneNumberAvailability36SubscriptionAndPhoneNumberStatus_MAXE
|| __TEXT.__const __ZN3awd7metrics31LocationPhoneNumberAvailability36SubscriptionAndPhoneNumberStatus_MINE
|| __TEXT.__const __ZN3awd7metrics31LocationPhoneNumberAvailability42SubscriptionAndPhoneNumberStatus_ARRAYSIZEE
|| __TEXT.__const __ZN3awd7metrics32LocationGnssSWRecoveryStatistics20kBundleidFieldNumberE
|| __TEXT.__const __ZN3awd7metrics32LocationGnssSWRecoveryStatistics21kTimestampFieldNumberE
|| __TEXT.__const __ZN3awd7metrics32LocationGnssSWRecoveryStatistics24kRecoveryInfoFieldNumberE
|| __TEXT.__const __ZN3awd7metrics33LocationSubHarvesterUploadAttempt21kErrorCodeFieldNumberE
|| __TEXT.__const __ZN3awd7metrics33LocationSubHarvesterUploadAttempt26kPointsAttachedFieldNumberE
|| __TEXT.__const __ZN3awd7metrics33LocationSubHarvesterUploadAttempt27kUploadSucceededFieldNumberE
|| __TEXT.__const __ZN3awd7metrics33MotionGyroBiasEstimation_EndCount19kUnknownFieldNumberE
|| __TEXT.__const __ZN3awd7metrics33MotionGyroBiasEstimation_EndCount27kProactiveMotionFieldNumberE
|| __TEXT.__const __ZN3awd7metrics33MotionGyroBiasEstimation_EndCount28kProactiveTimeoutFieldNumberE
|| __TEXT.__const __ZN3awd7metrics33MotionGyroBiasEstimation_EndCount30kProactiveConvergedFieldNumberE
|| __TEXT.__const __ZN3awd7metrics33MotionGyroBiasEstimation_EndCount33kOpportunisticDisabledFieldNumberE
|| __TEXT.__const __ZN3awd7metrics33MotionGyroBiasEstimation_EndCount34kOpportunisticConvergedFieldNumberE
|| __TEXT.__const __ZN3awd7metrics34LocationEmergencySessionStatistics10CDMAHybridE
|| __TEXT.__const __ZN3awd7metrics34LocationEmergencySessionStatistics10GSMCompactE
|| __TEXT.__const __ZN3awd7metrics34LocationEmergencySessionStatistics10InvalidSMSE
|| __TEXT.__const __ZN3awd7metrics34LocationEmergencySessionStatistics10MSAssistedE
|| __TEXT.__const __ZN3awd7metrics34LocationEmergencySessionStatistics10NoPositionE
|| __TEXT.__const __ZN3awd7metrics34LocationEmergencySessionStatistics10OverriddenE
|| __TEXT.__const __ZN3awd7metrics34LocationEmergencySessionStatistics10SingleshotE
|| __TEXT.__const __ZN3awd7metrics34LocationEmergencySessionStatistics10StandaloneE
|| __TEXT.__const __ZN3awd7metrics34LocationEmergencySessionStatistics10UnknownRATE
|| __TEXT.__const __ZN3awd7metrics34LocationEmergencySessionStatistics11ConnSSLFailE
|| __TEXT.__const __ZN3awd7metrics34LocationEmergencySessionStatistics11DecodeErrorE
|| __TEXT.__const __ZN3awd7metrics34LocationEmergencySessionStatistics12CommTypeTextE
|| __TEXT.__const __ZN3awd7metrics34LocationEmergencySessionStatistics12ConnReadFailE
|| __TEXT.__const __ZN3awd7metrics34LocationEmergencySessionStatistics12ControlPlaneE
|| __TEXT.__const __ZN3awd7metrics34LocationEmergencySessionStatistics12NetworkAbortE
|| __TEXT.__const __ZN3awd7metrics34LocationEmergencySessionStatistics12NoAssistanceE
|| __TEXT.__const __ZN3awd7metrics34LocationEmergencySessionStatistics12UnknownErrorE
|| __TEXT.__const __ZN3awd7metrics34LocationEmergencySessionStatistics13BasebandAbortE
|| __TEXT.__const __ZN3awd7metrics34LocationEmergencySessionStatistics13CarrierUpdateE
|| __TEXT.__const __ZN3awd7metrics34LocationEmergencySessionStatistics13CommTypeVoiceE
|| __TEXT.__const __ZN3awd7metrics34LocationEmergencySessionStatistics13ConnGetFdFailE
|| __TEXT.__const __ZN3awd7metrics34LocationEmergencySessionStatistics13ConnWriteFailE
|| __TEXT.__const __ZN3awd7metrics34LocationEmergencySessionStatistics13HELOUsageUsedE
|| __TEXT.__const __ZN3awd7metrics34LocationEmergencySessionStatistics13HELOUsage_MAXE
|| __TEXT.__const __ZN3awd7metrics34LocationEmergencySessionStatistics13HELOUsage_MINE
|| __TEXT.__const __ZN3awd7metrics34LocationEmergencySessionStatistics13PNUnavailableE
|| __TEXT.__const __ZN3awd7metrics34LocationEmergencySessionStatistics13ProtocolErrorE
|| __TEXT.__const __ZN3awd7metrics34LocationEmergencySessionStatistics13UnknownMethodE
|| __TEXT.__const __ZN3awd7metrics34LocationEmergencySessionStatistics13WlanUserPlaneE
|| __TEXT.__const __ZN3awd7metrics34LocationEmergencySessionStatistics14OperatorUpdateE
|| __TEXT.__const __ZN3awd7metrics34LocationEmergencySessionStatistics14SuplNotAllowedE
|| __TEXT.__const __ZN3awd7metrics34LocationEmergencySessionStatistics14UnknownSessionE
|| __TEXT.__const __ZN3awd7metrics34LocationEmergencySessionStatistics15CommTypeUnknownE
|| __TEXT.__const __ZN3awd7metrics34LocationEmergencySessionStatistics15ConnGenericFailE
|| __TEXT.__const __ZN3awd7metrics34LocationEmergencySessionStatistics15HELOUsageUnusedE
|| __TEXT.__const __ZN3awd7metrics34LocationEmergencySessionStatistics15UnknownProtocolE
|| __TEXT.__const __ZN3awd7metrics34LocationEmergencySessionStatistics15VersionMismatchE
|| __TEXT.__const __ZN3awd7metrics34LocationEmergencySessionStatistics15kMccFieldNumberE
|| __TEXT.__const __ZN3awd7metrics34LocationEmergencySessionStatistics15kMncFieldNumberE
|| __TEXT.__const __ZN3awd7metrics34LocationEmergencySessionStatistics15kNidFieldNumberE
|| __TEXT.__const __ZN3awd7metrics34LocationEmergencySessionStatistics15kSidFieldNumberE
|| __TEXT.__const __ZN3awd7metrics34LocationEmergencySessionStatistics16AlreadyInSessionE
|| __TEXT.__const __ZN3awd7metrics34LocationEmergencySessionStatistics16EmergencyCallEndE
|| __TEXT.__const __ZN3awd7metrics34LocationEmergencySessionStatistics16HELOUsageUnknownE
|| __TEXT.__const __ZN3awd7metrics34LocationEmergencySessionStatistics16InvalidSessionIdE
|| __TEXT.__const __ZN3awd7metrics34LocationEmergencySessionStatistics16MSBasedPreferredE
|| __TEXT.__const __ZN3awd7metrics34LocationEmergencySessionStatistics16WlanControlPlaneE
|| __TEXT.__const __ZN3awd7metrics34LocationEmergencySessionStatistics16kTtffFieldNumberE
|| __TEXT.__const __ZN3awd7metrics34LocationEmergencySessionStatistics17UnknownReportTypeE
|| __TEXT.__const __ZN3awd7metrics34LocationEmergencySessionStatistics18AbortCauseType_MAXE
|| __TEXT.__const __ZN3awd7metrics34LocationEmergencySessionStatistics18AbortCauseType_MINE
|| __TEXT.__const __ZN3awd7metrics34LocationEmergencySessionStatistics18BasebandDisconnectE
|| __TEXT.__const __ZN3awd7metrics34LocationEmergencySessionStatistics18MethodNotSupportedE
|| __TEXT.__const __ZN3awd7metrics34LocationEmergencySessionStatistics18PNNativeNumberOnlyE
|| __TEXT.__const __ZN3awd7metrics34LocationEmergencySessionStatistics18PositionMethod_MAXE
|| __TEXT.__const __ZN3awd7metrics34LocationEmergencySessionStatistics18PositionMethod_MINE
|| __TEXT.__const __ZN3awd7metrics34LocationEmergencySessionStatistics18PositionReport_MAXE
|| __TEXT.__const __ZN3awd7metrics34LocationEmergencySessionStatistics18PositionReport_MINE
|| __TEXT.__const __ZN3awd7metrics34LocationEmergencySessionStatistics18WlanErrorUndefinedE
|| __TEXT.__const __ZN3awd7metrics34LocationEmergencySessionStatistics18WlanSessionTimeoutE
|| __TEXT.__const __ZN3awd7metrics34LocationEmergencySessionStatistics19HELOUsage_ARRAYSIZEE
|| __TEXT.__const __ZN3awd7metrics34LocationEmergencySessionStatistics19HslpAddressMismatchE
|| __TEXT.__const __ZN3awd7metrics34LocationEmergencySessionStatistics19MSAssistedPreferredE
|| __TEXT.__const __ZN3awd7metrics34LocationEmergencySessionStatistics19NotEnoughSatellitesE
|| __TEXT.__const __ZN3awd7metrics34LocationEmergencySessionStatistics19OutsideCoverageAreaE
|| __TEXT.__const __ZN3awd7metrics34LocationEmergencySessionStatistics19PositionSession_MAXE
|| __TEXT.__const __ZN3awd7metrics34LocationEmergencySessionStatistics19PositionSession_MINE
|| __TEXT.__const __ZN3awd7metrics34LocationEmergencySessionStatistics19RoamingNotSupportedE
|| __TEXT.__const __ZN3awd7metrics34LocationEmergencySessionStatistics19kEnvTypeFieldNumberE
|| __TEXT.__const __ZN3awd7metrics34LocationEmergencySessionStatistics19kRatTypeFieldNumberE
|| __TEXT.__const __ZN3awd7metrics34LocationEmergencySessionStatistics20PNNativeAndCompanionE
|| __TEXT.__const __ZN3awd7metrics34LocationEmergencySessionStatistics20PositionProtocol_MAXE
|| __TEXT.__const __ZN3awd7metrics34LocationEmergencySessionStatistics20PositionProtocol_MINE
|| __TEXT.__const __ZN3awd7metrics34LocationEmergencySessionStatistics20SessionErrorCode_MAXE
|| __TEXT.__const __ZN3awd7metrics34LocationEmergencySessionStatistics20SessionErrorCode_MINE
|| __TEXT.__const __ZN3awd7metrics34LocationEmergencySessionStatistics20TandemCapability_MAXE
|| __TEXT.__const __ZN3awd7metrics34LocationEmergencySessionStatistics20TandemCapability_MINE
|| __TEXT.__const __ZN3awd7metrics34LocationEmergencySessionStatistics20WlanMeasNotAvailableE
|| __TEXT.__const __ZN3awd7metrics34LocationEmergencySessionStatistics20kAltitudeFieldNumberE
|| __TEXT.__const __ZN3awd7metrics34LocationEmergencySessionStatistics20kBundleidFieldNumberE
|| __TEXT.__const __ZN3awd7metrics34LocationEmergencySessionStatistics20kCommTypeFieldNumberE
|| __TEXT.__const __ZN3awd7metrics34LocationEmergencySessionStatistics20kHELOUsedFieldNumberE
|| __TEXT.__const __ZN3awd7metrics34LocationEmergencySessionStatistics20kLatitudeFieldNumberE
|| __TEXT.__const __ZN3awd7metrics34LocationEmergencySessionStatistics21CommunicationType_MAXE
|| __TEXT.__const __ZN3awd7metrics34LocationEmergencySessionStatistics21CommunicationType_MINE
|| __TEXT.__const __ZN3awd7metrics34LocationEmergencySessionStatistics21PNCompanionNumberOnlyE
|| __TEXT.__const __ZN3awd7metrics34LocationEmergencySessionStatistics21PNUnknownAvailabilityE
|| __TEXT.__const __ZN3awd7metrics34LocationEmergencySessionStatistics21kErrorCodeFieldNumberE
|| __TEXT.__const __ZN3awd7metrics34LocationEmergencySessionStatistics21kLongitudeFieldNumberE
|| __TEXT.__const __ZN3awd7metrics34LocationEmergencySessionStatistics21kNInstanceFieldNumberE
|| __TEXT.__const __ZN3awd7metrics34LocationEmergencySessionStatistics21kSendErrorFieldNumberE
|| __TEXT.__const __ZN3awd7metrics34LocationEmergencySessionStatistics21kTimestampFieldNumberE
|| __TEXT.__const __ZN3awd7metrics34LocationEmergencySessionStatistics22NotInCellularEmergencyE
|| __TEXT.__const __ZN3awd7metrics34LocationEmergencySessionStatistics22PhoneNumberUnavailableE
|| __TEXT.__const __ZN3awd7metrics34LocationEmergencySessionStatistics22WlanMethodNotSupportedE
|| __TEXT.__const __ZN3awd7metrics34LocationEmergencySessionStatistics22kAbortCauseFieldNumberE
|| __TEXT.__const __ZN3awd7metrics34LocationEmergencySessionStatistics22kIsTandemDPFieldNumberE
|| __TEXT.__const __ZN3awd7metrics34LocationEmergencySessionStatistics22kIsTandemVDFieldNumberE
|| __TEXT.__const __ZN3awd7metrics34LocationEmergencySessionStatistics22kMethodTypeFieldNumberE
|| __TEXT.__const __ZN3awd7metrics34LocationEmergencySessionStatistics22kModemErrorFieldNumberE
|| __TEXT.__const __ZN3awd7metrics34LocationEmergencySessionStatistics23AbortCauseTypeApTimeoutE
|| __TEXT.__const __ZN3awd7metrics34LocationEmergencySessionStatistics23AbortCauseTypeApUnknownE
|| __TEXT.__const __ZN3awd7metrics34LocationEmergencySessionStatistics23AbortCauseTypeBbInvalidE
|| __TEXT.__const __ZN3awd7metrics34LocationEmergencySessionStatistics23AbortCauseTypeBbNetworkE
|| __TEXT.__const __ZN3awd7metrics34LocationEmergencySessionStatistics23AbortCauseTypeBbRATLossE
|| __TEXT.__const __ZN3awd7metrics34LocationEmergencySessionStatistics23AbortCauseTypeBbUnknownE
|| __TEXT.__const __ZN3awd7metrics34LocationEmergencySessionStatistics23TandemCapabilityEnabledE
|| __TEXT.__const __ZN3awd7metrics34LocationEmergencySessionStatistics23TandemCapabilityInvalidE
|| __TEXT.__const __ZN3awd7metrics34LocationEmergencySessionStatistics23TandemCapabilityUnknownE
|| __TEXT.__const __ZN3awd7metrics34LocationEmergencySessionStatistics23kHELOEnabledFieldNumberE
|| __TEXT.__const __ZN3awd7metrics34LocationEmergencySessionStatistics23kSessionTypeFieldNumberE
|| __TEXT.__const __ZN3awd7metrics34LocationEmergencySessionStatistics23kWasNILRSentFieldNumberE
|| __TEXT.__const __ZN3awd7metrics34LocationEmergencySessionStatistics24AbortCauseType_ARRAYSIZEE
|| __TEXT.__const __ZN3awd7metrics34LocationEmergencySessionStatistics24PositionMethod_ARRAYSIZEE
|| __TEXT.__const __ZN3awd7metrics34LocationEmergencySessionStatistics24PositionReport_ARRAYSIZEE
|| __TEXT.__const __ZN3awd7metrics34LocationEmergencySessionStatistics24TandemCapabilityDisabledE
|| __TEXT.__const __ZN3awd7metrics34LocationEmergencySessionStatistics24kHELOInjectedFieldNumberE
|| __TEXT.__const __ZN3awd7metrics34LocationEmergencySessionStatistics24kHELORejectedFieldNumberE
|| __TEXT.__const __ZN3awd7metrics34LocationEmergencySessionStatistics24kIsDBHEnabledFieldNumberE
|| __TEXT.__const __ZN3awd7metrics34LocationEmergencySessionStatistics24kIsSimPresentFieldNumberE
|| __TEXT.__const __ZN3awd7metrics34LocationEmergencySessionStatistics24kOrbitFileAgeFieldNumberE
|| __TEXT.__const __ZN3awd7metrics34LocationEmergencySessionStatistics24kProtocolTypeFieldNumberE
|| __TEXT.__const __ZN3awd7metrics34LocationEmergencySessionStatistics24kSubscribeMNCFieldNumberE
|| __TEXT.__const __ZN3awd7metrics34LocationEmergencySessionStatistics25PositionSession_ARRAYSIZEE
|| __TEXT.__const __ZN3awd7metrics34LocationEmergencySessionStatistics25RadioAccessTechnology_MAXE
|| __TEXT.__const __ZN3awd7metrics34LocationEmergencySessionStatistics25RadioAccessTechnology_MINE
|| __TEXT.__const __ZN3awd7metrics34LocationEmergencySessionStatistics25kIsSUPLEnabledFieldNumberE
|| __TEXT.__const __ZN3awd7metrics34LocationEmergencySessionStatistics25kSubscriberMCCFieldNumberE
|| __TEXT.__const __ZN3awd7metrics34LocationEmergencySessionStatistics26AbortCauseTypeApEmgModeEndE
|| __TEXT.__const __ZN3awd7metrics34LocationEmergencySessionStatistics26AbortCauseTypeBbCPOverrideE
|| __TEXT.__const __ZN3awd7metrics34LocationEmergencySessionStatistics26AbortCauseTypeBbEmgModeEndE
|| __TEXT.__const __ZN3awd7metrics34LocationEmergencySessionStatistics26PositionProtocol_ARRAYSIZEE
|| __TEXT.__const __ZN3awd7metrics34LocationEmergencySessionStatistics26SessionErrorCode_ARRAYSIZEE
|| __TEXT.__const __ZN3awd7metrics34LocationEmergencySessionStatistics26TandemCapability_ARRAYSIZEE
|| __TEXT.__const __ZN3awd7metrics34LocationEmergencySessionStatistics26kWifiAssociatedFieldNumberE
|| __TEXT.__const __ZN3awd7metrics34LocationEmergencySessionStatistics27CommunicationType_ARRAYSIZEE
|| __TEXT.__const __ZN3awd7metrics34LocationEmergencySessionStatistics27PhoneNumberAvailability_MAXE
|| __TEXT.__const __ZN3awd7metrics34LocationEmergencySessionStatistics27PhoneNumberAvailability_MINE
|| __TEXT.__const __ZN3awd7metrics34LocationEmergencySessionStatistics27kCarrierBundleIDFieldNumberE
|| __TEXT.__const __ZN3awd7metrics34LocationEmergencySessionStatistics28AbortCauseTypeBbGaurdTimeoutE
|| __TEXT.__const __ZN3awd7metrics34LocationEmergencySessionStatistics28TandemCapabilityNotSupportedE
|| __TEXT.__const __ZN3awd7metrics34LocationEmergencySessionStatistics28kAchievedAccuracyFieldNumberE
|| __TEXT.__const __ZN3awd7metrics34LocationEmergencySessionStatistics28kHeloRejectReasonFieldNumberE
|| __TEXT.__const __ZN3awd7metrics34LocationEmergencySessionStatistics28kTandemCapabilityFieldNumberE
|| __TEXT.__const __ZN3awd7metrics34LocationEmergencySessionStatistics28kTechnologySourceFieldNumberE
|| __TEXT.__const __ZN3awd7metrics34LocationEmergencySessionStatistics28kWasRssiRequestedFieldNumberE
|| __TEXT.__const __ZN3awd7metrics34LocationEmergencySessionStatistics28kWasServingApSentFieldNumberE
|| __TEXT.__const __ZN3awd7metrics34LocationEmergencySessionStatistics29AbortCauseTypeBbEndOfPeriodicE
|| __TEXT.__const __ZN3awd7metrics34LocationEmergencySessionStatistics29GnssSignalEnvironmentType_MAXE
|| __TEXT.__const __ZN3awd7metrics34LocationEmergencySessionStatistics29GnssSignalEnvironmentType_MINE
|| __TEXT.__const __ZN3awd7metrics34LocationEmergencySessionStatistics29kNumValidFixesSentFieldNumberE
|| __TEXT.__const __ZN3awd7metrics34LocationEmergencySessionStatistics29kRequestedAccuracyFieldNumberE
|| __TEXT.__const __ZN3awd7metrics34LocationEmergencySessionStatistics30GnssSignalEnvironmentTypeRuralE
|| __TEXT.__const __ZN3awd7metrics34LocationEmergencySessionStatistics30GnssSignalEnvironmentTypeUrbanE
|| __TEXT.__const __ZN3awd7metrics34LocationEmergencySessionStatistics30kNwRefLocConfidenceFieldNumberE
|| __TEXT.__const __ZN3awd7metrics34LocationEmergencySessionStatistics30kSupersededCommTypeFieldNumberE
|| __TEXT.__const __ZN3awd7metrics34LocationEmergencySessionStatistics30kWasDBHLocationSentFieldNumberE
|| __TEXT.__const __ZN3awd7metrics34LocationEmergencySessionStatistics31AbortCauseTypeApSessionOverrideE
|| __TEXT.__const __ZN3awd7metrics34LocationEmergencySessionStatistics31GnssSignalEnvironmentTypeMarineE
|| __TEXT.__const __ZN3awd7metrics34LocationEmergencySessionStatistics31RadioAccessTechnology_ARRAYSIZEE
|| __TEXT.__const __ZN3awd7metrics34LocationEmergencySessionStatistics31kIsInActiveEmergencyFieldNumberE
|| __TEXT.__const __ZN3awd7metrics34LocationEmergencySessionStatistics31kIsNWRefLocAvailableFieldNumberE
|| __TEXT.__const __ZN3awd7metrics34LocationEmergencySessionStatistics31kTimeToFirstRavenFixFieldNumberE
|| __TEXT.__const __ZN3awd7metrics34LocationEmergencySessionStatistics31kWasNetworkReachableFieldNumberE
|| __TEXT.__const __ZN3awd7metrics34LocationEmergencySessionStatistics32GnssSignalEnvironmentTypeFoliageE
|| __TEXT.__const __ZN3awd7metrics34LocationEmergencySessionStatistics32kCarrierBundleVersionFieldNumberE
|| __TEXT.__const __ZN3awd7metrics34LocationEmergencySessionStatistics32kIsOrbitFileAvailableFieldNumberE
|| __TEXT.__const __ZN3awd7metrics34LocationEmergencySessionStatistics32kIsWlanFeatureEnabledFieldNumberE
|| __TEXT.__const __ZN3awd7metrics34LocationEmergencySessionStatistics32kNumNoFixMessagesSentFieldNumberE
|| __TEXT.__const __ZN3awd7metrics34LocationEmergencySessionStatistics32kNwRefLocUncertainityFieldNumberE
|| __TEXT.__const __ZN3awd7metrics34LocationEmergencySessionStatistics32kSatelliteReportCountFieldNumberE
|| __TEXT.__const __ZN3awd7metrics34LocationEmergencySessionStatistics33PhoneNumberAvailability_ARRAYSIZEE
|| __TEXT.__const __ZN3awd7metrics34LocationEmergencySessionStatistics33kPhoneNumbersAvailableFieldNumberE
|| __TEXT.__const __ZN3awd7metrics34LocationEmergencySessionStatistics33kSupersededSessionTypeFieldNumberE
|| __TEXT.__const __ZN3awd7metrics34LocationEmergencySessionStatistics33kTransmissionBandwidthFieldNumberE
|| __TEXT.__const __ZN3awd7metrics34LocationEmergencySessionStatistics33kTransmissionFrequencyFieldNumberE
|| __TEXT.__const __ZN3awd7metrics34LocationEmergencySessionStatistics34kIsRssiReportingEnabledFieldNumberE
|| __TEXT.__const __ZN3awd7metrics34LocationEmergencySessionStatistics35GnssSignalEnvironmentTypeDenseUrbanE
|| __TEXT.__const __ZN3awd7metrics34LocationEmergencySessionStatistics35GnssSignalEnvironmentType_ARRAYSIZEE
|| __TEXT.__const __ZN3awd7metrics34LocationEmergencySessionStatistics35kIsLocationSourceEnabledFieldNumberE
|| __TEXT.__const __ZN3awd7metrics34LocationEmergencySessionStatistics35kLastHttpPostFailureCodeFieldNumberE
|| __TEXT.__const __ZN3awd7metrics34LocationEmergencySessionStatistics35kLocConfigContentVersionFieldNumberE
|| __TEXT.__const __ZN3awd7metrics34LocationEmergencySessionStatistics35kNumRavenFixMessagesSentFieldNumberE
|| __TEXT.__const __ZN3awd7metrics34LocationEmergencySessionStatistics36GnssSignalEnvironmentTypeUnavailableE
|| __TEXT.__const __ZN3awd7metrics34LocationEmergencySessionStatistics36kAchievedVerticalAccuracyFieldNumberE
|| __TEXT.__const __ZN3awd7metrics34LocationEmergencySessionStatistics36kNumSendFailForValidFixesFieldNumberE
|| __TEXT.__const __ZN3awd7metrics34LocationEmergencySessionStatistics36kRequestedResponseTimeoutFieldNumberE
|| __TEXT.__const __ZN3awd7metrics34LocationEmergencySessionStatistics37kNumSendSuccessForValidFixFieldNumberE
|| __TEXT.__const __ZN3awd7metrics34LocationEmergencySessionStatistics37kNwRefLocDeviationFromHELOFieldNumberE
|| __TEXT.__const __ZN3awd7metrics34LocationEmergencySessionStatistics38kDbhIntermediateFixAccuracyFieldNumberE
|| __TEXT.__const __ZN3awd7metrics34LocationEmergencySessionStatistics39kRequestedPositionReportTypeFieldNumberE
|| __TEXT.__const __ZN3awd7metrics34LocationEmergencySessionStatistics3AMLE
|| __TEXT.__const __ZN3awd7metrics34LocationEmergencySessionStatistics3EEDE
|| __TEXT.__const __ZN3awd7metrics34LocationEmergencySessionStatistics3GSME
|| __TEXT.__const __ZN3awd7metrics34LocationEmergencySessionStatistics3LPPE
|| __TEXT.__const __ZN3awd7metrics34LocationEmergencySessionStatistics3LTEE
|| __TEXT.__const __ZN3awd7metrics34LocationEmergencySessionStatistics3RRCE
|| __TEXT.__const __ZN3awd7metrics34LocationEmergencySessionStatistics3SIPE
|| __TEXT.__const __ZN3awd7metrics34LocationEmergencySessionStatistics40kFinalFixDeviationFromSuplEndFieldNumberE
|| __TEXT.__const __ZN3awd7metrics34LocationEmergencySessionStatistics41GnssSignalEnvironmentTypeDenseUrbanCanyonE
|| __TEXT.__const __ZN3awd7metrics34LocationEmergencySessionStatistics41kLocConfigCompatibilityVersionFieldNumberE
|| __TEXT.__const __ZN3awd7metrics34LocationEmergencySessionStatistics41kNwRefLocDeviationFromFinalFixFieldNumberE
|| __TEXT.__const __ZN3awd7metrics34LocationEmergencySessionStatistics41kNwReportedFixDeviationFromDBHFieldNumberE
|| __TEXT.__const __ZN3awd7metrics34LocationEmergencySessionStatistics45kFinalFixDeviationFromCellLocationFieldNumberE
|| __TEXT.__const __ZN3awd7metrics34LocationEmergencySessionStatistics45kNwRefLocDeviationFromCellLocationFieldNumberE
|| __TEXT.__const __ZN3awd7metrics34LocationEmergencySessionStatistics4AFLTE
|| __TEXT.__const __ZN3awd7metrics34LocationEmergencySessionStatistics4ECIDE
|| __TEXT.__const __ZN3awd7metrics34LocationEmergencySessionStatistics4EOTDE
|| __TEXT.__const __ZN3awd7metrics34LocationEmergencySessionStatistics4HRPDE
|| __TEXT.__const __ZN3awd7metrics34LocationEmergencySessionStatistics4LPPeE
|| __TEXT.__const __ZN3awd7metrics34LocationEmergencySessionStatistics4RRLPE
|| __TEXT.__const __ZN3awd7metrics34LocationEmergencySessionStatistics4WifiE
|| __TEXT.__const __ZN3awd7metrics34LocationEmergencySessionStatistics50kNwReportedFixDeviationFromWifiLocationFieldNumberE
|| __TEXT.__const __ZN3awd7metrics34LocationEmergencySessionStatistics5HTTPSE
|| __TEXT.__const __ZN3awd7metrics34LocationEmergencySessionStatistics5IS801E
|| __TEXT.__const __ZN3awd7metrics34LocationEmergencySessionStatistics5OTDOAE
|| __TEXT.__const __ZN3awd7metrics34LocationEmergencySessionStatistics5SCDMAE
|| __TEXT.__const __ZN3awd7metrics34LocationEmergencySessionStatistics5UTRANE
|| __TEXT.__const __ZN3awd7metrics34LocationEmergencySessionStatistics5kUMTSE
|| __TEXT.__const __ZN3awd7metrics34LocationEmergencySessionStatistics6CDMA1xE
|| __TEXT.__const __ZN3awd7metrics34LocationEmergencySessionStatistics7AbortedE
|| __TEXT.__const __ZN3awd7metrics34LocationEmergencySessionStatistics7MSBasedE
|| __TEXT.__const __ZN3awd7metrics34LocationEmergencySessionStatistics7SuccessE
|| __TEXT.__const __ZN3awd7metrics34LocationEmergencySessionStatistics7TextSMSE
|| __TEXT.__const __ZN3awd7metrics34LocationEmergencySessionStatistics7TimeoutE
|| __TEXT.__const __ZN3awd7metrics34LocationEmergencySessionStatistics8BadStateE
|| __TEXT.__const __ZN3awd7metrics34LocationEmergencySessionStatistics8CDMAEVDOE
|| __TEXT.__const __ZN3awd7metrics34LocationEmergencySessionStatistics8PeriodicE
|| __TEXT.__const __ZN3awd7metrics34LocationEmergencySessionStatistics9AreaEventE
|| __TEXT.__const __ZN3awd7metrics34LocationEmergencySessionStatistics9BinarySMSE
|| __TEXT.__const __ZN3awd7metrics34LocationEmergencySessionStatistics9UserPlaneE
|| __TEXT.__const __ZN3awd7metrics34LocationMicroLocationLearningState19kLoiTypeFieldNumberE
|| __TEXT.__const __ZN3awd7metrics34LocationMicroLocationLearningState21kTimestampFieldNumberE
|| __TEXT.__const __ZN3awd7metrics34LocationMicroLocationLearningState27kDurationToLearnFieldNumberE
|| __TEXT.__const __ZN3awd7metrics34LocationMicroLocationLearningState34kAgeOfLearningCompletedFieldNumberE
|| __TEXT.__const __ZN3awd7metrics35LocationMicroLocationAnalyticsState19kLoiTypeFieldNumberE
|| __TEXT.__const __ZN3awd7metrics35LocationMicroLocationAnalyticsState21kTimestampFieldNumberE
|| __TEXT.__const __ZN3awd7metrics35LocationMicroLocationAnalyticsState34kDurationToRunAnalyticsFieldNumberE
|| __TEXT.__const __ZN3awd7metrics35LocationMicroLocationAnalyticsState35kAgeOfAnalyticsCompletedFieldNumberE
|| __TEXT.__const __ZN3awd7metrics35LocationMicroLocationEventHistogram30kEventTypeAndCountsFieldNumberE
|| __TEXT.__const __ZN3awd7metrics35LocationMicroLocationEventHistogram31kSumOfAllEventCountsFieldNumberE
|| __TEXT.__const __ZN3awd7metrics35LocationMicroLocationEventHistogram31kTotalNumberOfEventsFieldNumberE
|| __TEXT.__const __ZN3awd7metrics37LocationPeerRangingMeasurementMetrics36kBinnedRangeEstimateCountFieldNumberE
|| __TEXT.__const __ZN3awd7metrics37LocationPeerRangingMeasurementMetrics36kBinnedRangeEstimateValidFieldNumberE
|| __TEXT.__const __ZN3awd7metrics37LocationPeerRangingMeasurementMetrics39kBinnedRangeMeasurementCountFieldNumberE
|| __TEXT.__const __ZN3awd7metrics37LocationPeerRangingMeasurementMetrics56kAverageTimeBetweenIndividualMeasurementsUsecFieldNumberE
|| __TEXT.__const __ZN3awd7metrics37LocationWifiAPLocationProviderSession21kTileFilesFieldNumberE
|| __TEXT.__const __ZN3awd7metrics37LocationWifiAPLocationProviderSession21kTimestampFieldNumberE
|| __TEXT.__const __ZN3awd7metrics37LocationWifiAPLocationProviderSession23kSessionDaysFieldNumberE
|| __TEXT.__const __ZN3awd7metrics37LocationWifiAPLocationProviderSession24kDurationDaysFieldNumberE
|| __TEXT.__const __ZN3awd7metrics38LocationMicroLocationClusteringByModel19kLoiTypeFieldNumberE
|| __TEXT.__const __ZN3awd7metrics38LocationMicroLocationClusteringByModel21kModelTypeFieldNumberE
|| __TEXT.__const __ZN3awd7metrics38LocationMicroLocationClusteringByModel22kHistogramsFieldNumberE
|| __TEXT.__const __ZN3awd7metrics38LocationMicroLocationEventTypeAndCount17kCountFieldNumberE
|| __TEXT.__const __ZN3awd7metrics38LocationMicroLocationEventTypeAndCount21kEventNameFieldNumberE
|| __TEXT.__const __ZN3awd7metrics38LocationMicroLocationEventTypeAndCount21kEventTypeFieldNumberE
|| __TEXT.__const __ZN3awd7metrics39LocationMicroLocationSignificanceMetric24kMinimumCountFieldNumberE
|| __TEXT.__const __ZN3awd7metrics39LocationMicroLocationSignificanceMetric28kNumberOfClustersFieldNumberE
|| __TEXT.__const __ZN3awd7metrics39LocationMicroLocationSignificanceMetric31kPercentageThresholdFieldNumberE
|| __TEXT.__const __ZN3awd7metrics40LocationMicroLocationUserEventStatistics19kLoiTypeFieldNumberE
|| __TEXT.__const __ZN3awd7metrics40LocationMicroLocationUserEventStatistics21kModelTypeFieldNumberE
|| __TEXT.__const __ZN3awd7metrics40LocationMicroLocationUserEventStatistics21kTimestampFieldNumberE
|| __TEXT.__const __ZN3awd7metrics40LocationMicroLocationUserEventStatistics31kNumberOfAppLaunchesFieldNumberE
|| __TEXT.__const __ZN3awd7metrics40LocationMicroLocationUserEventStatistics33kNumberBTConnectEventsFieldNumberE
|| __TEXT.__const __ZN3awd7metrics40LocationMicroLocationUserEventStatistics35kNumberOfSiriInvokationsFieldNumberE
|| __TEXT.__const __ZN3awd7metrics40LocationMicroLocationUserEventStatistics36kNumberOfHomeKitAppEventsFieldNumberE
|| __TEXT.__const __ZN3awd7metrics40LocationMicroLocationUserEventStatistics37kNumberOfHomeKitSiriEventsFieldNumberE
|| __TEXT.__const __ZN3awd7metrics40LocationMicroLocationUserEventStatistics39kNumberHeadphonePlugInEventsFieldNumberE
|| __TEXT.__const __ZN3awd7metrics40LocationMicroLocationUserEventStatistics40kNumberOfFirstWakeOfDayEventsFieldNumberE
|| __TEXT.__const __ZN3awd7metrics40LocationMicroLocationUserEventStatistics47kNumberOfBatteryChargerConnectEventsFieldNumberE
|| __TEXT.__const __ZN3awd7metrics40LocationPeerRangingEarlyTerminateMetrics32kEnableEarlyTerminateFieldNumberE
|| __TEXT.__const __ZN3awd7metrics40LocationPeerRangingEarlyTerminateMetrics39kAverageTimeToEarlyTerminateFieldNumberE
|| __TEXT.__const __ZN3awd7metrics40LocationPeerRangingEarlyTerminateMetrics61kAverageNumberOfMeasurementsToDetectEarlyTerminateFieldNumberE
|| __TEXT.__const __ZN3awd7metrics40LocationPeerRangingUnlockDecisionMetrics21kDecisionsFieldNumberE
|| __TEXT.__const __ZN3awd7metrics40LocationPeerRangingUnlockDecisionMetrics31kAverageTimeToUnlockFieldNumberE
|| __TEXT.__const __ZN3awd7metrics40LocationPeerRangingUnlockDecisionMetrics37kAverageTimeToRemainLockedFieldNumberE
|| __TEXT.__const __ZN3awd7metrics41LocationGPSSessionStatistics_ChecksumData18kSha256FieldNumberE
|| __TEXT.__const __ZN3awd7metrics41LocationMicroLocationClusteringStatistics19kLoiTypeFieldNumberE
|| __TEXT.__const __ZN3awd7metrics41LocationMicroLocationClusteringStatistics21kModelTypeFieldNumberE
|| __TEXT.__const __ZN3awd7metrics41LocationMicroLocationClusteringStatistics21kTimestampFieldNumberE
|| __TEXT.__const __ZN3awd7metrics41LocationMicroLocationClusteringStatistics33kAppSignificanceMetricFieldNumberE
|| __TEXT.__const __ZN3awd7metrics41LocationMicroLocationClusteringStatistics39kBtConnectSignificanceMetricFieldNumberE
|| __TEXT.__const __ZN3awd7metrics41LocationMicroLocationClusteringStatistics40kHomeKitAppSignificanceMetricFieldNumberE
|| __TEXT.__const __ZN3awd7metrics41LocationMicroLocationClusteringStatistics41kHomeKitSiriSignificanceMetricFieldNumberE
|| __TEXT.__const __ZN3awd7metrics41LocationMicroLocationClusteringStatistics44kFirstWakeOfDaySignificanceMetricFieldNumberE
|| __TEXT.__const __ZN3awd7metrics41LocationMicroLocationClusteringStatistics45kHeadphonePluginSignificanceMetricFieldNumberE
|| __TEXT.__const __ZN3awd7metrics41LocationMicroLocationClusteringStatistics50kBatteryChargeConnectSignificanceMetricFieldNumberE
|| __TEXT.__const __ZN3awd7metrics41LocationPeerRangingEstimatorConfiguration27kEnablePrefilterFieldNumberE
|| __TEXT.__const __ZN3awd7metrics41LocationPeerRangingEstimatorConfiguration30kBubbleSizeInMetersFieldNumberE
|| __TEXT.__const __ZN3awd7metrics41LocationPeerRangingEstimatorConfiguration33kEnableFixedBubbleSizeFieldNumberE
|| __TEXT.__const __ZN3awd7metrics41LocationPeerRangingEstimatorConfiguration34kPrefilterRangeInMetersFieldNumberE
|| __TEXT.__const __ZN3awd7metrics41LocationPeerRangingEstimatorConfiguration54kLocationPeerRangingUnlockDecisionAlgorithmFieldNumberE
|| __TEXT.__const __ZN3awd7metrics42LocationMicroLocationMeasurementStatistics19kLoiTypeFieldNumberE
|| __TEXT.__const __ZN3awd7metrics42LocationMicroLocationMeasurementStatistics21kTimestampFieldNumberE
|| __TEXT.__const __ZN3awd7metrics42LocationMicroLocationMeasurementStatistics33kBinnedNumberOfWiFiApsFieldNumberE
|| __TEXT.__const __ZN3awd7metrics42LocationMicroLocationMeasurementStatistics35kBinnedNumberOfBTDevicesFieldNumberE
|| __TEXT.__const __ZN3awd7metrics42LocationMicroLocationMeasurementStatistics53kAgeOfNewestBTMeasurementLearningRecordingFieldNumberE
|| __TEXT.__const __ZN3awd7metrics42LocationMicroLocationMeasurementStatistics55kAgeOfNewestWiFiMeasurementLearningRecordingFieldNumberE
|| __TEXT.__const __ZN3awd7metrics42LocationMicroLocationMeasurementStatistics57kAgeOfNewestBTMeasurementLocalizationRecordingFieldNumberE
|| __TEXT.__const __ZN3awd7metrics42LocationMicroLocationMeasurementStatistics59kAgeOfNewestWiFiMeasurementLocalizationRecordingFieldNumberE
|| __TEXT.__const __ZN3awd7metrics43LocationGPSSessionStatistics_PowerStateData17kCountFieldNumberE
|| __TEXT.__const __ZN3awd7metrics43LocationGPSSessionStatistics_PowerStateData22kPowerStateFieldNumberE
|| __TEXT.__const __ZN3awd7metrics43LocationMicroLocationLocalizationStatistics19kLoiTypeFieldNumberE
|| __TEXT.__const __ZN3awd7metrics43LocationMicroLocationLocalizationStatistics21kTimestampFieldNumberE
|| __TEXT.__const __ZN3awd7metrics43LocationMicroLocationLocalizationStatistics40kAgeOfLastLocalizationRequestFieldNumberE
|| __TEXT.__const __ZN3awd7metrics43LocationMicroLocationLocalizationStatistics44kNumberOfSelfLocalizationRequestsFieldNumberE
|| __TEXT.__const __ZN3awd7metrics43LocationMicroLocationLocalizationStatistics46kNumberOfClientLocalizationRequestsFieldNumberE
|| __TEXT.__const __ZN3awd7metrics44LocationGPSSessionStatistics_MovingStateData17kCountFieldNumberE
|| __TEXT.__const __ZN3awd7metrics44LocationGPSSessionStatistics_MovingStateData23kMovingStateFieldNumberE
|| __TEXT.__const __ZN3awd7metrics44LocationMicroLocationEventSignificanceMetric22kMetricTypeFieldNumberE
|| __TEXT.__const __ZN3awd7metrics44LocationMicroLocationEventSignificanceMetric23kMetricValueFieldNumberE
|| __TEXT.__const __ZN3awd7metrics44LocationMicroLocationEventSignificanceMetric24kMinimumCountFieldNumberE
|| __TEXT.__const __ZN3awd7metrics44LocationMicroLocationEventSignificanceMetric29kEventTypeAndCountFieldNumberE
|| __TEXT.__const __ZN3awd7metrics44LocationMicroLocationEventSignificanceMetric31kPercentageThresholdFieldNumberE
|| __TEXT.__const __ZN3awd7metrics45LocationGPSSessionStatistics_MountedStateData17kCountFieldNumberE
|| __TEXT.__const __ZN3awd7metrics45LocationGPSSessionStatistics_MountedStateData24kMountedStateFieldNumberE
|| __TEXT.__const __ZN3awd7metrics46LocationMicroLocationEventClusteringStatistics19kLoiTypeFieldNumberE
|| __TEXT.__const __ZN3awd7metrics46LocationMicroLocationEventClusteringStatistics19kMetricsFieldNumberE
|| __TEXT.__const __ZN3awd7metrics46LocationMicroLocationEventClusteringStatistics21kModelTypeFieldNumberE
|| __TEXT.__const __ZN3awd7metrics47LocationGPSSessionStatistics_MotionActivityData17kCountFieldNumberE
|| __TEXT.__const __ZN3awd7metrics47LocationGPSSessionStatistics_MotionActivityData20kActivityFieldNumberE
|| __TEXT.__const __ZN3awd7metrics49LocationGPSSessionStatistics_PowerMeasurementData17kCountFieldNumberE
|| __TEXT.__const __ZN3awd7metrics49LocationGPSSessionStatistics_PowerMeasurementData28kPowerMeasurementFieldNumberE
|| __TEXT.__const __ZN3awd7metrics49LocationGPSSessionStatistics_UncertaintyRangeData17kCountFieldNumberE
|| __TEXT.__const __ZN3awd7metrics49LocationGPSSessionStatistics_UncertaintyRangeData28kUncertaintyRangeFieldNumberE
|| __TEXT.__const __ZN3awd7metrics50LocationGPSSessionStatistics_DeviceOrientationData17kCountFieldNumberE
|| __TEXT.__const __ZN3awd7metrics50LocationGPSSessionStatistics_DeviceOrientationData29kDeviceOrientationFieldNumberE
|| __TEXT.__const __ZN3awd7metrics50LocationGPSSessionStatistics_SatelliteCNORangeData17kCountFieldNumberE
|| __TEXT.__const __ZN3awd7metrics50LocationGPSSessionStatistics_SatelliteCNORangeData22kSvCNORangeFieldNumberE
|| __TEXT.__const __ZN3awd7metrics50LocationGPSSessionStatistics_SignalEnvironmentData17kCountFieldNumberE
|| __TEXT.__const __ZN3awd7metrics50LocationGPSSessionStatistics_SignalEnvironmentData29kSignalEnvironmentFieldNumberE
|| __TEXT.__const __ZN3awd7metrics51LocationMobileAssetStatistics_CarrierSettingsStatus15kMccFieldNumberE
|| __TEXT.__const __ZN3awd7metrics51LocationMobileAssetStatistics_CarrierSettingsStatus15kMncFieldNumberE
|| __TEXT.__const __ZN3awd7metrics51LocationMobileAssetStatistics_CarrierSettingsStatus15kNidFieldNumberE
|| __TEXT.__const __ZN3awd7metrics51LocationMobileAssetStatistics_CarrierSettingsStatus15kSidFieldNumberE
|| __TEXT.__const __ZN3awd7metrics51LocationMobileAssetStatistics_CarrierSettingsStatus20kBundleIdFieldNumberE
|| __TEXT.__const __ZN3awd7metrics51LocationMobileAssetStatistics_CarrierSettingsStatus22kPlistFoundFieldNumberE
|| __TEXT.__const __ZN3awd7metrics52LocationGPSSessionStatistics_SatelliteCountRangeData17kCountFieldNumberE
|| __TEXT.__const __ZN3awd7metrics52LocationGPSSessionStatistics_SatelliteCountRangeData24kSvCountRangeFieldNumberE
|| __TEXT.__const __ZN3awd7metrics54LocationGnssSWRecoveryStatistics_LocationRecoveryPoint24kRecoveryFileFieldNumberE
|| __TEXT.__const __ZN3awd7metrics54LocationGnssSWRecoveryStatistics_LocationRecoveryPoint27kRecoveryLinenumFieldNumberE
|| __TEXT.__const __ZN3awd7metrics54LocationGnssSWRecoveryStatistics_LocationRecoveryPoint28kRecoveryFunctionFieldNumberE
|| __TEXT.__const __ZN3awd7metrics55LocationGnssSWRecoveryStatistics_LocationRecoveryStatus21kRecoveredFieldNumberE
|| __TEXT.__const __ZN3awd7metrics55LocationGnssSWRecoveryStatistics_LocationRecoveryStatus25kInOutRecoveryFieldNumberE
|| __TEXT.__const __ZN3awd7metrics55LocationGnssSWRecoveryStatistics_LocationRecoveryStatus29kRecoveryAttemptedFieldNumberE
|| __TEXT.__const __ZN3awd7metrics55LocationGnssSWRecoveryStatistics_LocationRecoveryStatus31kNumRecoveryAttemptsFieldNumberE
|| __TEXT.__const __ZN3awd7metrics57LocationGnssSWRecoveryStatistics_LocationGnssRecoveryInfo25kRecoveryPointFieldNumberE
|| __TEXT.__const __ZN3awd7metrics57LocationGnssSWRecoveryStatistics_LocationGnssRecoveryInfo26kRecoveryStatusFieldNumberE
|| __TEXT.__const __ZN3awd7metrics60LocationGPSSessionStatistics_LocationGpsPersistentStatistics20GpsdExitCategory_MAXE
|| __TEXT.__const __ZN3awd7metrics60LocationGPSSessionStatistics_LocationGpsPersistentStatistics20GpsdExitCategory_MINE
|| __TEXT.__const __ZN3awd7metrics60LocationGPSSessionStatistics_LocationGpsPersistentStatistics23kExceptionCategory_StopE
|| __TEXT.__const __ZN3awd7metrics60LocationGPSSessionStatistics_LocationGpsPersistentStatistics23kNumSessionsFieldNumberE
|| __TEXT.__const __ZN3awd7metrics60LocationGPSSessionStatistics_LocationGpsPersistentStatistics24kExceptionCategory_StartE
|| __TEXT.__const __ZN3awd7metrics60LocationGPSSessionStatistics_LocationGpsPersistentStatistics25GpsdExceptionCategory_MAXE
|| __TEXT.__const __ZN3awd7metrics60LocationGPSSessionStatistics_LocationGpsPersistentStatistics25GpsdExceptionCategory_MINE
|| __TEXT.__const __ZN3awd7metrics60LocationGPSSessionStatistics_LocationGpsPersistentStatistics26GpsdExitCategory_ARRAYSIZEE
|| __TEXT.__const __ZN3awd7metrics60LocationGPSSessionStatistics_LocationGpsPersistentStatistics26kExceptionCategory_UnknownE
|| __TEXT.__const __ZN3awd7metrics60LocationGPSSessionStatistics_LocationGpsPersistentStatistics28kExitCategory_RequestTimeoutE
|| __TEXT.__const __ZN3awd7metrics60LocationGPSSessionStatistics_LocationGpsPersistentStatistics28kGpsdStartDelayMsFieldNumberE
|| __TEXT.__const __ZN3awd7metrics60LocationGPSSessionStatistics_LocationGpsPersistentStatistics29kExceptionCategory_AssertGpsdE
|| __TEXT.__const __ZN3awd7metrics60LocationGPSSessionStatistics_LocationGpsPersistentStatistics29kNumGpsdExceptionsFieldNumberE
|| __TEXT.__const __ZN3awd7metrics60LocationGPSSessionStatistics_LocationGpsPersistentStatistics31GpsdExceptionCategory_ARRAYSIZEE
|| __TEXT.__const __ZN3awd7metrics60LocationGPSSessionStatistics_LocationGpsPersistentStatistics31kExceptionCategory_AssertVendorE
|| __TEXT.__const __ZN3awd7metrics60LocationGPSSessionStatistics_LocationGpsPersistentStatistics31kExitCategory_AliveTimerExpiredE
|| __TEXT.__const __ZN3awd7metrics60LocationGPSSessionStatistics_LocationGpsPersistentStatistics31kLastGpsdExitPayloadFieldNumberE
|| __TEXT.__const __ZN3awd7metrics60LocationGPSSessionStatistics_LocationGpsPersistentStatistics31kNumGpsdExitCommandsFieldNumberE
|| __TEXT.__const __ZN3awd7metrics60LocationGPSSessionStatistics_LocationGpsPersistentStatistics31kNumLsOffTransitionsFieldNumberE
|| __TEXT.__const __ZN3awd7metrics60LocationGPSSessionStatistics_LocationGpsPersistentStatistics32kExitCategory_RequestFailureCodeE
|| __TEXT.__const __ZN3awd7metrics60LocationGPSSessionStatistics_LocationGpsPersistentStatistics32kLastGpsdExitCategoryFieldNumberE
|| __TEXT.__const __ZN3awd7metrics60LocationGPSSessionStatistics_LocationGpsPersistentStatistics33kGpsdMaxRequestDelayMsFieldNumberE
|| __TEXT.__const __ZN3awd7metrics60LocationGPSSessionStatistics_LocationGpsPersistentStatistics34kNumGpsdApparentCrashesFieldNumberE
|| __TEXT.__const __ZN3awd7metrics60LocationGPSSessionStatistics_LocationGpsPersistentStatistics35kGpsdMaxRequestDelayTypeFieldNumberE
|| __TEXT.__const __ZN3awd7metrics60LocationGPSSessionStatistics_LocationGpsPersistentStatistics36kLastGpsdExceptionPayloadFieldNumberE
|| __TEXT.__const __ZN3awd7metrics60LocationGPSSessionStatistics_LocationGpsPersistentStatistics37kLastGpsdExceptionCategoryFieldNumberE
|| __TEXT.__const __ZN3awd7metrics60LocationGPSSessionStatistics_LocationGpsPersistentStatistics40kLastGpsdExceptionCategoryIntFieldNumberE
|| __TEXT.__const __ZTSN3awd7metrics11MotionStateE
|| __TEXT.__const __ZTSN3awd7metrics13MotionTriggerE
|| __TEXT.__const __ZTSN3awd7metrics14CompassSessionE
|| __TEXT.__const __ZTSN3awd7metrics14MotionSOSEventE
|| __TEXT.__const __ZTSN3awd7metrics15MotionGyroDailyE
|| __TEXT.__const __ZTSN3awd7metrics16LocationTileFileE
|| __TEXT.__const __ZTSN3awd7metrics17LocationWifiUsageE
|| __TEXT.__const __ZTSN3awd7metrics17MotionGyroMiniCalE
|| __TEXT.__const __ZTSN3awd7metrics18LocationSessionDayE
|| __TEXT.__const __ZTSN3awd7metrics18LocationTilesUsageE
|| __TEXT.__const __ZTSN3awd7metrics18MotionFitnessDailyE
|| __TEXT.__const __ZTSN3awd7metrics19LocationMapMatchingE
|| __TEXT.__const __ZTSN3awd7metrics19MotionDropDetectionE
|| __TEXT.__const __ZTSN3awd7metrics19MotionFitnessAllDayE
|| __TEXT.__const __ZTSN3awd7metrics20LocationBatteryStateE
|| __TEXT.__const __ZTSN3awd7metrics20LocationWifiTileSyncE
|| __TEXT.__const __ZTSN3awd7metrics20MotionFitnessSessionE
|| __TEXT.__const __ZTSN3awd7metrics20MotionNoGPSRunAllDayE
|| __TEXT.__const __ZTSN3awd7metrics21LocationALSCacheUsageE
|| __TEXT.__const __ZTSN3awd7metrics21LocationCellTileUsageE
|| __TEXT.__const __ZTSN3awd7metrics21LocationServicesStateE
|| __TEXT.__const __ZTSN3awd7metrics21LocationTileFileUsageE
|| __TEXT.__const __ZTSN3awd7metrics21LocationUpdateSessionE
|| __TEXT.__const __ZTSN3awd7metrics21MotionElevationAllDayE
|| __TEXT.__const __ZTSN3awd7metrics22LocationMonitorSessionE
|| __TEXT.__const __ZTSN3awd7metrics22LocationMonitorTriggerE
|| __TEXT.__const __ZTSN3awd7metrics22LocationNetworkQueriesE
|| __TEXT.__const __ZTSN3awd7metrics22MotionFitnessPedometerE
|| __TEXT.__const __ZTSN3awd7metrics23CompassSession_RotationE
|| __TEXT.__const __ZTSN3awd7metrics23LocationALSNetworkUsageE
|| __TEXT.__const __ZTSN3awd7metrics23LocationRealTimeHarvestE
|| __TEXT.__const __ZTSN3awd7metrics24LocationEmergencySessionE
|| __TEXT.__const __ZTSN3awd7metrics24LocationServicesApprovalE
|| __TEXT.__const __ZTSN3awd7metrics24MotionGyroBiasEstimationE
|| __TEXT.__const __ZTSN3awd7metrics25LocationNavigationSessionE
|| __TEXT.__const __ZTSN3awd7metrics25MotionPressureTemperatureE
|| __TEXT.__const __ZTSN3awd7metrics26LocationCompassSaturationsE
|| __TEXT.__const __ZTSN3awd7metrics26LocationPeerRangingMetricsE
|| __TEXT.__const __ZTSN3awd7metrics26MotionBarometerCalibrationE
|| __TEXT.__const __ZTSN3awd7metrics26MotionPedometerCalibrationE
|| __TEXT.__const __ZTSN3awd7metrics27LocationPeerRangingDecisionE
|| __TEXT.__const __ZTSN3awd7metrics27LocationPeerRangingMetaDataE
|| __TEXT.__const __ZTSN3awd7metrics27LocationSubHarvesterMetricsE
|| __TEXT.__const __ZTSN3awd7metrics27LocationVisibilityAssertionE
|| __TEXT.__const __ZTSN3awd7metrics28LocationBeaconMonitorSessionE
|| __TEXT.__const __ZTSN3awd7metrics28LocationBeaconMonitorTriggerE
|| __TEXT.__const __ZTSN3awd7metrics28LocationBeaconRangingSessionE
|| __TEXT.__const __ZTSN3awd7metrics28LocationGPSSessionStatisticsE
|| __TEXT.__const __ZTSN3awd7metrics28LocationMainHarvesterMetricsE
|| __TEXT.__const __ZTSN3awd7metrics28MotionFitnessAccelSampleRateE
|| __TEXT.__const __ZTSN3awd7metrics29LocationMicroLocationMetaDataE
|| __TEXT.__const __ZTSN3awd7metrics29LocationMobileAssetStatisticsE
|| __TEXT.__const __ZTSN3awd7metrics30LocationEmergencyPOIStatisticsE
|| __TEXT.__const __ZTSN3awd7metrics30LocationSecondaryDeviceRequestE
|| __TEXT.__const __ZTSN3awd7metrics30MotionFitnessStrideCalibrationE
|| __TEXT.__const __ZTSN3awd7metrics31LocationMicroLocationModelStateE
|| __TEXT.__const __ZTSN3awd7metrics31LocationMicroLocationStatisticsE
|| __TEXT.__const __ZTSN3awd7metrics31LocationPeerRangingBurstMetricsE
|| __TEXT.__const __ZTSN3awd7metrics31LocationPhoneNumberAvailabilityE
|| __TEXT.__const __ZTSN3awd7metrics32LocationGnssSWRecoveryStatisticsE
|| __TEXT.__const __ZTSN3awd7metrics33LocationSubHarvesterUploadAttemptE
|| __TEXT.__const __ZTSN3awd7metrics33MotionGyroBiasEstimation_EndCountE
|| __TEXT.__const __ZTSN3awd7metrics34LocationEmergencySessionStatisticsE
|| __TEXT.__const __ZTSN3awd7metrics34LocationMicroLocationLearningStateE
|| __TEXT.__const __ZTSN3awd7metrics35LocationMicroLocationAnalyticsStateE
|| __TEXT.__const __ZTSN3awd7metrics35LocationMicroLocationEventHistogramE
|| __TEXT.__const __ZTSN3awd7metrics37LocationPeerRangingMeasurementMetricsE
|| __TEXT.__const __ZTSN3awd7metrics37LocationWifiAPLocationProviderSessionE
|| __TEXT.__const __ZTSN3awd7metrics38LocationMicroLocationClusteringByModelE
|| __TEXT.__const __ZTSN3awd7metrics38LocationMicroLocationEventTypeAndCountE
|| __TEXT.__const __ZTSN3awd7metrics39LocationMicroLocationSignificanceMetricE
|| __TEXT.__const __ZTSN3awd7metrics40LocationMicroLocationUserEventStatisticsE
|| __TEXT.__const __ZTSN3awd7metrics40LocationPeerRangingEarlyTerminateMetricsE
|| __TEXT.__const __ZTSN3awd7metrics40LocationPeerRangingUnlockDecisionMetricsE
|| __TEXT.__const __ZTSN3awd7metrics41LocationGPSSessionStatistics_ChecksumDataE
|| __TEXT.__const __ZTSN3awd7metrics41LocationMicroLocationClusteringStatisticsE
|| __TEXT.__const __ZTSN3awd7metrics41LocationPeerRangingEstimatorConfigurationE
|| __TEXT.__const __ZTSN3awd7metrics42LocationMicroLocationMeasurementStatisticsE
|| __TEXT.__const __ZTSN3awd7metrics43LocationGPSSessionStatistics_PowerStateDataE
|| __TEXT.__const __ZTSN3awd7metrics43LocationMicroLocationLocalizationStatisticsE
|| __TEXT.__const __ZTSN3awd7metrics44LocationGPSSessionStatistics_MovingStateDataE
|| __TEXT.__const __ZTSN3awd7metrics44LocationMicroLocationEventSignificanceMetricE
|| __TEXT.__const __ZTSN3awd7metrics45LocationGPSSessionStatistics_MountedStateDataE
|| __TEXT.__const __ZTSN3awd7metrics46LocationMicroLocationEventClusteringStatisticsE
|| __TEXT.__const __ZTSN3awd7metrics47LocationGPSSessionStatistics_MotionActivityDataE
|| __TEXT.__const __ZTSN3awd7metrics49LocationGPSSessionStatistics_PowerMeasurementDataE
|| __TEXT.__const __ZTSN3awd7metrics49LocationGPSSessionStatistics_UncertaintyRangeDataE
|| __TEXT.__const __ZTSN3awd7metrics50LocationGPSSessionStatistics_DeviceOrientationDataE
|| __TEXT.__const __ZTSN3awd7metrics50LocationGPSSessionStatistics_SatelliteCNORangeDataE
|| __TEXT.__const __ZTSN3awd7metrics50LocationGPSSessionStatistics_SignalEnvironmentDataE
|| __TEXT.__const __ZTSN3awd7metrics51LocationMobileAssetStatistics_CarrierSettingsStatusE
|| __TEXT.__const __ZTSN3awd7metrics52LocationGPSSessionStatistics_SatelliteCountRangeDataE
|| __TEXT.__const __ZTSN3awd7metrics54LocationGnssSWRecoveryStatistics_LocationRecoveryPointE
|| __TEXT.__const __ZTSN3awd7metrics55LocationGnssSWRecoveryStatistics_LocationRecoveryStatusE
|| __TEXT.__const __ZTSN3awd7metrics57LocationGnssSWRecoveryStatistics_LocationGnssRecoveryInfoE
|| __TEXT.__const __ZTSN3awd7metrics60LocationGPSSessionStatistics_LocationGpsPersistentStatisticsE
|| __TEXT.__text __ZN3awd7metrics11MotionState10SharedCtorEv
|| __TEXT.__text __ZN3awd7metrics11MotionState10SharedDtorEv
|| __TEXT.__text __ZN3awd7metrics11MotionState16default_instanceEv
|| __TEXT.__text __ZN3awd7metrics11MotionState21CheckTypeAndMergeFromERKN20wireless_diagnostics6google8protobuf11MessageLiteE
|| __TEXT.__text __ZN3awd7metrics11MotionState21InitAsDefaultInstanceEv
|| __TEXT.__text __ZN3awd7metrics11MotionState27MergePartialFromCodedStreamEPN20wireless_diagnostics6google8protobuf2io16CodedInputStreamE
|| __TEXT.__text __ZN3awd7metrics11MotionState4SwapEPS1_
|| __TEXT.__text __ZN3awd7metrics11MotionState5ClearEv
|| __TEXT.__text __ZN3awd7metrics11MotionState8CopyFromERKS1_
|| __TEXT.__text __ZN3awd7metrics11MotionState9MergeFromERKS1_
|| __TEXT.__text __ZN3awd7metrics11MotionStateC1ERKS1_
|| __TEXT.__text __ZN3awd7metrics11MotionStateC1Ev
|| __TEXT.__text __ZN3awd7metrics11MotionStateC2ERKS1_
|| __TEXT.__text __ZN3awd7metrics11MotionStateC2Ev
|| __TEXT.__text __ZN3awd7metrics11MotionStateD0Ev
|| __TEXT.__text __ZN3awd7metrics11MotionStateD1Ev
|| __TEXT.__text __ZN3awd7metrics11MotionStateD2Ev
|| __TEXT.__text __ZN3awd7metrics13MotionTrigger10SharedCtorEv
|| __TEXT.__text __ZN3awd7metrics13MotionTrigger10SharedDtorEv
|| __TEXT.__text __ZN3awd7metrics13MotionTrigger16default_instanceEv
|| __TEXT.__text __ZN3awd7metrics13MotionTrigger21CheckTypeAndMergeFromERKN20wireless_diagnostics6google8protobuf11MessageLiteE
|| __TEXT.__text __ZN3awd7metrics13MotionTrigger21InitAsDefaultInstanceEv
|| __TEXT.__text __ZN3awd7metrics13MotionTrigger27MergePartialFromCodedStreamEPN20wireless_diagnostics6google8protobuf2io16CodedInputStreamE
|| __TEXT.__text __ZN3awd7metrics13MotionTrigger4SwapEPS1_
|| __TEXT.__text __ZN3awd7metrics13MotionTrigger5ClearEv
|| __TEXT.__text __ZN3awd7metrics13MotionTrigger8CopyFromERKS1_
|| __TEXT.__text __ZN3awd7metrics13MotionTrigger9MergeFromERKS1_
|| __TEXT.__text __ZN3awd7metrics13MotionTriggerC1ERKS1_
|| __TEXT.__text __ZN3awd7metrics13MotionTriggerC1Ev
|| __TEXT.__text __ZN3awd7metrics13MotionTriggerC2ERKS1_
|| __TEXT.__text __ZN3awd7metrics13MotionTriggerC2Ev
|| __TEXT.__text __ZN3awd7metrics13MotionTriggerD0Ev
|| __TEXT.__text __ZN3awd7metrics13MotionTriggerD1Ev
|| __TEXT.__text __ZN3awd7metrics13MotionTriggerD2Ev
|| __TEXT.__text __ZN3awd7metrics14CompassSession10SharedCtorEv
|| __TEXT.__text __ZN3awd7metrics14CompassSession10SharedDtorEv
|| __TEXT.__text __ZN3awd7metrics14CompassSession16default_instanceEv
|| __TEXT.__text __ZN3awd7metrics14CompassSession21CheckTypeAndMergeFromERKN20wireless_diagnostics6google8protobuf11MessageLiteE
|| __TEXT.__text __ZN3awd7metrics14CompassSession21InitAsDefaultInstanceEv
|| __TEXT.__text __ZN3awd7metrics14CompassSession27MergePartialFromCodedStreamEPN20wireless_diagnostics6google8protobuf2io16CodedInputStreamE
|| __TEXT.__text __ZN3awd7metrics14CompassSession4SwapEPS1_
|| __TEXT.__text __ZN3awd7metrics14CompassSession5ClearEv
|| __TEXT.__text __ZN3awd7metrics14CompassSession8CopyFromERKS1_
|| __TEXT.__text __ZN3awd7metrics14CompassSession9MergeFromERKS1_
|| __TEXT.__text __ZN3awd7metrics14CompassSessionC1ERKS1_
|| __TEXT.__text __ZN3awd7metrics14CompassSessionC1Ev
|| __TEXT.__text __ZN3awd7metrics14CompassSessionC2ERKS1_
|| __TEXT.__text __ZN3awd7metrics14CompassSessionC2Ev
|| __TEXT.__text __ZN3awd7metrics14CompassSessionD0Ev
|| __TEXT.__text __ZN3awd7metrics14CompassSessionD1Ev
|| __TEXT.__text __ZN3awd7metrics14CompassSessionD2Ev
|| __TEXT.__text __ZN3awd7metrics14MotionSOSEvent10SharedCtorEv
|| __TEXT.__text __ZN3awd7metrics14MotionSOSEvent10SharedDtorEv
|| __TEXT.__text __ZN3awd7metrics14MotionSOSEvent16default_instanceEv
|| __TEXT.__text __ZN3awd7metrics14MotionSOSEvent21CheckTypeAndMergeFromERKN20wireless_diagnostics6google8protobuf11MessageLiteE
|| __TEXT.__text __ZN3awd7metrics14MotionSOSEvent21InitAsDefaultInstanceEv
|| __TEXT.__text __ZN3awd7metrics14MotionSOSEvent27MergePartialFromCodedStreamEPN20wireless_diagnostics6google8protobuf2io16CodedInputStreamE
|| __TEXT.__text __ZN3awd7metrics14MotionSOSEvent4SwapEPS1_
|| __TEXT.__text __ZN3awd7metrics14MotionSOSEvent5ClearEv
|| __TEXT.__text __ZN3awd7metrics14MotionSOSEvent8CopyFromERKS1_
|| __TEXT.__text __ZN3awd7metrics14MotionSOSEvent9MergeFromERKS1_
|| __TEXT.__text __ZN3awd7metrics14MotionSOSEventC1ERKS1_
|| __TEXT.__text __ZN3awd7metrics14MotionSOSEventC1Ev
|| __TEXT.__text __ZN3awd7metrics14MotionSOSEventC2ERKS1_
|| __TEXT.__text __ZN3awd7metrics14MotionSOSEventC2Ev
|| __TEXT.__text __ZN3awd7metrics14MotionSOSEventD0Ev
|| __TEXT.__text __ZN3awd7metrics14MotionSOSEventD1Ev
|| __TEXT.__text __ZN3awd7metrics14MotionSOSEventD2Ev
|| __TEXT.__text __ZN3awd7metrics15LOIType_IsValidEi
|| __TEXT.__text __ZN3awd7metrics15MotionGyroDaily10SharedCtorEv
|| __TEXT.__text __ZN3awd7metrics15MotionGyroDaily10SharedDtorEv
|| __TEXT.__text __ZN3awd7metrics15MotionGyroDaily16default_instanceEv
|| __TEXT.__text __ZN3awd7metrics15MotionGyroDaily21CheckTypeAndMergeFromERKN20wireless_diagnostics6google8protobuf11MessageLiteE
|| __TEXT.__text __ZN3awd7metrics15MotionGyroDaily21InitAsDefaultInstanceEv
|| __TEXT.__text __ZN3awd7metrics15MotionGyroDaily27MergePartialFromCodedStreamEPN20wireless_diagnostics6google8protobuf2io16CodedInputStreamE
|| __TEXT.__text __ZN3awd7metrics15MotionGyroDaily4SwapEPS1_
|| __TEXT.__text __ZN3awd7metrics15MotionGyroDaily5ClearEv
|| __TEXT.__text __ZN3awd7metrics15MotionGyroDaily8CopyFromERKS1_
|| __TEXT.__text __ZN3awd7metrics15MotionGyroDaily9MergeFromERKS1_
|| __TEXT.__text __ZN3awd7metrics15MotionGyroDailyC1ERKS1_
|| __TEXT.__text __ZN3awd7metrics15MotionGyroDailyC1Ev
|| __TEXT.__text __ZN3awd7metrics15MotionGyroDailyC2ERKS1_
|| __TEXT.__text __ZN3awd7metrics15MotionGyroDailyC2Ev
|| __TEXT.__text __ZN3awd7metrics15MotionGyroDailyD0Ev
|| __TEXT.__text __ZN3awd7metrics15MotionGyroDailyD1Ev
|| __TEXT.__text __ZN3awd7metrics15MotionGyroDailyD2Ev
|| __TEXT.__text __ZN3awd7metrics16LocationTileFile10SharedCtorEv
|| __TEXT.__text __ZN3awd7metrics16LocationTileFile10SharedDtorEv
|| __TEXT.__text __ZN3awd7metrics16LocationTileFile16default_instanceEv
|| __TEXT.__text __ZN3awd7metrics16LocationTileFile21CheckTypeAndMergeFromERKN20wireless_diagnostics6google8protobuf11MessageLiteE
|| __TEXT.__text __ZN3awd7metrics16LocationTileFile21InitAsDefaultInstanceEv
|| __TEXT.__text __ZN3awd7metrics16LocationTileFile27MergePartialFromCodedStreamEPN20wireless_diagnostics6google8protobuf2io16CodedInputStreamE
|| __TEXT.__text __ZN3awd7metrics16LocationTileFile4SwapEPS1_
|| __TEXT.__text __ZN3awd7metrics16LocationTileFile5ClearEv
|| __TEXT.__text __ZN3awd7metrics16LocationTileFile8CopyFromERKS1_
|| __TEXT.__text __ZN3awd7metrics16LocationTileFile9MergeFromERKS1_
|| __TEXT.__text __ZN3awd7metrics16LocationTileFileC1ERKS1_
|| __TEXT.__text __ZN3awd7metrics16LocationTileFileC1Ev
|| __TEXT.__text __ZN3awd7metrics16LocationTileFileC2ERKS1_
|| __TEXT.__text __ZN3awd7metrics16LocationTileFileC2Ev
|| __TEXT.__text __ZN3awd7metrics16LocationTileFileD0Ev
|| __TEXT.__text __ZN3awd7metrics16LocationTileFileD1Ev
|| __TEXT.__text __ZN3awd7metrics16LocationTileFileD2Ev
|| __TEXT.__text __ZN3awd7metrics17LocationWifiUsage10SharedCtorEv
|| __TEXT.__text __ZN3awd7metrics17LocationWifiUsage10SharedDtorEv
|| __TEXT.__text __ZN3awd7metrics17LocationWifiUsage16default_instanceEv
|| __TEXT.__text __ZN3awd7metrics17LocationWifiUsage21CheckTypeAndMergeFromERKN20wireless_diagnostics6google8protobuf11MessageLiteE
|| __TEXT.__text __ZN3awd7metrics17LocationWifiUsage21InitAsDefaultInstanceEv
|| __TEXT.__text __ZN3awd7metrics17LocationWifiUsage27MergePartialFromCodedStreamEPN20wireless_diagnostics6google8protobuf2io16CodedInputStreamE
|| __TEXT.__text __ZN3awd7metrics17LocationWifiUsage4SwapEPS1_
|| __TEXT.__text __ZN3awd7metrics17LocationWifiUsage5ClearEv
|| __TEXT.__text __ZN3awd7metrics17LocationWifiUsage8CopyFromERKS1_
|| __TEXT.__text __ZN3awd7metrics17LocationWifiUsage9MergeFromERKS1_
|| __TEXT.__text __ZN3awd7metrics17LocationWifiUsageC1ERKS1_
|| __TEXT.__text __ZN3awd7metrics17LocationWifiUsageC1Ev
|| __TEXT.__text __ZN3awd7metrics17LocationWifiUsageC2ERKS1_
|| __TEXT.__text __ZN3awd7metrics17LocationWifiUsageC2Ev
|| __TEXT.__text __ZN3awd7metrics17LocationWifiUsageD0Ev
|| __TEXT.__text __ZN3awd7metrics17LocationWifiUsageD1Ev
|| __TEXT.__text __ZN3awd7metrics17LocationWifiUsageD2Ev
|| __TEXT.__text __ZN3awd7metrics17MotionGyroMiniCal10SharedCtorEv
|| __TEXT.__text __ZN3awd7metrics17MotionGyroMiniCal10SharedDtorEv
|| __TEXT.__text __ZN3awd7metrics17MotionGyroMiniCal16default_instanceEv
|| __TEXT.__text __ZN3awd7metrics17MotionGyroMiniCal21CheckTypeAndMergeFromERKN20wireless_diagnostics6google8protobuf11MessageLiteE
|| __TEXT.__text __ZN3awd7metrics17MotionGyroMiniCal21InitAsDefaultInstanceEv
|| __TEXT.__text __ZN3awd7metrics17MotionGyroMiniCal27MergePartialFromCodedStreamEPN20wireless_diagnostics6google8protobuf2io16CodedInputStreamE
|| __TEXT.__text __ZN3awd7metrics17MotionGyroMiniCal4SwapEPS1_
|| __TEXT.__text __ZN3awd7metrics17MotionGyroMiniCal5ClearEv
|| __TEXT.__text __ZN3awd7metrics17MotionGyroMiniCal8CopyFromERKS1_
|| __TEXT.__text __ZN3awd7metrics17MotionGyroMiniCal9MergeFromERKS1_
|| __TEXT.__text __ZN3awd7metrics17MotionGyroMiniCalC1ERKS1_
|| __TEXT.__text __ZN3awd7metrics17MotionGyroMiniCalC1Ev
|| __TEXT.__text __ZN3awd7metrics17MotionGyroMiniCalC2ERKS1_
|| __TEXT.__text __ZN3awd7metrics17MotionGyroMiniCalC2Ev
|| __TEXT.__text __ZN3awd7metrics17MotionGyroMiniCalD0Ev
|| __TEXT.__text __ZN3awd7metrics17MotionGyroMiniCalD1Ev
|| __TEXT.__text __ZN3awd7metrics17MotionGyroMiniCalD2Ev
|| __TEXT.__text __ZN3awd7metrics18LocationSessionDay10SharedCtorEv
|| __TEXT.__text __ZN3awd7metrics18LocationSessionDay10SharedDtorEv
|| __TEXT.__text __ZN3awd7metrics18LocationSessionDay16default_instanceEv
|| __TEXT.__text __ZN3awd7metrics18LocationSessionDay21CheckTypeAndMergeFromERKN20wireless_diagnostics6google8protobuf11MessageLiteE
|| __TEXT.__text __ZN3awd7metrics18LocationSessionDay21InitAsDefaultInstanceEv
|| __TEXT.__text __ZN3awd7metrics18LocationSessionDay27MergePartialFromCodedStreamEPN20wireless_diagnostics6google8protobuf2io16CodedInputStreamE
|| __TEXT.__text __ZN3awd7metrics18LocationSessionDay4SwapEPS1_
|| __TEXT.__text __ZN3awd7metrics18LocationSessionDay5ClearEv
|| __TEXT.__text __ZN3awd7metrics18LocationSessionDay8CopyFromERKS1_
|| __TEXT.__text __ZN3awd7metrics18LocationSessionDay9MergeFromERKS1_
|| __TEXT.__text __ZN3awd7metrics18LocationSessionDayC1ERKS1_
|| __TEXT.__text __ZN3awd7metrics18LocationSessionDayC1Ev
|| __TEXT.__text __ZN3awd7metrics18LocationSessionDayC2ERKS1_
|| __TEXT.__text __ZN3awd7metrics18LocationSessionDayC2Ev
|| __TEXT.__text __ZN3awd7metrics18LocationSessionDayD0Ev
|| __TEXT.__text __ZN3awd7metrics18LocationSessionDayD1Ev
|| __TEXT.__text __ZN3awd7metrics18LocationSessionDayD2Ev
|| __TEXT.__text __ZN3awd7metrics18LocationTilesUsage10SharedCtorEv
|| __TEXT.__text __ZN3awd7metrics18LocationTilesUsage10SharedDtorEv
|| __TEXT.__text __ZN3awd7metrics18LocationTilesUsage16default_instanceEv
|| __TEXT.__text __ZN3awd7metrics18LocationTilesUsage21CheckTypeAndMergeFromERKN20wireless_diagnostics6google8protobuf11MessageLiteE
|| __TEXT.__text __ZN3awd7metrics18LocationTilesUsage21InitAsDefaultInstanceEv
|| __TEXT.__text __ZN3awd7metrics18LocationTilesUsage27MergePartialFromCodedStreamEPN20wireless_diagnostics6google8protobuf2io16CodedInputStreamE
|| __TEXT.__text __ZN3awd7metrics18LocationTilesUsage4SwapEPS1_
|| __TEXT.__text __ZN3awd7metrics18LocationTilesUsage5ClearEv
|| __TEXT.__text __ZN3awd7metrics18LocationTilesUsage8CopyFromERKS1_
|| __TEXT.__text __ZN3awd7metrics18LocationTilesUsage9MergeFromERKS1_
|| __TEXT.__text __ZN3awd7metrics18LocationTilesUsageC1ERKS1_
|| __TEXT.__text __ZN3awd7metrics18LocationTilesUsageC1Ev
|| __TEXT.__text __ZN3awd7metrics18LocationTilesUsageC2ERKS1_
|| __TEXT.__text __ZN3awd7metrics18LocationTilesUsageC2Ev
|| __TEXT.__text __ZN3awd7metrics18LocationTilesUsageD0Ev
|| __TEXT.__text __ZN3awd7metrics18LocationTilesUsageD1Ev
|| __TEXT.__text __ZN3awd7metrics18LocationTilesUsageD2Ev
|| __TEXT.__text __ZN3awd7metrics18MotionFitnessDaily10SharedCtorEv
|| __TEXT.__text __ZN3awd7metrics18MotionFitnessDaily10SharedDtorEv
|| __TEXT.__text __ZN3awd7metrics18MotionFitnessDaily16default_instanceEv
|| __TEXT.__text __ZN3awd7metrics18MotionFitnessDaily21CheckTypeAndMergeFromERKN20wireless_diagnostics6google8protobuf11MessageLiteE
|| __TEXT.__text __ZN3awd7metrics18MotionFitnessDaily21InitAsDefaultInstanceEv
|| __TEXT.__text __ZN3awd7metrics18MotionFitnessDaily27MergePartialFromCodedStreamEPN20wireless_diagnostics6google8protobuf2io16CodedInputStreamE
|| __TEXT.__text __ZN3awd7metrics18MotionFitnessDaily4SwapEPS1_
|| __TEXT.__text __ZN3awd7metrics18MotionFitnessDaily5ClearEv
|| __TEXT.__text __ZN3awd7metrics18MotionFitnessDaily8CopyFromERKS1_
|| __TEXT.__text __ZN3awd7metrics18MotionFitnessDaily9MergeFromERKS1_
|| __TEXT.__text __ZN3awd7metrics18MotionFitnessDailyC1ERKS1_
|| __TEXT.__text __ZN3awd7metrics18MotionFitnessDailyC1Ev
|| __TEXT.__text __ZN3awd7metrics18MotionFitnessDailyC2ERKS1_
|| __TEXT.__text __ZN3awd7metrics18MotionFitnessDailyC2Ev
|| __TEXT.__text __ZN3awd7metrics18MotionFitnessDailyD0Ev
|| __TEXT.__text __ZN3awd7metrics18MotionFitnessDailyD1Ev
|| __TEXT.__text __ZN3awd7metrics18MotionFitnessDailyD2Ev
|| __TEXT.__text __ZN3awd7metrics19LocationMapMatching10SharedCtorEv
|| __TEXT.__text __ZN3awd7metrics19LocationMapMatching10SharedDtorEv
|| __TEXT.__text __ZN3awd7metrics19LocationMapMatching16default_instanceEv
|| __TEXT.__text __ZN3awd7metrics19LocationMapMatching21CheckTypeAndMergeFromERKN20wireless_diagnostics6google8protobuf11MessageLiteE
|| __TEXT.__text __ZN3awd7metrics19LocationMapMatching21InitAsDefaultInstanceEv
|| __TEXT.__text __ZN3awd7metrics19LocationMapMatching27MergePartialFromCodedStreamEPN20wireless_diagnostics6google8protobuf2io16CodedInputStreamE
|| __TEXT.__text __ZN3awd7metrics19LocationMapMatching4SwapEPS1_
|| __TEXT.__text __ZN3awd7metrics19LocationMapMatching5ClearEv
|| __TEXT.__text __ZN3awd7metrics19LocationMapMatching8CopyFromERKS1_
|| __TEXT.__text __ZN3awd7metrics19LocationMapMatching9MergeFromERKS1_
|| __TEXT.__text __ZN3awd7metrics19LocationMapMatchingC1ERKS1_
|| __TEXT.__text __ZN3awd7metrics19LocationMapMatchingC1Ev
|| __TEXT.__text __ZN3awd7metrics19LocationMapMatchingC2ERKS1_
|| __TEXT.__text __ZN3awd7metrics19LocationMapMatchingC2Ev
|| __TEXT.__text __ZN3awd7metrics19LocationMapMatchingD0Ev
|| __TEXT.__text __ZN3awd7metrics19LocationMapMatchingD1Ev
|| __TEXT.__text __ZN3awd7metrics19LocationMapMatchingD2Ev
|| __TEXT.__text __ZN3awd7metrics19MotionDropDetection10SharedCtorEv
|| __TEXT.__text __ZN3awd7metrics19MotionDropDetection10SharedDtorEv
|| __TEXT.__text __ZN3awd7metrics19MotionDropDetection16default_instanceEv
|| __TEXT.__text __ZN3awd7metrics19MotionDropDetection21CheckTypeAndMergeFromERKN20wireless_diagnostics6google8protobuf11MessageLiteE
|| __TEXT.__text __ZN3awd7metrics19MotionDropDetection21InitAsDefaultInstanceEv
|| __TEXT.__text __ZN3awd7metrics19MotionDropDetection27MergePartialFromCodedStreamEPN20wireless_diagnostics6google8protobuf2io16CodedInputStreamE
|| __TEXT.__text __ZN3awd7metrics19MotionDropDetection4SwapEPS1_
|| __TEXT.__text __ZN3awd7metrics19MotionDropDetection5ClearEv
|| __TEXT.__text __ZN3awd7metrics19MotionDropDetection8CopyFromERKS1_
|| __TEXT.__text __ZN3awd7metrics19MotionDropDetection9MergeFromERKS1_
|| __TEXT.__text __ZN3awd7metrics19MotionDropDetectionC1ERKS1_
|| __TEXT.__text __ZN3awd7metrics19MotionDropDetectionC1Ev
|| __TEXT.__text __ZN3awd7metrics19MotionDropDetectionC2ERKS1_
|| __TEXT.__text __ZN3awd7metrics19MotionDropDetectionC2Ev
|| __TEXT.__text __ZN3awd7metrics19MotionDropDetectionD0Ev
|| __TEXT.__text __ZN3awd7metrics19MotionDropDetectionD1Ev
|| __TEXT.__text __ZN3awd7metrics19MotionDropDetectionD2Ev
|| __TEXT.__text __ZN3awd7metrics19MotionFitnessAllDay10SharedCtorEv
|| __TEXT.__text __ZN3awd7metrics19MotionFitnessAllDay10SharedDtorEv
|| __TEXT.__text __ZN3awd7metrics19MotionFitnessAllDay16default_instanceEv
|| __TEXT.__text __ZN3awd7metrics19MotionFitnessAllDay21CheckTypeAndMergeFromERKN20wireless_diagnostics6google8protobuf11MessageLiteE
|| __TEXT.__text __ZN3awd7metrics19MotionFitnessAllDay21InitAsDefaultInstanceEv
|| __TEXT.__text __ZN3awd7metrics19MotionFitnessAllDay27MergePartialFromCodedStreamEPN20wireless_diagnostics6google8protobuf2io16CodedInputStreamE
|| __TEXT.__text __ZN3awd7metrics19MotionFitnessAllDay4SwapEPS1_
|| __TEXT.__text __ZN3awd7metrics19MotionFitnessAllDay5ClearEv
|| __TEXT.__text __ZN3awd7metrics19MotionFitnessAllDay8CopyFromERKS1_
|| __TEXT.__text __ZN3awd7metrics19MotionFitnessAllDay9MergeFromERKS1_
|| __TEXT.__text __ZN3awd7metrics19MotionFitnessAllDayC1ERKS1_
|| __TEXT.__text __ZN3awd7metrics19MotionFitnessAllDayC1Ev
|| __TEXT.__text __ZN3awd7metrics19MotionFitnessAllDayC2ERKS1_
|| __TEXT.__text __ZN3awd7metrics19MotionFitnessAllDayC2Ev
|| __TEXT.__text __ZN3awd7metrics19MotionFitnessAllDayD0Ev
|| __TEXT.__text __ZN3awd7metrics19MotionFitnessAllDayD1Ev
|| __TEXT.__text __ZN3awd7metrics19MotionFitnessAllDayD2Ev
|| __TEXT.__text __ZN3awd7metrics20LocationBatteryState10SharedCtorEv
|| __TEXT.__text __ZN3awd7metrics20LocationBatteryState10SharedDtorEv
|| __TEXT.__text __ZN3awd7metrics20LocationBatteryState16default_instanceEv
|| __TEXT.__text __ZN3awd7metrics20LocationBatteryState21CheckTypeAndMergeFromERKN20wireless_diagnostics6google8protobuf11MessageLiteE
|| __TEXT.__text __ZN3awd7metrics20LocationBatteryState21InitAsDefaultInstanceEv
|| __TEXT.__text __ZN3awd7metrics20LocationBatteryState27MergePartialFromCodedStreamEPN20wireless_diagnostics6google8protobuf2io16CodedInputStreamE
|| __TEXT.__text __ZN3awd7metrics20LocationBatteryState4SwapEPS1_
|| __TEXT.__text __ZN3awd7metrics20LocationBatteryState5ClearEv
|| __TEXT.__text __ZN3awd7metrics20LocationBatteryState8CopyFromERKS1_
|| __TEXT.__text __ZN3awd7metrics20LocationBatteryState9MergeFromERKS1_
|| __TEXT.__text __ZN3awd7metrics20LocationBatteryStateC1ERKS1_
|| __TEXT.__text __ZN3awd7metrics20LocationBatteryStateC1Ev
|| __TEXT.__text __ZN3awd7metrics20LocationBatteryStateC2ERKS1_
|| __TEXT.__text __ZN3awd7metrics20LocationBatteryStateC2Ev
|| __TEXT.__text __ZN3awd7metrics20LocationBatteryStateD0Ev
|| __TEXT.__text __ZN3awd7metrics20LocationBatteryStateD1Ev
|| __TEXT.__text __ZN3awd7metrics20LocationBatteryStateD2Ev
|| __TEXT.__text __ZN3awd7metrics20LocationWifiTileSync10SharedCtorEv
|| __TEXT.__text __ZN3awd7metrics20LocationWifiTileSync10SharedDtorEv
|| __TEXT.__text __ZN3awd7metrics20LocationWifiTileSync16default_instanceEv
|| __TEXT.__text __ZN3awd7metrics20LocationWifiTileSync21CheckTypeAndMergeFromERKN20wireless_diagnostics6google8protobuf11MessageLiteE
|| __TEXT.__text __ZN3awd7metrics20LocationWifiTileSync21InitAsDefaultInstanceEv
|| __TEXT.__text __ZN3awd7metrics20LocationWifiTileSync27MergePartialFromCodedStreamEPN20wireless_diagnostics6google8protobuf2io16CodedInputStreamE
|| __TEXT.__text __ZN3awd7metrics20LocationWifiTileSync4SwapEPS1_
|| __TEXT.__text __ZN3awd7metrics20LocationWifiTileSync5ClearEv
|| __TEXT.__text __ZN3awd7metrics20LocationWifiTileSync8CopyFromERKS1_
|| __TEXT.__text __ZN3awd7metrics20LocationWifiTileSync9MergeFromERKS1_
|| __TEXT.__text __ZN3awd7metrics20LocationWifiTileSyncC1ERKS1_
|| __TEXT.__text __ZN3awd7metrics20LocationWifiTileSyncC1Ev
|| __TEXT.__text __ZN3awd7metrics20LocationWifiTileSyncC2ERKS1_
|| __TEXT.__text __ZN3awd7metrics20LocationWifiTileSyncC2Ev
|| __TEXT.__text __ZN3awd7metrics20LocationWifiTileSyncD0Ev
|| __TEXT.__text __ZN3awd7metrics20LocationWifiTileSyncD1Ev
|| __TEXT.__text __ZN3awd7metrics20LocationWifiTileSyncD2Ev
|| __TEXT.__text __ZN3awd7metrics20MotionFitnessSession10SharedCtorEv
|| __TEXT.__text __ZN3awd7metrics20MotionFitnessSession10SharedDtorEv
|| __TEXT.__text __ZN3awd7metrics20MotionFitnessSession16default_instanceEv
|| __TEXT.__text __ZN3awd7metrics20MotionFitnessSession21CheckTypeAndMergeFromERKN20wireless_diagnostics6google8protobuf11MessageLiteE
|| __TEXT.__text __ZN3awd7metrics20MotionFitnessSession21InitAsDefaultInstanceEv
|| __TEXT.__text __ZN3awd7metrics20MotionFitnessSession27MergePartialFromCodedStreamEPN20wireless_diagnostics6google8protobuf2io16CodedInputStreamE
|| __TEXT.__text __ZN3awd7metrics20MotionFitnessSession4SwapEPS1_
|| __TEXT.__text __ZN3awd7metrics20MotionFitnessSession5ClearEv
|| __TEXT.__text __ZN3awd7metrics20MotionFitnessSession8CopyFromERKS1_
|| __TEXT.__text __ZN3awd7metrics20MotionFitnessSession9MergeFromERKS1_
|| __TEXT.__text __ZN3awd7metrics20MotionFitnessSessionC1ERKS1_
|| __TEXT.__text __ZN3awd7metrics20MotionFitnessSessionC1Ev
|| __TEXT.__text __ZN3awd7metrics20MotionFitnessSessionC2ERKS1_
|| __TEXT.__text __ZN3awd7metrics20MotionFitnessSessionC2Ev
|| __TEXT.__text __ZN3awd7metrics20MotionFitnessSessionD0Ev
|| __TEXT.__text __ZN3awd7metrics20MotionFitnessSessionD1Ev
|| __TEXT.__text __ZN3awd7metrics20MotionFitnessSessionD2Ev
|| __TEXT.__text __ZN3awd7metrics20MotionNoGPSRunAllDay10SharedCtorEv
|| __TEXT.__text __ZN3awd7metrics20MotionNoGPSRunAllDay10SharedDtorEv
|| __TEXT.__text __ZN3awd7metrics20MotionNoGPSRunAllDay16default_instanceEv
|| __TEXT.__text __ZN3awd7metrics20MotionNoGPSRunAllDay21CheckTypeAndMergeFromERKN20wireless_diagnostics6google8protobuf11MessageLiteE
|| __TEXT.__text __ZN3awd7metrics20MotionNoGPSRunAllDay21InitAsDefaultInstanceEv
|| __TEXT.__text __ZN3awd7metrics20MotionNoGPSRunAllDay27MergePartialFromCodedStreamEPN20wireless_diagnostics6google8protobuf2io16CodedInputStreamE
|| __TEXT.__text __ZN3awd7metrics20MotionNoGPSRunAllDay4SwapEPS1_
|| __TEXT.__text __ZN3awd7metrics20MotionNoGPSRunAllDay5ClearEv
|| __TEXT.__text __ZN3awd7metrics20MotionNoGPSRunAllDay8CopyFromERKS1_
|| __TEXT.__text __ZN3awd7metrics20MotionNoGPSRunAllDay9MergeFromERKS1_
|| __TEXT.__text __ZN3awd7metrics20MotionNoGPSRunAllDayC1ERKS1_
|| __TEXT.__text __ZN3awd7metrics20MotionNoGPSRunAllDayC1Ev
|| __TEXT.__text __ZN3awd7metrics20MotionNoGPSRunAllDayC2ERKS1_
|| __TEXT.__text __ZN3awd7metrics20MotionNoGPSRunAllDayC2Ev
|| __TEXT.__text __ZN3awd7metrics20MotionNoGPSRunAllDayD0Ev
|| __TEXT.__text __ZN3awd7metrics20MotionNoGPSRunAllDayD1Ev
|| __TEXT.__text __ZN3awd7metrics20MotionNoGPSRunAllDayD2Ev
|| __TEXT.__text __ZN3awd7metrics21LocationALSCacheUsage10SharedCtorEv
|| __TEXT.__text __ZN3awd7metrics21LocationALSCacheUsage10SharedDtorEv
|| __TEXT.__text __ZN3awd7metrics21LocationALSCacheUsage16default_instanceEv
|| __TEXT.__text __ZN3awd7metrics21LocationALSCacheUsage21CheckTypeAndMergeFromERKN20wireless_diagnostics6google8protobuf11MessageLiteE
|| __TEXT.__text __ZN3awd7metrics21LocationALSCacheUsage21InitAsDefaultInstanceEv
|| __TEXT.__text __ZN3awd7metrics21LocationALSCacheUsage27MergePartialFromCodedStreamEPN20wireless_diagnostics6google8protobuf2io16CodedInputStreamE
|| __TEXT.__text __ZN3awd7metrics21LocationALSCacheUsage4SwapEPS1_
|| __TEXT.__text __ZN3awd7metrics21LocationALSCacheUsage5ClearEv
|| __TEXT.__text __ZN3awd7metrics21LocationALSCacheUsage8CopyFromERKS1_
|| __TEXT.__text __ZN3awd7metrics21LocationALSCacheUsage9MergeFromERKS1_
|| __TEXT.__text __ZN3awd7metrics21LocationALSCacheUsageC1ERKS1_
|| __TEXT.__text __ZN3awd7metrics21LocationALSCacheUsageC1Ev
|| __TEXT.__text __ZN3awd7metrics21LocationALSCacheUsageC2ERKS1_
|| __TEXT.__text __ZN3awd7metrics21LocationALSCacheUsageC2Ev
|| __TEXT.__text __ZN3awd7metrics21LocationALSCacheUsageD0Ev
|| __TEXT.__text __ZN3awd7metrics21LocationALSCacheUsageD1Ev
|| __TEXT.__text __ZN3awd7metrics21LocationALSCacheUsageD2Ev
|| __TEXT.__text __ZN3awd7metrics21LocationCellTileUsage10SharedCtorEv
|| __TEXT.__text __ZN3awd7metrics21LocationCellTileUsage10SharedDtorEv
|| __TEXT.__text __ZN3awd7metrics21LocationCellTileUsage16default_instanceEv
|| __TEXT.__text __ZN3awd7metrics21LocationCellTileUsage21CheckTypeAndMergeFromERKN20wireless_diagnostics6google8protobuf11MessageLiteE
|| __TEXT.__text __ZN3awd7metrics21LocationCellTileUsage21InitAsDefaultInstanceEv
|| __TEXT.__text __ZN3awd7metrics21LocationCellTileUsage27MergePartialFromCodedStreamEPN20wireless_diagnostics6google8protobuf2io16CodedInputStreamE
|| __TEXT.__text __ZN3awd7metrics21LocationCellTileUsage4SwapEPS1_
|| __TEXT.__text __ZN3awd7metrics21LocationCellTileUsage5ClearEv
|| __TEXT.__text __ZN3awd7metrics21LocationCellTileUsage8CopyFromERKS1_
|| __TEXT.__text __ZN3awd7metrics21LocationCellTileUsage9MergeFromERKS1_
|| __TEXT.__text __ZN3awd7metrics21LocationCellTileUsageC1ERKS1_
|| __TEXT.__text __ZN3awd7metrics21LocationCellTileUsageC1Ev
|| __TEXT.__text __ZN3awd7metrics21LocationCellTileUsageC2ERKS1_
|| __TEXT.__text __ZN3awd7metrics21LocationCellTileUsageC2Ev
|| __TEXT.__text __ZN3awd7metrics21LocationCellTileUsageD0Ev
|| __TEXT.__text __ZN3awd7metrics21LocationCellTileUsageD1Ev
|| __TEXT.__text __ZN3awd7metrics21LocationCellTileUsageD2Ev
|| __TEXT.__text __ZN3awd7metrics21LocationServicesState10SharedCtorEv
|| __TEXT.__text __ZN3awd7metrics21LocationServicesState10SharedDtorEv
|| __TEXT.__text __ZN3awd7metrics21LocationServicesState16default_instanceEv
|| __TEXT.__text __ZN3awd7metrics21LocationServicesState21CheckTypeAndMergeFromERKN20wireless_diagnostics6google8protobuf11MessageLiteE
|| __TEXT.__text __ZN3awd7metrics21LocationServicesState21InitAsDefaultInstanceEv
|| __TEXT.__text __ZN3awd7metrics21LocationServicesState27MergePartialFromCodedStreamEPN20wireless_diagnostics6google8protobuf2io16CodedInputStreamE
|| __TEXT.__text __ZN3awd7metrics21LocationServicesState4SwapEPS1_
|| __TEXT.__text __ZN3awd7metrics21LocationServicesState5ClearEv
|| __TEXT.__text __ZN3awd7metrics21LocationServicesState8CopyFromERKS1_
|| __TEXT.__text __ZN3awd7metrics21LocationServicesState9MergeFromERKS1_
|| __TEXT.__text __ZN3awd7metrics21LocationServicesStateC1ERKS1_
|| __TEXT.__text __ZN3awd7metrics21LocationServicesStateC1Ev
|| __TEXT.__text __ZN3awd7metrics21LocationServicesStateC2ERKS1_
|| __TEXT.__text __ZN3awd7metrics21LocationServicesStateC2Ev
|| __TEXT.__text __ZN3awd7metrics21LocationServicesStateD0Ev
|| __TEXT.__text __ZN3awd7metrics21LocationServicesStateD1Ev
|| __TEXT.__text __ZN3awd7metrics21LocationServicesStateD2Ev
|| __TEXT.__text __ZN3awd7metrics21LocationTileFileUsage10SharedCtorEv
|| __TEXT.__text __ZN3awd7metrics21LocationTileFileUsage10SharedDtorEv
|| __TEXT.__text __ZN3awd7metrics21LocationTileFileUsage16default_instanceEv
|| __TEXT.__text __ZN3awd7metrics21LocationTileFileUsage21CheckTypeAndMergeFromERKN20wireless_diagnostics6google8protobuf11MessageLiteE
|| __TEXT.__text __ZN3awd7metrics21LocationTileFileUsage21InitAsDefaultInstanceEv
|| __TEXT.__text __ZN3awd7metrics21LocationTileFileUsage27MergePartialFromCodedStreamEPN20wireless_diagnostics6google8protobuf2io16CodedInputStreamE
|| __TEXT.__text __ZN3awd7metrics21LocationTileFileUsage4SwapEPS1_
|| __TEXT.__text __ZN3awd7metrics21LocationTileFileUsage5ClearEv
|| __TEXT.__text __ZN3awd7metrics21LocationTileFileUsage8CopyFromERKS1_
|| __TEXT.__text __ZN3awd7metrics21LocationTileFileUsage9MergeFromERKS1_
|| __TEXT.__text __ZN3awd7metrics21LocationTileFileUsageC1ERKS1_
|| __TEXT.__text __ZN3awd7metrics21LocationTileFileUsageC1Ev
|| __TEXT.__text __ZN3awd7metrics21LocationTileFileUsageC2ERKS1_
|| __TEXT.__text __ZN3awd7metrics21LocationTileFileUsageC2Ev
|| __TEXT.__text __ZN3awd7metrics21LocationTileFileUsageD0Ev
|| __TEXT.__text __ZN3awd7metrics21LocationTileFileUsageD1Ev
|| __TEXT.__text __ZN3awd7metrics21LocationTileFileUsageD2Ev
|| __TEXT.__text __ZN3awd7metrics21LocationUpdateSession10SharedCtorEv
|| __TEXT.__text __ZN3awd7metrics21LocationUpdateSession10SharedDtorEv
|| __TEXT.__text __ZN3awd7metrics21LocationUpdateSession16default_instanceEv
|| __TEXT.__text __ZN3awd7metrics21LocationUpdateSession21CheckTypeAndMergeFromERKN20wireless_diagnostics6google8protobuf11MessageLiteE
|| __TEXT.__text __ZN3awd7metrics21LocationUpdateSession21InitAsDefaultInstanceEv
|| __TEXT.__text __ZN3awd7metrics21LocationUpdateSession27MergePartialFromCodedStreamEPN20wireless_diagnostics6google8protobuf2io16CodedInputStreamE
|| __TEXT.__text __ZN3awd7metrics21LocationUpdateSession4SwapEPS1_
|| __TEXT.__text __ZN3awd7metrics21LocationUpdateSession5ClearEv
|| __TEXT.__text __ZN3awd7metrics21LocationUpdateSession8CopyFromERKS1_
|| __TEXT.__text __ZN3awd7metrics21LocationUpdateSession9MergeFromERKS1_
|| __TEXT.__text __ZN3awd7metrics21LocationUpdateSessionC1ERKS1_
|| __TEXT.__text __ZN3awd7metrics21LocationUpdateSessionC1Ev
|| __TEXT.__text __ZN3awd7metrics21LocationUpdateSessionC2ERKS1_
|| __TEXT.__text __ZN3awd7metrics21LocationUpdateSessionC2Ev
|| __TEXT.__text __ZN3awd7metrics21LocationUpdateSessionD0Ev
|| __TEXT.__text __ZN3awd7metrics21LocationUpdateSessionD1Ev
|| __TEXT.__text __ZN3awd7metrics21LocationUpdateSessionD2Ev
|| __TEXT.__text __ZN3awd7metrics21MotionElevationAllDay10SharedCtorEv
|| __TEXT.__text __ZN3awd7metrics21MotionElevationAllDay10SharedDtorEv
|| __TEXT.__text __ZN3awd7metrics21MotionElevationAllDay16default_instanceEv
|| __TEXT.__text __ZN3awd7metrics21MotionElevationAllDay21CheckTypeAndMergeFromERKN20wireless_diagnostics6google8protobuf11MessageLiteE
|| __TEXT.__text __ZN3awd7metrics21MotionElevationAllDay21InitAsDefaultInstanceEv
|| __TEXT.__text __ZN3awd7metrics21MotionElevationAllDay27MergePartialFromCodedStreamEPN20wireless_diagnostics6google8protobuf2io16CodedInputStreamE
|| __TEXT.__text __ZN3awd7metrics21MotionElevationAllDay4SwapEPS1_
|| __TEXT.__text __ZN3awd7metrics21MotionElevationAllDay5ClearEv
|| __TEXT.__text __ZN3awd7metrics21MotionElevationAllDay8CopyFromERKS1_
|| __TEXT.__text __ZN3awd7metrics21MotionElevationAllDay9MergeFromERKS1_
|| __TEXT.__text __ZN3awd7metrics21MotionElevationAllDayC1ERKS1_
|| __TEXT.__text __ZN3awd7metrics21MotionElevationAllDayC1Ev
|| __TEXT.__text __ZN3awd7metrics21MotionElevationAllDayC2ERKS1_
|| __TEXT.__text __ZN3awd7metrics21MotionElevationAllDayC2Ev
|| __TEXT.__text __ZN3awd7metrics21MotionElevationAllDayD0Ev
|| __TEXT.__text __ZN3awd7metrics21MotionElevationAllDayD1Ev
|| __TEXT.__text __ZN3awd7metrics21MotionElevationAllDayD2Ev
|| __TEXT.__text __ZN3awd7metrics22LocationMonitorSession10SharedCtorEv
|| __TEXT.__text __ZN3awd7metrics22LocationMonitorSession10SharedDtorEv
|| __TEXT.__text __ZN3awd7metrics22LocationMonitorSession16default_instanceEv
|| __TEXT.__text __ZN3awd7metrics22LocationMonitorSession21CheckTypeAndMergeFromERKN20wireless_diagnostics6google8protobuf11MessageLiteE
|| __TEXT.__text __ZN3awd7metrics22LocationMonitorSession21InitAsDefaultInstanceEv
|| __TEXT.__text __ZN3awd7metrics22LocationMonitorSession27MergePartialFromCodedStreamEPN20wireless_diagnostics6google8protobuf2io16CodedInputStreamE
|| __TEXT.__text __ZN3awd7metrics22LocationMonitorSession4SwapEPS1_
|| __TEXT.__text __ZN3awd7metrics22LocationMonitorSession5ClearEv
|| __TEXT.__text __ZN3awd7metrics22LocationMonitorSession8CopyFromERKS1_
|| __TEXT.__text __ZN3awd7metrics22LocationMonitorSession9MergeFromERKS1_
|| __TEXT.__text __ZN3awd7metrics22LocationMonitorSessionC1ERKS1_
|| __TEXT.__text __ZN3awd7metrics22LocationMonitorSessionC1Ev
|| __TEXT.__text __ZN3awd7metrics22LocationMonitorSessionC2ERKS1_
|| __TEXT.__text __ZN3awd7metrics22LocationMonitorSessionC2Ev
|| __TEXT.__text __ZN3awd7metrics22LocationMonitorSessionD0Ev
|| __TEXT.__text __ZN3awd7metrics22LocationMonitorSessionD1Ev
|| __TEXT.__text __ZN3awd7metrics22LocationMonitorSessionD2Ev
|| __TEXT.__text __ZN3awd7metrics22LocationMonitorTrigger10SharedCtorEv
|| __TEXT.__text __ZN3awd7metrics22LocationMonitorTrigger10SharedDtorEv
|| __TEXT.__text __ZN3awd7metrics22LocationMonitorTrigger16default_instanceEv
|| __TEXT.__text __ZN3awd7metrics22LocationMonitorTrigger21CheckTypeAndMergeFromERKN20wireless_diagnostics6google8protobuf11MessageLiteE
|| __TEXT.__text __ZN3awd7metrics22LocationMonitorTrigger21InitAsDefaultInstanceEv
|| __TEXT.__text __ZN3awd7metrics22LocationMonitorTrigger27MergePartialFromCodedStreamEPN20wireless_diagnostics6google8protobuf2io16CodedInputStreamE
|| __TEXT.__text __ZN3awd7metrics22LocationMonitorTrigger4SwapEPS1_
|| __TEXT.__text __ZN3awd7metrics22LocationMonitorTrigger5ClearEv
|| __TEXT.__text __ZN3awd7metrics22LocationMonitorTrigger8CopyFromERKS1_
|| __TEXT.__text __ZN3awd7metrics22LocationMonitorTrigger9MergeFromERKS1_
|| __TEXT.__text __ZN3awd7metrics22LocationMonitorTriggerC1ERKS1_
|| __TEXT.__text __ZN3awd7metrics22LocationMonitorTriggerC1Ev
|| __TEXT.__text __ZN3awd7metrics22LocationMonitorTriggerC2ERKS1_
|| __TEXT.__text __ZN3awd7metrics22LocationMonitorTriggerC2Ev
|| __TEXT.__text __ZN3awd7metrics22LocationMonitorTriggerD0Ev
|| __TEXT.__text __ZN3awd7metrics22LocationMonitorTriggerD1Ev
|| __TEXT.__text __ZN3awd7metrics22LocationMonitorTriggerD2Ev
|| __TEXT.__text __ZN3awd7metrics22LocationNetworkQueries10SharedCtorEv
|| __TEXT.__text __ZN3awd7metrics22LocationNetworkQueries10SharedDtorEv
|| __TEXT.__text __ZN3awd7metrics22LocationNetworkQueries16default_instanceEv
|| __TEXT.__text __ZN3awd7metrics22LocationNetworkQueries21CheckTypeAndMergeFromERKN20wireless_diagnostics6google8protobuf11MessageLiteE
|| __TEXT.__text __ZN3awd7metrics22LocationNetworkQueries21InitAsDefaultInstanceEv
|| __TEXT.__text __ZN3awd7metrics22LocationNetworkQueries27MergePartialFromCodedStreamEPN20wireless_diagnostics6google8protobuf2io16CodedInputStreamE
|| __TEXT.__text __ZN3awd7metrics22LocationNetworkQueries4SwapEPS1_
|| __TEXT.__text __ZN3awd7metrics22LocationNetworkQueries5ClearEv
|| __TEXT.__text __ZN3awd7metrics22LocationNetworkQueries8CopyFromERKS1_
|| __TEXT.__text __ZN3awd7metrics22LocationNetworkQueries9MergeFromERKS1_
|| __TEXT.__text __ZN3awd7metrics22LocationNetworkQueriesC1ERKS1_
|| __TEXT.__text __ZN3awd7metrics22LocationNetworkQueriesC1Ev
|| __TEXT.__text __ZN3awd7metrics22LocationNetworkQueriesC2ERKS1_
|| __TEXT.__text __ZN3awd7metrics22LocationNetworkQueriesC2Ev
|| __TEXT.__text __ZN3awd7metrics22LocationNetworkQueriesD0Ev
|| __TEXT.__text __ZN3awd7metrics22LocationNetworkQueriesD1Ev
|| __TEXT.__text __ZN3awd7metrics22LocationNetworkQueriesD2Ev
|| __TEXT.__text __ZN3awd7metrics22MotionFitnessPedometer10SharedCtorEv
|| __TEXT.__text __ZN3awd7metrics22MotionFitnessPedometer10SharedDtorEv
|| __TEXT.__text __ZN3awd7metrics22MotionFitnessPedometer16default_instanceEv
|| __TEXT.__text __ZN3awd7metrics22MotionFitnessPedometer21CheckTypeAndMergeFromERKN20wireless_diagnostics6google8protobuf11MessageLiteE
|| __TEXT.__text __ZN3awd7metrics22MotionFitnessPedometer21InitAsDefaultInstanceEv
|| __TEXT.__text __ZN3awd7metrics22MotionFitnessPedometer27MergePartialFromCodedStreamEPN20wireless_diagnostics6google8protobuf2io16CodedInputStreamE
|| __TEXT.__text __ZN3awd7metrics22MotionFitnessPedometer4SwapEPS1_
|| __TEXT.__text __ZN3awd7metrics22MotionFitnessPedometer5ClearEv
|| __TEXT.__text __ZN3awd7metrics22MotionFitnessPedometer8CopyFromERKS1_
|| __TEXT.__text __ZN3awd7metrics22MotionFitnessPedometer9MergeFromERKS1_
|| __TEXT.__text __ZN3awd7metrics22MotionFitnessPedometerC1ERKS1_
|| __TEXT.__text __ZN3awd7metrics22MotionFitnessPedometerC1Ev
|| __TEXT.__text __ZN3awd7metrics22MotionFitnessPedometerC2ERKS1_
|| __TEXT.__text __ZN3awd7metrics22MotionFitnessPedometerC2Ev
|| __TEXT.__text __ZN3awd7metrics22MotionFitnessPedometerD0Ev
|| __TEXT.__text __ZN3awd7metrics22MotionFitnessPedometerD1Ev
|| __TEXT.__text __ZN3awd7metrics22MotionFitnessPedometerD2Ev
|| __TEXT.__text __ZN3awd7metrics23CompassSession_Rotation10SharedCtorEv
|| __TEXT.__text __ZN3awd7metrics23CompassSession_Rotation10SharedDtorEv
|| __TEXT.__text __ZN3awd7metrics23CompassSession_Rotation16default_instanceEv
|| __TEXT.__text __ZN3awd7metrics23CompassSession_Rotation21CheckTypeAndMergeFromERKN20wireless_diagnostics6google8protobuf11MessageLiteE
|| __TEXT.__text __ZN3awd7metrics23CompassSession_Rotation21InitAsDefaultInstanceEv
|| __TEXT.__text __ZN3awd7metrics23CompassSession_Rotation27MergePartialFromCodedStreamEPN20wireless_diagnostics6google8protobuf2io16CodedInputStreamE
|| __TEXT.__text __ZN3awd7metrics23CompassSession_Rotation4SwapEPS1_
|| __TEXT.__text __ZN3awd7metrics23CompassSession_Rotation5ClearEv
|| __TEXT.__text __ZN3awd7metrics23CompassSession_Rotation8CopyFromERKS1_
|| __TEXT.__text __ZN3awd7metrics23CompassSession_Rotation9MergeFromERKS1_
|| __TEXT.__text __ZN3awd7metrics23CompassSession_RotationC1ERKS1_
|| __TEXT.__text __ZN3awd7metrics23CompassSession_RotationC1Ev
|| __TEXT.__text __ZN3awd7metrics23CompassSession_RotationC2ERKS1_
|| __TEXT.__text __ZN3awd7metrics23CompassSession_RotationC2Ev
|| __TEXT.__text __ZN3awd7metrics23CompassSession_RotationD0Ev
|| __TEXT.__text __ZN3awd7metrics23CompassSession_RotationD1Ev
|| __TEXT.__text __ZN3awd7metrics23CompassSession_RotationD2Ev
|| __TEXT.__text __ZN3awd7metrics23LocationALSNetworkUsage10SharedCtorEv
|| __TEXT.__text __ZN3awd7metrics23LocationALSNetworkUsage10SharedDtorEv
|| __TEXT.__text __ZN3awd7metrics23LocationALSNetworkUsage16default_instanceEv
|| __TEXT.__text __ZN3awd7metrics23LocationALSNetworkUsage21CheckTypeAndMergeFromERKN20wireless_diagnostics6google8protobuf11MessageLiteE
|| __TEXT.__text __ZN3awd7metrics23LocationALSNetworkUsage21InitAsDefaultInstanceEv
|| __TEXT.__text __ZN3awd7metrics23LocationALSNetworkUsage27MergePartialFromCodedStreamEPN20wireless_diagnostics6google8protobuf2io16CodedInputStreamE
|| __TEXT.__text __ZN3awd7metrics23LocationALSNetworkUsage4SwapEPS1_
|| __TEXT.__text __ZN3awd7metrics23LocationALSNetworkUsage5ClearEv
|| __TEXT.__text __ZN3awd7metrics23LocationALSNetworkUsage8CopyFromERKS1_
|| __TEXT.__text __ZN3awd7metrics23LocationALSNetworkUsage9MergeFromERKS1_
|| __TEXT.__text __ZN3awd7metrics23LocationALSNetworkUsageC1ERKS1_
|| __TEXT.__text __ZN3awd7metrics23LocationALSNetworkUsageC1Ev
|| __TEXT.__text __ZN3awd7metrics23LocationALSNetworkUsageC2ERKS1_
|| __TEXT.__text __ZN3awd7metrics23LocationALSNetworkUsageC2Ev
|| __TEXT.__text __ZN3awd7metrics23LocationALSNetworkUsageD0Ev
|| __TEXT.__text __ZN3awd7metrics23LocationALSNetworkUsageD1Ev
|| __TEXT.__text __ZN3awd7metrics23LocationALSNetworkUsageD2Ev
|| __TEXT.__text __ZN3awd7metrics23LocationRealTimeHarvest10SharedCtorEv
|| __TEXT.__text __ZN3awd7metrics23LocationRealTimeHarvest10SharedDtorEv
|| __TEXT.__text __ZN3awd7metrics23LocationRealTimeHarvest16default_instanceEv
|| __TEXT.__text __ZN3awd7metrics23LocationRealTimeHarvest21CheckTypeAndMergeFromERKN20wireless_diagnostics6google8protobuf11MessageLiteE
|| __TEXT.__text __ZN3awd7metrics23LocationRealTimeHarvest21InitAsDefaultInstanceEv
|| __TEXT.__text __ZN3awd7metrics23LocationRealTimeHarvest27MergePartialFromCodedStreamEPN20wireless_diagnostics6google8protobuf2io16CodedInputStreamE
|| __TEXT.__text __ZN3awd7metrics23LocationRealTimeHarvest4SwapEPS1_
|| __TEXT.__text __ZN3awd7metrics23LocationRealTimeHarvest5ClearEv
|| __TEXT.__text __ZN3awd7metrics23LocationRealTimeHarvest8CopyFromERKS1_
|| __TEXT.__text __ZN3awd7metrics23LocationRealTimeHarvest9MergeFromERKS1_
|| __TEXT.__text __ZN3awd7metrics23LocationRealTimeHarvestC1ERKS1_
|| __TEXT.__text __ZN3awd7metrics23LocationRealTimeHarvestC1Ev
|| __TEXT.__text __ZN3awd7metrics23LocationRealTimeHarvestC2ERKS1_
|| __TEXT.__text __ZN3awd7metrics23LocationRealTimeHarvestC2Ev
|| __TEXT.__text __ZN3awd7metrics23LocationRealTimeHarvestD0Ev
|| __TEXT.__text __ZN3awd7metrics23LocationRealTimeHarvestD1Ev
|| __TEXT.__text __ZN3awd7metrics23LocationRealTimeHarvestD2Ev
|| __TEXT.__text __ZN3awd7metrics24LocationEmergencySession10SharedCtorEv
|| __TEXT.__text __ZN3awd7metrics24LocationEmergencySession10SharedDtorEv
|| __TEXT.__text __ZN3awd7metrics24LocationEmergencySession16default_instanceEv
|| __TEXT.__text __ZN3awd7metrics24LocationEmergencySession21CheckTypeAndMergeFromERKN20wireless_diagnostics6google8protobuf11MessageLiteE
|| __TEXT.__text __ZN3awd7metrics24LocationEmergencySession21InitAsDefaultInstanceEv
|| __TEXT.__text __ZN3awd7metrics24LocationEmergencySession27MergePartialFromCodedStreamEPN20wireless_diagnostics6google8protobuf2io16CodedInputStreamE
|| __TEXT.__text __ZN3awd7metrics24LocationEmergencySession4SwapEPS1_
|| __TEXT.__text __ZN3awd7metrics24LocationEmergencySession5ClearEv
|| __TEXT.__text __ZN3awd7metrics24LocationEmergencySession8CopyFromERKS1_
|| __TEXT.__text __ZN3awd7metrics24LocationEmergencySession9MergeFromERKS1_
|| __TEXT.__text __ZN3awd7metrics24LocationEmergencySessionC1ERKS1_
|| __TEXT.__text __ZN3awd7metrics24LocationEmergencySessionC1Ev
|| __TEXT.__text __ZN3awd7metrics24LocationEmergencySessionC2ERKS1_
|| __TEXT.__text __ZN3awd7metrics24LocationEmergencySessionC2Ev
|| __TEXT.__text __ZN3awd7metrics24LocationEmergencySessionD0Ev
|| __TEXT.__text __ZN3awd7metrics24LocationEmergencySessionD1Ev
|| __TEXT.__text __ZN3awd7metrics24LocationEmergencySessionD2Ev
|| __TEXT.__text __ZN3awd7metrics24LocationServicesApproval10SharedCtorEv
|| __TEXT.__text __ZN3awd7metrics24LocationServicesApproval10SharedDtorEv
|| __TEXT.__text __ZN3awd7metrics24LocationServicesApproval16default_instanceEv
|| __TEXT.__text __ZN3awd7metrics24LocationServicesApproval21CheckTypeAndMergeFromERKN20wireless_diagnostics6google8protobuf11MessageLiteE
|| __TEXT.__text __ZN3awd7metrics24LocationServicesApproval21InitAsDefaultInstanceEv
|| __TEXT.__text __ZN3awd7metrics24LocationServicesApproval27MergePartialFromCodedStreamEPN20wireless_diagnostics6google8protobuf2io16CodedInputStreamE
|| __TEXT.__text __ZN3awd7metrics24LocationServicesApproval4SwapEPS1_
|| __TEXT.__text __ZN3awd7metrics24LocationServicesApproval5ClearEv
|| __TEXT.__text __ZN3awd7metrics24LocationServicesApproval8CopyFromERKS1_
|| __TEXT.__text __ZN3awd7metrics24LocationServicesApproval9MergeFromERKS1_
|| __TEXT.__text __ZN3awd7metrics24LocationServicesApprovalC1ERKS1_
|| __TEXT.__text __ZN3awd7metrics24LocationServicesApprovalC1Ev
|| __TEXT.__text __ZN3awd7metrics24LocationServicesApprovalC2ERKS1_
|| __TEXT.__text __ZN3awd7metrics24LocationServicesApprovalC2Ev
|| __TEXT.__text __ZN3awd7metrics24LocationServicesApprovalD0Ev
|| __TEXT.__text __ZN3awd7metrics24LocationServicesApprovalD1Ev
|| __TEXT.__text __ZN3awd7metrics24LocationServicesApprovalD2Ev
|| __TEXT.__text __ZN3awd7metrics24MotionGyroBiasEstimation10SharedCtorEv
|| __TEXT.__text __ZN3awd7metrics24MotionGyroBiasEstimation10SharedDtorEv
|| __TEXT.__text __ZN3awd7metrics24MotionGyroBiasEstimation16default_instanceEv
|| __TEXT.__text __ZN3awd7metrics24MotionGyroBiasEstimation21CheckTypeAndMergeFromERKN20wireless_diagnostics6google8protobuf11MessageLiteE
|| __TEXT.__text __ZN3awd7metrics24MotionGyroBiasEstimation21InitAsDefaultInstanceEv
|| __TEXT.__text __ZN3awd7metrics24MotionGyroBiasEstimation27MergePartialFromCodedStreamEPN20wireless_diagnostics6google8protobuf2io16CodedInputStreamE
|| __TEXT.__text __ZN3awd7metrics24MotionGyroBiasEstimation4SwapEPS1_
|| __TEXT.__text __ZN3awd7metrics24MotionGyroBiasEstimation5ClearEv
|| __TEXT.__text __ZN3awd7metrics24MotionGyroBiasEstimation8CopyFromERKS1_
|| __TEXT.__text __ZN3awd7metrics24MotionGyroBiasEstimation9MergeFromERKS1_
|| __TEXT.__text __ZN3awd7metrics24MotionGyroBiasEstimationC1ERKS1_
|| __TEXT.__text __ZN3awd7metrics24MotionGyroBiasEstimationC1Ev
|| __TEXT.__text __ZN3awd7metrics24MotionGyroBiasEstimationC2ERKS1_
|| __TEXT.__text __ZN3awd7metrics24MotionGyroBiasEstimationC2Ev
|| __TEXT.__text __ZN3awd7metrics24MotionGyroBiasEstimationD0Ev
|| __TEXT.__text __ZN3awd7metrics24MotionGyroBiasEstimationD1Ev
|| __TEXT.__text __ZN3awd7metrics24MotionGyroBiasEstimationD2Ev
|| __TEXT.__text __ZN3awd7metrics25LocationNavigationSession10SharedCtorEv
|| __TEXT.__text __ZN3awd7metrics25LocationNavigationSession10SharedDtorEv
|| __TEXT.__text __ZN3awd7metrics25LocationNavigationSession16default_instanceEv
|| __TEXT.__text __ZN3awd7metrics25LocationNavigationSession21CheckTypeAndMergeFromERKN20wireless_diagnostics6google8protobuf11MessageLiteE
|| __TEXT.__text __ZN3awd7metrics25LocationNavigationSession21InitAsDefaultInstanceEv
|| __TEXT.__text __ZN3awd7metrics25LocationNavigationSession27MergePartialFromCodedStreamEPN20wireless_diagnostics6google8protobuf2io16CodedInputStreamE
|| __TEXT.__text __ZN3awd7metrics25LocationNavigationSession4SwapEPS1_
|| __TEXT.__text __ZN3awd7metrics25LocationNavigationSession5ClearEv
|| __TEXT.__text __ZN3awd7metrics25LocationNavigationSession8CopyFromERKS1_
|| __TEXT.__text __ZN3awd7metrics25LocationNavigationSession9MergeFromERKS1_
|| __TEXT.__text __ZN3awd7metrics25LocationNavigationSessionC1ERKS1_
|| __TEXT.__text __ZN3awd7metrics25LocationNavigationSessionC1Ev
|| __TEXT.__text __ZN3awd7metrics25LocationNavigationSessionC2ERKS1_
|| __TEXT.__text __ZN3awd7metrics25LocationNavigationSessionC2Ev
|| __TEXT.__text __ZN3awd7metrics25LocationNavigationSessionD0Ev
|| __TEXT.__text __ZN3awd7metrics25LocationNavigationSessionD1Ev
|| __TEXT.__text __ZN3awd7metrics25LocationNavigationSessionD2Ev
|| __TEXT.__text __ZN3awd7metrics25MotionPressureTemperature10SharedCtorEv
|| __TEXT.__text __ZN3awd7metrics25MotionPressureTemperature10SharedDtorEv
|| __TEXT.__text __ZN3awd7metrics25MotionPressureTemperature16default_instanceEv
|| __TEXT.__text __ZN3awd7metrics25MotionPressureTemperature21CheckTypeAndMergeFromERKN20wireless_diagnostics6google8protobuf11MessageLiteE
|| __TEXT.__text __ZN3awd7metrics25MotionPressureTemperature21InitAsDefaultInstanceEv
|| __TEXT.__text __ZN3awd7metrics25MotionPressureTemperature27MergePartialFromCodedStreamEPN20wireless_diagnostics6google8protobuf2io16CodedInputStreamE
|| __TEXT.__text __ZN3awd7metrics25MotionPressureTemperature4SwapEPS1_
|| __TEXT.__text __ZN3awd7metrics25MotionPressureTemperature5ClearEv
|| __TEXT.__text __ZN3awd7metrics25MotionPressureTemperature8CopyFromERKS1_
|| __TEXT.__text __ZN3awd7metrics25MotionPressureTemperature9MergeFromERKS1_
|| __TEXT.__text __ZN3awd7metrics25MotionPressureTemperatureC1ERKS1_
|| __TEXT.__text __ZN3awd7metrics25MotionPressureTemperatureC1Ev
|| __TEXT.__text __ZN3awd7metrics25MotionPressureTemperatureC2ERKS1_
|| __TEXT.__text __ZN3awd7metrics25MotionPressureTemperatureC2Ev
|| __TEXT.__text __ZN3awd7metrics25MotionPressureTemperatureD0Ev
|| __TEXT.__text __ZN3awd7metrics25MotionPressureTemperatureD1Ev
|| __TEXT.__text __ZN3awd7metrics25MotionPressureTemperatureD2Ev
|| __TEXT.__text __ZN3awd7metrics26LocationCompassSaturations10SharedCtorEv
|| __TEXT.__text __ZN3awd7metrics26LocationCompassSaturations10SharedDtorEv
|| __TEXT.__text __ZN3awd7metrics26LocationCompassSaturations16default_instanceEv
|| __TEXT.__text __ZN3awd7metrics26LocationCompassSaturations21CheckTypeAndMergeFromERKN20wireless_diagnostics6google8protobuf11MessageLiteE
|| __TEXT.__text __ZN3awd7metrics26LocationCompassSaturations21InitAsDefaultInstanceEv
|| __TEXT.__text __ZN3awd7metrics26LocationCompassSaturations27MergePartialFromCodedStreamEPN20wireless_diagnostics6google8protobuf2io16CodedInputStreamE
|| __TEXT.__text __ZN3awd7metrics26LocationCompassSaturations4SwapEPS1_
|| __TEXT.__text __ZN3awd7metrics26LocationCompassSaturations5ClearEv
|| __TEXT.__text __ZN3awd7metrics26LocationCompassSaturations8CopyFromERKS1_
|| __TEXT.__text __ZN3awd7metrics26LocationCompassSaturations9MergeFromERKS1_
|| __TEXT.__text __ZN3awd7metrics26LocationCompassSaturationsC1ERKS1_
|| __TEXT.__text __ZN3awd7metrics26LocationCompassSaturationsC1Ev
|| __TEXT.__text __ZN3awd7metrics26LocationCompassSaturationsC2ERKS1_
|| __TEXT.__text __ZN3awd7metrics26LocationCompassSaturationsC2Ev
|| __TEXT.__text __ZN3awd7metrics26LocationCompassSaturationsD0Ev
|| __TEXT.__text __ZN3awd7metrics26LocationCompassSaturationsD1Ev
|| __TEXT.__text __ZN3awd7metrics26LocationCompassSaturationsD2Ev
|| __TEXT.__text __ZN3awd7metrics26LocationPeerRangingMetrics10SharedCtorEv
|| __TEXT.__text __ZN3awd7metrics26LocationPeerRangingMetrics10SharedDtorEv
|| __TEXT.__text __ZN3awd7metrics26LocationPeerRangingMetrics16default_instanceEv
|| __TEXT.__text __ZN3awd7metrics26LocationPeerRangingMetrics21CheckTypeAndMergeFromERKN20wireless_diagnostics6google8protobuf11MessageLiteE
|| __TEXT.__text __ZN3awd7metrics26LocationPeerRangingMetrics21InitAsDefaultInstanceEv
|| __TEXT.__text __ZN3awd7metrics26LocationPeerRangingMetrics27MergePartialFromCodedStreamEPN20wireless_diagnostics6google8protobuf2io16CodedInputStreamE
|| __TEXT.__text __ZN3awd7metrics26LocationPeerRangingMetrics4SwapEPS1_
|| __TEXT.__text __ZN3awd7metrics26LocationPeerRangingMetrics5ClearEv
|| __TEXT.__text __ZN3awd7metrics26LocationPeerRangingMetrics8CopyFromERKS1_
|| __TEXT.__text __ZN3awd7metrics26LocationPeerRangingMetrics9MergeFromERKS1_
|| __TEXT.__text __ZN3awd7metrics26LocationPeerRangingMetricsC1ERKS1_
|| __TEXT.__text __ZN3awd7metrics26LocationPeerRangingMetricsC1Ev
|| __TEXT.__text __ZN3awd7metrics26LocationPeerRangingMetricsC2ERKS1_
|| __TEXT.__text __ZN3awd7metrics26LocationPeerRangingMetricsC2Ev
|| __TEXT.__text __ZN3awd7metrics26LocationPeerRangingMetricsD0Ev
|| __TEXT.__text __ZN3awd7metrics26LocationPeerRangingMetricsD1Ev
|| __TEXT.__text __ZN3awd7metrics26LocationPeerRangingMetricsD2Ev
|| __TEXT.__text __ZN3awd7metrics26MotionBarometerCalibration10SharedCtorEv
|| __TEXT.__text __ZN3awd7metrics26MotionBarometerCalibration10SharedDtorEv
|| __TEXT.__text __ZN3awd7metrics26MotionBarometerCalibration16default_instanceEv
|| __TEXT.__text __ZN3awd7metrics26MotionBarometerCalibration21CheckTypeAndMergeFromERKN20wireless_diagnostics6google8protobuf11MessageLiteE
|| __TEXT.__text __ZN3awd7metrics26MotionBarometerCalibration21InitAsDefaultInstanceEv
|| __TEXT.__text __ZN3awd7metrics26MotionBarometerCalibration27MergePartialFromCodedStreamEPN20wireless_diagnostics6google8protobuf2io16CodedInputStreamE
|| __TEXT.__text __ZN3awd7metrics26MotionBarometerCalibration4SwapEPS1_
|| __TEXT.__text __ZN3awd7metrics26MotionBarometerCalibration5ClearEv
|| __TEXT.__text __ZN3awd7metrics26MotionBarometerCalibration8CopyFromERKS1_
|| __TEXT.__text __ZN3awd7metrics26MotionBarometerCalibration9MergeFromERKS1_
|| __TEXT.__text __ZN3awd7metrics26MotionBarometerCalibrationC1ERKS1_
|| __TEXT.__text __ZN3awd7metrics26MotionBarometerCalibrationC1Ev
|| __TEXT.__text __ZN3awd7metrics26MotionBarometerCalibrationC2ERKS1_
|| __TEXT.__text __ZN3awd7metrics26MotionBarometerCalibrationC2Ev
|| __TEXT.__text __ZN3awd7metrics26MotionBarometerCalibrationD0Ev
|| __TEXT.__text __ZN3awd7metrics26MotionBarometerCalibrationD1Ev
|| __TEXT.__text __ZN3awd7metrics26MotionBarometerCalibrationD2Ev
|| __TEXT.__text __ZN3awd7metrics26MotionPedometerCalibration10SharedCtorEv
|| __TEXT.__text __ZN3awd7metrics26MotionPedometerCalibration10SharedDtorEv
|| __TEXT.__text __ZN3awd7metrics26MotionPedometerCalibration16default_instanceEv
|| __TEXT.__text __ZN3awd7metrics26MotionPedometerCalibration21CheckTypeAndMergeFromERKN20wireless_diagnostics6google8protobuf11MessageLiteE
|| __TEXT.__text __ZN3awd7metrics26MotionPedometerCalibration21InitAsDefaultInstanceEv
|| __TEXT.__text __ZN3awd7metrics26MotionPedometerCalibration27MergePartialFromCodedStreamEPN20wireless_diagnostics6google8protobuf2io16CodedInputStreamE
|| __TEXT.__text __ZN3awd7metrics26MotionPedometerCalibration4SwapEPS1_
|| __TEXT.__text __ZN3awd7metrics26MotionPedometerCalibration5ClearEv
|| __TEXT.__text __ZN3awd7metrics26MotionPedometerCalibration8CopyFromERKS1_
|| __TEXT.__text __ZN3awd7metrics26MotionPedometerCalibration9MergeFromERKS1_
|| __TEXT.__text __ZN3awd7metrics26MotionPedometerCalibrationC1ERKS1_
|| __TEXT.__text __ZN3awd7metrics26MotionPedometerCalibrationC1Ev
|| __TEXT.__text __ZN3awd7metrics26MotionPedometerCalibrationC2ERKS1_
|| __TEXT.__text __ZN3awd7metrics26MotionPedometerCalibrationC2Ev
|| __TEXT.__text __ZN3awd7metrics26MotionPedometerCalibrationD0Ev
|| __TEXT.__text __ZN3awd7metrics26MotionPedometerCalibrationD1Ev
|| __TEXT.__text __ZN3awd7metrics26MotionPedometerCalibrationD2Ev
|| __TEXT.__text __ZN3awd7metrics27LocationPeerRangingDecision10SharedCtorEv
|| __TEXT.__text __ZN3awd7metrics27LocationPeerRangingDecision10SharedDtorEv
|| __TEXT.__text __ZN3awd7metrics27LocationPeerRangingDecision16default_instanceEv
|| __TEXT.__text __ZN3awd7metrics27LocationPeerRangingDecision21CheckTypeAndMergeFromERKN20wireless_diagnostics6google8protobuf11MessageLiteE
|| __TEXT.__text __ZN3awd7metrics27LocationPeerRangingDecision21InitAsDefaultInstanceEv
|| __TEXT.__text __ZN3awd7metrics27LocationPeerRangingDecision27MergePartialFromCodedStreamEPN20wireless_diagnostics6google8protobuf2io16CodedInputStreamE
|| __TEXT.__text __ZN3awd7metrics27LocationPeerRangingDecision4SwapEPS1_
|| __TEXT.__text __ZN3awd7metrics27LocationPeerRangingDecision5ClearEv
|| __TEXT.__text __ZN3awd7metrics27LocationPeerRangingDecision8CopyFromERKS1_
|| __TEXT.__text __ZN3awd7metrics27LocationPeerRangingDecision9MergeFromERKS1_
|| __TEXT.__text __ZN3awd7metrics27LocationPeerRangingDecisionC1ERKS1_
|| __TEXT.__text __ZN3awd7metrics27LocationPeerRangingDecisionC1Ev
|| __TEXT.__text __ZN3awd7metrics27LocationPeerRangingDecisionC2ERKS1_
|| __TEXT.__text __ZN3awd7metrics27LocationPeerRangingDecisionC2Ev
|| __TEXT.__text __ZN3awd7metrics27LocationPeerRangingDecisionD0Ev
|| __TEXT.__text __ZN3awd7metrics27LocationPeerRangingDecisionD1Ev
|| __TEXT.__text __ZN3awd7metrics27LocationPeerRangingDecisionD2Ev
|| __TEXT.__text __ZN3awd7metrics27LocationPeerRangingMetaData10SharedCtorEv
|| __TEXT.__text __ZN3awd7metrics27LocationPeerRangingMetaData10SharedDtorEv
|| __TEXT.__text __ZN3awd7metrics27LocationPeerRangingMetaData16default_instanceEv
|| __TEXT.__text __ZN3awd7metrics27LocationPeerRangingMetaData21CheckTypeAndMergeFromERKN20wireless_diagnostics6google8protobuf11MessageLiteE
|| __TEXT.__text __ZN3awd7metrics27LocationPeerRangingMetaData21InitAsDefaultInstanceEv
|| __TEXT.__text __ZN3awd7metrics27LocationPeerRangingMetaData27MergePartialFromCodedStreamEPN20wireless_diagnostics6google8protobuf2io16CodedInputStreamE
|| __TEXT.__text __ZN3awd7metrics27LocationPeerRangingMetaData4SwapEPS1_
|| __TEXT.__text __ZN3awd7metrics27LocationPeerRangingMetaData5ClearEv
|| __TEXT.__text __ZN3awd7metrics27LocationPeerRangingMetaData8CopyFromERKS1_
|| __TEXT.__text __ZN3awd7metrics27LocationPeerRangingMetaData9MergeFromERKS1_
|| __TEXT.__text __ZN3awd7metrics27LocationPeerRangingMetaDataC1ERKS1_
|| __TEXT.__text __ZN3awd7metrics27LocationPeerRangingMetaDataC1Ev
|| __TEXT.__text __ZN3awd7metrics27LocationPeerRangingMetaDataC2ERKS1_
|| __TEXT.__text __ZN3awd7metrics27LocationPeerRangingMetaDataC2Ev
|| __TEXT.__text __ZN3awd7metrics27LocationPeerRangingMetaDataD0Ev
|| __TEXT.__text __ZN3awd7metrics27LocationPeerRangingMetaDataD1Ev
|| __TEXT.__text __ZN3awd7metrics27LocationPeerRangingMetaDataD2Ev
|| __TEXT.__text __ZN3awd7metrics27LocationSubHarvesterMetrics10SharedCtorEv
|| __TEXT.__text __ZN3awd7metrics27LocationSubHarvesterMetrics10SharedDtorEv
|| __TEXT.__text __ZN3awd7metrics27LocationSubHarvesterMetrics16default_instanceEv
|| __TEXT.__text __ZN3awd7metrics27LocationSubHarvesterMetrics21CheckTypeAndMergeFromERKN20wireless_diagnostics6google8protobuf11MessageLiteE
|| __TEXT.__text __ZN3awd7metrics27LocationSubHarvesterMetrics21InitAsDefaultInstanceEv
|| __TEXT.__text __ZN3awd7metrics27LocationSubHarvesterMetrics27MergePartialFromCodedStreamEPN20wireless_diagnostics6google8protobuf2io16CodedInputStreamE
|| __TEXT.__text __ZN3awd7metrics27LocationSubHarvesterMetrics4SwapEPS1_
|| __TEXT.__text __ZN3awd7metrics27LocationSubHarvesterMetrics5ClearEv
|| __TEXT.__text __ZN3awd7metrics27LocationSubHarvesterMetrics8CopyFromERKS1_
|| __TEXT.__text __ZN3awd7metrics27LocationSubHarvesterMetrics9MergeFromERKS1_
|| __TEXT.__text __ZN3awd7metrics27LocationSubHarvesterMetricsC1ERKS1_
|| __TEXT.__text __ZN3awd7metrics27LocationSubHarvesterMetricsC1Ev
|| __TEXT.__text __ZN3awd7metrics27LocationSubHarvesterMetricsC2ERKS1_
|| __TEXT.__text __ZN3awd7metrics27LocationSubHarvesterMetricsC2Ev
|| __TEXT.__text __ZN3awd7metrics27LocationSubHarvesterMetricsD0Ev
|| __TEXT.__text __ZN3awd7metrics27LocationSubHarvesterMetricsD1Ev
|| __TEXT.__text __ZN3awd7metrics27LocationSubHarvesterMetricsD2Ev
|| __TEXT.__text __ZN3awd7metrics27LocationVisibilityAssertion10SharedCtorEv
|| __TEXT.__text __ZN3awd7metrics27LocationVisibilityAssertion10SharedDtorEv
|| __TEXT.__text __ZN3awd7metrics27LocationVisibilityAssertion16default_instanceEv
|| __TEXT.__text __ZN3awd7metrics27LocationVisibilityAssertion21CheckTypeAndMergeFromERKN20wireless_diagnostics6google8protobuf11MessageLiteE
|| __TEXT.__text __ZN3awd7metrics27LocationVisibilityAssertion21InitAsDefaultInstanceEv
|| __TEXT.__text __ZN3awd7metrics27LocationVisibilityAssertion27MergePartialFromCodedStreamEPN20wireless_diagnostics6google8protobuf2io16CodedInputStreamE
|| __TEXT.__text __ZN3awd7metrics27LocationVisibilityAssertion4SwapEPS1_
|| __TEXT.__text __ZN3awd7metrics27LocationVisibilityAssertion5ClearEv
|| __TEXT.__text __ZN3awd7metrics27LocationVisibilityAssertion8CopyFromERKS1_
|| __TEXT.__text __ZN3awd7metrics27LocationVisibilityAssertion9MergeFromERKS1_
|| __TEXT.__text __ZN3awd7metrics27LocationVisibilityAssertionC1ERKS1_
|| __TEXT.__text __ZN3awd7metrics27LocationVisibilityAssertionC1Ev
|| __TEXT.__text __ZN3awd7metrics27LocationVisibilityAssertionC2ERKS1_
|| __TEXT.__text __ZN3awd7metrics27LocationVisibilityAssertionC2Ev
|| __TEXT.__text __ZN3awd7metrics27LocationVisibilityAssertionD0Ev
|| __TEXT.__text __ZN3awd7metrics27LocationVisibilityAssertionD1Ev
|| __TEXT.__text __ZN3awd7metrics27LocationVisibilityAssertionD2Ev
|| __TEXT.__text __ZN3awd7metrics28LocationBeaconMonitorSession10SharedCtorEv
|| __TEXT.__text __ZN3awd7metrics28LocationBeaconMonitorSession10SharedDtorEv
|| __TEXT.__text __ZN3awd7metrics28LocationBeaconMonitorSession16default_instanceEv
|| __TEXT.__text __ZN3awd7metrics28LocationBeaconMonitorSession21CheckTypeAndMergeFromERKN20wireless_diagnostics6google8protobuf11MessageLiteE
|| __TEXT.__text __ZN3awd7metrics28LocationBeaconMonitorSession21InitAsDefaultInstanceEv
|| __TEXT.__text __ZN3awd7metrics28LocationBeaconMonitorSession27MergePartialFromCodedStreamEPN20wireless_diagnostics6google8protobuf2io16CodedInputStreamE
|| __TEXT.__text __ZN3awd7metrics28LocationBeaconMonitorSession4SwapEPS1_
|| __TEXT.__text __ZN3awd7metrics28LocationBeaconMonitorSession5ClearEv
|| __TEXT.__text __ZN3awd7metrics28LocationBeaconMonitorSession8CopyFromERKS1_
|| __TEXT.__text __ZN3awd7metrics28LocationBeaconMonitorSession9MergeFromERKS1_
|| __TEXT.__text __ZN3awd7metrics28LocationBeaconMonitorSessionC1ERKS1_
|| __TEXT.__text __ZN3awd7metrics28LocationBeaconMonitorSessionC1Ev
|| __TEXT.__text __ZN3awd7metrics28LocationBeaconMonitorSessionC2ERKS1_
|| __TEXT.__text __ZN3awd7metrics28LocationBeaconMonitorSessionC2Ev
|| __TEXT.__text __ZN3awd7metrics28LocationBeaconMonitorSessionD0Ev
|| __TEXT.__text __ZN3awd7metrics28LocationBeaconMonitorSessionD1Ev
|| __TEXT.__text __ZN3awd7metrics28LocationBeaconMonitorSessionD2Ev
|| __TEXT.__text __ZN3awd7metrics28LocationBeaconMonitorTrigger10SharedCtorEv
|| __TEXT.__text __ZN3awd7metrics28LocationBeaconMonitorTrigger10SharedDtorEv
|| __TEXT.__text __ZN3awd7metrics28LocationBeaconMonitorTrigger16default_instanceEv
|| __TEXT.__text __ZN3awd7metrics28LocationBeaconMonitorTrigger21CheckTypeAndMergeFromERKN20wireless_diagnostics6google8protobuf11MessageLiteE
|| __TEXT.__text __ZN3awd7metrics28LocationBeaconMonitorTrigger21InitAsDefaultInstanceEv
|| __TEXT.__text __ZN3awd7metrics28LocationBeaconMonitorTrigger27MergePartialFromCodedStreamEPN20wireless_diagnostics6google8protobuf2io16CodedInputStreamE
|| __TEXT.__text __ZN3awd7metrics28LocationBeaconMonitorTrigger4SwapEPS1_
|| __TEXT.__text __ZN3awd7metrics28LocationBeaconMonitorTrigger5ClearEv
|| __TEXT.__text __ZN3awd7metrics28LocationBeaconMonitorTrigger8CopyFromERKS1_
|| __TEXT.__text __ZN3awd7metrics28LocationBeaconMonitorTrigger9MergeFromERKS1_
|| __TEXT.__text __ZN3awd7metrics28LocationBeaconMonitorTriggerC1ERKS1_
|| __TEXT.__text __ZN3awd7metrics28LocationBeaconMonitorTriggerC1Ev
|| __TEXT.__text __ZN3awd7metrics28LocationBeaconMonitorTriggerC2ERKS1_
|| __TEXT.__text __ZN3awd7metrics28LocationBeaconMonitorTriggerC2Ev
|| __TEXT.__text __ZN3awd7metrics28LocationBeaconMonitorTriggerD0Ev
|| __TEXT.__text __ZN3awd7metrics28LocationBeaconMonitorTriggerD1Ev
|| __TEXT.__text __ZN3awd7metrics28LocationBeaconMonitorTriggerD2Ev
|| __TEXT.__text __ZN3awd7metrics28LocationBeaconRangingSession10SharedCtorEv
|| __TEXT.__text __ZN3awd7metrics28LocationBeaconRangingSession10SharedDtorEv
|| __TEXT.__text __ZN3awd7metrics28LocationBeaconRangingSession16default_instanceEv
|| __TEXT.__text __ZN3awd7metrics28LocationBeaconRangingSession21CheckTypeAndMergeFromERKN20wireless_diagnostics6google8protobuf11MessageLiteE
|| __TEXT.__text __ZN3awd7metrics28LocationBeaconRangingSession21InitAsDefaultInstanceEv
|| __TEXT.__text __ZN3awd7metrics28LocationBeaconRangingSession27MergePartialFromCodedStreamEPN20wireless_diagnostics6google8protobuf2io16CodedInputStreamE
|| __TEXT.__text __ZN3awd7metrics28LocationBeaconRangingSession4SwapEPS1_
|| __TEXT.__text __ZN3awd7metrics28LocationBeaconRangingSession5ClearEv
|| __TEXT.__text __ZN3awd7metrics28LocationBeaconRangingSession8CopyFromERKS1_
|| __TEXT.__text __ZN3awd7metrics28LocationBeaconRangingSession9MergeFromERKS1_
|| __TEXT.__text __ZN3awd7metrics28LocationBeaconRangingSessionC1ERKS1_
|| __TEXT.__text __ZN3awd7metrics28LocationBeaconRangingSessionC1Ev
|| __TEXT.__text __ZN3awd7metrics28LocationBeaconRangingSessionC2ERKS1_
|| __TEXT.__text __ZN3awd7metrics28LocationBeaconRangingSessionC2Ev
|| __TEXT.__text __ZN3awd7metrics28LocationBeaconRangingSessionD0Ev
|| __TEXT.__text __ZN3awd7metrics28LocationBeaconRangingSessionD1Ev
|| __TEXT.__text __ZN3awd7metrics28LocationBeaconRangingSessionD2Ev
|| __TEXT.__text __ZN3awd7metrics28LocationGPSSessionStatistics10SharedCtorEv
|| __TEXT.__text __ZN3awd7metrics28LocationGPSSessionStatistics10SharedDtorEv
|| __TEXT.__text __ZN3awd7metrics28LocationGPSSessionStatistics16default_instanceEv
|| __TEXT.__text __ZN3awd7metrics28LocationGPSSessionStatistics21CheckTypeAndMergeFromERKN20wireless_diagnostics6google8protobuf11MessageLiteE
|| __TEXT.__text __ZN3awd7metrics28LocationGPSSessionStatistics21InitAsDefaultInstanceEv
|| __TEXT.__text __ZN3awd7metrics28LocationGPSSessionStatistics27MergePartialFromCodedStreamEPN20wireless_diagnostics6google8protobuf2io16CodedInputStreamE
|| __TEXT.__text __ZN3awd7metrics28LocationGPSSessionStatistics4SwapEPS1_
|| __TEXT.__text __ZN3awd7metrics28LocationGPSSessionStatistics5ClearEv
|| __TEXT.__text __ZN3awd7metrics28LocationGPSSessionStatistics8CopyFromERKS1_
|| __TEXT.__text __ZN3awd7metrics28LocationGPSSessionStatistics9MergeFromERKS1_
|| __TEXT.__text __ZN3awd7metrics28LocationGPSSessionStatisticsC1ERKS1_
|| __TEXT.__text __ZN3awd7metrics28LocationGPSSessionStatisticsC1Ev
|| __TEXT.__text __ZN3awd7metrics28LocationGPSSessionStatisticsC2ERKS1_
|| __TEXT.__text __ZN3awd7metrics28LocationGPSSessionStatisticsC2Ev
|| __TEXT.__text __ZN3awd7metrics28LocationGPSSessionStatisticsD0Ev
|| __TEXT.__text __ZN3awd7metrics28LocationGPSSessionStatisticsD1Ev
|| __TEXT.__text __ZN3awd7metrics28LocationGPSSessionStatisticsD2Ev
|| __TEXT.__text __ZN3awd7metrics28LocationMainHarvesterMetrics10SharedCtorEv
|| __TEXT.__text __ZN3awd7metrics28LocationMainHarvesterMetrics10SharedDtorEv
|| __TEXT.__text __ZN3awd7metrics28LocationMainHarvesterMetrics16default_instanceEv
|| __TEXT.__text __ZN3awd7metrics28LocationMainHarvesterMetrics21CheckTypeAndMergeFromERKN20wireless_diagnostics6google8protobuf11MessageLiteE
|| __TEXT.__text __ZN3awd7metrics28LocationMainHarvesterMetrics21InitAsDefaultInstanceEv
|| __TEXT.__text __ZN3awd7metrics28LocationMainHarvesterMetrics27MergePartialFromCodedStreamEPN20wireless_diagnostics6google8protobuf2io16CodedInputStreamE
|| __TEXT.__text __ZN3awd7metrics28LocationMainHarvesterMetrics4SwapEPS1_
|| __TEXT.__text __ZN3awd7metrics28LocationMainHarvesterMetrics5ClearEv
|| __TEXT.__text __ZN3awd7metrics28LocationMainHarvesterMetrics8CopyFromERKS1_
|| __TEXT.__text __ZN3awd7metrics28LocationMainHarvesterMetrics9MergeFromERKS1_
|| __TEXT.__text __ZN3awd7metrics28LocationMainHarvesterMetricsC1ERKS1_
|| __TEXT.__text __ZN3awd7metrics28LocationMainHarvesterMetricsC1Ev
|| __TEXT.__text __ZN3awd7metrics28LocationMainHarvesterMetricsC2ERKS1_
|| __TEXT.__text __ZN3awd7metrics28LocationMainHarvesterMetricsC2Ev
|| __TEXT.__text __ZN3awd7metrics28LocationMainHarvesterMetricsD0Ev
|| __TEXT.__text __ZN3awd7metrics28LocationMainHarvesterMetricsD1Ev
|| __TEXT.__text __ZN3awd7metrics28LocationMainHarvesterMetricsD2Ev
|| __TEXT.__text __ZN3awd7metrics28MotionFitnessAccelSampleRate10SharedCtorEv
|| __TEXT.__text __ZN3awd7metrics28MotionFitnessAccelSampleRate10SharedDtorEv
|| __TEXT.__text __ZN3awd7metrics28MotionFitnessAccelSampleRate16default_instanceEv
|| __TEXT.__text __ZN3awd7metrics28MotionFitnessAccelSampleRate21CheckTypeAndMergeFromERKN20wireless_diagnostics6google8protobuf11MessageLiteE
|| __TEXT.__text __ZN3awd7metrics28MotionFitnessAccelSampleRate21InitAsDefaultInstanceEv
|| __TEXT.__text __ZN3awd7metrics28MotionFitnessAccelSampleRate27MergePartialFromCodedStreamEPN20wireless_diagnostics6google8protobuf2io16CodedInputStreamE
|| __TEXT.__text __ZN3awd7metrics28MotionFitnessAccelSampleRate4SwapEPS1_
|| __TEXT.__text __ZN3awd7metrics28MotionFitnessAccelSampleRate5ClearEv
|| __TEXT.__text __ZN3awd7metrics28MotionFitnessAccelSampleRate8CopyFromERKS1_
|| __TEXT.__text __ZN3awd7metrics28MotionFitnessAccelSampleRate9MergeFromERKS1_
|| __TEXT.__text __ZN3awd7metrics28MotionFitnessAccelSampleRateC1ERKS1_
|| __TEXT.__text __ZN3awd7metrics28MotionFitnessAccelSampleRateC1Ev
|| __TEXT.__text __ZN3awd7metrics28MotionFitnessAccelSampleRateC2ERKS1_
|| __TEXT.__text __ZN3awd7metrics28MotionFitnessAccelSampleRateC2Ev
|| __TEXT.__text __ZN3awd7metrics28MotionFitnessAccelSampleRateD0Ev
|| __TEXT.__text __ZN3awd7metrics28MotionFitnessAccelSampleRateD1Ev
|| __TEXT.__text __ZN3awd7metrics28MotionFitnessAccelSampleRateD2Ev
|| __TEXT.__text __ZN3awd7metrics29LocationMicroLocationMetaData10SharedCtorEv
|| __TEXT.__text __ZN3awd7metrics29LocationMicroLocationMetaData10SharedDtorEv
|| __TEXT.__text __ZN3awd7metrics29LocationMicroLocationMetaData16default_instanceEv
|| __TEXT.__text __ZN3awd7metrics29LocationMicroLocationMetaData21CheckTypeAndMergeFromERKN20wireless_diagnostics6google8protobuf11MessageLiteE
|| __TEXT.__text __ZN3awd7metrics29LocationMicroLocationMetaData21InitAsDefaultInstanceEv
|| __TEXT.__text __ZN3awd7metrics29LocationMicroLocationMetaData27MergePartialFromCodedStreamEPN20wireless_diagnostics6google8protobuf2io16CodedInputStreamE
|| __TEXT.__text __ZN3awd7metrics29LocationMicroLocationMetaData4SwapEPS1_
|| __TEXT.__text __ZN3awd7metrics29LocationMicroLocationMetaData5ClearEv
|| __TEXT.__text __ZN3awd7metrics29LocationMicroLocationMetaData8CopyFromERKS1_
|| __TEXT.__text __ZN3awd7metrics29LocationMicroLocationMetaData9MergeFromERKS1_
|| __TEXT.__text __ZN3awd7metrics29LocationMicroLocationMetaDataC1ERKS1_
|| __TEXT.__text __ZN3awd7metrics29LocationMicroLocationMetaDataC1Ev
|| __TEXT.__text __ZN3awd7metrics29LocationMicroLocationMetaDataC2ERKS1_
|| __TEXT.__text __ZN3awd7metrics29LocationMicroLocationMetaDataC2Ev
|| __TEXT.__text __ZN3awd7metrics29LocationMicroLocationMetaDataD0Ev
|| __TEXT.__text __ZN3awd7metrics29LocationMicroLocationMetaDataD1Ev
|| __TEXT.__text __ZN3awd7metrics29LocationMicroLocationMetaDataD2Ev
|| __TEXT.__text __ZN3awd7metrics29LocationMobileAssetStatistics10SharedCtorEv
|| __TEXT.__text __ZN3awd7metrics29LocationMobileAssetStatistics10SharedDtorEv
|| __TEXT.__text __ZN3awd7metrics29LocationMobileAssetStatistics16default_instanceEv
|| __TEXT.__text __ZN3awd7metrics29LocationMobileAssetStatistics21CheckTypeAndMergeFromERKN20wireless_diagnostics6google8protobuf11MessageLiteE
|| __TEXT.__text __ZN3awd7metrics29LocationMobileAssetStatistics21InitAsDefaultInstanceEv
|| __TEXT.__text __ZN3awd7metrics29LocationMobileAssetStatistics27MergePartialFromCodedStreamEPN20wireless_diagnostics6google8protobuf2io16CodedInputStreamE
|| __TEXT.__text __ZN3awd7metrics29LocationMobileAssetStatistics4SwapEPS1_
|| __TEXT.__text __ZN3awd7metrics29LocationMobileAssetStatistics5ClearEv
|| __TEXT.__text __ZN3awd7metrics29LocationMobileAssetStatistics8CopyFromERKS1_
|| __TEXT.__text __ZN3awd7metrics29LocationMobileAssetStatistics9MergeFromERKS1_
|| __TEXT.__text __ZN3awd7metrics29LocationMobileAssetStatisticsC1ERKS1_
|| __TEXT.__text __ZN3awd7metrics29LocationMobileAssetStatisticsC1Ev
|| __TEXT.__text __ZN3awd7metrics29LocationMobileAssetStatisticsC2ERKS1_
|| __TEXT.__text __ZN3awd7metrics29LocationMobileAssetStatisticsC2Ev
|| __TEXT.__text __ZN3awd7metrics29LocationMobileAssetStatisticsD0Ev
|| __TEXT.__text __ZN3awd7metrics29LocationMobileAssetStatisticsD1Ev
|| __TEXT.__text __ZN3awd7metrics29LocationMobileAssetStatisticsD2Ev
|| __TEXT.__text __ZN3awd7metrics30LocationEmergencyPOIStatistics10SharedCtorEv
|| __TEXT.__text __ZN3awd7metrics30LocationEmergencyPOIStatistics10SharedDtorEv
|| __TEXT.__text __ZN3awd7metrics30LocationEmergencyPOIStatistics16default_instanceEv
|| __TEXT.__text __ZN3awd7metrics30LocationEmergencyPOIStatistics21CheckTypeAndMergeFromERKN20wireless_diagnostics6google8protobuf11MessageLiteE
|| __TEXT.__text __ZN3awd7metrics30LocationEmergencyPOIStatistics21InitAsDefaultInstanceEv
|| __TEXT.__text __ZN3awd7metrics30LocationEmergencyPOIStatistics27MergePartialFromCodedStreamEPN20wireless_diagnostics6google8protobuf2io16CodedInputStreamE
|| __TEXT.__text __ZN3awd7metrics30LocationEmergencyPOIStatistics4SwapEPS1_
|| __TEXT.__text __ZN3awd7metrics30LocationEmergencyPOIStatistics5ClearEv
|| __TEXT.__text __ZN3awd7metrics30LocationEmergencyPOIStatistics8CopyFromERKS1_
|| __TEXT.__text __ZN3awd7metrics30LocationEmergencyPOIStatistics9MergeFromERKS1_
|| __TEXT.__text __ZN3awd7metrics30LocationEmergencyPOIStatisticsC1ERKS1_
|| __TEXT.__text __ZN3awd7metrics30LocationEmergencyPOIStatisticsC1Ev
|| __TEXT.__text __ZN3awd7metrics30LocationEmergencyPOIStatisticsC2ERKS1_
|| __TEXT.__text __ZN3awd7metrics30LocationEmergencyPOIStatisticsC2Ev
|| __TEXT.__text __ZN3awd7metrics30LocationEmergencyPOIStatisticsD0Ev
|| __TEXT.__text __ZN3awd7metrics30LocationEmergencyPOIStatisticsD1Ev
|| __TEXT.__text __ZN3awd7metrics30LocationEmergencyPOIStatisticsD2Ev
|| __TEXT.__text __ZN3awd7metrics30LocationSecondaryDeviceRequest10SharedCtorEv
|| __TEXT.__text __ZN3awd7metrics30LocationSecondaryDeviceRequest10SharedDtorEv
|| __TEXT.__text __ZN3awd7metrics30LocationSecondaryDeviceRequest16default_instanceEv
|| __TEXT.__text __ZN3awd7metrics30LocationSecondaryDeviceRequest21CheckTypeAndMergeFromERKN20wireless_diagnostics6google8protobuf11MessageLiteE
|| __TEXT.__text __ZN3awd7metrics30LocationSecondaryDeviceRequest21InitAsDefaultInstanceEv
|| __TEXT.__text __ZN3awd7metrics30LocationSecondaryDeviceRequest27MergePartialFromCodedStreamEPN20wireless_diagnostics6google8protobuf2io16CodedInputStreamE
|| __TEXT.__text __ZN3awd7metrics30LocationSecondaryDeviceRequest4SwapEPS1_
|| __TEXT.__text __ZN3awd7metrics30LocationSecondaryDeviceRequest5ClearEv
|| __TEXT.__text __ZN3awd7metrics30LocationSecondaryDeviceRequest8CopyFromERKS1_
|| __TEXT.__text __ZN3awd7metrics30LocationSecondaryDeviceRequest9MergeFromERKS1_
|| __TEXT.__text __ZN3awd7metrics30LocationSecondaryDeviceRequestC1ERKS1_
|| __TEXT.__text __ZN3awd7metrics30LocationSecondaryDeviceRequestC1Ev
|| __TEXT.__text __ZN3awd7metrics30LocationSecondaryDeviceRequestC2ERKS1_
|| __TEXT.__text __ZN3awd7metrics30LocationSecondaryDeviceRequestC2Ev
|| __TEXT.__text __ZN3awd7metrics30LocationSecondaryDeviceRequestD0Ev
|| __TEXT.__text __ZN3awd7metrics30LocationSecondaryDeviceRequestD1Ev
|| __TEXT.__text __ZN3awd7metrics30LocationSecondaryDeviceRequestD2Ev
|| __TEXT.__text __ZN3awd7metrics30MotionFitnessStrideCalibration10SharedCtorEv
|| __TEXT.__text __ZN3awd7metrics30MotionFitnessStrideCalibration10SharedDtorEv
|| __TEXT.__text __ZN3awd7metrics30MotionFitnessStrideCalibration16default_instanceEv
|| __TEXT.__text __ZN3awd7metrics30MotionFitnessStrideCalibration21CheckTypeAndMergeFromERKN20wireless_diagnostics6google8protobuf11MessageLiteE
|| __TEXT.__text __ZN3awd7metrics30MotionFitnessStrideCalibration21InitAsDefaultInstanceEv
|| __TEXT.__text __ZN3awd7metrics30MotionFitnessStrideCalibration27MergePartialFromCodedStreamEPN20wireless_diagnostics6google8protobuf2io16CodedInputStreamE
|| __TEXT.__text __ZN3awd7metrics30MotionFitnessStrideCalibration4SwapEPS1_
|| __TEXT.__text __ZN3awd7metrics30MotionFitnessStrideCalibration5ClearEv
|| __TEXT.__text __ZN3awd7metrics30MotionFitnessStrideCalibration8CopyFromERKS1_
|| __TEXT.__text __ZN3awd7metrics30MotionFitnessStrideCalibration9MergeFromERKS1_
|| __TEXT.__text __ZN3awd7metrics30MotionFitnessStrideCalibrationC1ERKS1_
|| __TEXT.__text __ZN3awd7metrics30MotionFitnessStrideCalibrationC1Ev
|| __TEXT.__text __ZN3awd7metrics30MotionFitnessStrideCalibrationC2ERKS1_
|| __TEXT.__text __ZN3awd7metrics30MotionFitnessStrideCalibrationC2Ev
|| __TEXT.__text __ZN3awd7metrics30MotionFitnessStrideCalibrationD0Ev
|| __TEXT.__text __ZN3awd7metrics30MotionFitnessStrideCalibrationD1Ev
|| __TEXT.__text __ZN3awd7metrics30MotionFitnessStrideCalibrationD2Ev
|| __TEXT.__text __ZN3awd7metrics31LocationMicroLocationModelState10SharedCtorEv
|| __TEXT.__text __ZN3awd7metrics31LocationMicroLocationModelState10SharedDtorEv
|| __TEXT.__text __ZN3awd7metrics31LocationMicroLocationModelState16default_instanceEv
|| __TEXT.__text __ZN3awd7metrics31LocationMicroLocationModelState21CheckTypeAndMergeFromERKN20wireless_diagnostics6google8protobuf11MessageLiteE
|| __TEXT.__text __ZN3awd7metrics31LocationMicroLocationModelState21InitAsDefaultInstanceEv
|| __TEXT.__text __ZN3awd7metrics31LocationMicroLocationModelState27MergePartialFromCodedStreamEPN20wireless_diagnostics6google8protobuf2io16CodedInputStreamE
|| __TEXT.__text __ZN3awd7metrics31LocationMicroLocationModelState4SwapEPS1_
|| __TEXT.__text __ZN3awd7metrics31LocationMicroLocationModelState5ClearEv
|| __TEXT.__text __ZN3awd7metrics31LocationMicroLocationModelState8CopyFromERKS1_
|| __TEXT.__text __ZN3awd7metrics31LocationMicroLocationModelState9MergeFromERKS1_
|| __TEXT.__text __ZN3awd7metrics31LocationMicroLocationModelStateC1ERKS1_
|| __TEXT.__text __ZN3awd7metrics31LocationMicroLocationModelStateC1Ev
|| __TEXT.__text __ZN3awd7metrics31LocationMicroLocationModelStateC2ERKS1_
|| __TEXT.__text __ZN3awd7metrics31LocationMicroLocationModelStateC2Ev
|| __TEXT.__text __ZN3awd7metrics31LocationMicroLocationModelStateD0Ev
|| __TEXT.__text __ZN3awd7metrics31LocationMicroLocationModelStateD1Ev
|| __TEXT.__text __ZN3awd7metrics31LocationMicroLocationModelStateD2Ev
|| __TEXT.__text __ZN3awd7metrics31LocationMicroLocationStatistics10SharedCtorEv
|| __TEXT.__text __ZN3awd7metrics31LocationMicroLocationStatistics10SharedDtorEv
|| __TEXT.__text __ZN3awd7metrics31LocationMicroLocationStatistics16default_instanceEv
|| __TEXT.__text __ZN3awd7metrics31LocationMicroLocationStatistics21CheckTypeAndMergeFromERKN20wireless_diagnostics6google8protobuf11MessageLiteE
|| __TEXT.__text __ZN3awd7metrics31LocationMicroLocationStatistics21InitAsDefaultInstanceEv
|| __TEXT.__text __ZN3awd7metrics31LocationMicroLocationStatistics27MergePartialFromCodedStreamEPN20wireless_diagnostics6google8protobuf2io16CodedInputStreamE
|| __TEXT.__text __ZN3awd7metrics31LocationMicroLocationStatistics4SwapEPS1_
|| __TEXT.__text __ZN3awd7metrics31LocationMicroLocationStatistics5ClearEv
|| __TEXT.__text __ZN3awd7metrics31LocationMicroLocationStatistics8CopyFromERKS1_
|| __TEXT.__text __ZN3awd7metrics31LocationMicroLocationStatistics9MergeFromERKS1_
|| __TEXT.__text __ZN3awd7metrics31LocationMicroLocationStatisticsC1ERKS1_
|| __TEXT.__text __ZN3awd7metrics31LocationMicroLocationStatisticsC1Ev
|| __TEXT.__text __ZN3awd7metrics31LocationMicroLocationStatisticsC2ERKS1_
|| __TEXT.__text __ZN3awd7metrics31LocationMicroLocationStatisticsC2Ev
|| __TEXT.__text __ZN3awd7metrics31LocationMicroLocationStatisticsD0Ev
|| __TEXT.__text __ZN3awd7metrics31LocationMicroLocationStatisticsD1Ev
|| __TEXT.__text __ZN3awd7metrics31LocationMicroLocationStatisticsD2Ev
|| __TEXT.__text __ZN3awd7metrics31LocationPeerRangingBurstMetrics10SharedCtorEv
|| __TEXT.__text __ZN3awd7metrics31LocationPeerRangingBurstMetrics10SharedDtorEv
|| __TEXT.__text __ZN3awd7metrics31LocationPeerRangingBurstMetrics16default_instanceEv
|| __TEXT.__text __ZN3awd7metrics31LocationPeerRangingBurstMetrics21CheckTypeAndMergeFromERKN20wireless_diagnostics6google8protobuf11MessageLiteE
|| __TEXT.__text __ZN3awd7metrics31LocationPeerRangingBurstMetrics21InitAsDefaultInstanceEv
|| __TEXT.__text __ZN3awd7metrics31LocationPeerRangingBurstMetrics27MergePartialFromCodedStreamEPN20wireless_diagnostics6google8protobuf2io16CodedInputStreamE
|| __TEXT.__text __ZN3awd7metrics31LocationPeerRangingBurstMetrics4SwapEPS1_
|| __TEXT.__text __ZN3awd7metrics31LocationPeerRangingBurstMetrics5ClearEv
|| __TEXT.__text __ZN3awd7metrics31LocationPeerRangingBurstMetrics8CopyFromERKS1_
|| __TEXT.__text __ZN3awd7metrics31LocationPeerRangingBurstMetrics9MergeFromERKS1_
|| __TEXT.__text __ZN3awd7metrics31LocationPeerRangingBurstMetricsC1ERKS1_
|| __TEXT.__text __ZN3awd7metrics31LocationPeerRangingBurstMetricsC1Ev
|| __TEXT.__text __ZN3awd7metrics31LocationPeerRangingBurstMetricsC2ERKS1_
|| __TEXT.__text __ZN3awd7metrics31LocationPeerRangingBurstMetricsC2Ev
|| __TEXT.__text __ZN3awd7metrics31LocationPeerRangingBurstMetricsD0Ev
|| __TEXT.__text __ZN3awd7metrics31LocationPeerRangingBurstMetricsD1Ev
|| __TEXT.__text __ZN3awd7metrics31LocationPeerRangingBurstMetricsD2Ev
|| __TEXT.__text __ZN3awd7metrics31LocationPhoneNumberAvailability10SharedCtorEv
|| __TEXT.__text __ZN3awd7metrics31LocationPhoneNumberAvailability10SharedDtorEv
|| __TEXT.__text __ZN3awd7metrics31LocationPhoneNumberAvailability16default_instanceEv
|| __TEXT.__text __ZN3awd7metrics31LocationPhoneNumberAvailability21CheckTypeAndMergeFromERKN20wireless_diagnostics6google8protobuf11MessageLiteE
|| __TEXT.__text __ZN3awd7metrics31LocationPhoneNumberAvailability21InitAsDefaultInstanceEv
|| __TEXT.__text __ZN3awd7metrics31LocationPhoneNumberAvailability27MergePartialFromCodedStreamEPN20wireless_diagnostics6google8protobuf2io16CodedInputStreamE
|| __TEXT.__text __ZN3awd7metrics31LocationPhoneNumberAvailability4SwapEPS1_
|| __TEXT.__text __ZN3awd7metrics31LocationPhoneNumberAvailability5ClearEv
|| __TEXT.__text __ZN3awd7metrics31LocationPhoneNumberAvailability8CopyFromERKS1_
|| __TEXT.__text __ZN3awd7metrics31LocationPhoneNumberAvailability9MergeFromERKS1_
|| __TEXT.__text __ZN3awd7metrics31LocationPhoneNumberAvailabilityC1ERKS1_
|| __TEXT.__text __ZN3awd7metrics31LocationPhoneNumberAvailabilityC1Ev
|| __TEXT.__text __ZN3awd7metrics31LocationPhoneNumberAvailabilityC2ERKS1_
|| __TEXT.__text __ZN3awd7metrics31LocationPhoneNumberAvailabilityC2Ev
|| __TEXT.__text __ZN3awd7metrics31LocationPhoneNumberAvailabilityD0Ev
|| __TEXT.__text __ZN3awd7metrics31LocationPhoneNumberAvailabilityD1Ev
|| __TEXT.__text __ZN3awd7metrics31LocationPhoneNumberAvailabilityD2Ev
|| __TEXT.__text __ZN3awd7metrics32LocationGnssSWRecoveryStatistics10SharedCtorEv
|| __TEXT.__text __ZN3awd7metrics32LocationGnssSWRecoveryStatistics10SharedDtorEv
|| __TEXT.__text __ZN3awd7metrics32LocationGnssSWRecoveryStatistics16default_instanceEv
|| __TEXT.__text __ZN3awd7metrics32LocationGnssSWRecoveryStatistics21CheckTypeAndMergeFromERKN20wireless_diagnostics6google8protobuf11MessageLiteE
|| __TEXT.__text __ZN3awd7metrics32LocationGnssSWRecoveryStatistics21InitAsDefaultInstanceEv
|| __TEXT.__text __ZN3awd7metrics32LocationGnssSWRecoveryStatistics27MergePartialFromCodedStreamEPN20wireless_diagnostics6google8protobuf2io16CodedInputStreamE
|| __TEXT.__text __ZN3awd7metrics32LocationGnssSWRecoveryStatistics4SwapEPS1_
|| __TEXT.__text __ZN3awd7metrics32LocationGnssSWRecoveryStatistics5ClearEv
|| __TEXT.__text __ZN3awd7metrics32LocationGnssSWRecoveryStatistics8CopyFromERKS1_
|| __TEXT.__text __ZN3awd7metrics32LocationGnssSWRecoveryStatistics9MergeFromERKS1_
|| __TEXT.__text __ZN3awd7metrics32LocationGnssSWRecoveryStatisticsC1ERKS1_
|| __TEXT.__text __ZN3awd7metrics32LocationGnssSWRecoveryStatisticsC1Ev
|| __TEXT.__text __ZN3awd7metrics32LocationGnssSWRecoveryStatisticsC2ERKS1_
|| __TEXT.__text __ZN3awd7metrics32LocationGnssSWRecoveryStatisticsC2Ev
|| __TEXT.__text __ZN3awd7metrics32LocationGnssSWRecoveryStatisticsD0Ev
|| __TEXT.__text __ZN3awd7metrics32LocationGnssSWRecoveryStatisticsD1Ev
|| __TEXT.__text __ZN3awd7metrics32LocationGnssSWRecoveryStatisticsD2Ev
|| __TEXT.__text __ZN3awd7metrics33CompassSession_CoverState_IsValidEi
|| __TEXT.__text __ZN3awd7metrics33LocationSubHarvesterUploadAttempt10SharedCtorEv
|| __TEXT.__text __ZN3awd7metrics33LocationSubHarvesterUploadAttempt10SharedDtorEv
|| __TEXT.__text __ZN3awd7metrics33LocationSubHarvesterUploadAttempt16default_instanceEv
|| __TEXT.__text __ZN3awd7metrics33LocationSubHarvesterUploadAttempt21CheckTypeAndMergeFromERKN20wireless_diagnostics6google8protobuf11MessageLiteE
|| __TEXT.__text __ZN3awd7metrics33LocationSubHarvesterUploadAttempt21InitAsDefaultInstanceEv
|| __TEXT.__text __ZN3awd7metrics33LocationSubHarvesterUploadAttempt27MergePartialFromCodedStreamEPN20wireless_diagnostics6google8protobuf2io16CodedInputStreamE
|| __TEXT.__text __ZN3awd7metrics33LocationSubHarvesterUploadAttempt4SwapEPS1_
|| __TEXT.__text __ZN3awd7metrics33LocationSubHarvesterUploadAttempt5ClearEv
|| __TEXT.__text __ZN3awd7metrics33LocationSubHarvesterUploadAttempt8CopyFromERKS1_
|| __TEXT.__text __ZN3awd7metrics33LocationSubHarvesterUploadAttempt9MergeFromERKS1_
|| __TEXT.__text __ZN3awd7metrics33LocationSubHarvesterUploadAttemptC1ERKS1_
|| __TEXT.__text __ZN3awd7metrics33LocationSubHarvesterUploadAttemptC1Ev
|| __TEXT.__text __ZN3awd7metrics33LocationSubHarvesterUploadAttemptC2ERKS1_
|| __TEXT.__text __ZN3awd7metrics33LocationSubHarvesterUploadAttemptC2Ev
|| __TEXT.__text __ZN3awd7metrics33LocationSubHarvesterUploadAttemptD0Ev
|| __TEXT.__text __ZN3awd7metrics33LocationSubHarvesterUploadAttemptD1Ev
|| __TEXT.__text __ZN3awd7metrics33LocationSubHarvesterUploadAttemptD2Ev
|| __TEXT.__text __ZN3awd7metrics33MotionGyroBiasEstimation_EndCount10SharedCtorEv
|| __TEXT.__text __ZN3awd7metrics33MotionGyroBiasEstimation_EndCount10SharedDtorEv
|| __TEXT.__text __ZN3awd7metrics33MotionGyroBiasEstimation_EndCount16default_instanceEv
|| __TEXT.__text __ZN3awd7metrics33MotionGyroBiasEstimation_EndCount21CheckTypeAndMergeFromERKN20wireless_diagnostics6google8protobuf11MessageLiteE
|| __TEXT.__text __ZN3awd7metrics33MotionGyroBiasEstimation_EndCount21InitAsDefaultInstanceEv
|| __TEXT.__text __ZN3awd7metrics33MotionGyroBiasEstimation_EndCount27MergePartialFromCodedStreamEPN20wireless_diagnostics6google8protobuf2io16CodedInputStreamE
|| __TEXT.__text __ZN3awd7metrics33MotionGyroBiasEstimation_EndCount4SwapEPS1_
|| __TEXT.__text __ZN3awd7metrics33MotionGyroBiasEstimation_EndCount5ClearEv
|| __TEXT.__text __ZN3awd7metrics33MotionGyroBiasEstimation_EndCount8CopyFromERKS1_
|| __TEXT.__text __ZN3awd7metrics33MotionGyroBiasEstimation_EndCount9MergeFromERKS1_
|| __TEXT.__text __ZN3awd7metrics33MotionGyroBiasEstimation_EndCountC1ERKS1_
|| __TEXT.__text __ZN3awd7metrics33MotionGyroBiasEstimation_EndCountC1Ev
|| __TEXT.__text __ZN3awd7metrics33MotionGyroBiasEstimation_EndCountC2ERKS1_
|| __TEXT.__text __ZN3awd7metrics33MotionGyroBiasEstimation_EndCountC2Ev
|| __TEXT.__text __ZN3awd7metrics33MotionGyroBiasEstimation_EndCountD0Ev
|| __TEXT.__text __ZN3awd7metrics33MotionGyroBiasEstimation_EndCountD1Ev
|| __TEXT.__text __ZN3awd7metrics33MotionGyroBiasEstimation_EndCountD2Ev
|| __TEXT.__text __ZN3awd7metrics33protobuf_AddDesc_Location_2eprotoEv
|| __TEXT.__text __ZN3awd7metrics34LocationAuthorizationState_IsValidEi
|| __TEXT.__text __ZN3awd7metrics34LocationEmergencySessionStatistics10SharedCtorEv
|| __TEXT.__text __ZN3awd7metrics34LocationEmergencySessionStatistics10SharedDtorEv
|| __TEXT.__text __ZN3awd7metrics34LocationEmergencySessionStatistics16default_instanceEv
|| __TEXT.__text __ZN3awd7metrics34LocationEmergencySessionStatistics21CheckTypeAndMergeFromERKN20wireless_diagnostics6google8protobuf11MessageLiteE
|| __TEXT.__text __ZN3awd7metrics34LocationEmergencySessionStatistics21InitAsDefaultInstanceEv
|| __TEXT.__text __ZN3awd7metrics34LocationEmergencySessionStatistics27MergePartialFromCodedStreamEPN20wireless_diagnostics6google8protobuf2io16CodedInputStreamE
|| __TEXT.__text __ZN3awd7metrics34LocationEmergencySessionStatistics4SwapEPS1_
|| __TEXT.__text __ZN3awd7metrics34LocationEmergencySessionStatistics5ClearEv
|| __TEXT.__text __ZN3awd7metrics34LocationEmergencySessionStatistics8CopyFromERKS1_
|| __TEXT.__text __ZN3awd7metrics34LocationEmergencySessionStatistics9MergeFromERKS1_
|| __TEXT.__text __ZN3awd7metrics34LocationEmergencySessionStatisticsC1ERKS1_
|| __TEXT.__text __ZN3awd7metrics34LocationEmergencySessionStatisticsC1Ev
|| __TEXT.__text __ZN3awd7metrics34LocationEmergencySessionStatisticsC2ERKS1_
|| __TEXT.__text __ZN3awd7metrics34LocationEmergencySessionStatisticsC2Ev
|| __TEXT.__text __ZN3awd7metrics34LocationEmergencySessionStatisticsD0Ev
|| __TEXT.__text __ZN3awd7metrics34LocationEmergencySessionStatisticsD1Ev
|| __TEXT.__text __ZN3awd7metrics34LocationEmergencySessionStatisticsD2Ev
|| __TEXT.__text __ZN3awd7metrics34LocationMicroLocationLearningState10SharedCtorEv
|| __TEXT.__text __ZN3awd7metrics34LocationMicroLocationLearningState10SharedDtorEv
|| __TEXT.__text __ZN3awd7metrics34LocationMicroLocationLearningState16default_instanceEv
|| __TEXT.__text __ZN3awd7metrics34LocationMicroLocationLearningState21CheckTypeAndMergeFromERKN20wireless_diagnostics6google8protobuf11MessageLiteE
|| __TEXT.__text __ZN3awd7metrics34LocationMicroLocationLearningState21InitAsDefaultInstanceEv
|| __TEXT.__text __ZN3awd7metrics34LocationMicroLocationLearningState27MergePartialFromCodedStreamEPN20wireless_diagnostics6google8protobuf2io16CodedInputStreamE
|| __TEXT.__text __ZN3awd7metrics34LocationMicroLocationLearningState4SwapEPS1_
|| __TEXT.__text __ZN3awd7metrics34LocationMicroLocationLearningState5ClearEv
|| __TEXT.__text __ZN3awd7metrics34LocationMicroLocationLearningState8CopyFromERKS1_
|| __TEXT.__text __ZN3awd7metrics34LocationMicroLocationLearningState9MergeFromERKS1_
|| __TEXT.__text __ZN3awd7metrics34LocationMicroLocationLearningStateC1ERKS1_
|| __TEXT.__text __ZN3awd7metrics34LocationMicroLocationLearningStateC1Ev
|| __TEXT.__text __ZN3awd7metrics34LocationMicroLocationLearningStateC2ERKS1_
|| __TEXT.__text __ZN3awd7metrics34LocationMicroLocationLearningStateC2Ev
|| __TEXT.__text __ZN3awd7metrics34LocationMicroLocationLearningStateD0Ev
|| __TEXT.__text __ZN3awd7metrics34LocationMicroLocationLearningStateD1Ev
|| __TEXT.__text __ZN3awd7metrics34LocationMicroLocationLearningStateD2Ev
|| __TEXT.__text __ZN3awd7metrics34MotionSOSEvent_WorkoutType_IsValidEi
|| __TEXT.__text __ZN3awd7metrics35LocationMicroLocationAnalyticsState10SharedCtorEv
|| __TEXT.__text __ZN3awd7metrics35LocationMicroLocationAnalyticsState10SharedDtorEv
|| __TEXT.__text __ZN3awd7metrics35LocationMicroLocationAnalyticsState16default_instanceEv
|| __TEXT.__text __ZN3awd7metrics35LocationMicroLocationAnalyticsState21CheckTypeAndMergeFromERKN20wireless_diagnostics6google8protobuf11MessageLiteE
|| __TEXT.__text __ZN3awd7metrics35LocationMicroLocationAnalyticsState21InitAsDefaultInstanceEv
|| __TEXT.__text __ZN3awd7metrics35LocationMicroLocationAnalyticsState27MergePartialFromCodedStreamEPN20wireless_diagnostics6google8protobuf2io16CodedInputStreamE
|| __TEXT.__text __ZN3awd7metrics35LocationMicroLocationAnalyticsState4SwapEPS1_
|| __TEXT.__text __ZN3awd7metrics35LocationMicroLocationAnalyticsState5ClearEv
|| __TEXT.__text __ZN3awd7metrics35LocationMicroLocationAnalyticsState8CopyFromERKS1_
|| __TEXT.__text __ZN3awd7metrics35LocationMicroLocationAnalyticsState9MergeFromERKS1_
|| __TEXT.__text __ZN3awd7metrics35LocationMicroLocationAnalyticsStateC1ERKS1_
|| __TEXT.__text __ZN3awd7metrics35LocationMicroLocationAnalyticsStateC1Ev
|| __TEXT.__text __ZN3awd7metrics35LocationMicroLocationAnalyticsStateC2ERKS1_
|| __TEXT.__text __ZN3awd7metrics35LocationMicroLocationAnalyticsStateC2Ev
|| __TEXT.__text __ZN3awd7metrics35LocationMicroLocationAnalyticsStateD0Ev
|| __TEXT.__text __ZN3awd7metrics35LocationMicroLocationAnalyticsStateD1Ev
|| __TEXT.__text __ZN3awd7metrics35LocationMicroLocationAnalyticsStateD2Ev
|| __TEXT.__text __ZN3awd7metrics35LocationMicroLocationEventHistogram10SharedCtorEv
|| __TEXT.__text __ZN3awd7metrics35LocationMicroLocationEventHistogram10SharedDtorEv
|| __TEXT.__text __ZN3awd7metrics35LocationMicroLocationEventHistogram16default_instanceEv
|| __TEXT.__text __ZN3awd7metrics35LocationMicroLocationEventHistogram21CheckTypeAndMergeFromERKN20wireless_diagnostics6google8protobuf11MessageLiteE
|| __TEXT.__text __ZN3awd7metrics35LocationMicroLocationEventHistogram21InitAsDefaultInstanceEv
|| __TEXT.__text __ZN3awd7metrics35LocationMicroLocationEventHistogram27MergePartialFromCodedStreamEPN20wireless_diagnostics6google8protobuf2io16CodedInputStreamE
|| __TEXT.__text __ZN3awd7metrics35LocationMicroLocationEventHistogram4SwapEPS1_
|| __TEXT.__text __ZN3awd7metrics35LocationMicroLocationEventHistogram5ClearEv
|| __TEXT.__text __ZN3awd7metrics35LocationMicroLocationEventHistogram8CopyFromERKS1_
|| __TEXT.__text __ZN3awd7metrics35LocationMicroLocationEventHistogram9MergeFromERKS1_
|| __TEXT.__text __ZN3awd7metrics35LocationMicroLocationEventHistogramC1ERKS1_
|| __TEXT.__text __ZN3awd7metrics35LocationMicroLocationEventHistogramC1Ev
|| __TEXT.__text __ZN3awd7metrics35LocationMicroLocationEventHistogramC2ERKS1_
|| __TEXT.__text __ZN3awd7metrics35LocationMicroLocationEventHistogramC2Ev
|| __TEXT.__text __ZN3awd7metrics35LocationMicroLocationEventHistogramD0Ev
|| __TEXT.__text __ZN3awd7metrics35LocationMicroLocationEventHistogramD1Ev
|| __TEXT.__text __ZN3awd7metrics35LocationMicroLocationEventHistogramD2Ev
|| __TEXT.__text __ZN3awd7metrics37LocationPeerRangingMeasurementMetrics10SharedCtorEv
|| __TEXT.__text __ZN3awd7metrics37LocationPeerRangingMeasurementMetrics10SharedDtorEv
|| __TEXT.__text __ZN3awd7metrics37LocationPeerRangingMeasurementMetrics16default_instanceEv
|| __TEXT.__text __ZN3awd7metrics37LocationPeerRangingMeasurementMetrics21CheckTypeAndMergeFromERKN20wireless_diagnostics6google8protobuf11MessageLiteE
|| __TEXT.__text __ZN3awd7metrics37LocationPeerRangingMeasurementMetrics21InitAsDefaultInstanceEv
|| __TEXT.__text __ZN3awd7metrics37LocationPeerRangingMeasurementMetrics27MergePartialFromCodedStreamEPN20wireless_diagnostics6google8protobuf2io16CodedInputStreamE
|| __TEXT.__text __ZN3awd7metrics37LocationPeerRangingMeasurementMetrics4SwapEPS1_
|| __TEXT.__text __ZN3awd7metrics37LocationPeerRangingMeasurementMetrics5ClearEv
|| __TEXT.__text __ZN3awd7metrics37LocationPeerRangingMeasurementMetrics8CopyFromERKS1_
|| __TEXT.__text __ZN3awd7metrics37LocationPeerRangingMeasurementMetrics9MergeFromERKS1_
|| __TEXT.__text __ZN3awd7metrics37LocationPeerRangingMeasurementMetricsC1ERKS1_
|| __TEXT.__text __ZN3awd7metrics37LocationPeerRangingMeasurementMetricsC1Ev
|| __TEXT.__text __ZN3awd7metrics37LocationPeerRangingMeasurementMetricsC2ERKS1_
|| __TEXT.__text __ZN3awd7metrics37LocationPeerRangingMeasurementMetricsC2Ev
|| __TEXT.__text __ZN3awd7metrics37LocationPeerRangingMeasurementMetricsD0Ev
|| __TEXT.__text __ZN3awd7metrics37LocationPeerRangingMeasurementMetricsD1Ev
|| __TEXT.__text __ZN3awd7metrics37LocationPeerRangingMeasurementMetricsD2Ev
|| __TEXT.__text __ZN3awd7metrics37LocationWifiAPLocationProviderSession10SharedCtorEv
|| __TEXT.__text __ZN3awd7metrics37LocationWifiAPLocationProviderSession10SharedDtorEv
|| __TEXT.__text __ZN3awd7metrics37LocationWifiAPLocationProviderSession16default_instanceEv
|| __TEXT.__text __ZN3awd7metrics37LocationWifiAPLocationProviderSession21CheckTypeAndMergeFromERKN20wireless_diagnostics6google8protobuf11MessageLiteE
|| __TEXT.__text __ZN3awd7metrics37LocationWifiAPLocationProviderSession21InitAsDefaultInstanceEv
|| __TEXT.__text __ZN3awd7metrics37LocationWifiAPLocationProviderSession27MergePartialFromCodedStreamEPN20wireless_diagnostics6google8protobuf2io16CodedInputStreamE
|| __TEXT.__text __ZN3awd7metrics37LocationWifiAPLocationProviderSession4SwapEPS1_
|| __TEXT.__text __ZN3awd7metrics37LocationWifiAPLocationProviderSession5ClearEv
|| __TEXT.__text __ZN3awd7metrics37LocationWifiAPLocationProviderSession8CopyFromERKS1_
|| __TEXT.__text __ZN3awd7metrics37LocationWifiAPLocationProviderSession9MergeFromERKS1_
|| __TEXT.__text __ZN3awd7metrics37LocationWifiAPLocationProviderSessionC1ERKS1_
|| __TEXT.__text __ZN3awd7metrics37LocationWifiAPLocationProviderSessionC1Ev
|| __TEXT.__text __ZN3awd7metrics37LocationWifiAPLocationProviderSessionC2ERKS1_
|| __TEXT.__text __ZN3awd7metrics37LocationWifiAPLocationProviderSessionC2Ev
|| __TEXT.__text __ZN3awd7metrics37LocationWifiAPLocationProviderSessionD0Ev
|| __TEXT.__text __ZN3awd7metrics37LocationWifiAPLocationProviderSessionD1Ev
|| __TEXT.__text __ZN3awd7metrics37LocationWifiAPLocationProviderSessionD2Ev
|| __TEXT.__text __ZN3awd7metrics37MotionFitnessSession_HRSource_IsValidEi
|| __TEXT.__text __ZN3awd7metrics38LocationMicroLocationClusteringByModel10SharedCtorEv
|| __TEXT.__text __ZN3awd7metrics38LocationMicroLocationClusteringByModel10SharedDtorEv
|| __TEXT.__text __ZN3awd7metrics38LocationMicroLocationClusteringByModel16default_instanceEv
|| __TEXT.__text __ZN3awd7metrics38LocationMicroLocationClusteringByModel21CheckTypeAndMergeFromERKN20wireless_diagnostics6google8protobuf11MessageLiteE
|| __TEXT.__text __ZN3awd7metrics38LocationMicroLocationClusteringByModel21InitAsDefaultInstanceEv
|| __TEXT.__text __ZN3awd7metrics38LocationMicroLocationClusteringByModel27MergePartialFromCodedStreamEPN20wireless_diagnostics6google8protobuf2io16CodedInputStreamE
|| __TEXT.__text __ZN3awd7metrics38LocationMicroLocationClusteringByModel4SwapEPS1_
|| __TEXT.__text __ZN3awd7metrics38LocationMicroLocationClusteringByModel5ClearEv
|| __TEXT.__text __ZN3awd7metrics38LocationMicroLocationClusteringByModel8CopyFromERKS1_
|| __TEXT.__text __ZN3awd7metrics38LocationMicroLocationClusteringByModel9MergeFromERKS1_
|| __TEXT.__text __ZN3awd7metrics38LocationMicroLocationClusteringByModelC1ERKS1_
|| __TEXT.__text __ZN3awd7metrics38LocationMicroLocationClusteringByModelC1Ev
|| __TEXT.__text __ZN3awd7metrics38LocationMicroLocationClusteringByModelC2ERKS1_
|| __TEXT.__text __ZN3awd7metrics38LocationMicroLocationClusteringByModelC2Ev
|| __TEXT.__text __ZN3awd7metrics38LocationMicroLocationClusteringByModelD0Ev
|| __TEXT.__text __ZN3awd7metrics38LocationMicroLocationClusteringByModelD1Ev
|| __TEXT.__text __ZN3awd7metrics38LocationMicroLocationClusteringByModelD2Ev
|| __TEXT.__text __ZN3awd7metrics38LocationMicroLocationEventTypeAndCount10SharedCtorEv
|| __TEXT.__text __ZN3awd7metrics38LocationMicroLocationEventTypeAndCount10SharedDtorEv
|| __TEXT.__text __ZN3awd7metrics38LocationMicroLocationEventTypeAndCount16default_instanceEv
|| __TEXT.__text __ZN3awd7metrics38LocationMicroLocationEventTypeAndCount21CheckTypeAndMergeFromERKN20wireless_diagnostics6google8protobuf11MessageLiteE
|| __TEXT.__text __ZN3awd7metrics38LocationMicroLocationEventTypeAndCount21InitAsDefaultInstanceEv
|| __TEXT.__text __ZN3awd7metrics38LocationMicroLocationEventTypeAndCount27MergePartialFromCodedStreamEPN20wireless_diagnostics6google8protobuf2io16CodedInputStreamE
|| __TEXT.__text __ZN3awd7metrics38LocationMicroLocationEventTypeAndCount4SwapEPS1_
|| __TEXT.__text __ZN3awd7metrics38LocationMicroLocationEventTypeAndCount5ClearEv
|| __TEXT.__text __ZN3awd7metrics38LocationMicroLocationEventTypeAndCount8CopyFromERKS1_
|| __TEXT.__text __ZN3awd7metrics38LocationMicroLocationEventTypeAndCount9MergeFromERKS1_
|| __TEXT.__text __ZN3awd7metrics38LocationMicroLocationEventTypeAndCountC1ERKS1_
|| __TEXT.__text __ZN3awd7metrics38LocationMicroLocationEventTypeAndCountC1Ev
|| __TEXT.__text __ZN3awd7metrics38LocationMicroLocationEventTypeAndCountC2ERKS1_
|| __TEXT.__text __ZN3awd7metrics38LocationMicroLocationEventTypeAndCountC2Ev
|| __TEXT.__text __ZN3awd7metrics38LocationMicroLocationEventTypeAndCountD0Ev
|| __TEXT.__text __ZN3awd7metrics38LocationMicroLocationEventTypeAndCountD1Ev
|| __TEXT.__text __ZN3awd7metrics38LocationMicroLocationEventTypeAndCountD2Ev
|| __TEXT.__text __ZN3awd7metrics38LocationMicroLocationModelType_IsValidEi
|| __TEXT.__text __ZN3awd7metrics38LocationSubHarvesterIdentifier_IsValidEi
|| __TEXT.__text __ZN3awd7metrics38protobuf_AddDesc_MicroLocation_2eprotoEv
|| __TEXT.__text __ZN3awd7metrics38protobuf_ShutdownFile_Location_2eprotoEv
|| __TEXT.__text __ZN3awd7metrics39CompassSession_CalibrationLevel_IsValidEi
|| __TEXT.__text __ZN3awd7metrics39LocationMicroLocationMetricType_IsValidEi
|| __TEXT.__text __ZN3awd7metrics39LocationMicroLocationSignificanceMetric10SharedCtorEv
|| __TEXT.__text __ZN3awd7metrics39LocationMicroLocationSignificanceMetric10SharedDtorEv
|| __TEXT.__text __ZN3awd7metrics39LocationMicroLocationSignificanceMetric16default_instanceEv
|| __TEXT.__text __ZN3awd7metrics39LocationMicroLocationSignificanceMetric21CheckTypeAndMergeFromERKN20wireless_diagnostics6google8protobuf11MessageLiteE
|| __TEXT.__text __ZN3awd7metrics39LocationMicroLocationSignificanceMetric21InitAsDefaultInstanceEv
|| __TEXT.__text __ZN3awd7metrics39LocationMicroLocationSignificanceMetric27MergePartialFromCodedStreamEPN20wireless_diagnostics6google8protobuf2io16CodedInputStreamE
|| __TEXT.__text __ZN3awd7metrics39LocationMicroLocationSignificanceMetric4SwapEPS1_
|| __TEXT.__text __ZN3awd7metrics39LocationMicroLocationSignificanceMetric5ClearEv
|| __TEXT.__text __ZN3awd7metrics39LocationMicroLocationSignificanceMetric8CopyFromERKS1_
|| __TEXT.__text __ZN3awd7metrics39LocationMicroLocationSignificanceMetric9MergeFromERKS1_
|| __TEXT.__text __ZN3awd7metrics39LocationMicroLocationSignificanceMetricC1ERKS1_
|| __TEXT.__text __ZN3awd7metrics39LocationMicroLocationSignificanceMetricC1Ev
|| __TEXT.__text __ZN3awd7metrics39LocationMicroLocationSignificanceMetricC2ERKS1_
|| __TEXT.__text __ZN3awd7metrics39LocationMicroLocationSignificanceMetricC2Ev
|| __TEXT.__text __ZN3awd7metrics39LocationMicroLocationSignificanceMetricD0Ev
|| __TEXT.__text __ZN3awd7metrics39LocationMicroLocationSignificanceMetricD1Ev
|| __TEXT.__text __ZN3awd7metrics39LocationMicroLocationSignificanceMetricD2Ev
|| __TEXT.__text __ZN3awd7metrics39MicroLocationRecordingEventType_IsValidEi
|| __TEXT.__text __ZN3awd7metrics39MotionFitnessDaily_WearableType_IsValidEi
|| __TEXT.__text __ZN3awd7metrics40LocationMicroLocationUserEventStatistics10SharedCtorEv
|| __TEXT.__text __ZN3awd7metrics40LocationMicroLocationUserEventStatistics10SharedDtorEv
|| __TEXT.__text __ZN3awd7metrics40LocationMicroLocationUserEventStatistics16default_instanceEv
|| __TEXT.__text __ZN3awd7metrics40LocationMicroLocationUserEventStatistics21CheckTypeAndMergeFromERKN20wireless_diagnostics6google8protobuf11MessageLiteE
|| __TEXT.__text __ZN3awd7metrics40LocationMicroLocationUserEventStatistics21InitAsDefaultInstanceEv
|| __TEXT.__text __ZN3awd7metrics40LocationMicroLocationUserEventStatistics27MergePartialFromCodedStreamEPN20wireless_diagnostics6google8protobuf2io16CodedInputStreamE
|| __TEXT.__text __ZN3awd7metrics40LocationMicroLocationUserEventStatistics4SwapEPS1_
|| __TEXT.__text __ZN3awd7metrics40LocationMicroLocationUserEventStatistics5ClearEv
|| __TEXT.__text __ZN3awd7metrics40LocationMicroLocationUserEventStatistics8CopyFromERKS1_
|| __TEXT.__text __ZN3awd7metrics40LocationMicroLocationUserEventStatistics9MergeFromERKS1_
|| __TEXT.__text __ZN3awd7metrics40LocationMicroLocationUserEventStatisticsC1ERKS1_
|| __TEXT.__text __ZN3awd7metrics40LocationMicroLocationUserEventStatisticsC1Ev
|| __TEXT.__text __ZN3awd7metrics40LocationMicroLocationUserEventStatisticsC2ERKS1_
|| __TEXT.__text __ZN3awd7metrics40LocationMicroLocationUserEventStatisticsC2Ev
|| __TEXT.__text __ZN3awd7metrics40LocationMicroLocationUserEventStatisticsD0Ev
|| __TEXT.__text __ZN3awd7metrics40LocationMicroLocationUserEventStatisticsD1Ev
|| __TEXT.__text __ZN3awd7metrics40LocationMicroLocationUserEventStatisticsD2Ev
|| __TEXT.__text __ZN3awd7metrics40LocationPeerRangingEarlyTerminateMetrics10SharedCtorEv
|| __TEXT.__text __ZN3awd7metrics40LocationPeerRangingEarlyTerminateMetrics10SharedDtorEv
|| __TEXT.__text __ZN3awd7metrics40LocationPeerRangingEarlyTerminateMetrics16default_instanceEv
|| __TEXT.__text __ZN3awd7metrics40LocationPeerRangingEarlyTerminateMetrics21CheckTypeAndMergeFromERKN20wireless_diagnostics6google8protobuf11MessageLiteE
|| __TEXT.__text __ZN3awd7metrics40LocationPeerRangingEarlyTerminateMetrics21InitAsDefaultInstanceEv
|| __TEXT.__text __ZN3awd7metrics40LocationPeerRangingEarlyTerminateMetrics27MergePartialFromCodedStreamEPN20wireless_diagnostics6google8protobuf2io16CodedInputStreamE
|| __TEXT.__text __ZN3awd7metrics40LocationPeerRangingEarlyTerminateMetrics4SwapEPS1_
|| __TEXT.__text __ZN3awd7metrics40LocationPeerRangingEarlyTerminateMetrics5ClearEv
|| __TEXT.__text __ZN3awd7metrics40LocationPeerRangingEarlyTerminateMetrics8CopyFromERKS1_
|| __TEXT.__text __ZN3awd7metrics40LocationPeerRangingEarlyTerminateMetrics9MergeFromERKS1_
|| __TEXT.__text __ZN3awd7metrics40LocationPeerRangingEarlyTerminateMetricsC1ERKS1_
|| __TEXT.__text __ZN3awd7metrics40LocationPeerRangingEarlyTerminateMetricsC1Ev
|| __TEXT.__text __ZN3awd7metrics40LocationPeerRangingEarlyTerminateMetricsC2ERKS1_
|| __TEXT.__text __ZN3awd7metrics40LocationPeerRangingEarlyTerminateMetricsC2Ev
|| __TEXT.__text __ZN3awd7metrics40LocationPeerRangingEarlyTerminateMetricsD0Ev
|| __TEXT.__text __ZN3awd7metrics40LocationPeerRangingEarlyTerminateMetricsD1Ev
|| __TEXT.__text __ZN3awd7metrics40LocationPeerRangingEarlyTerminateMetricsD2Ev
|| __TEXT.__text __ZN3awd7metrics40LocationPeerRangingUnlockDecisionMetrics10SharedCtorEv
|| __TEXT.__text __ZN3awd7metrics40LocationPeerRangingUnlockDecisionMetrics10SharedDtorEv
|| __TEXT.__text __ZN3awd7metrics40LocationPeerRangingUnlockDecisionMetrics16default_instanceEv
|| __TEXT.__text __ZN3awd7metrics40LocationPeerRangingUnlockDecisionMetrics21CheckTypeAndMergeFromERKN20wireless_diagnostics6google8protobuf11MessageLiteE
|| __TEXT.__text __ZN3awd7metrics40LocationPeerRangingUnlockDecisionMetrics21InitAsDefaultInstanceEv
|| __TEXT.__text __ZN3awd7metrics40LocationPeerRangingUnlockDecisionMetrics27MergePartialFromCodedStreamEPN20wireless_diagnostics6google8protobuf2io16CodedInputStreamE
|| __TEXT.__text __ZN3awd7metrics40LocationPeerRangingUnlockDecisionMetrics4SwapEPS1_
|| __TEXT.__text __ZN3awd7metrics40LocationPeerRangingUnlockDecisionMetrics5ClearEv
|| __TEXT.__text __ZN3awd7metrics40LocationPeerRangingUnlockDecisionMetrics8CopyFromERKS1_
|| __TEXT.__text __ZN3awd7metrics40LocationPeerRangingUnlockDecisionMetrics9MergeFromERKS1_
|| __TEXT.__text __ZN3awd7metrics40LocationPeerRangingUnlockDecisionMetricsC1ERKS1_
|| __TEXT.__text __ZN3awd7metrics40LocationPeerRangingUnlockDecisionMetricsC1Ev
|| __TEXT.__text __ZN3awd7metrics40LocationPeerRangingUnlockDecisionMetricsC2ERKS1_
|| __TEXT.__text __ZN3awd7metrics40LocationPeerRangingUnlockDecisionMetricsC2Ev
|| __TEXT.__text __ZN3awd7metrics40LocationPeerRangingUnlockDecisionMetricsD0Ev
|| __TEXT.__text __ZN3awd7metrics40LocationPeerRangingUnlockDecisionMetricsD1Ev
|| __TEXT.__text __ZN3awd7metrics40LocationPeerRangingUnlockDecisionMetricsD2Ev
|| __TEXT.__text __ZN3awd7metrics40MotionFitnessSession_WorkoutType_IsValidEi
|| __TEXT.__text __ZN3awd7metrics41LocationGPSSessionStatistics_ChecksumData10SharedCtorEv
|| __TEXT.__text __ZN3awd7metrics41LocationGPSSessionStatistics_ChecksumData10SharedDtorEv
|| __TEXT.__text __ZN3awd7metrics41LocationGPSSessionStatistics_ChecksumData16default_instanceEv
|| __TEXT.__text __ZN3awd7metrics41LocationGPSSessionStatistics_ChecksumData21CheckTypeAndMergeFromERKN20wireless_diagnostics6google8protobuf11MessageLiteE
|| __TEXT.__text __ZN3awd7metrics41LocationGPSSessionStatistics_ChecksumData21InitAsDefaultInstanceEv
|| __TEXT.__text __ZN3awd7metrics41LocationGPSSessionStatistics_ChecksumData27MergePartialFromCodedStreamEPN20wireless_diagnostics6google8protobuf2io16CodedInputStreamE
|| __TEXT.__text __ZN3awd7metrics41LocationGPSSessionStatistics_ChecksumData4SwapEPS1_
|| __TEXT.__text __ZN3awd7metrics41LocationGPSSessionStatistics_ChecksumData5ClearEv
|| __TEXT.__text __ZN3awd7metrics41LocationGPSSessionStatistics_ChecksumData8CopyFromERKS1_
|| __TEXT.__text __ZN3awd7metrics41LocationGPSSessionStatistics_ChecksumData9MergeFromERKS1_
|| __TEXT.__text __ZN3awd7metrics41LocationGPSSessionStatistics_ChecksumDataC1ERKS1_
|| __TEXT.__text __ZN3awd7metrics41LocationGPSSessionStatistics_ChecksumDataC1Ev
|| __TEXT.__text __ZN3awd7metrics41LocationGPSSessionStatistics_ChecksumDataC2ERKS1_
|| __TEXT.__text __ZN3awd7metrics41LocationGPSSessionStatistics_ChecksumDataC2Ev
|| __TEXT.__text __ZN3awd7metrics41LocationGPSSessionStatistics_ChecksumDataD0Ev
|| __TEXT.__text __ZN3awd7metrics41LocationGPSSessionStatistics_ChecksumDataD1Ev
|| __TEXT.__text __ZN3awd7metrics41LocationGPSSessionStatistics_ChecksumDataD2Ev
|| __TEXT.__text __ZN3awd7metrics41LocationMicroLocationClusteringStatistics10SharedCtorEv
|| __TEXT.__text __ZN3awd7metrics41LocationMicroLocationClusteringStatistics10SharedDtorEv
|| __TEXT.__text __ZN3awd7metrics41LocationMicroLocationClusteringStatistics16default_instanceEv
|| __TEXT.__text __ZN3awd7metrics41LocationMicroLocationClusteringStatistics21CheckTypeAndMergeFromERKN20wireless_diagnostics6google8protobuf11MessageLiteE
|| __TEXT.__text __ZN3awd7metrics41LocationMicroLocationClusteringStatistics21InitAsDefaultInstanceEv
|| __TEXT.__text __ZN3awd7metrics41LocationMicroLocationClusteringStatistics27MergePartialFromCodedStreamEPN20wireless_diagnostics6google8protobuf2io16CodedInputStreamE
|| __TEXT.__text __ZN3awd7metrics41LocationMicroLocationClusteringStatistics4SwapEPS1_
|| __TEXT.__text __ZN3awd7metrics41LocationMicroLocationClusteringStatistics5ClearEv
|| __TEXT.__text __ZN3awd7metrics41LocationMicroLocationClusteringStatistics8CopyFromERKS1_
|| __TEXT.__text __ZN3awd7metrics41LocationMicroLocationClusteringStatistics9MergeFromERKS1_
|| __TEXT.__text __ZN3awd7metrics41LocationMicroLocationClusteringStatisticsC1ERKS1_
|| __TEXT.__text __ZN3awd7metrics41LocationMicroLocationClusteringStatisticsC1Ev
|| __TEXT.__text __ZN3awd7metrics41LocationMicroLocationClusteringStatisticsC2ERKS1_
|| __TEXT.__text __ZN3awd7metrics41LocationMicroLocationClusteringStatisticsC2Ev
|| __TEXT.__text __ZN3awd7metrics41LocationMicroLocationClusteringStatisticsD0Ev
|| __TEXT.__text __ZN3awd7metrics41LocationMicroLocationClusteringStatisticsD1Ev
|| __TEXT.__text __ZN3awd7metrics41LocationMicroLocationClusteringStatisticsD2Ev
|| __TEXT.__text __ZN3awd7metrics41LocationPeerRangingDecisionReason_IsValidEi
|| __TEXT.__text __ZN3awd7metrics41LocationPeerRangingEstimatorConfiguration10SharedCtorEv
|| __TEXT.__text __ZN3awd7metrics41LocationPeerRangingEstimatorConfiguration10SharedDtorEv
|| __TEXT.__text __ZN3awd7metrics41LocationPeerRangingEstimatorConfiguration16default_instanceEv
|| __TEXT.__text __ZN3awd7metrics41LocationPeerRangingEstimatorConfiguration21CheckTypeAndMergeFromERKN20wireless_diagnostics6google8protobuf11MessageLiteE
|| __TEXT.__text __ZN3awd7metrics41LocationPeerRangingEstimatorConfiguration21InitAsDefaultInstanceEv
|| __TEXT.__text __ZN3awd7metrics41LocationPeerRangingEstimatorConfiguration27MergePartialFromCodedStreamEPN20wireless_diagnostics6google8protobuf2io16CodedInputStreamE
|| __TEXT.__text __ZN3awd7metrics41LocationPeerRangingEstimatorConfiguration4SwapEPS1_
|| __TEXT.__text __ZN3awd7metrics41LocationPeerRangingEstimatorConfiguration5ClearEv
|| __TEXT.__text __ZN3awd7metrics41LocationPeerRangingEstimatorConfiguration8CopyFromERKS1_
|| __TEXT.__text __ZN3awd7metrics41LocationPeerRangingEstimatorConfiguration9MergeFromERKS1_
|| __TEXT.__text __ZN3awd7metrics41LocationPeerRangingEstimatorConfigurationC1ERKS1_
|| __TEXT.__text __ZN3awd7metrics41LocationPeerRangingEstimatorConfigurationC1Ev
|| __TEXT.__text __ZN3awd7metrics41LocationPeerRangingEstimatorConfigurationC2ERKS1_
|| __TEXT.__text __ZN3awd7metrics41LocationPeerRangingEstimatorConfigurationC2Ev
|| __TEXT.__text __ZN3awd7metrics41LocationPeerRangingEstimatorConfigurationD0Ev
|| __TEXT.__text __ZN3awd7metrics41LocationPeerRangingEstimatorConfigurationD1Ev
|| __TEXT.__text __ZN3awd7metrics41LocationPeerRangingEstimatorConfigurationD2Ev
|| __TEXT.__text __ZN3awd7metrics42LocationMicroLocationMeasurementStatistics10SharedCtorEv
|| __TEXT.__text __ZN3awd7metrics42LocationMicroLocationMeasurementStatistics10SharedDtorEv
|| __TEXT.__text __ZN3awd7metrics42LocationMicroLocationMeasurementStatistics16default_instanceEv
|| __TEXT.__text __ZN3awd7metrics42LocationMicroLocationMeasurementStatistics21CheckTypeAndMergeFromERKN20wireless_diagnostics6google8protobuf11MessageLiteE
|| __TEXT.__text __ZN3awd7metrics42LocationMicroLocationMeasurementStatistics21InitAsDefaultInstanceEv
|| __TEXT.__text __ZN3awd7metrics42LocationMicroLocationMeasurementStatistics27MergePartialFromCodedStreamEPN20wireless_diagnostics6google8protobuf2io16CodedInputStreamE
|| __TEXT.__text __ZN3awd7metrics42LocationMicroLocationMeasurementStatistics4SwapEPS1_
|| __TEXT.__text __ZN3awd7metrics42LocationMicroLocationMeasurementStatistics5ClearEv
|| __TEXT.__text __ZN3awd7metrics42LocationMicroLocationMeasurementStatistics8CopyFromERKS1_
|| __TEXT.__text __ZN3awd7metrics42LocationMicroLocationMeasurementStatistics9MergeFromERKS1_
|| __TEXT.__text __ZN3awd7metrics42LocationMicroLocationMeasurementStatisticsC1ERKS1_
|| __TEXT.__text __ZN3awd7metrics42LocationMicroLocationMeasurementStatisticsC1Ev
|| __TEXT.__text __ZN3awd7metrics42LocationMicroLocationMeasurementStatisticsC2ERKS1_
|| __TEXT.__text __ZN3awd7metrics42LocationMicroLocationMeasurementStatisticsC2Ev
|| __TEXT.__text __ZN3awd7metrics42LocationMicroLocationMeasurementStatisticsD0Ev
|| __TEXT.__text __ZN3awd7metrics42LocationMicroLocationMeasurementStatisticsD1Ev
|| __TEXT.__text __ZN3awd7metrics42LocationMicroLocationMeasurementStatisticsD2Ev
|| __TEXT.__text __ZN3awd7metrics43LocationGPSSessionStatistics_PowerStateData10SharedCtorEv
|| __TEXT.__text __ZN3awd7metrics43LocationGPSSessionStatistics_PowerStateData10SharedDtorEv
|| __TEXT.__text __ZN3awd7metrics43LocationGPSSessionStatistics_PowerStateData16default_instanceEv
|| __TEXT.__text __ZN3awd7metrics43LocationGPSSessionStatistics_PowerStateData21CheckTypeAndMergeFromERKN20wireless_diagnostics6google8protobuf11MessageLiteE
|| __TEXT.__text __ZN3awd7metrics43LocationGPSSessionStatistics_PowerStateData21InitAsDefaultInstanceEv
|| __TEXT.__text __ZN3awd7metrics43LocationGPSSessionStatistics_PowerStateData27MergePartialFromCodedStreamEPN20wireless_diagnostics6google8protobuf2io16CodedInputStreamE
|| __TEXT.__text __ZN3awd7metrics43LocationGPSSessionStatistics_PowerStateData4SwapEPS1_
|| __TEXT.__text __ZN3awd7metrics43LocationGPSSessionStatistics_PowerStateData5ClearEv
|| __TEXT.__text __ZN3awd7metrics43LocationGPSSessionStatistics_PowerStateData8CopyFromERKS1_
|| __TEXT.__text __ZN3awd7metrics43LocationGPSSessionStatistics_PowerStateData9MergeFromERKS1_
|| __TEXT.__text __ZN3awd7metrics43LocationGPSSessionStatistics_PowerStateDataC1ERKS1_
|| __TEXT.__text __ZN3awd7metrics43LocationGPSSessionStatistics_PowerStateDataC1Ev
|| __TEXT.__text __ZN3awd7metrics43LocationGPSSessionStatistics_PowerStateDataC2ERKS1_
|| __TEXT.__text __ZN3awd7metrics43LocationGPSSessionStatistics_PowerStateDataC2Ev
|| __TEXT.__text __ZN3awd7metrics43LocationGPSSessionStatistics_PowerStateDataD0Ev
|| __TEXT.__text __ZN3awd7metrics43LocationGPSSessionStatistics_PowerStateDataD1Ev
|| __TEXT.__text __ZN3awd7metrics43LocationGPSSessionStatistics_PowerStateDataD2Ev
|| __TEXT.__text __ZN3awd7metrics43LocationMicroLocationLocalizationStatistics10SharedCtorEv
|| __TEXT.__text __ZN3awd7metrics43LocationMicroLocationLocalizationStatistics10SharedDtorEv
|| __TEXT.__text __ZN3awd7metrics43LocationMicroLocationLocalizationStatistics16default_instanceEv
|| __TEXT.__text __ZN3awd7metrics43LocationMicroLocationLocalizationStatistics21CheckTypeAndMergeFromERKN20wireless_diagnostics6google8protobuf11MessageLiteE
|| __TEXT.__text __ZN3awd7metrics43LocationMicroLocationLocalizationStatistics21InitAsDefaultInstanceEv
|| __TEXT.__text __ZN3awd7metrics43LocationMicroLocationLocalizationStatistics27MergePartialFromCodedStreamEPN20wireless_diagnostics6google8protobuf2io16CodedInputStreamE
|| __TEXT.__text __ZN3awd7metrics43LocationMicroLocationLocalizationStatistics4SwapEPS1_
|| __TEXT.__text __ZN3awd7metrics43LocationMicroLocationLocalizationStatistics5ClearEv
|| __TEXT.__text __ZN3awd7metrics43LocationMicroLocationLocalizationStatistics8CopyFromERKS1_
|| __TEXT.__text __ZN3awd7metrics43LocationMicroLocationLocalizationStatistics9MergeFromERKS1_
|| __TEXT.__text __ZN3awd7metrics43LocationMicroLocationLocalizationStatisticsC1ERKS1_
|| __TEXT.__text __ZN3awd7metrics43LocationMicroLocationLocalizationStatisticsC1Ev
|| __TEXT.__text __ZN3awd7metrics43LocationMicroLocationLocalizationStatisticsC2ERKS1_
|| __TEXT.__text __ZN3awd7metrics43LocationMicroLocationLocalizationStatisticsC2Ev
|| __TEXT.__text __ZN3awd7metrics43LocationMicroLocationLocalizationStatisticsD0Ev
|| __TEXT.__text __ZN3awd7metrics43LocationMicroLocationLocalizationStatisticsD1Ev
|| __TEXT.__text __ZN3awd7metrics43LocationMicroLocationLocalizationStatisticsD2Ev
|| __TEXT.__text __ZN3awd7metrics43protobuf_ShutdownFile_MicroLocation_2eprotoEv
|| __TEXT.__text __ZN3awd7metrics44LocationGPSSessionStatistics_MovingStateData10SharedCtorEv
|| __TEXT.__text __ZN3awd7metrics44LocationGPSSessionStatistics_MovingStateData10SharedDtorEv
|| __TEXT.__text __ZN3awd7metrics44LocationGPSSessionStatistics_MovingStateData16default_instanceEv
|| __TEXT.__text __ZN3awd7metrics44LocationGPSSessionStatistics_MovingStateData21CheckTypeAndMergeFromERKN20wireless_diagnostics6google8protobuf11MessageLiteE
|| __TEXT.__text __ZN3awd7metrics44LocationGPSSessionStatistics_MovingStateData21InitAsDefaultInstanceEv
|| __TEXT.__text __ZN3awd7metrics44LocationGPSSessionStatistics_MovingStateData27MergePartialFromCodedStreamEPN20wireless_diagnostics6google8protobuf2io16CodedInputStreamE
|| __TEXT.__text __ZN3awd7metrics44LocationGPSSessionStatistics_MovingStateData4SwapEPS1_
|| __TEXT.__text __ZN3awd7metrics44LocationGPSSessionStatistics_MovingStateData5ClearEv
|| __TEXT.__text __ZN3awd7metrics44LocationGPSSessionStatistics_MovingStateData8CopyFromERKS1_
|| __TEXT.__text __ZN3awd7metrics44LocationGPSSessionStatistics_MovingStateData9MergeFromERKS1_
|| __TEXT.__text __ZN3awd7metrics44LocationGPSSessionStatistics_MovingStateDataC1ERKS1_
|| __TEXT.__text __ZN3awd7metrics44LocationGPSSessionStatistics_MovingStateDataC1Ev
|| __TEXT.__text __ZN3awd7metrics44LocationGPSSessionStatistics_MovingStateDataC2ERKS1_
|| __TEXT.__text __ZN3awd7metrics44LocationGPSSessionStatistics_MovingStateDataC2Ev
|| __TEXT.__text __ZN3awd7metrics44LocationGPSSessionStatistics_MovingStateDataD0Ev
|| __TEXT.__text __ZN3awd7metrics44LocationGPSSessionStatistics_MovingStateDataD1Ev
|| __TEXT.__text __ZN3awd7metrics44LocationGPSSessionStatistics_MovingStateDataD2Ev
|| __TEXT.__text __ZN3awd7metrics44LocationMicroLocationEventSignificanceMetric10SharedCtorEv
|| __TEXT.__text __ZN3awd7metrics44LocationMicroLocationEventSignificanceMetric10SharedDtorEv
|| __TEXT.__text __ZN3awd7metrics44LocationMicroLocationEventSignificanceMetric16default_instanceEv
|| __TEXT.__text __ZN3awd7metrics44LocationMicroLocationEventSignificanceMetric21CheckTypeAndMergeFromERKN20wireless_diagnostics6google8protobuf11MessageLiteE
|| __TEXT.__text __ZN3awd7metrics44LocationMicroLocationEventSignificanceMetric21InitAsDefaultInstanceEv
|| __TEXT.__text __ZN3awd7metrics44LocationMicroLocationEventSignificanceMetric27MergePartialFromCodedStreamEPN20wireless_diagnostics6google8protobuf2io16CodedInputStreamE
|| __TEXT.__text __ZN3awd7metrics44LocationMicroLocationEventSignificanceMetric4SwapEPS1_
|| __TEXT.__text __ZN3awd7metrics44LocationMicroLocationEventSignificanceMetric5ClearEv
|| __TEXT.__text __ZN3awd7metrics44LocationMicroLocationEventSignificanceMetric8CopyFromERKS1_
|| __TEXT.__text __ZN3awd7metrics44LocationMicroLocationEventSignificanceMetric9MergeFromERKS1_
|| __TEXT.__text __ZN3awd7metrics44LocationMicroLocationEventSignificanceMetricC1ERKS1_
|| __TEXT.__text __ZN3awd7metrics44LocationMicroLocationEventSignificanceMetricC1Ev
|| __TEXT.__text __ZN3awd7metrics44LocationMicroLocationEventSignificanceMetricC2ERKS1_
|| __TEXT.__text __ZN3awd7metrics44LocationMicroLocationEventSignificanceMetricC2Ev
|| __TEXT.__text __ZN3awd7metrics44LocationMicroLocationEventSignificanceMetricD0Ev
|| __TEXT.__text __ZN3awd7metrics44LocationMicroLocationEventSignificanceMetricD1Ev
|| __TEXT.__text __ZN3awd7metrics44LocationMicroLocationEventSignificanceMetricD2Ev
|| __TEXT.__text __ZN3awd7metrics44MotionElevationAllDay_HasWetWorkouts_IsValidEi
|| __TEXT.__text __ZN3awd7metrics44protobuf_AddDesc_LocationPeerRanging_2eprotoEv
|| __TEXT.__text __ZN3awd7metrics45LocationGPSSessionStatistics_MountedStateData10SharedCtorEv
|| __TEXT.__text __ZN3awd7metrics45LocationGPSSessionStatistics_MountedStateData10SharedDtorEv
|| __TEXT.__text __ZN3awd7metrics45LocationGPSSessionStatistics_MountedStateData16default_instanceEv
|| __TEXT.__text __ZN3awd7metrics45LocationGPSSessionStatistics_MountedStateData21CheckTypeAndMergeFromERKN20wireless_diagnostics6google8protobuf11MessageLiteE
|| __TEXT.__text __ZN3awd7metrics45LocationGPSSessionStatistics_MountedStateData21InitAsDefaultInstanceEv
|| __TEXT.__text __ZN3awd7metrics45LocationGPSSessionStatistics_MountedStateData27MergePartialFromCodedStreamEPN20wireless_diagnostics6google8protobuf2io16CodedInputStreamE
|| __TEXT.__text __ZN3awd7metrics45LocationGPSSessionStatistics_MountedStateData4SwapEPS1_
|| __TEXT.__text __ZN3awd7metrics45LocationGPSSessionStatistics_MountedStateData5ClearEv
|| __TEXT.__text __ZN3awd7metrics45LocationGPSSessionStatistics_MountedStateData8CopyFromERKS1_
|| __TEXT.__text __ZN3awd7metrics45LocationGPSSessionStatistics_MountedStateData9MergeFromERKS1_
|| __TEXT.__text __ZN3awd7metrics45LocationGPSSessionStatistics_MountedStateDataC1ERKS1_
|| __TEXT.__text __ZN3awd7metrics45LocationGPSSessionStatistics_MountedStateDataC1Ev
|| __TEXT.__text __ZN3awd7metrics45LocationGPSSessionStatistics_MountedStateDataC2ERKS1_
|| __TEXT.__text __ZN3awd7metrics45LocationGPSSessionStatistics_MountedStateDataC2Ev
|| __TEXT.__text __ZN3awd7metrics45LocationGPSSessionStatistics_MountedStateDataD0Ev
|| __TEXT.__text __ZN3awd7metrics45LocationGPSSessionStatistics_MountedStateDataD1Ev
|| __TEXT.__text __ZN3awd7metrics45LocationGPSSessionStatistics_MountedStateDataD2Ev
|| __TEXT.__text __ZN3awd7metrics46LocationEmergencyPOIStatistics_POIType_IsValidEi
|| __TEXT.__text __ZN3awd7metrics46LocationMicroLocationEventClusteringStatistics10SharedCtorEv
|| __TEXT.__text __ZN3awd7metrics46LocationMicroLocationEventClusteringStatistics10SharedDtorEv
|| __TEXT.__text __ZN3awd7metrics46LocationMicroLocationEventClusteringStatistics16default_instanceEv
|| __TEXT.__text __ZN3awd7metrics46LocationMicroLocationEventClusteringStatistics21CheckTypeAndMergeFromERKN20wireless_diagnostics6google8protobuf11MessageLiteE
|| __TEXT.__text __ZN3awd7metrics46LocationMicroLocationEventClusteringStatistics21InitAsDefaultInstanceEv
|| __TEXT.__text __ZN3awd7metrics46LocationMicroLocationEventClusteringStatistics27MergePartialFromCodedStreamEPN20wireless_diagnostics6google8protobuf2io16CodedInputStreamE
|| __TEXT.__text __ZN3awd7metrics46LocationMicroLocationEventClusteringStatistics4SwapEPS1_
|| __TEXT.__text __ZN3awd7metrics46LocationMicroLocationEventClusteringStatistics5ClearEv
|| __TEXT.__text __ZN3awd7metrics46LocationMicroLocationEventClusteringStatistics8CopyFromERKS1_
|| __TEXT.__text __ZN3awd7metrics46LocationMicroLocationEventClusteringStatistics9MergeFromERKS1_
|| __TEXT.__text __ZN3awd7metrics46LocationMicroLocationEventClusteringStatisticsC1ERKS1_
|| __TEXT.__text __ZN3awd7metrics46LocationMicroLocationEventClusteringStatisticsC1Ev
|| __TEXT.__text __ZN3awd7metrics46LocationMicroLocationEventClusteringStatisticsC2ERKS1_
|| __TEXT.__text __ZN3awd7metrics46LocationMicroLocationEventClusteringStatisticsC2Ev
|| __TEXT.__text __ZN3awd7metrics46LocationMicroLocationEventClusteringStatisticsD0Ev
|| __TEXT.__text __ZN3awd7metrics46LocationMicroLocationEventClusteringStatisticsD1Ev
|| __TEXT.__text __ZN3awd7metrics46LocationMicroLocationEventClusteringStatisticsD2Ev
|| __TEXT.__text __ZN3awd7metrics46protobuf_AddDesc_LocationAlsCacheTiles_2eprotoEv
|| __TEXT.__text __ZN3awd7metrics47LocationGPSSessionStatistics_MotionActivityData10SharedCtorEv
|| __TEXT.__text __ZN3awd7metrics47LocationGPSSessionStatistics_MotionActivityData10SharedDtorEv
|| __TEXT.__text __ZN3awd7metrics47LocationGPSSessionStatistics_MotionActivityData16default_instanceEv
|| __TEXT.__text __ZN3awd7metrics47LocationGPSSessionStatistics_MotionActivityData21CheckTypeAndMergeFromERKN20wireless_diagnostics6google8protobuf11MessageLiteE
|| __TEXT.__text __ZN3awd7metrics47LocationGPSSessionStatistics_MotionActivityData21InitAsDefaultInstanceEv
|| __TEXT.__text __ZN3awd7metrics47LocationGPSSessionStatistics_MotionActivityData27MergePartialFromCodedStreamEPN20wireless_diagnostics6google8protobuf2io16CodedInputStreamE
|| __TEXT.__text __ZN3awd7metrics47LocationGPSSessionStatistics_MotionActivityData4SwapEPS1_
|| __TEXT.__text __ZN3awd7metrics47LocationGPSSessionStatistics_MotionActivityData5ClearEv
|| __TEXT.__text __ZN3awd7metrics47LocationGPSSessionStatistics_MotionActivityData8CopyFromERKS1_
|| __TEXT.__text __ZN3awd7metrics47LocationGPSSessionStatistics_MotionActivityData9MergeFromERKS1_
|| __TEXT.__text __ZN3awd7metrics47LocationGPSSessionStatistics_MotionActivityDataC1ERKS1_
|| __TEXT.__text __ZN3awd7metrics47LocationGPSSessionStatistics_MotionActivityDataC1Ev
|| __TEXT.__text __ZN3awd7metrics47LocationGPSSessionStatistics_MotionActivityDataC2ERKS1_
|| __TEXT.__text __ZN3awd7metrics47LocationGPSSessionStatistics_MotionActivityDataC2Ev
|| __TEXT.__text __ZN3awd7metrics47LocationGPSSessionStatistics_MotionActivityDataD0Ev
|| __TEXT.__text __ZN3awd7metrics47LocationGPSSessionStatistics_MotionActivityDataD1Ev
|| __TEXT.__text __ZN3awd7metrics47LocationGPSSessionStatistics_MotionActivityDataD2Ev
|| __TEXT.__text __ZN3awd7metrics47LocationMobileAssetStatistics_AssetType_IsValidEi
|| __TEXT.__text __ZN3awd7metrics48LocationEmergencyPOIStatistics_POISource_IsValidEi
|| __TEXT.__text __ZN3awd7metrics48LocationMicroLocationGenerationAlgorithm_IsValidEi
|| __TEXT.__text __ZN3awd7metrics48LocationMobileAssetStatistics_AssetEvent_IsValidEi
|| __TEXT.__text __ZN3awd7metrics49LocationGPSSessionStatistics_PowerMeasurementData10SharedCtorEv
|| __TEXT.__text __ZN3awd7metrics49LocationGPSSessionStatistics_PowerMeasurementData10SharedDtorEv
|| __TEXT.__text __ZN3awd7metrics49LocationGPSSessionStatistics_PowerMeasurementData16default_instanceEv
|| __TEXT.__text __ZN3awd7metrics49LocationGPSSessionStatistics_PowerMeasurementData21CheckTypeAndMergeFromERKN20wireless_diagnostics6google8protobuf11MessageLiteE
|| __TEXT.__text __ZN3awd7metrics49LocationGPSSessionStatistics_PowerMeasurementData21InitAsDefaultInstanceEv
|| __TEXT.__text __ZN3awd7metrics49LocationGPSSessionStatistics_PowerMeasurementData27MergePartialFromCodedStreamEPN20wireless_diagnostics6google8protobuf2io16CodedInputStreamE
|| __TEXT.__text __ZN3awd7metrics49LocationGPSSessionStatistics_PowerMeasurementData4SwapEPS1_
|| __TEXT.__text __ZN3awd7metrics49LocationGPSSessionStatistics_PowerMeasurementData5ClearEv
|| __TEXT.__text __ZN3awd7metrics49LocationGPSSessionStatistics_PowerMeasurementData8CopyFromERKS1_
|| __TEXT.__text __ZN3awd7metrics49LocationGPSSessionStatistics_PowerMeasurementData9MergeFromERKS1_
|| __TEXT.__text __ZN3awd7metrics49LocationGPSSessionStatistics_PowerMeasurementDataC1ERKS1_
|| __TEXT.__text __ZN3awd7metrics49LocationGPSSessionStatistics_PowerMeasurementDataC1Ev
|| __TEXT.__text __ZN3awd7metrics49LocationGPSSessionStatistics_PowerMeasurementDataC2ERKS1_
|| __TEXT.__text __ZN3awd7metrics49LocationGPSSessionStatistics_PowerMeasurementDataC2Ev
|| __TEXT.__text __ZN3awd7metrics49LocationGPSSessionStatistics_PowerMeasurementDataD0Ev
|| __TEXT.__text __ZN3awd7metrics49LocationGPSSessionStatistics_PowerMeasurementDataD1Ev
|| __TEXT.__text __ZN3awd7metrics49LocationGPSSessionStatistics_PowerMeasurementDataD2Ev
|| __TEXT.__text __ZN3awd7metrics49LocationGPSSessionStatistics_UncertaintyRangeData10SharedCtorEv
|| __TEXT.__text __ZN3awd7metrics49LocationGPSSessionStatistics_UncertaintyRangeData10SharedDtorEv
|| __TEXT.__text __ZN3awd7metrics49LocationGPSSessionStatistics_UncertaintyRangeData16default_instanceEv
|| __TEXT.__text __ZN3awd7metrics49LocationGPSSessionStatistics_UncertaintyRangeData21CheckTypeAndMergeFromERKN20wireless_diagnostics6google8protobuf11MessageLiteE
|| __TEXT.__text __ZN3awd7metrics49LocationGPSSessionStatistics_UncertaintyRangeData21InitAsDefaultInstanceEv
|| __TEXT.__text __ZN3awd7metrics49LocationGPSSessionStatistics_UncertaintyRangeData27MergePartialFromCodedStreamEPN20wireless_diagnostics6google8protobuf2io16CodedInputStreamE
|| __TEXT.__text __ZN3awd7metrics49LocationGPSSessionStatistics_UncertaintyRangeData4SwapEPS1_
|| __TEXT.__text __ZN3awd7metrics49LocationGPSSessionStatistics_UncertaintyRangeData5ClearEv
|| __TEXT.__text __ZN3awd7metrics49LocationGPSSessionStatistics_UncertaintyRangeData8CopyFromERKS1_
|| __TEXT.__text __ZN3awd7metrics49LocationGPSSessionStatistics_UncertaintyRangeData9MergeFromERKS1_
|| __TEXT.__text __ZN3awd7metrics49LocationGPSSessionStatistics_UncertaintyRangeDataC1ERKS1_
|| __TEXT.__text __ZN3awd7metrics49LocationGPSSessionStatistics_UncertaintyRangeDataC1Ev
|| __TEXT.__text __ZN3awd7metrics49LocationGPSSessionStatistics_UncertaintyRangeDataC2ERKS1_
|| __TEXT.__text __ZN3awd7metrics49LocationGPSSessionStatistics_UncertaintyRangeDataC2Ev
|| __TEXT.__text __ZN3awd7metrics49LocationGPSSessionStatistics_UncertaintyRangeDataD0Ev
|| __TEXT.__text __ZN3awd7metrics49LocationGPSSessionStatistics_UncertaintyRangeDataD1Ev
|| __TEXT.__text __ZN3awd7metrics49LocationGPSSessionStatistics_UncertaintyRangeDataD2Ev
|| __TEXT.__text __ZN3awd7metrics49protobuf_ShutdownFile_LocationPeerRanging_2eprotoEv
|| __TEXT.__text __ZN3awd7metrics50LocationGPSSessionStatistics_DeviceOrientationData10SharedCtorEv
|| __TEXT.__text __ZN3awd7metrics50LocationGPSSessionStatistics_DeviceOrientationData10SharedDtorEv
|| __TEXT.__text __ZN3awd7metrics50LocationGPSSessionStatistics_DeviceOrientationData16default_instanceEv
|| __TEXT.__text __ZN3awd7metrics50LocationGPSSessionStatistics_DeviceOrientationData21CheckTypeAndMergeFromERKN20wireless_diagnostics6google8protobuf11MessageLiteE
|| __TEXT.__text __ZN3awd7metrics50LocationGPSSessionStatistics_DeviceOrientationData21InitAsDefaultInstanceEv
|| __TEXT.__text __ZN3awd7metrics50LocationGPSSessionStatistics_DeviceOrientationData27MergePartialFromCodedStreamEPN20wireless_diagnostics6google8protobuf2io16CodedInputStreamE
|| __TEXT.__text __ZN3awd7metrics50LocationGPSSessionStatistics_DeviceOrientationData4SwapEPS1_
|| __TEXT.__text __ZN3awd7metrics50LocationGPSSessionStatistics_DeviceOrientationData5ClearEv
|| __TEXT.__text __ZN3awd7metrics50LocationGPSSessionStatistics_DeviceOrientationData8CopyFromERKS1_
|| __TEXT.__text __ZN3awd7metrics50LocationGPSSessionStatistics_DeviceOrientationData9MergeFromERKS1_
|| __TEXT.__text __ZN3awd7metrics50LocationGPSSessionStatistics_DeviceOrientationDataC1ERKS1_
|| __TEXT.__text __ZN3awd7metrics50LocationGPSSessionStatistics_DeviceOrientationDataC1Ev
|| __TEXT.__text __ZN3awd7metrics50LocationGPSSessionStatistics_DeviceOrientationDataC2ERKS1_
|| __TEXT.__text __ZN3awd7metrics50LocationGPSSessionStatistics_DeviceOrientationDataC2Ev
|| __TEXT.__text __ZN3awd7metrics50LocationGPSSessionStatistics_DeviceOrientationDataD0Ev
|| __TEXT.__text __ZN3awd7metrics50LocationGPSSessionStatistics_DeviceOrientationDataD1Ev
|| __TEXT.__text __ZN3awd7metrics50LocationGPSSessionStatistics_DeviceOrientationDataD2Ev
|| __TEXT.__text __ZN3awd7metrics50LocationGPSSessionStatistics_SatelliteCNORangeData10SharedCtorEv
|| __TEXT.__text __ZN3awd7metrics50LocationGPSSessionStatistics_SatelliteCNORangeData10SharedDtorEv
|| __TEXT.__text __ZN3awd7metrics50LocationGPSSessionStatistics_SatelliteCNORangeData16default_instanceEv
|| __TEXT.__text __ZN3awd7metrics50LocationGPSSessionStatistics_SatelliteCNORangeData21CheckTypeAndMergeFromERKN20wireless_diagnostics6google8protobuf11MessageLiteE
|| __TEXT.__text __ZN3awd7metrics50LocationGPSSessionStatistics_SatelliteCNORangeData21InitAsDefaultInstanceEv
|| __TEXT.__text __ZN3awd7metrics50LocationGPSSessionStatistics_SatelliteCNORangeData27MergePartialFromCodedStreamEPN20wireless_diagnostics6google8protobuf2io16CodedInputStreamE
|| __TEXT.__text __ZN3awd7metrics50LocationGPSSessionStatistics_SatelliteCNORangeData4SwapEPS1_
|| __TEXT.__text __ZN3awd7metrics50LocationGPSSessionStatistics_SatelliteCNORangeData5ClearEv
|| __TEXT.__text __ZN3awd7metrics50LocationGPSSessionStatistics_SatelliteCNORangeData8CopyFromERKS1_
|| __TEXT.__text __ZN3awd7metrics50LocationGPSSessionStatistics_SatelliteCNORangeData9MergeFromERKS1_
|| __TEXT.__text __ZN3awd7metrics50LocationGPSSessionStatistics_SatelliteCNORangeDataC1ERKS1_
|| __TEXT.__text __ZN3awd7metrics50LocationGPSSessionStatistics_SatelliteCNORangeDataC1Ev
|| __TEXT.__text __ZN3awd7metrics50LocationGPSSessionStatistics_SatelliteCNORangeDataC2ERKS1_
|| __TEXT.__text __ZN3awd7metrics50LocationGPSSessionStatistics_SatelliteCNORangeDataC2Ev
|| __TEXT.__text __ZN3awd7metrics50LocationGPSSessionStatistics_SatelliteCNORangeDataD0Ev
|| __TEXT.__text __ZN3awd7metrics50LocationGPSSessionStatistics_SatelliteCNORangeDataD1Ev
|| __TEXT.__text __ZN3awd7metrics50LocationGPSSessionStatistics_SatelliteCNORangeDataD2Ev
|| __TEXT.__text __ZN3awd7metrics50LocationGPSSessionStatistics_SignalEnvironmentData10SharedCtorEv
|| __TEXT.__text __ZN3awd7metrics50LocationGPSSessionStatistics_SignalEnvironmentData10SharedDtorEv
|| __TEXT.__text __ZN3awd7metrics50LocationGPSSessionStatistics_SignalEnvironmentData16default_instanceEv
|| __TEXT.__text __ZN3awd7metrics50LocationGPSSessionStatistics_SignalEnvironmentData21CheckTypeAndMergeFromERKN20wireless_diagnostics6google8protobuf11MessageLiteE
|| __TEXT.__text __ZN3awd7metrics50LocationGPSSessionStatistics_SignalEnvironmentData21InitAsDefaultInstanceEv
|| __TEXT.__text __ZN3awd7metrics50LocationGPSSessionStatistics_SignalEnvironmentData27MergePartialFromCodedStreamEPN20wireless_diagnostics6google8protobuf2io16CodedInputStreamE
|| __TEXT.__text __ZN3awd7metrics50LocationGPSSessionStatistics_SignalEnvironmentData4SwapEPS1_
|| __TEXT.__text __ZN3awd7metrics50LocationGPSSessionStatistics_SignalEnvironmentData5ClearEv
|| __TEXT.__text __ZN3awd7metrics50LocationGPSSessionStatistics_SignalEnvironmentData8CopyFromERKS1_
|| __TEXT.__text __ZN3awd7metrics50LocationGPSSessionStatistics_SignalEnvironmentData9MergeFromERKS1_
|| __TEXT.__text __ZN3awd7metrics50LocationGPSSessionStatistics_SignalEnvironmentDataC1ERKS1_
|| __TEXT.__text __ZN3awd7metrics50LocationGPSSessionStatistics_SignalEnvironmentDataC1Ev
|| __TEXT.__text __ZN3awd7metrics50LocationGPSSessionStatistics_SignalEnvironmentDataC2ERKS1_
|| __TEXT.__text __ZN3awd7metrics50LocationGPSSessionStatistics_SignalEnvironmentDataC2Ev
|| __TEXT.__text __ZN3awd7metrics50LocationGPSSessionStatistics_SignalEnvironmentDataD0Ev
|| __TEXT.__text __ZN3awd7metrics50LocationGPSSessionStatistics_SignalEnvironmentDataD1Ev
|| __TEXT.__text __ZN3awd7metrics50LocationGPSSessionStatistics_SignalEnvironmentDataD2Ev
|| __TEXT.__text __ZN3awd7metrics50LocationPeerRangingUnlockDecisionAlgorithm_IsValidEi
|| __TEXT.__text __ZN3awd7metrics51LocationGPSSessionStatistics_PowerStateType_IsValidEi
|| __TEXT.__text __ZN3awd7metrics51LocationMobileAssetStatistics_CarrierSettingsStatus10SharedCtorEv
|| __TEXT.__text __ZN3awd7metrics51LocationMobileAssetStatistics_CarrierSettingsStatus10SharedDtorEv
|| __TEXT.__text __ZN3awd7metrics51LocationMobileAssetStatistics_CarrierSettingsStatus16default_instanceEv
|| __TEXT.__text __ZN3awd7metrics51LocationMobileAssetStatistics_CarrierSettingsStatus21CheckTypeAndMergeFromERKN20wireless_diagnostics6google8protobuf11MessageLiteE
|| __TEXT.__text __ZN3awd7metrics51LocationMobileAssetStatistics_CarrierSettingsStatus21InitAsDefaultInstanceEv
|| __TEXT.__text __ZN3awd7metrics51LocationMobileAssetStatistics_CarrierSettingsStatus27MergePartialFromCodedStreamEPN20wireless_diagnostics6google8protobuf2io16CodedInputStreamE
|| __TEXT.__text __ZN3awd7metrics51LocationMobileAssetStatistics_CarrierSettingsStatus4SwapEPS1_
|| __TEXT.__text __ZN3awd7metrics51LocationMobileAssetStatistics_CarrierSettingsStatus5ClearEv
|| __TEXT.__text __ZN3awd7metrics51LocationMobileAssetStatistics_CarrierSettingsStatus8CopyFromERKS1_
|| __TEXT.__text __ZN3awd7metrics51LocationMobileAssetStatistics_CarrierSettingsStatus9MergeFromERKS1_
|| __TEXT.__text __ZN3awd7metrics51LocationMobileAssetStatistics_CarrierSettingsStatusC1ERKS1_
|| __TEXT.__text __ZN3awd7metrics51LocationMobileAssetStatistics_CarrierSettingsStatusC1Ev
|| __TEXT.__text __ZN3awd7metrics51LocationMobileAssetStatistics_CarrierSettingsStatusC2ERKS1_
|| __TEXT.__text __ZN3awd7metrics51LocationMobileAssetStatistics_CarrierSettingsStatusC2Ev
|| __TEXT.__text __ZN3awd7metrics51LocationMobileAssetStatistics_CarrierSettingsStatusD0Ev
|| __TEXT.__text __ZN3awd7metrics51LocationMobileAssetStatistics_CarrierSettingsStatusD1Ev
|| __TEXT.__text __ZN3awd7metrics51LocationMobileAssetStatistics_CarrierSettingsStatusD2Ev
|| __TEXT.__text __ZN3awd7metrics51protobuf_ShutdownFile_LocationAlsCacheTiles_2eprotoEv
|| __TEXT.__text __ZN3awd7metrics52LocationEmergencySessionStatistics_HELOUsage_IsValidEi
|| __TEXT.__text __ZN3awd7metrics52LocationGPSSessionStatistics_MovingStateType_IsValidEi
|| __TEXT.__text __ZN3awd7metrics52LocationGPSSessionStatistics_SatelliteCountRangeData10SharedCtorEv
|| __TEXT.__text __ZN3awd7metrics52LocationGPSSessionStatistics_SatelliteCountRangeData10SharedDtorEv
|| __TEXT.__text __ZN3awd7metrics52LocationGPSSessionStatistics_SatelliteCountRangeData16default_instanceEv
|| __TEXT.__text __ZN3awd7metrics52LocationGPSSessionStatistics_SatelliteCountRangeData21CheckTypeAndMergeFromERKN20wireless_diagnostics6google8protobuf11MessageLiteE
|| __TEXT.__text __ZN3awd7metrics52LocationGPSSessionStatistics_SatelliteCountRangeData21InitAsDefaultInstanceEv
|| __TEXT.__text __ZN3awd7metrics52LocationGPSSessionStatistics_SatelliteCountRangeData27MergePartialFromCodedStreamEPN20wireless_diagnostics6google8protobuf2io16CodedInputStreamE
|| __TEXT.__text __ZN3awd7metrics52LocationGPSSessionStatistics_SatelliteCountRangeData4SwapEPS1_
|| __TEXT.__text __ZN3awd7metrics52LocationGPSSessionStatistics_SatelliteCountRangeData5ClearEv
|| __TEXT.__text __ZN3awd7metrics52LocationGPSSessionStatistics_SatelliteCountRangeData8CopyFromERKS1_
|| __TEXT.__text __ZN3awd7metrics52LocationGPSSessionStatistics_SatelliteCountRangeData9MergeFromERKS1_
|| __TEXT.__text __ZN3awd7metrics52LocationGPSSessionStatistics_SatelliteCountRangeDataC1ERKS1_
|| __TEXT.__text __ZN3awd7metrics52LocationGPSSessionStatistics_SatelliteCountRangeDataC1Ev
|| __TEXT.__text __ZN3awd7metrics52LocationGPSSessionStatistics_SatelliteCountRangeDataC2ERKS1_
|| __TEXT.__text __ZN3awd7metrics52LocationGPSSessionStatistics_SatelliteCountRangeDataC2Ev
|| __TEXT.__text __ZN3awd7metrics52LocationGPSSessionStatistics_SatelliteCountRangeDataD0Ev
|| __TEXT.__text __ZN3awd7metrics52LocationGPSSessionStatistics_SatelliteCountRangeDataD1Ev
|| __TEXT.__text __ZN3awd7metrics52LocationGPSSessionStatistics_SatelliteCountRangeDataD2Ev
|| __TEXT.__text __ZN3awd7metrics52LocationMobileAssetStatistics_AssetComponent_IsValidEi
|| __TEXT.__text __ZN3awd7metrics52MotionFitnessSession_MotionCalibrationStatus_IsValidEi
|| __TEXT.__text __ZN3awd7metrics52MotionFitnessSession_StrideCalibrationStatus_IsValidEi
|| __TEXT.__text __ZN3awd7metrics53LocationEmergencyPOIStatistics_LOIQueryResult_IsValidEi
|| __TEXT.__text __ZN3awd7metrics53LocationGPSSessionStatistics_MountedStateType_IsValidEi
|| __TEXT.__text __ZN3awd7metrics54LocationGnssSWRecoveryStatistics_LocationRecoveryPoint10SharedCtorEv
|| __TEXT.__text __ZN3awd7metrics54LocationGnssSWRecoveryStatistics_LocationRecoveryPoint10SharedDtorEv
|| __TEXT.__text __ZN3awd7metrics54LocationGnssSWRecoveryStatistics_LocationRecoveryPoint16default_instanceEv
|| __TEXT.__text __ZN3awd7metrics54LocationGnssSWRecoveryStatistics_LocationRecoveryPoint21CheckTypeAndMergeFromERKN20wireless_diagnostics6google8protobuf11MessageLiteE
|| __TEXT.__text __ZN3awd7metrics54LocationGnssSWRecoveryStatistics_LocationRecoveryPoint21InitAsDefaultInstanceEv
|| __TEXT.__text __ZN3awd7metrics54LocationGnssSWRecoveryStatistics_LocationRecoveryPoint27MergePartialFromCodedStreamEPN20wireless_diagnostics6google8protobuf2io16CodedInputStreamE
|| __TEXT.__text __ZN3awd7metrics54LocationGnssSWRecoveryStatistics_LocationRecoveryPoint4SwapEPS1_
|| __TEXT.__text __ZN3awd7metrics54LocationGnssSWRecoveryStatistics_LocationRecoveryPoint5ClearEv
|| __TEXT.__text __ZN3awd7metrics54LocationGnssSWRecoveryStatistics_LocationRecoveryPoint8CopyFromERKS1_
|| __TEXT.__text __ZN3awd7metrics54LocationGnssSWRecoveryStatistics_LocationRecoveryPoint9MergeFromERKS1_
|| __TEXT.__text __ZN3awd7metrics54LocationGnssSWRecoveryStatistics_LocationRecoveryPointC1ERKS1_
|| __TEXT.__text __ZN3awd7metrics54LocationGnssSWRecoveryStatistics_LocationRecoveryPointC1Ev
|| __TEXT.__text __ZN3awd7metrics54LocationGnssSWRecoveryStatistics_LocationRecoveryPointC2ERKS1_
|| __TEXT.__text __ZN3awd7metrics54LocationGnssSWRecoveryStatistics_LocationRecoveryPointC2Ev
|| __TEXT.__text __ZN3awd7metrics54LocationGnssSWRecoveryStatistics_LocationRecoveryPointD0Ev
|| __TEXT.__text __ZN3awd7metrics54LocationGnssSWRecoveryStatistics_LocationRecoveryPointD1Ev
|| __TEXT.__text __ZN3awd7metrics54LocationGnssSWRecoveryStatistics_LocationRecoveryPointD2Ev
|| __TEXT.__text __ZN3awd7metrics54LocationVisibilityAssertion_InvalidationReason_IsValidEi
|| __TEXT.__text __ZN3awd7metrics55LocationGPSSessionStatistics_MotionActivityType_IsValidEi
|| __TEXT.__text __ZN3awd7metrics55LocationGnssSWRecoveryStatistics_LocationRecoveryStatus10SharedCtorEv
|| __TEXT.__text __ZN3awd7metrics55LocationGnssSWRecoveryStatistics_LocationRecoveryStatus10SharedDtorEv
|| __TEXT.__text __ZN3awd7metrics55LocationGnssSWRecoveryStatistics_LocationRecoveryStatus16default_instanceEv
|| __TEXT.__text __ZN3awd7metrics55LocationGnssSWRecoveryStatistics_LocationRecoveryStatus21CheckTypeAndMergeFromERKN20wireless_diagnostics6google8protobuf11MessageLiteE
|| __TEXT.__text __ZN3awd7metrics55LocationGnssSWRecoveryStatistics_LocationRecoveryStatus21InitAsDefaultInstanceEv
|| __TEXT.__text __ZN3awd7metrics55LocationGnssSWRecoveryStatistics_LocationRecoveryStatus27MergePartialFromCodedStreamEPN20wireless_diagnostics6google8protobuf2io16CodedInputStreamE
|| __TEXT.__text __ZN3awd7metrics55LocationGnssSWRecoveryStatistics_LocationRecoveryStatus4SwapEPS1_
|| __TEXT.__text __ZN3awd7metrics55LocationGnssSWRecoveryStatistics_LocationRecoveryStatus5ClearEv
|| __TEXT.__text __ZN3awd7metrics55LocationGnssSWRecoveryStatistics_LocationRecoveryStatus8CopyFromERKS1_
|| __TEXT.__text __ZN3awd7metrics55LocationGnssSWRecoveryStatistics_LocationRecoveryStatus9MergeFromERKS1_
|| __TEXT.__text __ZN3awd7metrics55LocationGnssSWRecoveryStatistics_LocationRecoveryStatusC1ERKS1_
|| __TEXT.__text __ZN3awd7metrics55LocationGnssSWRecoveryStatistics_LocationRecoveryStatusC1Ev
|| __TEXT.__text __ZN3awd7metrics55LocationGnssSWRecoveryStatistics_LocationRecoveryStatusC2ERKS1_
|| __TEXT.__text __ZN3awd7metrics55LocationGnssSWRecoveryStatistics_LocationRecoveryStatusC2Ev
|| __TEXT.__text __ZN3awd7metrics55LocationGnssSWRecoveryStatistics_LocationRecoveryStatusD0Ev
|| __TEXT.__text __ZN3awd7metrics55LocationGnssSWRecoveryStatistics_LocationRecoveryStatusD1Ev
|| __TEXT.__text __ZN3awd7metrics55LocationGnssSWRecoveryStatistics_LocationRecoveryStatusD2Ev
|| __TEXT.__text __ZN3awd7metrics57LocationEmergencySessionStatistics_AbortCauseType_IsValidEi
|| __TEXT.__text __ZN3awd7metrics57LocationEmergencySessionStatistics_PositionMethod_IsValidEi
|| __TEXT.__text __ZN3awd7metrics57LocationEmergencySessionStatistics_PositionReport_IsValidEi
|| __TEXT.__text __ZN3awd7metrics57LocationGPSSessionStatistics_UncertaintyRangeType_IsValidEi
|| __TEXT.__text __ZN3awd7metrics57LocationGnssSWRecoveryStatistics_LocationGnssRecoveryInfo10SharedCtorEv
|| __TEXT.__text __ZN3awd7metrics57LocationGnssSWRecoveryStatistics_LocationGnssRecoveryInfo10SharedDtorEv
|| __TEXT.__text __ZN3awd7metrics57LocationGnssSWRecoveryStatistics_LocationGnssRecoveryInfo16default_instanceEv
|| __TEXT.__text __ZN3awd7metrics57LocationGnssSWRecoveryStatistics_LocationGnssRecoveryInfo21CheckTypeAndMergeFromERKN20wireless_diagnostics6google8protobuf11MessageLiteE
|| __TEXT.__text __ZN3awd7metrics57LocationGnssSWRecoveryStatistics_LocationGnssRecoveryInfo21InitAsDefaultInstanceEv
|| __TEXT.__text __ZN3awd7metrics57LocationGnssSWRecoveryStatistics_LocationGnssRecoveryInfo27MergePartialFromCodedStreamEPN20wireless_diagnostics6google8protobuf2io16CodedInputStreamE
|| __TEXT.__text __ZN3awd7metrics57LocationGnssSWRecoveryStatistics_LocationGnssRecoveryInfo4SwapEPS1_
|| __TEXT.__text __ZN3awd7metrics57LocationGnssSWRecoveryStatistics_LocationGnssRecoveryInfo5ClearEv
|| __TEXT.__text __ZN3awd7metrics57LocationGnssSWRecoveryStatistics_LocationGnssRecoveryInfo8CopyFromERKS1_
|| __TEXT.__text __ZN3awd7metrics57LocationGnssSWRecoveryStatistics_LocationGnssRecoveryInfo9MergeFromERKS1_
|| __TEXT.__text __ZN3awd7metrics57LocationGnssSWRecoveryStatistics_LocationGnssRecoveryInfoC1ERKS1_
|| __TEXT.__text __ZN3awd7metrics57LocationGnssSWRecoveryStatistics_LocationGnssRecoveryInfoC1Ev
|| __TEXT.__text __ZN3awd7metrics57LocationGnssSWRecoveryStatistics_LocationGnssRecoveryInfoC2ERKS1_
|| __TEXT.__text __ZN3awd7metrics57LocationGnssSWRecoveryStatistics_LocationGnssRecoveryInfoC2Ev
|| __TEXT.__text __ZN3awd7metrics57LocationGnssSWRecoveryStatistics_LocationGnssRecoveryInfoD0Ev
|| __TEXT.__text __ZN3awd7metrics57LocationGnssSWRecoveryStatistics_LocationGnssRecoveryInfoD1Ev
|| __TEXT.__text __ZN3awd7metrics57LocationGnssSWRecoveryStatistics_LocationGnssRecoveryInfoD2Ev
|| __TEXT.__text __ZN3awd7metrics58LocationEmergencySessionStatistics_PositionSession_IsValidEi
|| __TEXT.__text __ZN3awd7metrics58LocationGPSSessionStatistics_DeviceOrientationType_IsValidEi
|| __TEXT.__text __ZN3awd7metrics58LocationGPSSessionStatistics_PowerMeasurementRange_IsValidEi
|| __TEXT.__text __ZN3awd7metrics58LocationGPSSessionStatistics_RadioAccessTechnology_IsValidEi
|| __TEXT.__text __ZN3awd7metrics58LocationGPSSessionStatistics_SatelliteCNORangeType_IsValidEi
|| __TEXT.__text __ZN3awd7metrics58LocationGPSSessionStatistics_SignalEnvironmentType_IsValidEi
|| __TEXT.__text __ZN3awd7metrics59LocationEmergencySessionStatistics_PositionProtocol_IsValidEi
|| __TEXT.__text __ZN3awd7metrics59LocationEmergencySessionStatistics_SessionErrorCode_IsValidEi
|| __TEXT.__text __ZN3awd7metrics59LocationEmergencySessionStatistics_TandemCapability_IsValidEi
|| __TEXT.__text __ZN3awd7metrics60LocationEmergencySessionStatistics_CommunicationType_IsValidEi
|| __TEXT.__text __ZN3awd7metrics60LocationGPSSessionStatistics_LocationGpsPersistentStatistics10SharedCtorEv
|| __TEXT.__text __ZN3awd7metrics60LocationGPSSessionStatistics_LocationGpsPersistentStatistics10SharedDtorEv
|| __TEXT.__text __ZN3awd7metrics60LocationGPSSessionStatistics_LocationGpsPersistentStatistics16default_instanceEv
|| __TEXT.__text __ZN3awd7metrics60LocationGPSSessionStatistics_LocationGpsPersistentStatistics21CheckTypeAndMergeFromERKN20wireless_diagnostics6google8protobuf11MessageLiteE
|| __TEXT.__text __ZN3awd7metrics60LocationGPSSessionStatistics_LocationGpsPersistentStatistics21InitAsDefaultInstanceEv
|| __TEXT.__text __ZN3awd7metrics60LocationGPSSessionStatistics_LocationGpsPersistentStatistics27MergePartialFromCodedStreamEPN20wireless_diagnostics6google8protobuf2io16CodedInputStreamE
|| __TEXT.__text __ZN3awd7metrics60LocationGPSSessionStatistics_LocationGpsPersistentStatistics4SwapEPS1_
|| __TEXT.__text __ZN3awd7metrics60LocationGPSSessionStatistics_LocationGpsPersistentStatistics5ClearEv
|| __TEXT.__text __ZN3awd7metrics60LocationGPSSessionStatistics_LocationGpsPersistentStatistics8CopyFromERKS1_
|| __TEXT.__text __ZN3awd7metrics60LocationGPSSessionStatistics_LocationGpsPersistentStatistics9MergeFromERKS1_
|| __TEXT.__text __ZN3awd7metrics60LocationGPSSessionStatistics_LocationGpsPersistentStatisticsC1ERKS1_
|| __TEXT.__text __ZN3awd7metrics60LocationGPSSessionStatistics_LocationGpsPersistentStatisticsC1Ev
|| __TEXT.__text __ZN3awd7metrics60LocationGPSSessionStatistics_LocationGpsPersistentStatisticsC2ERKS1_
|| __TEXT.__text __ZN3awd7metrics60LocationGPSSessionStatistics_LocationGpsPersistentStatisticsC2Ev
|| __TEXT.__text __ZN3awd7metrics60LocationGPSSessionStatistics_LocationGpsPersistentStatisticsD0Ev
|| __TEXT.__text __ZN3awd7metrics60LocationGPSSessionStatistics_LocationGpsPersistentStatisticsD1Ev
|| __TEXT.__text __ZN3awd7metrics60LocationGPSSessionStatistics_LocationGpsPersistentStatisticsD2Ev
|| __TEXT.__text __ZN3awd7metrics60LocationGPSSessionStatistics_SatelliteCountRangeType_IsValidEi
|| __TEXT.__text __ZN3awd7metrics64LocationEmergencySessionStatistics_RadioAccessTechnology_IsValidEi
|| __TEXT.__text __ZN3awd7metrics66LocationEmergencySessionStatistics_PhoneNumberAvailability_IsValidEi
|| __TEXT.__text __ZN3awd7metrics68LocationEmergencySessionStatistics_GnssSignalEnvironmentType_IsValidEi
|| __TEXT.__text __ZN3awd7metrics68LocationGPSSessionStatistics_EphemerisFileIntegrityCheckType_IsValidEi
|| __TEXT.__text __ZN3awd7metrics72LocationPhoneNumberAvailability_SubscriptionAndPhoneNumberStatus_IsValidEi
|| __TEXT.__text __ZN3awd7metrics85LocationGPSSessionStatistics_LocationGpsPersistentStatistics_GpsdExitCategory_IsValidEi
|| __TEXT.__text __ZN3awd7metrics90LocationGPSSessionStatistics_LocationGpsPersistentStatistics_GpsdExceptionCategory_IsValidEi
|| __TEXT.__text __ZNK3awd7metrics11MotionState11GetTypeNameEv
|| __TEXT.__text __ZNK3awd7metrics11MotionState13IsInitializedEv
|| __TEXT.__text __ZNK3awd7metrics11MotionState13SetCachedSizeEi
|| __TEXT.__text __ZNK3awd7metrics11MotionState24SerializeWithCachedSizesEPN20wireless_diagnostics6google8protobuf2io17CodedOutputStreamE
|| __TEXT.__text __ZNK3awd7metrics11MotionState3NewEv
|| __TEXT.__text __ZNK3awd7metrics11MotionState8ByteSizeEv
|| __TEXT.__text __ZNK3awd7metrics13MotionTrigger11GetTypeNameEv
|| __TEXT.__text __ZNK3awd7metrics13MotionTrigger13IsInitializedEv
|| __TEXT.__text __ZNK3awd7metrics13MotionTrigger13SetCachedSizeEi
|| __TEXT.__text __ZNK3awd7metrics13MotionTrigger24SerializeWithCachedSizesEPN20wireless_diagnostics6google8protobuf2io17CodedOutputStreamE
|| __TEXT.__text __ZNK3awd7metrics13MotionTrigger3NewEv
|| __TEXT.__text __ZNK3awd7metrics13MotionTrigger8ByteSizeEv
|| __TEXT.__text __ZNK3awd7metrics14CompassSession11GetTypeNameEv
|| __TEXT.__text __ZNK3awd7metrics14CompassSession13IsInitializedEv
|| __TEXT.__text __ZNK3awd7metrics14CompassSession13SetCachedSizeEi
|| __TEXT.__text __ZNK3awd7metrics14CompassSession24SerializeWithCachedSizesEPN20wireless_diagnostics6google8protobuf2io17CodedOutputStreamE
|| __TEXT.__text __ZNK3awd7metrics14CompassSession3NewEv
|| __TEXT.__text __ZNK3awd7metrics14CompassSession8ByteSizeEv
|| __TEXT.__text __ZNK3awd7metrics14MotionSOSEvent11GetTypeNameEv
|| __TEXT.__text __ZNK3awd7metrics14MotionSOSEvent13IsInitializedEv
|| __TEXT.__text __ZNK3awd7metrics14MotionSOSEvent13SetCachedSizeEi
|| __TEXT.__text __ZNK3awd7metrics14MotionSOSEvent24SerializeWithCachedSizesEPN20wireless_diagnostics6google8protobuf2io17CodedOutputStreamE
|| __TEXT.__text __ZNK3awd7metrics14MotionSOSEvent3NewEv
|| __TEXT.__text __ZNK3awd7metrics14MotionSOSEvent8ByteSizeEv
|| __TEXT.__text __ZNK3awd7metrics15MotionGyroDaily11GetTypeNameEv
|| __TEXT.__text __ZNK3awd7metrics15MotionGyroDaily13IsInitializedEv
|| __TEXT.__text __ZNK3awd7metrics15MotionGyroDaily13SetCachedSizeEi
|| __TEXT.__text __ZNK3awd7metrics15MotionGyroDaily24SerializeWithCachedSizesEPN20wireless_diagnostics6google8protobuf2io17CodedOutputStreamE
|| __TEXT.__text __ZNK3awd7metrics15MotionGyroDaily3NewEv
|| __TEXT.__text __ZNK3awd7metrics15MotionGyroDaily8ByteSizeEv
|| __TEXT.__text __ZNK3awd7metrics16LocationTileFile11GetTypeNameEv
|| __TEXT.__text __ZNK3awd7metrics16LocationTileFile13IsInitializedEv
|| __TEXT.__text __ZNK3awd7metrics16LocationTileFile13SetCachedSizeEi
|| __TEXT.__text __ZNK3awd7metrics16LocationTileFile24SerializeWithCachedSizesEPN20wireless_diagnostics6google8protobuf2io17CodedOutputStreamE
|| __TEXT.__text __ZNK3awd7metrics16LocationTileFile3NewEv
|| __TEXT.__text __ZNK3awd7metrics16LocationTileFile8ByteSizeEv
|| __TEXT.__text __ZNK3awd7metrics17LocationWifiUsage11GetTypeNameEv
|| __TEXT.__text __ZNK3awd7metrics17LocationWifiUsage13IsInitializedEv
|| __TEXT.__text __ZNK3awd7metrics17LocationWifiUsage13SetCachedSizeEi
|| __TEXT.__text __ZNK3awd7metrics17LocationWifiUsage24SerializeWithCachedSizesEPN20wireless_diagnostics6google8protobuf2io17CodedOutputStreamE
|| __TEXT.__text __ZNK3awd7metrics17LocationWifiUsage3NewEv
|| __TEXT.__text __ZNK3awd7metrics17LocationWifiUsage8ByteSizeEv
|| __TEXT.__text __ZNK3awd7metrics17MotionGyroMiniCal11GetTypeNameEv
|| __TEXT.__text __ZNK3awd7metrics17MotionGyroMiniCal13IsInitializedEv
|| __TEXT.__text __ZNK3awd7metrics17MotionGyroMiniCal13SetCachedSizeEi
|| __TEXT.__text __ZNK3awd7metrics17MotionGyroMiniCal24SerializeWithCachedSizesEPN20wireless_diagnostics6google8protobuf2io17CodedOutputStreamE
|| __TEXT.__text __ZNK3awd7metrics17MotionGyroMiniCal3NewEv
|| __TEXT.__text __ZNK3awd7metrics17MotionGyroMiniCal8ByteSizeEv
|| __TEXT.__text __ZNK3awd7metrics18LocationSessionDay11GetTypeNameEv
|| __TEXT.__text __ZNK3awd7metrics18LocationSessionDay13IsInitializedEv
|| __TEXT.__text __ZNK3awd7metrics18LocationSessionDay13SetCachedSizeEi
|| __TEXT.__text __ZNK3awd7metrics18LocationSessionDay24SerializeWithCachedSizesEPN20wireless_diagnostics6google8protobuf2io17CodedOutputStreamE
|| __TEXT.__text __ZNK3awd7metrics18LocationSessionDay3NewEv
|| __TEXT.__text __ZNK3awd7metrics18LocationSessionDay8ByteSizeEv
|| __TEXT.__text __ZNK3awd7metrics18LocationTilesUsage11GetTypeNameEv
|| __TEXT.__text __ZNK3awd7metrics18LocationTilesUsage13IsInitializedEv
|| __TEXT.__text __ZNK3awd7metrics18LocationTilesUsage13SetCachedSizeEi
|| __TEXT.__text __ZNK3awd7metrics18LocationTilesUsage24SerializeWithCachedSizesEPN20wireless_diagnostics6google8protobuf2io17CodedOutputStreamE
|| __TEXT.__text __ZNK3awd7metrics18LocationTilesUsage3NewEv
|| __TEXT.__text __ZNK3awd7metrics18LocationTilesUsage8ByteSizeEv
|| __TEXT.__text __ZNK3awd7metrics18MotionFitnessDaily11GetTypeNameEv
|| __TEXT.__text __ZNK3awd7metrics18MotionFitnessDaily13IsInitializedEv
|| __TEXT.__text __ZNK3awd7metrics18MotionFitnessDaily13SetCachedSizeEi
|| __TEXT.__text __ZNK3awd7metrics18MotionFitnessDaily24SerializeWithCachedSizesEPN20wireless_diagnostics6google8protobuf2io17CodedOutputStreamE
|| __TEXT.__text __ZNK3awd7metrics18MotionFitnessDaily3NewEv
|| __TEXT.__text __ZNK3awd7metrics18MotionFitnessDaily8ByteSizeEv
|| __TEXT.__text __ZNK3awd7metrics19LocationMapMatching11GetTypeNameEv
|| __TEXT.__text __ZNK3awd7metrics19LocationMapMatching13IsInitializedEv
|| __TEXT.__text __ZNK3awd7metrics19LocationMapMatching13SetCachedSizeEi
|| __TEXT.__text __ZNK3awd7metrics19LocationMapMatching24SerializeWithCachedSizesEPN20wireless_diagnostics6google8protobuf2io17CodedOutputStreamE
|| __TEXT.__text __ZNK3awd7metrics19LocationMapMatching3NewEv
|| __TEXT.__text __ZNK3awd7metrics19LocationMapMatching8ByteSizeEv
|| __TEXT.__text __ZNK3awd7metrics19MotionDropDetection11GetTypeNameEv
|| __TEXT.__text __ZNK3awd7metrics19MotionDropDetection13IsInitializedEv
|| __TEXT.__text __ZNK3awd7metrics19MotionDropDetection13SetCachedSizeEi
|| __TEXT.__text __ZNK3awd7metrics19MotionDropDetection24SerializeWithCachedSizesEPN20wireless_diagnostics6google8protobuf2io17CodedOutputStreamE
|| __TEXT.__text __ZNK3awd7metrics19MotionDropDetection3NewEv
|| __TEXT.__text __ZNK3awd7metrics19MotionDropDetection8ByteSizeEv
|| __TEXT.__text __ZNK3awd7metrics19MotionFitnessAllDay11GetTypeNameEv
|| __TEXT.__text __ZNK3awd7metrics19MotionFitnessAllDay13IsInitializedEv
|| __TEXT.__text __ZNK3awd7metrics19MotionFitnessAllDay13SetCachedSizeEi
|| __TEXT.__text __ZNK3awd7metrics19MotionFitnessAllDay24SerializeWithCachedSizesEPN20wireless_diagnostics6google8protobuf2io17CodedOutputStreamE
|| __TEXT.__text __ZNK3awd7metrics19MotionFitnessAllDay3NewEv
|| __TEXT.__text __ZNK3awd7metrics19MotionFitnessAllDay8ByteSizeEv
|| __TEXT.__text __ZNK3awd7metrics20LocationBatteryState11GetTypeNameEv
|| __TEXT.__text __ZNK3awd7metrics20LocationBatteryState13IsInitializedEv
|| __TEXT.__text __ZNK3awd7metrics20LocationBatteryState13SetCachedSizeEi
|| __TEXT.__text __ZNK3awd7metrics20LocationBatteryState24SerializeWithCachedSizesEPN20wireless_diagnostics6google8protobuf2io17CodedOutputStreamE
|| __TEXT.__text __ZNK3awd7metrics20LocationBatteryState3NewEv
|| __TEXT.__text __ZNK3awd7metrics20LocationBatteryState8ByteSizeEv
|| __TEXT.__text __ZNK3awd7metrics20LocationWifiTileSync11GetTypeNameEv
|| __TEXT.__text __ZNK3awd7metrics20LocationWifiTileSync13IsInitializedEv
|| __TEXT.__text __ZNK3awd7metrics20LocationWifiTileSync13SetCachedSizeEi
|| __TEXT.__text __ZNK3awd7metrics20LocationWifiTileSync24SerializeWithCachedSizesEPN20wireless_diagnostics6google8protobuf2io17CodedOutputStreamE
|| __TEXT.__text __ZNK3awd7metrics20LocationWifiTileSync3NewEv
|| __TEXT.__text __ZNK3awd7metrics20LocationWifiTileSync8ByteSizeEv
|| __TEXT.__text __ZNK3awd7metrics20MotionFitnessSession11GetTypeNameEv
|| __TEXT.__text __ZNK3awd7metrics20MotionFitnessSession13IsInitializedEv
|| __TEXT.__text __ZNK3awd7metrics20MotionFitnessSession13SetCachedSizeEi
|| __TEXT.__text __ZNK3awd7metrics20MotionFitnessSession24SerializeWithCachedSizesEPN20wireless_diagnostics6google8protobuf2io17CodedOutputStreamE
|| __TEXT.__text __ZNK3awd7metrics20MotionFitnessSession3NewEv
|| __TEXT.__text __ZNK3awd7metrics20MotionFitnessSession8ByteSizeEv
|| __TEXT.__text __ZNK3awd7metrics20MotionNoGPSRunAllDay11GetTypeNameEv
|| __TEXT.__text __ZNK3awd7metrics20MotionNoGPSRunAllDay13IsInitializedEv
|| __TEXT.__text __ZNK3awd7metrics20MotionNoGPSRunAllDay13SetCachedSizeEi
|| __TEXT.__text __ZNK3awd7metrics20MotionNoGPSRunAllDay24SerializeWithCachedSizesEPN20wireless_diagnostics6google8protobuf2io17CodedOutputStreamE
|| __TEXT.__text __ZNK3awd7metrics20MotionNoGPSRunAllDay3NewEv
|| __TEXT.__text __ZNK3awd7metrics20MotionNoGPSRunAllDay8ByteSizeEv
|| __TEXT.__text __ZNK3awd7metrics21LocationALSCacheUsage11GetTypeNameEv
|| __TEXT.__text __ZNK3awd7metrics21LocationALSCacheUsage13IsInitializedEv
|| __TEXT.__text __ZNK3awd7metrics21LocationALSCacheUsage13SetCachedSizeEi
|| __TEXT.__text __ZNK3awd7metrics21LocationALSCacheUsage24SerializeWithCachedSizesEPN20wireless_diagnostics6google8protobuf2io17CodedOutputStreamE
|| __TEXT.__text __ZNK3awd7metrics21LocationALSCacheUsage3NewEv
|| __TEXT.__text __ZNK3awd7metrics21LocationALSCacheUsage8ByteSizeEv
|| __TEXT.__text __ZNK3awd7metrics21LocationCellTileUsage11GetTypeNameEv
|| __TEXT.__text __ZNK3awd7metrics21LocationCellTileUsage13IsInitializedEv
|| __TEXT.__text __ZNK3awd7metrics21LocationCellTileUsage13SetCachedSizeEi
|| __TEXT.__text __ZNK3awd7metrics21LocationCellTileUsage24SerializeWithCachedSizesEPN20wireless_diagnostics6google8protobuf2io17CodedOutputStreamE
|| __TEXT.__text __ZNK3awd7metrics21LocationCellTileUsage3NewEv
|| __TEXT.__text __ZNK3awd7metrics21LocationCellTileUsage8ByteSizeEv
|| __TEXT.__text __ZNK3awd7metrics21LocationServicesState11GetTypeNameEv
|| __TEXT.__text __ZNK3awd7metrics21LocationServicesState13IsInitializedEv
|| __TEXT.__text __ZNK3awd7metrics21LocationServicesState13SetCachedSizeEi
|| __TEXT.__text __ZNK3awd7metrics21LocationServicesState24SerializeWithCachedSizesEPN20wireless_diagnostics6google8protobuf2io17CodedOutputStreamE
|| __TEXT.__text __ZNK3awd7metrics21LocationServicesState3NewEv
|| __TEXT.__text __ZNK3awd7metrics21LocationServicesState8ByteSizeEv
|| __TEXT.__text __ZNK3awd7metrics21LocationTileFileUsage11GetTypeNameEv
|| __TEXT.__text __ZNK3awd7metrics21LocationTileFileUsage13IsInitializedEv
|| __TEXT.__text __ZNK3awd7metrics21LocationTileFileUsage13SetCachedSizeEi
|| __TEXT.__text __ZNK3awd7metrics21LocationTileFileUsage24SerializeWithCachedSizesEPN20wireless_diagnostics6google8protobuf2io17CodedOutputStreamE
|| __TEXT.__text __ZNK3awd7metrics21LocationTileFileUsage3NewEv
|| __TEXT.__text __ZNK3awd7metrics21LocationTileFileUsage8ByteSizeEv
|| __TEXT.__text __ZNK3awd7metrics21LocationUpdateSession11GetTypeNameEv
|| __TEXT.__text __ZNK3awd7metrics21LocationUpdateSession13IsInitializedEv
|| __TEXT.__text __ZNK3awd7metrics21LocationUpdateSession13SetCachedSizeEi
|| __TEXT.__text __ZNK3awd7metrics21LocationUpdateSession24SerializeWithCachedSizesEPN20wireless_diagnostics6google8protobuf2io17CodedOutputStreamE
|| __TEXT.__text __ZNK3awd7metrics21LocationUpdateSession3NewEv
|| __TEXT.__text __ZNK3awd7metrics21LocationUpdateSession8ByteSizeEv
|| __TEXT.__text __ZNK3awd7metrics21MotionElevationAllDay11GetTypeNameEv
|| __TEXT.__text __ZNK3awd7metrics21MotionElevationAllDay13IsInitializedEv
|| __TEXT.__text __ZNK3awd7metrics21MotionElevationAllDay13SetCachedSizeEi
|| __TEXT.__text __ZNK3awd7metrics21MotionElevationAllDay24SerializeWithCachedSizesEPN20wireless_diagnostics6google8protobuf2io17CodedOutputStreamE
|| __TEXT.__text __ZNK3awd7metrics21MotionElevationAllDay3NewEv
|| __TEXT.__text __ZNK3awd7metrics21MotionElevationAllDay8ByteSizeEv
|| __TEXT.__text __ZNK3awd7metrics22LocationMonitorSession11GetTypeNameEv
|| __TEXT.__text __ZNK3awd7metrics22LocationMonitorSession13IsInitializedEv
|| __TEXT.__text __ZNK3awd7metrics22LocationMonitorSession13SetCachedSizeEi
|| __TEXT.__text __ZNK3awd7metrics22LocationMonitorSession24SerializeWithCachedSizesEPN20wireless_diagnostics6google8protobuf2io17CodedOutputStreamE
|| __TEXT.__text __ZNK3awd7metrics22LocationMonitorSession3NewEv
|| __TEXT.__text __ZNK3awd7metrics22LocationMonitorSession8ByteSizeEv
|| __TEXT.__text __ZNK3awd7metrics22LocationMonitorTrigger11GetTypeNameEv
|| __TEXT.__text __ZNK3awd7metrics22LocationMonitorTrigger13IsInitializedEv
|| __TEXT.__text __ZNK3awd7metrics22LocationMonitorTrigger13SetCachedSizeEi
|| __TEXT.__text __ZNK3awd7metrics22LocationMonitorTrigger24SerializeWithCachedSizesEPN20wireless_diagnostics6google8protobuf2io17CodedOutputStreamE
|| __TEXT.__text __ZNK3awd7metrics22LocationMonitorTrigger3NewEv
|| __TEXT.__text __ZNK3awd7metrics22LocationMonitorTrigger8ByteSizeEv
|| __TEXT.__text __ZNK3awd7metrics22LocationNetworkQueries11GetTypeNameEv
|| __TEXT.__text __ZNK3awd7metrics22LocationNetworkQueries13IsInitializedEv
|| __TEXT.__text __ZNK3awd7metrics22LocationNetworkQueries13SetCachedSizeEi
|| __TEXT.__text __ZNK3awd7metrics22LocationNetworkQueries24SerializeWithCachedSizesEPN20wireless_diagnostics6google8protobuf2io17CodedOutputStreamE
|| __TEXT.__text __ZNK3awd7metrics22LocationNetworkQueries3NewEv
|| __TEXT.__text __ZNK3awd7metrics22LocationNetworkQueries8ByteSizeEv
|| __TEXT.__text __ZNK3awd7metrics22MotionFitnessPedometer11GetTypeNameEv
|| __TEXT.__text __ZNK3awd7metrics22MotionFitnessPedometer13IsInitializedEv
|| __TEXT.__text __ZNK3awd7metrics22MotionFitnessPedometer13SetCachedSizeEi
|| __TEXT.__text __ZNK3awd7metrics22MotionFitnessPedometer24SerializeWithCachedSizesEPN20wireless_diagnostics6google8protobuf2io17CodedOutputStreamE
|| __TEXT.__text __ZNK3awd7metrics22MotionFitnessPedometer3NewEv
|| __TEXT.__text __ZNK3awd7metrics22MotionFitnessPedometer8ByteSizeEv
|| __TEXT.__text __ZNK3awd7metrics23CompassSession_Rotation11GetTypeNameEv
|| __TEXT.__text __ZNK3awd7metrics23CompassSession_Rotation13IsInitializedEv
|| __TEXT.__text __ZNK3awd7metrics23CompassSession_Rotation13SetCachedSizeEi
|| __TEXT.__text __ZNK3awd7metrics23CompassSession_Rotation24SerializeWithCachedSizesEPN20wireless_diagnostics6google8protobuf2io17CodedOutputStreamE
|| __TEXT.__text __ZNK3awd7metrics23CompassSession_Rotation3NewEv
|| __TEXT.__text __ZNK3awd7metrics23CompassSession_Rotation8ByteSizeEv
|| __TEXT.__text __ZNK3awd7metrics23LocationALSNetworkUsage11GetTypeNameEv
|| __TEXT.__text __ZNK3awd7metrics23LocationALSNetworkUsage13IsInitializedEv
|| __TEXT.__text __ZNK3awd7metrics23LocationALSNetworkUsage13SetCachedSizeEi
|| __TEXT.__text __ZNK3awd7metrics23LocationALSNetworkUsage24SerializeWithCachedSizesEPN20wireless_diagnostics6google8protobuf2io17CodedOutputStreamE
|| __TEXT.__text __ZNK3awd7metrics23LocationALSNetworkUsage3NewEv
|| __TEXT.__text __ZNK3awd7metrics23LocationALSNetworkUsage8ByteSizeEv
|| __TEXT.__text __ZNK3awd7metrics23LocationRealTimeHarvest11GetTypeNameEv
|| __TEXT.__text __ZNK3awd7metrics23LocationRealTimeHarvest13IsInitializedEv
|| __TEXT.__text __ZNK3awd7metrics23LocationRealTimeHarvest13SetCachedSizeEi
|| __TEXT.__text __ZNK3awd7metrics23LocationRealTimeHarvest24SerializeWithCachedSizesEPN20wireless_diagnostics6google8protobuf2io17CodedOutputStreamE
|| __TEXT.__text __ZNK3awd7metrics23LocationRealTimeHarvest3NewEv
|| __TEXT.__text __ZNK3awd7metrics23LocationRealTimeHarvest8ByteSizeEv
|| __TEXT.__text __ZNK3awd7metrics24LocationEmergencySession11GetTypeNameEv
|| __TEXT.__text __ZNK3awd7metrics24LocationEmergencySession13IsInitializedEv
|| __TEXT.__text __ZNK3awd7metrics24LocationEmergencySession13SetCachedSizeEi
|| __TEXT.__text __ZNK3awd7metrics24LocationEmergencySession24SerializeWithCachedSizesEPN20wireless_diagnostics6google8protobuf2io17CodedOutputStreamE
|| __TEXT.__text __ZNK3awd7metrics24LocationEmergencySession3NewEv
|| __TEXT.__text __ZNK3awd7metrics24LocationEmergencySession8ByteSizeEv
|| __TEXT.__text __ZNK3awd7metrics24LocationServicesApproval11GetTypeNameEv
|| __TEXT.__text __ZNK3awd7metrics24LocationServicesApproval13IsInitializedEv
|| __TEXT.__text __ZNK3awd7metrics24LocationServicesApproval13SetCachedSizeEi
|| __TEXT.__text __ZNK3awd7metrics24LocationServicesApproval24SerializeWithCachedSizesEPN20wireless_diagnostics6google8protobuf2io17CodedOutputStreamE
|| __TEXT.__text __ZNK3awd7metrics24LocationServicesApproval3NewEv
|| __TEXT.__text __ZNK3awd7metrics24LocationServicesApproval8ByteSizeEv
|| __TEXT.__text __ZNK3awd7metrics24MotionGyroBiasEstimation11GetTypeNameEv
|| __TEXT.__text __ZNK3awd7metrics24MotionGyroBiasEstimation13IsInitializedEv
|| __TEXT.__text __ZNK3awd7metrics24MotionGyroBiasEstimation13SetCachedSizeEi
|| __TEXT.__text __ZNK3awd7metrics24MotionGyroBiasEstimation24SerializeWithCachedSizesEPN20wireless_diagnostics6google8protobuf2io17CodedOutputStreamE
|| __TEXT.__text __ZNK3awd7metrics24MotionGyroBiasEstimation3NewEv
|| __TEXT.__text __ZNK3awd7metrics24MotionGyroBiasEstimation8ByteSizeEv
|| __TEXT.__text __ZNK3awd7metrics25LocationNavigationSession11GetTypeNameEv
|| __TEXT.__text __ZNK3awd7metrics25LocationNavigationSession13IsInitializedEv
|| __TEXT.__text __ZNK3awd7metrics25LocationNavigationSession13SetCachedSizeEi
|| __TEXT.__text __ZNK3awd7metrics25LocationNavigationSession24SerializeWithCachedSizesEPN20wireless_diagnostics6google8protobuf2io17CodedOutputStreamE
|| __TEXT.__text __ZNK3awd7metrics25LocationNavigationSession3NewEv
|| __TEXT.__text __ZNK3awd7metrics25LocationNavigationSession8ByteSizeEv
|| __TEXT.__text __ZNK3awd7metrics25MotionPressureTemperature11GetTypeNameEv
|| __TEXT.__text __ZNK3awd7metrics25MotionPressureTemperature13IsInitializedEv
|| __TEXT.__text __ZNK3awd7metrics25MotionPressureTemperature13SetCachedSizeEi
|| __TEXT.__text __ZNK3awd7metrics25MotionPressureTemperature24SerializeWithCachedSizesEPN20wireless_diagnostics6google8protobuf2io17CodedOutputStreamE
|| __TEXT.__text __ZNK3awd7metrics25MotionPressureTemperature3NewEv
|| __TEXT.__text __ZNK3awd7metrics25MotionPressureTemperature8ByteSizeEv
|| __TEXT.__text __ZNK3awd7metrics26LocationCompassSaturations11GetTypeNameEv
|| __TEXT.__text __ZNK3awd7metrics26LocationCompassSaturations13IsInitializedEv
|| __TEXT.__text __ZNK3awd7metrics26LocationCompassSaturations13SetCachedSizeEi
|| __TEXT.__text __ZNK3awd7metrics26LocationCompassSaturations24SerializeWithCachedSizesEPN20wireless_diagnostics6google8protobuf2io17CodedOutputStreamE
|| __TEXT.__text __ZNK3awd7metrics26LocationCompassSaturations3NewEv
|| __TEXT.__text __ZNK3awd7metrics26LocationCompassSaturations8ByteSizeEv
|| __TEXT.__text __ZNK3awd7metrics26LocationPeerRangingMetrics11GetTypeNameEv
|| __TEXT.__text __ZNK3awd7metrics26LocationPeerRangingMetrics13IsInitializedEv
|| __TEXT.__text __ZNK3awd7metrics26LocationPeerRangingMetrics13SetCachedSizeEi
|| __TEXT.__text __ZNK3awd7metrics26LocationPeerRangingMetrics24SerializeWithCachedSizesEPN20wireless_diagnostics6google8protobuf2io17CodedOutputStreamE
|| __TEXT.__text __ZNK3awd7metrics26LocationPeerRangingMetrics3NewEv
|| __TEXT.__text __ZNK3awd7metrics26LocationPeerRangingMetrics8ByteSizeEv
|| __TEXT.__text __ZNK3awd7metrics26MotionBarometerCalibration11GetTypeNameEv
|| __TEXT.__text __ZNK3awd7metrics26MotionBarometerCalibration13IsInitializedEv
|| __TEXT.__text __ZNK3awd7metrics26MotionBarometerCalibration13SetCachedSizeEi
|| __TEXT.__text __ZNK3awd7metrics26MotionBarometerCalibration24SerializeWithCachedSizesEPN20wireless_diagnostics6google8protobuf2io17CodedOutputStreamE
|| __TEXT.__text __ZNK3awd7metrics26MotionBarometerCalibration3NewEv
|| __TEXT.__text __ZNK3awd7metrics26MotionBarometerCalibration8ByteSizeEv
|| __TEXT.__text __ZNK3awd7metrics26MotionPedometerCalibration11GetTypeNameEv
|| __TEXT.__text __ZNK3awd7metrics26MotionPedometerCalibration13IsInitializedEv
|| __TEXT.__text __ZNK3awd7metrics26MotionPedometerCalibration13SetCachedSizeEi
|| __TEXT.__text __ZNK3awd7metrics26MotionPedometerCalibration24SerializeWithCachedSizesEPN20wireless_diagnostics6google8protobuf2io17CodedOutputStreamE
|| __TEXT.__text __ZNK3awd7metrics26MotionPedometerCalibration3NewEv
|| __TEXT.__text __ZNK3awd7metrics26MotionPedometerCalibration8ByteSizeEv
|| __TEXT.__text __ZNK3awd7metrics27LocationPeerRangingDecision11GetTypeNameEv
|| __TEXT.__text __ZNK3awd7metrics27LocationPeerRangingDecision13IsInitializedEv
|| __TEXT.__text __ZNK3awd7metrics27LocationPeerRangingDecision13SetCachedSizeEi
|| __TEXT.__text __ZNK3awd7metrics27LocationPeerRangingDecision24SerializeWithCachedSizesEPN20wireless_diagnostics6google8protobuf2io17CodedOutputStreamE
|| __TEXT.__text __ZNK3awd7metrics27LocationPeerRangingDecision3NewEv
|| __TEXT.__text __ZNK3awd7metrics27LocationPeerRangingDecision8ByteSizeEv
|| __TEXT.__text __ZNK3awd7metrics27LocationPeerRangingMetaData11GetTypeNameEv
|| __TEXT.__text __ZNK3awd7metrics27LocationPeerRangingMetaData13IsInitializedEv
|| __TEXT.__text __ZNK3awd7metrics27LocationPeerRangingMetaData13SetCachedSizeEi
|| __TEXT.__text __ZNK3awd7metrics27LocationPeerRangingMetaData24SerializeWithCachedSizesEPN20wireless_diagnostics6google8protobuf2io17CodedOutputStreamE
|| __TEXT.__text __ZNK3awd7metrics27LocationPeerRangingMetaData3NewEv
|| __TEXT.__text __ZNK3awd7metrics27LocationPeerRangingMetaData8ByteSizeEv
|| __TEXT.__text __ZNK3awd7metrics27LocationSubHarvesterMetrics11GetTypeNameEv
|| __TEXT.__text __ZNK3awd7metrics27LocationSubHarvesterMetrics13IsInitializedEv
|| __TEXT.__text __ZNK3awd7metrics27LocationSubHarvesterMetrics13SetCachedSizeEi
|| __TEXT.__text __ZNK3awd7metrics27LocationSubHarvesterMetrics24SerializeWithCachedSizesEPN20wireless_diagnostics6google8protobuf2io17CodedOutputStreamE
|| __TEXT.__text __ZNK3awd7metrics27LocationSubHarvesterMetrics3NewEv
|| __TEXT.__text __ZNK3awd7metrics27LocationSubHarvesterMetrics8ByteSizeEv
|| __TEXT.__text __ZNK3awd7metrics27LocationVisibilityAssertion11GetTypeNameEv
|| __TEXT.__text __ZNK3awd7metrics27LocationVisibilityAssertion13IsInitializedEv
|| __TEXT.__text __ZNK3awd7metrics27LocationVisibilityAssertion13SetCachedSizeEi
|| __TEXT.__text __ZNK3awd7metrics27LocationVisibilityAssertion24SerializeWithCachedSizesEPN20wireless_diagnostics6google8protobuf2io17CodedOutputStreamE
|| __TEXT.__text __ZNK3awd7metrics27LocationVisibilityAssertion3NewEv
|| __TEXT.__text __ZNK3awd7metrics27LocationVisibilityAssertion8ByteSizeEv
|| __TEXT.__text __ZNK3awd7metrics28LocationBeaconMonitorSession11GetTypeNameEv
|| __TEXT.__text __ZNK3awd7metrics28LocationBeaconMonitorSession13IsInitializedEv
|| __TEXT.__text __ZNK3awd7metrics28LocationBeaconMonitorSession13SetCachedSizeEi
|| __TEXT.__text __ZNK3awd7metrics28LocationBeaconMonitorSession24SerializeWithCachedSizesEPN20wireless_diagnostics6google8protobuf2io17CodedOutputStreamE
|| __TEXT.__text __ZNK3awd7metrics28LocationBeaconMonitorSession3NewEv
|| __TEXT.__text __ZNK3awd7metrics28LocationBeaconMonitorSession8ByteSizeEv
|| __TEXT.__text __ZNK3awd7metrics28LocationBeaconMonitorTrigger11GetTypeNameEv
|| __TEXT.__text __ZNK3awd7metrics28LocationBeaconMonitorTrigger13IsInitializedEv
|| __TEXT.__text __ZNK3awd7metrics28LocationBeaconMonitorTrigger13SetCachedSizeEi
|| __TEXT.__text __ZNK3awd7metrics28LocationBeaconMonitorTrigger24SerializeWithCachedSizesEPN20wireless_diagnostics6google8protobuf2io17CodedOutputStreamE
|| __TEXT.__text __ZNK3awd7metrics28LocationBeaconMonitorTrigger3NewEv
|| __TEXT.__text __ZNK3awd7metrics28LocationBeaconMonitorTrigger8ByteSizeEv
|| __TEXT.__text __ZNK3awd7metrics28LocationBeaconRangingSession11GetTypeNameEv
|| __TEXT.__text __ZNK3awd7metrics28LocationBeaconRangingSession13IsInitializedEv
|| __TEXT.__text __ZNK3awd7metrics28LocationBeaconRangingSession13SetCachedSizeEi
|| __TEXT.__text __ZNK3awd7metrics28LocationBeaconRangingSession24SerializeWithCachedSizesEPN20wireless_diagnostics6google8protobuf2io17CodedOutputStreamE
|| __TEXT.__text __ZNK3awd7metrics28LocationBeaconRangingSession3NewEv
|| __TEXT.__text __ZNK3awd7metrics28LocationBeaconRangingSession8ByteSizeEv
|| __TEXT.__text __ZNK3awd7metrics28LocationGPSSessionStatistics11GetTypeNameEv
|| __TEXT.__text __ZNK3awd7metrics28LocationGPSSessionStatistics13IsInitializedEv
|| __TEXT.__text __ZNK3awd7metrics28LocationGPSSessionStatistics13SetCachedSizeEi
|| __TEXT.__text __ZNK3awd7metrics28LocationGPSSessionStatistics24SerializeWithCachedSizesEPN20wireless_diagnostics6google8protobuf2io17CodedOutputStreamE
|| __TEXT.__text __ZNK3awd7metrics28LocationGPSSessionStatistics3NewEv
|| __TEXT.__text __ZNK3awd7metrics28LocationGPSSessionStatistics8ByteSizeEv
|| __TEXT.__text __ZNK3awd7metrics28LocationMainHarvesterMetrics11GetTypeNameEv
|| __TEXT.__text __ZNK3awd7metrics28LocationMainHarvesterMetrics13IsInitializedEv
|| __TEXT.__text __ZNK3awd7metrics28LocationMainHarvesterMetrics13SetCachedSizeEi
|| __TEXT.__text __ZNK3awd7metrics28LocationMainHarvesterMetrics24SerializeWithCachedSizesEPN20wireless_diagnostics6google8protobuf2io17CodedOutputStreamE
|| __TEXT.__text __ZNK3awd7metrics28LocationMainHarvesterMetrics3NewEv
|| __TEXT.__text __ZNK3awd7metrics28LocationMainHarvesterMetrics8ByteSizeEv
|| __TEXT.__text __ZNK3awd7metrics28MotionFitnessAccelSampleRate11GetTypeNameEv
|| __TEXT.__text __ZNK3awd7metrics28MotionFitnessAccelSampleRate13IsInitializedEv
|| __TEXT.__text __ZNK3awd7metrics28MotionFitnessAccelSampleRate13SetCachedSizeEi
|| __TEXT.__text __ZNK3awd7metrics28MotionFitnessAccelSampleRate24SerializeWithCachedSizesEPN20wireless_diagnostics6google8protobuf2io17CodedOutputStreamE
|| __TEXT.__text __ZNK3awd7metrics28MotionFitnessAccelSampleRate3NewEv
|| __TEXT.__text __ZNK3awd7metrics28MotionFitnessAccelSampleRate8ByteSizeEv
|| __TEXT.__text __ZNK3awd7metrics29LocationMicroLocationMetaData11GetTypeNameEv
|| __TEXT.__text __ZNK3awd7metrics29LocationMicroLocationMetaData13IsInitializedEv
|| __TEXT.__text __ZNK3awd7metrics29LocationMicroLocationMetaData13SetCachedSizeEi
|| __TEXT.__text __ZNK3awd7metrics29LocationMicroLocationMetaData24SerializeWithCachedSizesEPN20wireless_diagnostics6google8protobuf2io17CodedOutputStreamE
|| __TEXT.__text __ZNK3awd7metrics29LocationMicroLocationMetaData3NewEv
|| __TEXT.__text __ZNK3awd7metrics29LocationMicroLocationMetaData8ByteSizeEv
|| __TEXT.__text __ZNK3awd7metrics29LocationMobileAssetStatistics11GetTypeNameEv
|| __TEXT.__text __ZNK3awd7metrics29LocationMobileAssetStatistics13IsInitializedEv
|| __TEXT.__text __ZNK3awd7metrics29LocationMobileAssetStatistics13SetCachedSizeEi
|| __TEXT.__text __ZNK3awd7metrics29LocationMobileAssetStatistics24SerializeWithCachedSizesEPN20wireless_diagnostics6google8protobuf2io17CodedOutputStreamE
|| __TEXT.__text __ZNK3awd7metrics29LocationMobileAssetStatistics3NewEv
|| __TEXT.__text __ZNK3awd7metrics29LocationMobileAssetStatistics8ByteSizeEv
|| __TEXT.__text __ZNK3awd7metrics30LocationEmergencyPOIStatistics11GetTypeNameEv
|| __TEXT.__text __ZNK3awd7metrics30LocationEmergencyPOIStatistics13IsInitializedEv
|| __TEXT.__text __ZNK3awd7metrics30LocationEmergencyPOIStatistics13SetCachedSizeEi
|| __TEXT.__text __ZNK3awd7metrics30LocationEmergencyPOIStatistics24SerializeWithCachedSizesEPN20wireless_diagnostics6google8protobuf2io17CodedOutputStreamE
|| __TEXT.__text __ZNK3awd7metrics30LocationEmergencyPOIStatistics3NewEv
|| __TEXT.__text __ZNK3awd7metrics30LocationEmergencyPOIStatistics8ByteSizeEv
|| __TEXT.__text __ZNK3awd7metrics30LocationSecondaryDeviceRequest11GetTypeNameEv
|| __TEXT.__text __ZNK3awd7metrics30LocationSecondaryDeviceRequest13IsInitializedEv
|| __TEXT.__text __ZNK3awd7metrics30LocationSecondaryDeviceRequest13SetCachedSizeEi
|| __TEXT.__text __ZNK3awd7metrics30LocationSecondaryDeviceRequest24SerializeWithCachedSizesEPN20wireless_diagnostics6google8protobuf2io17CodedOutputStreamE
|| __TEXT.__text __ZNK3awd7metrics30LocationSecondaryDeviceRequest3NewEv
|| __TEXT.__text __ZNK3awd7metrics30LocationSecondaryDeviceRequest8ByteSizeEv
|| __TEXT.__text __ZNK3awd7metrics30MotionFitnessStrideCalibration11GetTypeNameEv
|| __TEXT.__text __ZNK3awd7metrics30MotionFitnessStrideCalibration13IsInitializedEv
|| __TEXT.__text __ZNK3awd7metrics30MotionFitnessStrideCalibration13SetCachedSizeEi
|| __TEXT.__text __ZNK3awd7metrics30MotionFitnessStrideCalibration24SerializeWithCachedSizesEPN20wireless_diagnostics6google8protobuf2io17CodedOutputStreamE
|| __TEXT.__text __ZNK3awd7metrics30MotionFitnessStrideCalibration3NewEv
|| __TEXT.__text __ZNK3awd7metrics30MotionFitnessStrideCalibration8ByteSizeEv
|| __TEXT.__text __ZNK3awd7metrics31LocationMicroLocationModelState11GetTypeNameEv
|| __TEXT.__text __ZNK3awd7metrics31LocationMicroLocationModelState13IsInitializedEv
|| __TEXT.__text __ZNK3awd7metrics31LocationMicroLocationModelState13SetCachedSizeEi
|| __TEXT.__text __ZNK3awd7metrics31LocationMicroLocationModelState24SerializeWithCachedSizesEPN20wireless_diagnostics6google8protobuf2io17CodedOutputStreamE
|| __TEXT.__text __ZNK3awd7metrics31LocationMicroLocationModelState3NewEv
|| __TEXT.__text __ZNK3awd7metrics31LocationMicroLocationModelState8ByteSizeEv
|| __TEXT.__text __ZNK3awd7metrics31LocationMicroLocationStatistics11GetTypeNameEv
|| __TEXT.__text __ZNK3awd7metrics31LocationMicroLocationStatistics13IsInitializedEv
|| __TEXT.__text __ZNK3awd7metrics31LocationMicroLocationStatistics13SetCachedSizeEi
|| __TEXT.__text __ZNK3awd7metrics31LocationMicroLocationStatistics24SerializeWithCachedSizesEPN20wireless_diagnostics6google8protobuf2io17CodedOutputStreamE
|| __TEXT.__text __ZNK3awd7metrics31LocationMicroLocationStatistics3NewEv
|| __TEXT.__text __ZNK3awd7metrics31LocationMicroLocationStatistics8ByteSizeEv
|| __TEXT.__text __ZNK3awd7metrics31LocationPeerRangingBurstMetrics11GetTypeNameEv
|| __TEXT.__text __ZNK3awd7metrics31LocationPeerRangingBurstMetrics13IsInitializedEv
|| __TEXT.__text __ZNK3awd7metrics31LocationPeerRangingBurstMetrics13SetCachedSizeEi
|| __TEXT.__text __ZNK3awd7metrics31LocationPeerRangingBurstMetrics24SerializeWithCachedSizesEPN20wireless_diagnostics6google8protobuf2io17CodedOutputStreamE
|| __TEXT.__text __ZNK3awd7metrics31LocationPeerRangingBurstMetrics3NewEv
|| __TEXT.__text __ZNK3awd7metrics31LocationPeerRangingBurstMetrics8ByteSizeEv
|| __TEXT.__text __ZNK3awd7metrics31LocationPhoneNumberAvailability11GetTypeNameEv
|| __TEXT.__text __ZNK3awd7metrics31LocationPhoneNumberAvailability13IsInitializedEv
|| __TEXT.__text __ZNK3awd7metrics31LocationPhoneNumberAvailability13SetCachedSizeEi
|| __TEXT.__text __ZNK3awd7metrics31LocationPhoneNumberAvailability24SerializeWithCachedSizesEPN20wireless_diagnostics6google8protobuf2io17CodedOutputStreamE
|| __TEXT.__text __ZNK3awd7metrics31LocationPhoneNumberAvailability3NewEv
|| __TEXT.__text __ZNK3awd7metrics31LocationPhoneNumberAvailability8ByteSizeEv
|| __TEXT.__text __ZNK3awd7metrics32LocationGnssSWRecoveryStatistics11GetTypeNameEv
|| __TEXT.__text __ZNK3awd7metrics32LocationGnssSWRecoveryStatistics13IsInitializedEv
|| __TEXT.__text __ZNK3awd7metrics32LocationGnssSWRecoveryStatistics13SetCachedSizeEi
|| __TEXT.__text __ZNK3awd7metrics32LocationGnssSWRecoveryStatistics24SerializeWithCachedSizesEPN20wireless_diagnostics6google8protobuf2io17CodedOutputStreamE
|| __TEXT.__text __ZNK3awd7metrics32LocationGnssSWRecoveryStatistics3NewEv
|| __TEXT.__text __ZNK3awd7metrics32LocationGnssSWRecoveryStatistics8ByteSizeEv
|| __TEXT.__text __ZNK3awd7metrics33LocationSubHarvesterUploadAttempt11GetTypeNameEv
|| __TEXT.__text __ZNK3awd7metrics33LocationSubHarvesterUploadAttempt13IsInitializedEv
|| __TEXT.__text __ZNK3awd7metrics33LocationSubHarvesterUploadAttempt13SetCachedSizeEi
|| __TEXT.__text __ZNK3awd7metrics33LocationSubHarvesterUploadAttempt24SerializeWithCachedSizesEPN20wireless_diagnostics6google8protobuf2io17CodedOutputStreamE
|| __TEXT.__text __ZNK3awd7metrics33LocationSubHarvesterUploadAttempt3NewEv
|| __TEXT.__text __ZNK3awd7metrics33LocationSubHarvesterUploadAttempt8ByteSizeEv
|| __TEXT.__text __ZNK3awd7metrics33MotionGyroBiasEstimation_EndCount11GetTypeNameEv
|| __TEXT.__text __ZNK3awd7metrics33MotionGyroBiasEstimation_EndCount13IsInitializedEv
|| __TEXT.__text __ZNK3awd7metrics33MotionGyroBiasEstimation_EndCount13SetCachedSizeEi
|| __TEXT.__text __ZNK3awd7metrics33MotionGyroBiasEstimation_EndCount24SerializeWithCachedSizesEPN20wireless_diagnostics6google8protobuf2io17CodedOutputStreamE
|| __TEXT.__text __ZNK3awd7metrics33MotionGyroBiasEstimation_EndCount3NewEv
|| __TEXT.__text __ZNK3awd7metrics33MotionGyroBiasEstimation_EndCount8ByteSizeEv
|| __TEXT.__text __ZNK3awd7metrics34LocationEmergencySessionStatistics11GetTypeNameEv
|| __TEXT.__text __ZNK3awd7metrics34LocationEmergencySessionStatistics13IsInitializedEv
|| __TEXT.__text __ZNK3awd7metrics34LocationEmergencySessionStatistics13SetCachedSizeEi
|| __TEXT.__text __ZNK3awd7metrics34LocationEmergencySessionStatistics24SerializeWithCachedSizesEPN20wireless_diagnostics6google8protobuf2io17CodedOutputStreamE
|| __TEXT.__text __ZNK3awd7metrics34LocationEmergencySessionStatistics3NewEv
|| __TEXT.__text __ZNK3awd7metrics34LocationEmergencySessionStatistics8ByteSizeEv
|| __TEXT.__text __ZNK3awd7metrics34LocationMicroLocationLearningState11GetTypeNameEv
|| __TEXT.__text __ZNK3awd7metrics34LocationMicroLocationLearningState13IsInitializedEv
|| __TEXT.__text __ZNK3awd7metrics34LocationMicroLocationLearningState13SetCachedSizeEi
|| __TEXT.__text __ZNK3awd7metrics34LocationMicroLocationLearningState24SerializeWithCachedSizesEPN20wireless_diagnostics6google8protobuf2io17CodedOutputStreamE
|| __TEXT.__text __ZNK3awd7metrics34LocationMicroLocationLearningState3NewEv
|| __TEXT.__text __ZNK3awd7metrics34LocationMicroLocationLearningState8ByteSizeEv
|| __TEXT.__text __ZNK3awd7metrics35LocationMicroLocationAnalyticsState11GetTypeNameEv
|| __TEXT.__text __ZNK3awd7metrics35LocationMicroLocationAnalyticsState13IsInitializedEv
|| __TEXT.__text __ZNK3awd7metrics35LocationMicroLocationAnalyticsState13SetCachedSizeEi
|| __TEXT.__text __ZNK3awd7metrics35LocationMicroLocationAnalyticsState24SerializeWithCachedSizesEPN20wireless_diagnostics6google8protobuf2io17CodedOutputStreamE
|| __TEXT.__text __ZNK3awd7metrics35LocationMicroLocationAnalyticsState3NewEv
|| __TEXT.__text __ZNK3awd7metrics35LocationMicroLocationAnalyticsState8ByteSizeEv
|| __TEXT.__text __ZNK3awd7metrics35LocationMicroLocationEventHistogram11GetTypeNameEv
|| __TEXT.__text __ZNK3awd7metrics35LocationMicroLocationEventHistogram13IsInitializedEv
|| __TEXT.__text __ZNK3awd7metrics35LocationMicroLocationEventHistogram13SetCachedSizeEi
|| __TEXT.__text __ZNK3awd7metrics35LocationMicroLocationEventHistogram24SerializeWithCachedSizesEPN20wireless_diagnostics6google8protobuf2io17CodedOutputStreamE
|| __TEXT.__text __ZNK3awd7metrics35LocationMicroLocationEventHistogram3NewEv
|| __TEXT.__text __ZNK3awd7metrics35LocationMicroLocationEventHistogram8ByteSizeEv
|| __TEXT.__text __ZNK3awd7metrics37LocationPeerRangingMeasurementMetrics11GetTypeNameEv
|| __TEXT.__text __ZNK3awd7metrics37LocationPeerRangingMeasurementMetrics13IsInitializedEv
|| __TEXT.__text __ZNK3awd7metrics37LocationPeerRangingMeasurementMetrics13SetCachedSizeEi
|| __TEXT.__text __ZNK3awd7metrics37LocationPeerRangingMeasurementMetrics24SerializeWithCachedSizesEPN20wireless_diagnostics6google8protobuf2io17CodedOutputStreamE
|| __TEXT.__text __ZNK3awd7metrics37LocationPeerRangingMeasurementMetrics3NewEv
|| __TEXT.__text __ZNK3awd7metrics37LocationPeerRangingMeasurementMetrics8ByteSizeEv
|| __TEXT.__text __ZNK3awd7metrics37LocationWifiAPLocationProviderSession11GetTypeNameEv
|| __TEXT.__text __ZNK3awd7metrics37LocationWifiAPLocationProviderSession13IsInitializedEv
|| __TEXT.__text __ZNK3awd7metrics37LocationWifiAPLocationProviderSession13SetCachedSizeEi
|| __TEXT.__text __ZNK3awd7metrics37LocationWifiAPLocationProviderSession24SerializeWithCachedSizesEPN20wireless_diagnostics6google8protobuf2io17CodedOutputStreamE
|| __TEXT.__text __ZNK3awd7metrics37LocationWifiAPLocationProviderSession3NewEv
|| __TEXT.__text __ZNK3awd7metrics37LocationWifiAPLocationProviderSession8ByteSizeEv
|| __TEXT.__text __ZNK3awd7metrics38LocationMicroLocationClusteringByModel11GetTypeNameEv
|| __TEXT.__text __ZNK3awd7metrics38LocationMicroLocationClusteringByModel13IsInitializedEv
|| __TEXT.__text __ZNK3awd7metrics38LocationMicroLocationClusteringByModel13SetCachedSizeEi
|| __TEXT.__text __ZNK3awd7metrics38LocationMicroLocationClusteringByModel24SerializeWithCachedSizesEPN20wireless_diagnostics6google8protobuf2io17CodedOutputStreamE
|| __TEXT.__text __ZNK3awd7metrics38LocationMicroLocationClusteringByModel3NewEv
|| __TEXT.__text __ZNK3awd7metrics38LocationMicroLocationClusteringByModel8ByteSizeEv
|| __TEXT.__text __ZNK3awd7metrics38LocationMicroLocationEventTypeAndCount11GetTypeNameEv
|| __TEXT.__text __ZNK3awd7metrics38LocationMicroLocationEventTypeAndCount13IsInitializedEv
|| __TEXT.__text __ZNK3awd7metrics38LocationMicroLocationEventTypeAndCount13SetCachedSizeEi
|| __TEXT.__text __ZNK3awd7metrics38LocationMicroLocationEventTypeAndCount24SerializeWithCachedSizesEPN20wireless_diagnostics6google8protobuf2io17CodedOutputStreamE
|| __TEXT.__text __ZNK3awd7metrics38LocationMicroLocationEventTypeAndCount3NewEv
|| __TEXT.__text __ZNK3awd7metrics38LocationMicroLocationEventTypeAndCount8ByteSizeEv
|| __TEXT.__text __ZNK3awd7metrics39LocationMicroLocationSignificanceMetric11GetTypeNameEv
|| __TEXT.__text __ZNK3awd7metrics39LocationMicroLocationSignificanceMetric13IsInitializedEv
|| __TEXT.__text __ZNK3awd7metrics39LocationMicroLocationSignificanceMetric13SetCachedSizeEi
|| __TEXT.__text __ZNK3awd7metrics39LocationMicroLocationSignificanceMetric24SerializeWithCachedSizesEPN20wireless_diagnostics6google8protobuf2io17CodedOutputStreamE
|| __TEXT.__text __ZNK3awd7metrics39LocationMicroLocationSignificanceMetric3NewEv
|| __TEXT.__text __ZNK3awd7metrics39LocationMicroLocationSignificanceMetric8ByteSizeEv
|| __TEXT.__text __ZNK3awd7metrics40LocationMicroLocationUserEventStatistics11GetTypeNameEv
|| __TEXT.__text __ZNK3awd7metrics40LocationMicroLocationUserEventStatistics13IsInitializedEv
|| __TEXT.__text __ZNK3awd7metrics40LocationMicroLocationUserEventStatistics13SetCachedSizeEi
|| __TEXT.__text __ZNK3awd7metrics40LocationMicroLocationUserEventStatistics24SerializeWithCachedSizesEPN20wireless_diagnostics6google8protobuf2io17CodedOutputStreamE
|| __TEXT.__text __ZNK3awd7metrics40LocationMicroLocationUserEventStatistics3NewEv
|| __TEXT.__text __ZNK3awd7metrics40LocationMicroLocationUserEventStatistics8ByteSizeEv
|| __TEXT.__text __ZNK3awd7metrics40LocationPeerRangingEarlyTerminateMetrics11GetTypeNameEv
|| __TEXT.__text __ZNK3awd7metrics40LocationPeerRangingEarlyTerminateMetrics13IsInitializedEv
|| __TEXT.__text __ZNK3awd7metrics40LocationPeerRangingEarlyTerminateMetrics13SetCachedSizeEi
|| __TEXT.__text __ZNK3awd7metrics40LocationPeerRangingEarlyTerminateMetrics24SerializeWithCachedSizesEPN20wireless_diagnostics6google8protobuf2io17CodedOutputStreamE
|| __TEXT.__text __ZNK3awd7metrics40LocationPeerRangingEarlyTerminateMetrics3NewEv
|| __TEXT.__text __ZNK3awd7metrics40LocationPeerRangingEarlyTerminateMetrics8ByteSizeEv
|| __TEXT.__text __ZNK3awd7metrics40LocationPeerRangingUnlockDecisionMetrics11GetTypeNameEv
|| __TEXT.__text __ZNK3awd7metrics40LocationPeerRangingUnlockDecisionMetrics13IsInitializedEv
|| __TEXT.__text __ZNK3awd7metrics40LocationPeerRangingUnlockDecisionMetrics13SetCachedSizeEi
|| __TEXT.__text __ZNK3awd7metrics40LocationPeerRangingUnlockDecisionMetrics24SerializeWithCachedSizesEPN20wireless_diagnostics6google8protobuf2io17CodedOutputStreamE
|| __TEXT.__text __ZNK3awd7metrics40LocationPeerRangingUnlockDecisionMetrics3NewEv
|| __TEXT.__text __ZNK3awd7metrics40LocationPeerRangingUnlockDecisionMetrics8ByteSizeEv
|| __TEXT.__text __ZNK3awd7metrics41LocationGPSSessionStatistics_ChecksumData11GetTypeNameEv
|| __TEXT.__text __ZNK3awd7metrics41LocationGPSSessionStatistics_ChecksumData13IsInitializedEv
|| __TEXT.__text __ZNK3awd7metrics41LocationGPSSessionStatistics_ChecksumData13SetCachedSizeEi
|| __TEXT.__text __ZNK3awd7metrics41LocationGPSSessionStatistics_ChecksumData24SerializeWithCachedSizesEPN20wireless_diagnostics6google8protobuf2io17CodedOutputStreamE
|| __TEXT.__text __ZNK3awd7metrics41LocationGPSSessionStatistics_ChecksumData3NewEv
|| __TEXT.__text __ZNK3awd7metrics41LocationGPSSessionStatistics_ChecksumData8ByteSizeEv
|| __TEXT.__text __ZNK3awd7metrics41LocationMicroLocationClusteringStatistics11GetTypeNameEv
|| __TEXT.__text __ZNK3awd7metrics41LocationMicroLocationClusteringStatistics13IsInitializedEv
|| __TEXT.__text __ZNK3awd7metrics41LocationMicroLocationClusteringStatistics13SetCachedSizeEi
|| __TEXT.__text __ZNK3awd7metrics41LocationMicroLocationClusteringStatistics24SerializeWithCachedSizesEPN20wireless_diagnostics6google8protobuf2io17CodedOutputStreamE
|| __TEXT.__text __ZNK3awd7metrics41LocationMicroLocationClusteringStatistics3NewEv
|| __TEXT.__text __ZNK3awd7metrics41LocationMicroLocationClusteringStatistics8ByteSizeEv
|| __TEXT.__text __ZNK3awd7metrics41LocationPeerRangingEstimatorConfiguration11GetTypeNameEv
|| __TEXT.__text __ZNK3awd7metrics41LocationPeerRangingEstimatorConfiguration13IsInitializedEv
|| __TEXT.__text __ZNK3awd7metrics41LocationPeerRangingEstimatorConfiguration13SetCachedSizeEi
|| __TEXT.__text __ZNK3awd7metrics41LocationPeerRangingEstimatorConfiguration24SerializeWithCachedSizesEPN20wireless_diagnostics6google8protobuf2io17CodedOutputStreamE
|| __TEXT.__text __ZNK3awd7metrics41LocationPeerRangingEstimatorConfiguration3NewEv
|| __TEXT.__text __ZNK3awd7metrics41LocationPeerRangingEstimatorConfiguration8ByteSizeEv
|| __TEXT.__text __ZNK3awd7metrics42LocationMicroLocationMeasurementStatistics11GetTypeNameEv
|| __TEXT.__text __ZNK3awd7metrics42LocationMicroLocationMeasurementStatistics13IsInitializedEv
|| __TEXT.__text __ZNK3awd7metrics42LocationMicroLocationMeasurementStatistics13SetCachedSizeEi
|| __TEXT.__text __ZNK3awd7metrics42LocationMicroLocationMeasurementStatistics24SerializeWithCachedSizesEPN20wireless_diagnostics6google8protobuf2io17CodedOutputStreamE
|| __TEXT.__text __ZNK3awd7metrics42LocationMicroLocationMeasurementStatistics3NewEv
|| __TEXT.__text __ZNK3awd7metrics42LocationMicroLocationMeasurementStatistics8ByteSizeEv
|| __TEXT.__text __ZNK3awd7metrics43LocationGPSSessionStatistics_PowerStateData11GetTypeNameEv
|| __TEXT.__text __ZNK3awd7metrics43LocationGPSSessionStatistics_PowerStateData13IsInitializedEv
|| __TEXT.__text __ZNK3awd7metrics43LocationGPSSessionStatistics_PowerStateData13SetCachedSizeEi
|| __TEXT.__text __ZNK3awd7metrics43LocationGPSSessionStatistics_PowerStateData24SerializeWithCachedSizesEPN20wireless_diagnostics6google8protobuf2io17CodedOutputStreamE
|| __TEXT.__text __ZNK3awd7metrics43LocationGPSSessionStatistics_PowerStateData3NewEv
|| __TEXT.__text __ZNK3awd7metrics43LocationGPSSessionStatistics_PowerStateData8ByteSizeEv
|| __TEXT.__text __ZNK3awd7metrics43LocationMicroLocationLocalizationStatistics11GetTypeNameEv
|| __TEXT.__text __ZNK3awd7metrics43LocationMicroLocationLocalizationStatistics13IsInitializedEv
|| __TEXT.__text __ZNK3awd7metrics43LocationMicroLocationLocalizationStatistics13SetCachedSizeEi
|| __TEXT.__text __ZNK3awd7metrics43LocationMicroLocationLocalizationStatistics24SerializeWithCachedSizesEPN20wireless_diagnostics6google8protobuf2io17CodedOutputStreamE
|| __TEXT.__text __ZNK3awd7metrics43LocationMicroLocationLocalizationStatistics3NewEv
|| __TEXT.__text __ZNK3awd7metrics43LocationMicroLocationLocalizationStatistics8ByteSizeEv
|| __TEXT.__text __ZNK3awd7metrics44LocationGPSSessionStatistics_MovingStateData11GetTypeNameEv
|| __TEXT.__text __ZNK3awd7metrics44LocationGPSSessionStatistics_MovingStateData13IsInitializedEv
|| __TEXT.__text __ZNK3awd7metrics44LocationGPSSessionStatistics_MovingStateData13SetCachedSizeEi
|| __TEXT.__text __ZNK3awd7metrics44LocationGPSSessionStatistics_MovingStateData24SerializeWithCachedSizesEPN20wireless_diagnostics6google8protobuf2io17CodedOutputStreamE
|| __TEXT.__text __ZNK3awd7metrics44LocationGPSSessionStatistics_MovingStateData3NewEv
|| __TEXT.__text __ZNK3awd7metrics44LocationGPSSessionStatistics_MovingStateData8ByteSizeEv
|| __TEXT.__text __ZNK3awd7metrics44LocationMicroLocationEventSignificanceMetric11GetTypeNameEv
|| __TEXT.__text __ZNK3awd7metrics44LocationMicroLocationEventSignificanceMetric13IsInitializedEv
|| __TEXT.__text __ZNK3awd7metrics44LocationMicroLocationEventSignificanceMetric13SetCachedSizeEi
|| __TEXT.__text __ZNK3awd7metrics44LocationMicroLocationEventSignificanceMetric24SerializeWithCachedSizesEPN20wireless_diagnostics6google8protobuf2io17CodedOutputStreamE
|| __TEXT.__text __ZNK3awd7metrics44LocationMicroLocationEventSignificanceMetric3NewEv
|| __TEXT.__text __ZNK3awd7metrics44LocationMicroLocationEventSignificanceMetric8ByteSizeEv
|| __TEXT.__text __ZNK3awd7metrics45LocationGPSSessionStatistics_MountedStateData11GetTypeNameEv
|| __TEXT.__text __ZNK3awd7metrics45LocationGPSSessionStatistics_MountedStateData13IsInitializedEv
|| __TEXT.__text __ZNK3awd7metrics45LocationGPSSessionStatistics_MountedStateData13SetCachedSizeEi
|| __TEXT.__text __ZNK3awd7metrics45LocationGPSSessionStatistics_MountedStateData24SerializeWithCachedSizesEPN20wireless_diagnostics6google8protobuf2io17CodedOutputStreamE
|| __TEXT.__text __ZNK3awd7metrics45LocationGPSSessionStatistics_MountedStateData3NewEv
|| __TEXT.__text __ZNK3awd7metrics45LocationGPSSessionStatistics_MountedStateData8ByteSizeEv
|| __TEXT.__text __ZNK3awd7metrics46LocationMicroLocationEventClusteringStatistics11GetTypeNameEv
|| __TEXT.__text __ZNK3awd7metrics46LocationMicroLocationEventClusteringStatistics13IsInitializedEv
|| __TEXT.__text __ZNK3awd7metrics46LocationMicroLocationEventClusteringStatistics13SetCachedSizeEi
|| __TEXT.__text __ZNK3awd7metrics46LocationMicroLocationEventClusteringStatistics24SerializeWithCachedSizesEPN20wireless_diagnostics6google8protobuf2io17CodedOutputStreamE
|| __TEXT.__text __ZNK3awd7metrics46LocationMicroLocationEventClusteringStatistics3NewEv
|| __TEXT.__text __ZNK3awd7metrics46LocationMicroLocationEventClusteringStatistics8ByteSizeEv
|| __TEXT.__text __ZNK3awd7metrics47LocationGPSSessionStatistics_MotionActivityData11GetTypeNameEv
|| __TEXT.__text __ZNK3awd7metrics47LocationGPSSessionStatistics_MotionActivityData13IsInitializedEv
|| __TEXT.__text __ZNK3awd7metrics47LocationGPSSessionStatistics_MotionActivityData13SetCachedSizeEi
|| __TEXT.__text __ZNK3awd7metrics47LocationGPSSessionStatistics_MotionActivityData24SerializeWithCachedSizesEPN20wireless_diagnostics6google8protobuf2io17CodedOutputStreamE
|| __TEXT.__text __ZNK3awd7metrics47LocationGPSSessionStatistics_MotionActivityData3NewEv
|| __TEXT.__text __ZNK3awd7metrics47LocationGPSSessionStatistics_MotionActivityData8ByteSizeEv
|| __TEXT.__text __ZNK3awd7metrics49LocationGPSSessionStatistics_PowerMeasurementData11GetTypeNameEv
|| __TEXT.__text __ZNK3awd7metrics49LocationGPSSessionStatistics_PowerMeasurementData13IsInitializedEv
|| __TEXT.__text __ZNK3awd7metrics49LocationGPSSessionStatistics_PowerMeasurementData13SetCachedSizeEi
|| __TEXT.__text __ZNK3awd7metrics49LocationGPSSessionStatistics_PowerMeasurementData24SerializeWithCachedSizesEPN20wireless_diagnostics6google8protobuf2io17CodedOutputStreamE
|| __TEXT.__text __ZNK3awd7metrics49LocationGPSSessionStatistics_PowerMeasurementData3NewEv
|| __TEXT.__text __ZNK3awd7metrics49LocationGPSSessionStatistics_PowerMeasurementData8ByteSizeEv
|| __TEXT.__text __ZNK3awd7metrics49LocationGPSSessionStatistics_UncertaintyRangeData11GetTypeNameEv
|| __TEXT.__text __ZNK3awd7metrics49LocationGPSSessionStatistics_UncertaintyRangeData13IsInitializedEv
|| __TEXT.__text __ZNK3awd7metrics49LocationGPSSessionStatistics_UncertaintyRangeData13SetCachedSizeEi
|| __TEXT.__text __ZNK3awd7metrics49LocationGPSSessionStatistics_UncertaintyRangeData24SerializeWithCachedSizesEPN20wireless_diagnostics6google8protobuf2io17CodedOutputStreamE
|| __TEXT.__text __ZNK3awd7metrics49LocationGPSSessionStatistics_UncertaintyRangeData3NewEv
|| __TEXT.__text __ZNK3awd7metrics49LocationGPSSessionStatistics_UncertaintyRangeData8ByteSizeEv
|| __TEXT.__text __ZNK3awd7metrics50LocationGPSSessionStatistics_DeviceOrientationData11GetTypeNameEv
|| __TEXT.__text __ZNK3awd7metrics50LocationGPSSessionStatistics_DeviceOrientationData13IsInitializedEv
|| __TEXT.__text __ZNK3awd7metrics50LocationGPSSessionStatistics_DeviceOrientationData13SetCachedSizeEi
|| __TEXT.__text __ZNK3awd7metrics50LocationGPSSessionStatistics_DeviceOrientationData24SerializeWithCachedSizesEPN20wireless_diagnostics6google8protobuf2io17CodedOutputStreamE
|| __TEXT.__text __ZNK3awd7metrics50LocationGPSSessionStatistics_DeviceOrientationData3NewEv
|| __TEXT.__text __ZNK3awd7metrics50LocationGPSSessionStatistics_DeviceOrientationData8ByteSizeEv
|| __TEXT.__text __ZNK3awd7metrics50LocationGPSSessionStatistics_SatelliteCNORangeData11GetTypeNameEv
|| __TEXT.__text __ZNK3awd7metrics50LocationGPSSessionStatistics_SatelliteCNORangeData13IsInitializedEv
|| __TEXT.__text __ZNK3awd7metrics50LocationGPSSessionStatistics_SatelliteCNORangeData13SetCachedSizeEi
|| __TEXT.__text __ZNK3awd7metrics50LocationGPSSessionStatistics_SatelliteCNORangeData24SerializeWithCachedSizesEPN20wireless_diagnostics6google8protobuf2io17CodedOutputStreamE
|| __TEXT.__text __ZNK3awd7metrics50LocationGPSSessionStatistics_SatelliteCNORangeData3NewEv
|| __TEXT.__text __ZNK3awd7metrics50LocationGPSSessionStatistics_SatelliteCNORangeData8ByteSizeEv
|| __TEXT.__text __ZNK3awd7metrics50LocationGPSSessionStatistics_SignalEnvironmentData11GetTypeNameEv
|| __TEXT.__text __ZNK3awd7metrics50LocationGPSSessionStatistics_SignalEnvironmentData13IsInitializedEv
|| __TEXT.__text __ZNK3awd7metrics50LocationGPSSessionStatistics_SignalEnvironmentData13SetCachedSizeEi
|| __TEXT.__text __ZNK3awd7metrics50LocationGPSSessionStatistics_SignalEnvironmentData24SerializeWithCachedSizesEPN20wireless_diagnostics6google8protobuf2io17CodedOutputStreamE
|| __TEXT.__text __ZNK3awd7metrics50LocationGPSSessionStatistics_SignalEnvironmentData3NewEv
|| __TEXT.__text __ZNK3awd7metrics50LocationGPSSessionStatistics_SignalEnvironmentData8ByteSizeEv
|| __TEXT.__text __ZNK3awd7metrics51LocationMobileAssetStatistics_CarrierSettingsStatus11GetTypeNameEv
|| __TEXT.__text __ZNK3awd7metrics51LocationMobileAssetStatistics_CarrierSettingsStatus13IsInitializedEv
|| __TEXT.__text __ZNK3awd7metrics51LocationMobileAssetStatistics_CarrierSettingsStatus13SetCachedSizeEi
|| __TEXT.__text __ZNK3awd7metrics51LocationMobileAssetStatistics_CarrierSettingsStatus24SerializeWithCachedSizesEPN20wireless_diagnostics6google8protobuf2io17CodedOutputStreamE
|| __TEXT.__text __ZNK3awd7metrics51LocationMobileAssetStatistics_CarrierSettingsStatus3NewEv
|| __TEXT.__text __ZNK3awd7metrics51LocationMobileAssetStatistics_CarrierSettingsStatus8ByteSizeEv
|| __TEXT.__text __ZNK3awd7metrics52LocationGPSSessionStatistics_SatelliteCountRangeData11GetTypeNameEv
|| __TEXT.__text __ZNK3awd7metrics52LocationGPSSessionStatistics_SatelliteCountRangeData13IsInitializedEv
|| __TEXT.__text __ZNK3awd7metrics52LocationGPSSessionStatistics_SatelliteCountRangeData13SetCachedSizeEi
|| __TEXT.__text __ZNK3awd7metrics52LocationGPSSessionStatistics_SatelliteCountRangeData24SerializeWithCachedSizesEPN20wireless_diagnostics6google8protobuf2io17CodedOutputStreamE
|| __TEXT.__text __ZNK3awd7metrics52LocationGPSSessionStatistics_SatelliteCountRangeData3NewEv
|| __TEXT.__text __ZNK3awd7metrics52LocationGPSSessionStatistics_SatelliteCountRangeData8ByteSizeEv
|| __TEXT.__text __ZNK3awd7metrics54LocationGnssSWRecoveryStatistics_LocationRecoveryPoint11GetTypeNameEv
|| __TEXT.__text __ZNK3awd7metrics54LocationGnssSWRecoveryStatistics_LocationRecoveryPoint13IsInitializedEv
|| __TEXT.__text __ZNK3awd7metrics54LocationGnssSWRecoveryStatistics_LocationRecoveryPoint13SetCachedSizeEi
|| __TEXT.__text __ZNK3awd7metrics54LocationGnssSWRecoveryStatistics_LocationRecoveryPoint24SerializeWithCachedSizesEPN20wireless_diagnostics6google8protobuf2io17CodedOutputStreamE
|| __TEXT.__text __ZNK3awd7metrics54LocationGnssSWRecoveryStatistics_LocationRecoveryPoint3NewEv
|| __TEXT.__text __ZNK3awd7metrics54LocationGnssSWRecoveryStatistics_LocationRecoveryPoint8ByteSizeEv
|| __TEXT.__text __ZNK3awd7metrics55LocationGnssSWRecoveryStatistics_LocationRecoveryStatus11GetTypeNameEv
|| __TEXT.__text __ZNK3awd7metrics55LocationGnssSWRecoveryStatistics_LocationRecoveryStatus13IsInitializedEv
|| __TEXT.__text __ZNK3awd7metrics55LocationGnssSWRecoveryStatistics_LocationRecoveryStatus13SetCachedSizeEi
|| __TEXT.__text __ZNK3awd7metrics55LocationGnssSWRecoveryStatistics_LocationRecoveryStatus24SerializeWithCachedSizesEPN20wireless_diagnostics6google8protobuf2io17CodedOutputStreamE
|| __TEXT.__text __ZNK3awd7metrics55LocationGnssSWRecoveryStatistics_LocationRecoveryStatus3NewEv
|| __TEXT.__text __ZNK3awd7metrics55LocationGnssSWRecoveryStatistics_LocationRecoveryStatus8ByteSizeEv
|| __TEXT.__text __ZNK3awd7metrics57LocationGnssSWRecoveryStatistics_LocationGnssRecoveryInfo11GetTypeNameEv
|| __TEXT.__text __ZNK3awd7metrics57LocationGnssSWRecoveryStatistics_LocationGnssRecoveryInfo13IsInitializedEv
|| __TEXT.__text __ZNK3awd7metrics57LocationGnssSWRecoveryStatistics_LocationGnssRecoveryInfo13SetCachedSizeEi
|| __TEXT.__text __ZNK3awd7metrics57LocationGnssSWRecoveryStatistics_LocationGnssRecoveryInfo24SerializeWithCachedSizesEPN20wireless_diagnostics6google8protobuf2io17CodedOutputStreamE
|| __TEXT.__text __ZNK3awd7metrics57LocationGnssSWRecoveryStatistics_LocationGnssRecoveryInfo3NewEv
|| __TEXT.__text __ZNK3awd7metrics57LocationGnssSWRecoveryStatistics_LocationGnssRecoveryInfo8ByteSizeEv
|| __TEXT.__text __ZNK3awd7metrics60LocationGPSSessionStatistics_LocationGpsPersistentStatistics11GetTypeNameEv
|| __TEXT.__text __ZNK3awd7metrics60LocationGPSSessionStatistics_LocationGpsPersistentStatistics13IsInitializedEv
|| __TEXT.__text __ZNK3awd7metrics60LocationGPSSessionStatistics_LocationGpsPersistentStatistics13SetCachedSizeEi
|| __TEXT.__text __ZNK3awd7metrics60LocationGPSSessionStatistics_LocationGpsPersistentStatistics24SerializeWithCachedSizesEPN20wireless_diagnostics6google8protobuf2io17CodedOutputStreamE
|| __TEXT.__text __ZNK3awd7metrics60LocationGPSSessionStatistics_LocationGpsPersistentStatistics3NewEv
|| __TEXT.__text __ZNK3awd7metrics60LocationGPSSessionStatistics_LocationGpsPersistentStatistics8ByteSizeEv
__ libSystem.B.dylib: __Unwind_Resume
__ libSystem.B.dylib: ___assert_rtn
__ libSystem.B.dylib: _memcpy
__ libSystem.B.dylib: _strlen
__ libSystem.B.dylib: dyld_stub_binder
__ libc++.1.dylib: __ZNKSt3__121__basic_string_commonILb1EE20__throw_length_errorEv
__ libc++.1.dylib: __ZNSt3__112basic_stringIcNS_11char_traitsIcEENS_9allocatorIcEEEaSERKS5_
__ libc++.1.dylib: __ZSt9terminatev
__ libc++.1.dylib: __ZTVN10__cxxabiv120__si_class_type_infoE
__ libc++.1.dylib: __ZdaPv
__ libc++.1.dylib: __ZdlPv
__ libc++.1.dylib: __Znam
__ libc++.1.dylib: __Znwm
__ libc++.1.dylib: ___cxa_begin_catch
__ libc++.1.dylib: ___dynamic_cast
__ libc++.1.dylib: ___gxx_personality_v0
__ libprotobuf-lite.dylib: __ZN20wireless_diagnostics6google8protobuf11MessageLiteD2Ev
__ libprotobuf-lite.dylib: __ZN20wireless_diagnostics6google8protobuf2io16CodedInputStream15ReadTagFallbackEv
__ libprotobuf-lite.dylib: __ZN20wireless_diagnostics6google8protobuf2io16CodedInputStream20ReadVarint32FallbackEPj
__ libprotobuf-lite.dylib: __ZN20wireless_diagnostics6google8protobuf2io16CodedInputStream20ReadVarint64FallbackEPy
__ libprotobuf-lite.dylib: __ZN20wireless_diagnostics6google8protobuf2io16CodedInputStream26ReadLittleEndian32FallbackEPj
__ libprotobuf-lite.dylib: __ZN20wireless_diagnostics6google8protobuf2io16CodedInputStream26ReadLittleEndian64FallbackEPy
__ libprotobuf-lite.dylib: __ZN20wireless_diagnostics6google8protobuf2io16CodedInputStream4SkipEi
__ libprotobuf-lite.dylib: __ZN20wireless_diagnostics6google8protobuf2io16CodedInputStream8PopLimitEi
__ libprotobuf-lite.dylib: __ZN20wireless_diagnostics6google8protobuf2io16CodedInputStream9PushLimitEi
__ libprotobuf-lite.dylib: __ZN20wireless_diagnostics6google8protobuf2io17CodedOutputStream12VarintSize64Ey
__ libprotobuf-lite.dylib: __ZN20wireless_diagnostics6google8protobuf2io17CodedOutputStream13WriteVarint32Ej
__ libprotobuf-lite.dylib: __ZN20wireless_diagnostics6google8protobuf2io17CodedOutputStream20VarintSize32FallbackEj
__ libprotobuf-lite.dylib: __ZN20wireless_diagnostics6google8protobuf8internal10LogMessageC1ENS1_8LogLevelEPKci
__ libprotobuf-lite.dylib: __ZN20wireless_diagnostics6google8protobuf8internal10LogMessageD1Ev
__ libprotobuf-lite.dylib: __ZN20wireless_diagnostics6google8protobuf8internal10LogMessagelsEPKc
__ libprotobuf-lite.dylib: __ZN20wireless_diagnostics6google8protobuf8internal10OnShutdownEPFvvE
__ libprotobuf-lite.dylib: __ZN20wireless_diagnostics6google8protobuf8internal11LogFinisheraSERNS2_10LogMessageE
__ libprotobuf-lite.dylib: __ZN20wireless_diagnostics6google8protobuf8internal12kEmptyStringE
__ libprotobuf-lite.dylib: __ZN20wireless_diagnostics6google8protobuf8internal13VerifyVersionEiiPKc
__ libprotobuf-lite.dylib: __ZN20wireless_diagnostics6google8protobuf8internal14WireFormatLite10ReadStringEPNS1_2io16CodedInputStreamEPNSt3__112basic_stringIcNS7_11char_traitsIcEENS7_9allocatorIcEEEE
__ libprotobuf-lite.dylib: __ZN20wireless_diagnostics6google8protobuf8internal14WireFormatLite10WriteBytesEiRKNSt3__112basic_stringIcNS4_11char_traitsIcEENS4_9allocatorIcEEEEPNS1_2io17CodedOutputStreamE
__ libprotobuf-lite.dylib: __ZN20wireless_diagnostics6google8protobuf8internal14WireFormatLite10WriteFloatEifPNS1_2io17CodedOutputStreamE
__ libprotobuf-lite.dylib: __ZN20wireless_diagnostics6google8protobuf8internal14WireFormatLite10WriteInt32EiiPNS1_2io17CodedOutputStreamE
__ libprotobuf-lite.dylib: __ZN20wireless_diagnostics6google8protobuf8internal14WireFormatLite10WriteInt64EixPNS1_2io17CodedOutputStreamE
__ libprotobuf-lite.dylib: __ZN20wireless_diagnostics6google8protobuf8internal14WireFormatLite11WriteDoubleEidPNS1_2io17CodedOutputStreamE
__ libprotobuf-lite.dylib: __ZN20wireless_diagnostics6google8protobuf8internal14WireFormatLite11WriteSInt32EiiPNS1_2io17CodedOutputStreamE
__ libprotobuf-lite.dylib: __ZN20wireless_diagnostics6google8protobuf8internal14WireFormatLite11WriteStringEiRKNSt3__112basic_stringIcNS4_11char_traitsIcEENS4_9allocatorIcEEEEPNS1_2io17CodedOutputStreamE
__ libprotobuf-lite.dylib: __ZN20wireless_diagnostics6google8protobuf8internal14WireFormatLite11WriteUInt32EijPNS1_2io17CodedOutputStreamE
__ libprotobuf-lite.dylib: __ZN20wireless_diagnostics6google8protobuf8internal14WireFormatLite11WriteUInt64EiyPNS1_2io17CodedOutputStreamE
__ libprotobuf-lite.dylib: __ZN20wireless_diagnostics6google8protobuf8internal14WireFormatLite12WriteMessageEiRKNS1_11MessageLiteEPNS1_2io17CodedOutputStreamE
__ libprotobuf-lite.dylib: __ZN20wireless_diagnostics6google8protobuf8internal14WireFormatLite22ReadPackedEnumNoInlineEPNS1_2io16CodedInputStreamEPFbiEPNS1_13RepeatedFieldIiEE
__ libprotobuf-lite.dylib: __ZN20wireless_diagnostics6google8protobuf8internal14WireFormatLite9ReadBytesEPNS1_2io16CodedInputStreamEPNSt3__112basic_stringIcNS7_11char_traitsIcEENS7_9allocatorIcEEEE
__ libprotobuf-lite.dylib: __ZN20wireless_diagnostics6google8protobuf8internal14WireFormatLite9SkipFieldEPNS1_2io16CodedInputStreamEj
__ libprotobuf-lite.dylib: __ZN20wireless_diagnostics6google8protobuf8internal14WireFormatLite9WriteBoolEibPNS1_2io17CodedOutputStreamE
__ libprotobuf-lite.dylib: __ZN20wireless_diagnostics6google8protobuf8internal14WireFormatLite9WriteEnumEiiPNS1_2io17CodedOutputStreamE
__ libprotobuf-lite.dylib: __ZN20wireless_diagnostics6google8protobuf8internal20RepeatedPtrFieldBase4SwapEPS3_
__ libprotobuf-lite.dylib: __ZN20wireless_diagnostics6google8protobuf8internal20RepeatedPtrFieldBase7ReserveEi
__ libprotobuf-lite.dylib: __ZN20wireless_diagnostics6google8protobuf8internal21StringTypeHandlerBase3NewEv
__ libprotobuf-lite.dylib: __ZN20wireless_diagnostics6google8protobuf8internal21StringTypeHandlerBase6DeleteEPNSt3__112basic_stringIcNS4_11char_traitsIcEENS4_9allocatorIcEEEE
__ libprotobuf-lite.dylib: __ZNK20wireless_diagnostics6google8protobuf11MessageLite25InitializationErrorStringEv
__ libprotobuf-lite.dylib: __ZNK20wireless_diagnostics6google8protobuf11MessageLite31SerializeWithCachedSizesToArrayEPh
__ libprotobuf-lite.dylib: __ZNK20wireless_diagnostics6google8protobuf2io16CodedInputStream15BytesUntilLimitEv
__ libprotobuf-lite.dylib: __ZTIN20wireless_diagnostics6google8protobuf11MessageLiteE
