|| __DATA.__common __ZN3awd7metrics12PLRHistogram17default_instance_E
|| __DATA.__common __ZN3awd7metrics12RTTHistogram17default_instance_E
|| __DATA.__common __ZN3awd7metrics17FaceTimeDTXStatus17default_instance_E
|| __DATA.__common __ZN3awd7metrics17VideoQualityStats17default_instance_E
|| __DATA.__common __ZN3awd7metrics18MaxJitterHistogram17default_instance_E
|| __DATA.__common __ZN3awd7metrics19FaceTimeVideoStatus17default_instance_E
|| __DATA.__common __ZN3awd7metrics19RTCSessionEndMetric17default_instance_E
|| __DATA.__common __ZN3awd7metrics21AvcSidecarVideoStream17default_instance_E
|| __DATA.__common __ZN3awd7metrics21FaceTimeBasebandStats17default_instance_E
|| __DATA.__common __ZN3awd7metrics21TargetTxRateHistogram17default_instance_E
|| __DATA.__common __ZN3awd7metrics23FaceTimeAudioTierReport17default_instance_E
|| __DATA.__common __ZN3awd7metrics23FaceTimeInterfaceStatus17default_instance_E
|| __DATA.__common __ZN3awd7metrics23FaceTimePeerToPeerEnded17default_instance_E
|| __DATA.__common __ZN3awd7metrics24AudioWindowLossHistogram17default_instance_E
|| __DATA.__common __ZN3awd7metrics25FaceTimeCallUpgradedEvent17default_instance_E
|| __DATA.__common __ZN3awd7metrics25FaceTimeModeRoleTransport17default_instance_E
|| __DATA.__common __ZN3awd7metrics25FaceTimePeerToPeerStarted17default_instance_E
|| __DATA.__common __ZN3awd7metrics26FaceTimeConnectivityTiming17default_instance_E
|| __DATA.__common __ZN3awd7metrics27FacetimeNetworkStatusReport17default_instance_E
|| __DATA.__common __ZN3awd7metrics28FaceTimeCallAggregatedReport17default_instance_E
|| __DATA.__common __ZN3awd7metrics32HomeKitIPCameraNetworkStatistics17default_instance_E
|| __DATA.__common __ZN3awd7metrics34RTCSessionEndMetric_InterfaceStats17default_instance_E
|| __DATA.__common __ZN3awd7metrics40FaceTimeAudioTierReport_AudioTierCounter17default_instance_E
|| __DATA.__common __ZN3awd7metrics41FaceTimeCallAggregatedReport_SegmentStats17default_instance_E
|| __DATA.__common __ZN3awd7metrics47static_descriptor_initializer_Facetime_2eproto_E
|| __DATA.__common __ZN3awd7metrics56static_descriptor_initializer_HomeKitNetworking_2eproto_E
|| __DATA.__common __ZN3awd7metrics7RTStats17default_instance_E
|| __DATA_CONST.__const __ZTIN3awd7metrics12PLRHistogramE
|| __DATA_CONST.__const __ZTIN3awd7metrics12RTTHistogramE
|| __DATA_CONST.__const __ZTIN3awd7metrics17FaceTimeDTXStatusE
|| __DATA_CONST.__const __ZTIN3awd7metrics17VideoQualityStatsE
|| __DATA_CONST.__const __ZTIN3awd7metrics18MaxJitterHistogramE
|| __DATA_CONST.__const __ZTIN3awd7metrics19FaceTimeVideoStatusE
|| __DATA_CONST.__const __ZTIN3awd7metrics19RTCSessionEndMetricE
|| __DATA_CONST.__const __ZTIN3awd7metrics21AvcSidecarVideoStreamE
|| __DATA_CONST.__const __ZTIN3awd7metrics21FaceTimeBasebandStatsE
|| __DATA_CONST.__const __ZTIN3awd7metrics21TargetTxRateHistogramE
|| __DATA_CONST.__const __ZTIN3awd7metrics23FaceTimeAudioTierReportE
|| __DATA_CONST.__const __ZTIN3awd7metrics23FaceTimeInterfaceStatusE
|| __DATA_CONST.__const __ZTIN3awd7metrics23FaceTimePeerToPeerEndedE
|| __DATA_CONST.__const __ZTIN3awd7metrics24AudioWindowLossHistogramE
|| __DATA_CONST.__const __ZTIN3awd7metrics25FaceTimeCallUpgradedEventE
|| __DATA_CONST.__const __ZTIN3awd7metrics25FaceTimeModeRoleTransportE
|| __DATA_CONST.__const __ZTIN3awd7metrics25FaceTimePeerToPeerStartedE
|| __DATA_CONST.__const __ZTIN3awd7metrics26FaceTimeConnectivityTimingE
|| __DATA_CONST.__const __ZTIN3awd7metrics27FacetimeNetworkStatusReportE
|| __DATA_CONST.__const __ZTIN3awd7metrics28FaceTimeCallAggregatedReportE
|| __DATA_CONST.__const __ZTIN3awd7metrics32HomeKitIPCameraNetworkStatisticsE
|| __DATA_CONST.__const __ZTIN3awd7metrics34RTCSessionEndMetric_InterfaceStatsE
|| __DATA_CONST.__const __ZTIN3awd7metrics40FaceTimeAudioTierReport_AudioTierCounterE
|| __DATA_CONST.__const __ZTIN3awd7metrics41FaceTimeCallAggregatedReport_SegmentStatsE
|| __DATA_CONST.__const __ZTIN3awd7metrics7RTStatsE
|| __DATA_CONST.__const __ZTVN3awd7metrics12PLRHistogramE
|| __DATA_CONST.__const __ZTVN3awd7metrics12RTTHistogramE
|| __DATA_CONST.__const __ZTVN3awd7metrics17FaceTimeDTXStatusE
|| __DATA_CONST.__const __ZTVN3awd7metrics17VideoQualityStatsE
|| __DATA_CONST.__const __ZTVN3awd7metrics18MaxJitterHistogramE
|| __DATA_CONST.__const __ZTVN3awd7metrics19FaceTimeVideoStatusE
|| __DATA_CONST.__const __ZTVN3awd7metrics19RTCSessionEndMetricE
|| __DATA_CONST.__const __ZTVN3awd7metrics21AvcSidecarVideoStreamE
|| __DATA_CONST.__const __ZTVN3awd7metrics21FaceTimeBasebandStatsE
|| __DATA_CONST.__const __ZTVN3awd7metrics21TargetTxRateHistogramE
|| __DATA_CONST.__const __ZTVN3awd7metrics23FaceTimeAudioTierReportE
|| __DATA_CONST.__const __ZTVN3awd7metrics23FaceTimeInterfaceStatusE
|| __DATA_CONST.__const __ZTVN3awd7metrics23FaceTimePeerToPeerEndedE
|| __DATA_CONST.__const __ZTVN3awd7metrics24AudioWindowLossHistogramE
|| __DATA_CONST.__const __ZTVN3awd7metrics25FaceTimeCallUpgradedEventE
|| __DATA_CONST.__const __ZTVN3awd7metrics25FaceTimeModeRoleTransportE
|| __DATA_CONST.__const __ZTVN3awd7metrics25FaceTimePeerToPeerStartedE
|| __DATA_CONST.__const __ZTVN3awd7metrics26FaceTimeConnectivityTimingE
|| __DATA_CONST.__const __ZTVN3awd7metrics27FacetimeNetworkStatusReportE
|| __DATA_CONST.__const __ZTVN3awd7metrics28FaceTimeCallAggregatedReportE
|| __DATA_CONST.__const __ZTVN3awd7metrics32HomeKitIPCameraNetworkStatisticsE
|| __DATA_CONST.__const __ZTVN3awd7metrics34RTCSessionEndMetric_InterfaceStatsE
|| __DATA_CONST.__const __ZTVN3awd7metrics40FaceTimeAudioTierReport_AudioTierCounterE
|| __DATA_CONST.__const __ZTVN3awd7metrics41FaceTimeCallAggregatedReport_SegmentStatsE
|| __DATA_CONST.__const __ZTVN3awd7metrics7RTStatsE
|| __TEXT.__const __ZN3awd7metrics12PLRHistogram17kNonceFieldNumberE
|| __TEXT.__const __ZN3awd7metrics12PLRHistogram21kTimestampFieldNumberE
|| __TEXT.__const __ZN3awd7metrics12PLRHistogram24kPLRHistogramFieldNumberE
|| __TEXT.__const __ZN3awd7metrics12RTTHistogram17kNonceFieldNumberE
|| __TEXT.__const __ZN3awd7metrics12RTTHistogram19kVersionFieldNumberE
|| __TEXT.__const __ZN3awd7metrics12RTTHistogram21kTimestampFieldNumberE
|| __TEXT.__const __ZN3awd7metrics12RTTHistogram24kRTTHistogramFieldNumberE
|| __TEXT.__const __ZN3awd7metrics17FaceTimeDTXStatus17kNonceFieldNumberE
|| __TEXT.__const __ZN3awd7metrics17FaceTimeDTXStatus21kTimestampFieldNumberE
|| __TEXT.__const __ZN3awd7metrics17FaceTimeDTXStatus22kBytesSavedFieldNumberE
|| __TEXT.__const __ZN3awd7metrics17FaceTimeDTXStatus35kSilenceCompressionRatioFieldNumberE
|| __TEXT.__const __ZN3awd7metrics17VideoQualityStats17kNonceFieldNumberE
|| __TEXT.__const __ZN3awd7metrics17VideoQualityStats21kTimestampFieldNumberE
|| __TEXT.__const __ZN3awd7metrics17VideoQualityStats33kLocalVideoDegradeTimeFieldNumberE
|| __TEXT.__const __ZN3awd7metrics17VideoQualityStats34kRemoteVideoDegradeTimeFieldNumberE
|| __TEXT.__const __ZN3awd7metrics18MaxJitterHistogram17kNonceFieldNumberE
|| __TEXT.__const __ZN3awd7metrics18MaxJitterHistogram21kTimestampFieldNumberE
|| __TEXT.__const __ZN3awd7metrics18MaxJitterHistogram30kMaxJitterHistogramFieldNumberE
|| __TEXT.__const __ZN3awd7metrics19FaceTimeVideoStatus17kNonceFieldNumberE
|| __TEXT.__const __ZN3awd7metrics19FaceTimeVideoStatus17kRxVRAFieldNumberE
|| __TEXT.__const __ZN3awd7metrics19FaceTimeVideoStatus21kTimestampFieldNumberE
|| __TEXT.__const __ZN3awd7metrics19FaceTimeVideoStatus23kRxFramerateFieldNumberE
|| __TEXT.__const __ZN3awd7metrics19FaceTimeVideoStatus23kTxFramerateFieldNumberE
|| __TEXT.__const __ZN3awd7metrics19FaceTimeVideoStatus25kRxVideoJitterFieldNumberE
|| __TEXT.__const __ZN3awd7metrics19FaceTimeVideoStatus27kTargetFramerateFieldNumberE
|| __TEXT.__const __ZN3awd7metrics19RTCSessionEndMetric17kNonceFieldNumberE
|| __TEXT.__const __ZN3awd7metrics19RTCSessionEndMetric19kVersionFieldNumberE
|| __TEXT.__const __ZN3awd7metrics19RTCSessionEndMetric21kCallStatsFieldNumberE
|| __TEXT.__const __ZN3awd7metrics19RTCSessionEndMetric21kTimestampFieldNumberE
|| __TEXT.__const __ZN3awd7metrics21AvcSidecarVideoStream20kDurationFieldNumberE
|| __TEXT.__const __ZN3awd7metrics21AvcSidecarVideoStream20kIsSenderFieldNumberE
|| __TEXT.__const __ZN3awd7metrics21AvcSidecarVideoStream20kPLRHistoFieldNumberE
|| __TEXT.__const __ZN3awd7metrics21AvcSidecarVideoStream21kCodecTypeFieldNumberE
|| __TEXT.__const __ZN3awd7metrics21AvcSidecarVideoStream21kNACKHistoFieldNumberE
|| __TEXT.__const __ZN3awd7metrics21AvcSidecarVideoStream21kSessionIDFieldNumberE
|| __TEXT.__const __ZN3awd7metrics21AvcSidecarVideoStream21kTimestampFieldNumberE
|| __TEXT.__const __ZN3awd7metrics21AvcSidecarVideoStream22kResolutionFieldNumberE
|| __TEXT.__const __ZN3awd7metrics21AvcSidecarVideoStream24kBitrateHistoFieldNumberE
|| __TEXT.__const __ZN3awd7metrics21AvcSidecarVideoStream25kAvgExpiryTimeFieldNumberE
|| __TEXT.__const __ZN3awd7metrics21AvcSidecarVideoStream25kMaxExpiryTimeFieldNumberE
|| __TEXT.__const __ZN3awd7metrics21AvcSidecarVideoStream26kConnectionTechFieldNumberE
|| __TEXT.__const __ZN3awd7metrics21AvcSidecarVideoStream27kNetworkRTTHistoFieldNumberE
|| __TEXT.__const __ZN3awd7metrics21AvcSidecarVideoStream30kTargetBitrateHistoFieldNumberE
|| __TEXT.__const __ZN3awd7metrics21AvcSidecarVideoStream33kVideoStallLengthHistoFieldNumberE
|| __TEXT.__const __ZN3awd7metrics21AvcSidecarVideoStream34kVideoEnqueuedFrameRateFieldNumberE
|| __TEXT.__const __ZN3awd7metrics21AvcSidecarVideoStream34kVideoExpectedFrameRateFieldNumberE
|| __TEXT.__const __ZN3awd7metrics21AvcSidecarVideoStream34kVideoReceivedFrameRateFieldNumberE
|| __TEXT.__const __ZN3awd7metrics21FaceTimeBasebandStats17kNonceFieldNumberE
|| __TEXT.__const __ZN3awd7metrics21FaceTimeBasebandStats21kTimestampFieldNumberE
|| __TEXT.__const __ZN3awd7metrics21FaceTimeBasebandStats22kAudioFlushFieldNumberE
|| __TEXT.__const __ZN3awd7metrics21FaceTimeBasebandStats22kVideoFlushFieldNumberE
|| __TEXT.__const __ZN3awd7metrics21FaceTimeBasebandStats26kAudioPauseTimeFieldNumberE
|| __TEXT.__const __ZN3awd7metrics21FaceTimeBasebandStats26kVideoPauseTimeFieldNumberE
|| __TEXT.__const __ZN3awd7metrics21FaceTimeBasebandStats32kQueueDelayHistorgramFieldNumberE
|| __TEXT.__const __ZN3awd7metrics21FaceTimeBasebandStats34kTargetBitrateHistogramFieldNumberE
|| __TEXT.__const __ZN3awd7metrics21FaceTimeBasebandStats35kAverageBitrateHistogramFieldNumberE
|| __TEXT.__const __ZN3awd7metrics21FaceTimeBasebandStats35kInstantBitrateHistogramFieldNumberE
|| __TEXT.__const __ZN3awd7metrics21TargetTxRateHistogram17kNonceFieldNumberE
|| __TEXT.__const __ZN3awd7metrics21TargetTxRateHistogram21kTimestampFieldNumberE
|| __TEXT.__const __ZN3awd7metrics21TargetTxRateHistogram33kTargetTxRateHistogramFieldNumberE
|| __TEXT.__const __ZN3awd7metrics23FaceTimeAudioTierReport17kNonceFieldNumberE
|| __TEXT.__const __ZN3awd7metrics23FaceTimeAudioTierReport19kVersionFieldNumberE
|| __TEXT.__const __ZN3awd7metrics23FaceTimeAudioTierReport21kTimestampFieldNumberE
|| __TEXT.__const __ZN3awd7metrics23FaceTimeAudioTierReport22kAudioTiersFieldNumberE
|| __TEXT.__const __ZN3awd7metrics23FaceTimeInterfaceStatus17kNonceFieldNumberE
|| __TEXT.__const __ZN3awd7metrics23FaceTimeInterfaceStatus21kTimestampFieldNumberE
|| __TEXT.__const __ZN3awd7metrics23FaceTimeInterfaceStatus23kTerminationFieldNumberE
|| __TEXT.__const __ZN3awd7metrics23FaceTimeInterfaceStatus25kCallIsRoamingFieldNumberE
|| __TEXT.__const __ZN3awd7metrics23FaceTimeInterfaceStatus25kLastInterfaceFieldNumberE
|| __TEXT.__const __ZN3awd7metrics23FaceTimeInterfaceStatus28kCurrentInterfaceFieldNumberE
|| __TEXT.__const __ZN3awd7metrics23FaceTimeInterfaceStatus29kInterfacePresenceFieldNumberE
|| __TEXT.__const __ZN3awd7metrics23FaceTimeInterfaceStatus29kPrimaryConnectionFieldNumberE
|| __TEXT.__const __ZN3awd7metrics23FaceTimeInterfaceStatus31kCellRXICECheckBytesFieldNumberE
|| __TEXT.__const __ZN3awd7metrics23FaceTimeInterfaceStatus31kCellTXICECheckBytesFieldNumberE
|| __TEXT.__const __ZN3awd7metrics23FaceTimeInterfaceStatus31kCurrentInterfaceOUIFieldNumberE
|| __TEXT.__const __ZN3awd7metrics23FaceTimeInterfaceStatus31kFailOverToCellCountFieldNumberE
|| __TEXT.__const __ZN3awd7metrics23FaceTimeInterfaceStatus31kHandOverToWifiCountFieldNumberE
|| __TEXT.__const __ZN3awd7metrics23FaceTimeInterfaceStatus31kSecondaryConnectionFieldNumberE
|| __TEXT.__const __ZN3awd7metrics23FaceTimeInterfaceStatus33kLastInterfaceDurationFieldNumberE
|| __TEXT.__const __ZN3awd7metrics23FaceTimeInterfaceStatus34kCellRXDuplicationBytesFieldNumberE
|| __TEXT.__const __ZN3awd7metrics23FaceTimeInterfaceStatus34kCellTXDuplicationBytesFieldNumberE
|| __TEXT.__const __ZN3awd7metrics23FaceTimeInterfaceStatus36kCallInDuplicationPercentFieldNumberE
|| __TEXT.__const __ZN3awd7metrics23FaceTimeInterfaceStatus36kCurrentInterfaceDurationFieldNumberE
|| __TEXT.__const __ZN3awd7metrics23FaceTimeInterfaceStatus40kHandOverWithDuplicationCountFieldNumberE
|| __TEXT.__const __ZN3awd7metrics23FaceTimeInterfaceStatus43kDuplicationWithoutHandoverCountFieldNumberE
|| __TEXT.__const __ZN3awd7metrics23FaceTimeInterfaceStatus43kHandOverWithoutDuplicationCountFieldNumberE
|| __TEXT.__const __ZN3awd7metrics23FaceTimePeerToPeerEnded17kNonceFieldNumberE
|| __TEXT.__const __ZN3awd7metrics23FaceTimePeerToPeerEnded21kTimestampFieldNumberE
|| __TEXT.__const __ZN3awd7metrics24AudioWindowLossHistogram17kNonceFieldNumberE
|| __TEXT.__const __ZN3awd7metrics24AudioWindowLossHistogram21kTimestampFieldNumberE
|| __TEXT.__const __ZN3awd7metrics24AudioWindowLossHistogram36kAudioWindowLossHistogramFieldNumberE
|| __TEXT.__const __ZN3awd7metrics25FaceTimeCallUpgradedEvent17kNonceFieldNumberE
|| __TEXT.__const __ZN3awd7metrics25FaceTimeCallUpgradedEvent19kVersionFieldNumberE
|| __TEXT.__const __ZN3awd7metrics25FaceTimeCallUpgradedEvent21kTimestampFieldNumberE
|| __TEXT.__const __ZN3awd7metrics25FaceTimeModeRoleTransport16kModeFieldNumberE
|| __TEXT.__const __ZN3awd7metrics25FaceTimeModeRoleTransport17kNonceFieldNumberE
|| __TEXT.__const __ZN3awd7metrics25FaceTimeModeRoleTransport21kTimestampFieldNumberE
|| __TEXT.__const __ZN3awd7metrics25FaceTimeModeRoleTransport22kDeviceRoleFieldNumberE
|| __TEXT.__const __ZN3awd7metrics25FaceTimeModeRoleTransport25kTransportTypeFieldNumberE
|| __TEXT.__const __ZN3awd7metrics25FaceTimePeerToPeerStarted17kNonceFieldNumberE
|| __TEXT.__const __ZN3awd7metrics25FaceTimePeerToPeerStarted21kTimestampFieldNumberE
|| __TEXT.__const __ZN3awd7metrics26FaceTimeConnectivityTiming17kNonceFieldNumberE
|| __TEXT.__const __ZN3awd7metrics26FaceTimeConnectivityTiming20kICECheckFieldNumberE
|| __TEXT.__const __ZN3awd7metrics26FaceTimeConnectivityTiming21kTimestampFieldNumberE
|| __TEXT.__const __ZN3awd7metrics26FaceTimeConnectivityTiming23kSIPCompleteFieldNumberE
|| __TEXT.__const __ZN3awd7metrics26FaceTimeConnectivityTiming24kAudioStartedFieldNumberE
|| __TEXT.__const __ZN3awd7metrics26FaceTimeConnectivityTiming24kSKECompletedFieldNumberE
|| __TEXT.__const __ZN3awd7metrics26FaceTimeConnectivityTiming24kVideoStartedFieldNumberE
|| __TEXT.__const __ZN3awd7metrics26FaceTimeConnectivityTiming25kICECheckRelayFieldNumberE
|| __TEXT.__const __ZN3awd7metrics26FaceTimeConnectivityTiming28kFirstRemoteFrameFieldNumberE
|| __TEXT.__const __ZN3awd7metrics26FaceTimeConnectivityTiming29kGetConnectionDataFieldNumberE
|| __TEXT.__const __ZN3awd7metrics26FaceTimeConnectivityTiming34kGetConnectionDataRelayFieldNumberE
|| __TEXT.__const __ZN3awd7metrics27FacetimeNetworkStatusReport17kNonceFieldNumberE
|| __TEXT.__const __ZN3awd7metrics27FacetimeNetworkStatusReport20kEndErrorFieldNumberE
|| __TEXT.__const __ZN3awd7metrics27FacetimeNetworkStatusReport21kEndReasonFieldNumberE
|| __TEXT.__const __ZN3awd7metrics27FacetimeNetworkStatusReport21kPingStateFieldNumberE
|| __TEXT.__const __ZN3awd7metrics27FacetimeNetworkStatusReport21kTimestampFieldNumberE
|| __TEXT.__const __ZN3awd7metrics27FacetimeNetworkStatusReport23kCallTokenIdFieldNumberE
|| __TEXT.__const __ZN3awd7metrics27FacetimeNetworkStatusReport24kNetworkStateFieldNumberE
|| __TEXT.__const __ZN3awd7metrics28FaceTimeCallAggregatedReport16kIRUTFieldNumberE
|| __TEXT.__const __ZN3awd7metrics28FaceTimeCallAggregatedReport16kISBDFieldNumberE
|| __TEXT.__const __ZN3awd7metrics28FaceTimeCallAggregatedReport16kRSWPFieldNumberE
|| __TEXT.__const __ZN3awd7metrics28FaceTimeCallAggregatedReport17kNonceFieldNumberE
|| __TEXT.__const __ZN3awd7metrics28FaceTimeCallAggregatedReport20kCallTypeFieldNumberE
|| __TEXT.__const __ZN3awd7metrics28FaceTimeCallAggregatedReport20kDurationFieldNumberE
|| __TEXT.__const __ZN3awd7metrics28FaceTimeCallAggregatedReport20kREDStateFieldNumberE
|| __TEXT.__const __ZN3awd7metrics28FaceTimeCallAggregatedReport20kSegmentsFieldNumberE
|| __TEXT.__const __ZN3awd7metrics28FaceTimeCallAggregatedReport21kMediaTypeFieldNumberE
|| __TEXT.__const __ZN3awd7metrics28FaceTimeCallAggregatedReport21kTimestampFieldNumberE
|| __TEXT.__const __ZN3awd7metrics28FaceTimeCallAggregatedReport25kTransportTypeFieldNumberE
|| __TEXT.__const __ZN3awd7metrics28FaceTimeCallAggregatedReport29kGeneratedFileSizeFieldNumberE
|| __TEXT.__const __ZN3awd7metrics28FaceTimeCallAggregatedReport30kFileGenerateResultFieldNumberE
|| __TEXT.__const __ZN3awd7metrics28FaceTimeCallAggregatedReport30kSwitchIntoDupCountFieldNumberE
|| __TEXT.__const __ZN3awd7metrics28FaceTimeCallAggregatedReport33kAdaptiveLearningStateFieldNumberE
|| __TEXT.__const __ZN3awd7metrics32HomeKitIPCameraNetworkStatistics17kNonceFieldNumberE
|| __TEXT.__const __ZN3awd7metrics32HomeKitIPCameraNetworkStatistics18kCallIDFieldNumberE
|| __TEXT.__const __ZN3awd7metrics32HomeKitIPCameraNetworkStatistics21kTimestampFieldNumberE
|| __TEXT.__const __ZN3awd7metrics32HomeKitIPCameraNetworkStatistics24kAvgFramerateFieldNumberE
|| __TEXT.__const __ZN3awd7metrics32HomeKitIPCameraNetworkStatistics24kMaxFramerateFieldNumberE
|| __TEXT.__const __ZN3awd7metrics32HomeKitIPCameraNetworkStatistics24kMinFramerateFieldNumberE
|| __TEXT.__const __ZN3awd7metrics32HomeKitIPCameraNetworkStatistics24kPLRHistogramFieldNumberE
|| __TEXT.__const __ZN3awd7metrics32HomeKitIPCameraNetworkStatistics24kRTTHistogramFieldNumberE
|| __TEXT.__const __ZN3awd7metrics32HomeKitIPCameraNetworkStatistics25kOWRDHistogramFieldNumberE
|| __TEXT.__const __ZN3awd7metrics32HomeKitIPCameraNetworkStatistics26kPLIEventsCountFieldNumberE
|| __TEXT.__const __ZN3awd7metrics32HomeKitIPCameraNetworkStatistics30kVideoStallDurationFieldNumberE
|| __TEXT.__const __ZN3awd7metrics32HomeKitIPCameraNetworkStatistics33kReceivedKeyFrameCountFieldNumberE
|| __TEXT.__const __ZN3awd7metrics32HomeKitIPCameraNetworkStatistics36kActualRxBitrateHistogramFieldNumberE
|| __TEXT.__const __ZN3awd7metrics32HomeKitIPCameraNetworkStatistics41kRecommendedRxBitrateHistogramFieldNumberE
|| __TEXT.__const __ZN3awd7metrics34RTCSessionEndMetric_InterfaceStats20kDurationFieldNumberE
|| __TEXT.__const __ZN3awd7metrics34RTCSessionEndMetric_InterfaceStats21kRelayTypeFieldNumberE
|| __TEXT.__const __ZN3awd7metrics34RTCSessionEndMetric_InterfaceStats24kCallDurationFieldNumberE
|| __TEXT.__const __ZN3awd7metrics34RTCSessionEndMetric_InterfaceStats24kPLRHistogramFieldNumberE
|| __TEXT.__const __ZN3awd7metrics34RTCSessionEndMetric_InterfaceStats24kRTTHistogramFieldNumberE
|| __TEXT.__const __ZN3awd7metrics34RTCSessionEndMetric_InterfaceStats24kWAvgLossRateFieldNumberE
|| __TEXT.__const __ZN3awd7metrics34RTCSessionEndMetric_InterfaceStats25kCallAvgRxRateFieldNumberE
|| __TEXT.__const __ZN3awd7metrics34RTCSessionEndMetric_InterfaceStats25kCallAvgTxRateFieldNumberE
|| __TEXT.__const __ZN3awd7metrics34RTCSessionEndMetric_InterfaceStats25kInterfaceNameFieldNumberE
|| __TEXT.__const __ZN3awd7metrics34RTCSessionEndMetric_InterfaceStats27kBasebandAvgRateFieldNumberE
|| __TEXT.__const __ZN3awd7metrics34RTCSessionEndMetric_InterfaceStats30kMaxJitterHistogramFieldNumberE
|| __TEXT.__const __ZN3awd7metrics34RTCSessionEndMetric_InterfaceStats31kRemoteInterfaceNameFieldNumberE
|| __TEXT.__const __ZN3awd7metrics34RTCSessionEndMetric_InterfaceStats32kWAvgInterArrivalTimeFieldNumberE
|| __TEXT.__const __ZN3awd7metrics34RTCSessionEndMetric_InterfaceStats32kWAvgJitterBufferSizeFieldNumberE
|| __TEXT.__const __ZN3awd7metrics34RTCSessionEndMetric_InterfaceStats33kTargetTxRateHistogramFieldNumberE
|| __TEXT.__const __ZN3awd7metrics34RTCSessionEndMetric_InterfaceStats34kCallAvgRxRateHistogramFieldNumberE
|| __TEXT.__const __ZN3awd7metrics34RTCSessionEndMetric_InterfaceStats34kCallAvgTxRateHistogramFieldNumberE
|| __TEXT.__const __ZN3awd7metrics34RTCSessionEndMetric_InterfaceStats36kAudioWindowLossHistogramFieldNumberE
|| __TEXT.__const __ZN3awd7metrics34RTCSessionEndMetric_InterfaceStats36kBasebandAvgRateHistogramFieldNumberE
|| __TEXT.__const __ZN3awd7metrics34RTCSessionEndMetric_InterfaceStats39kTargetJitterBufferHistogramFieldNumberE
|| __TEXT.__const __ZN3awd7metrics40FaceTimeAudioTierReport_AudioTierCounter16kModeFieldNumberE
|| __TEXT.__const __ZN3awd7metrics40FaceTimeAudioTierReport_AudioTierCounter16kTierFieldNumberE
|| __TEXT.__const __ZN3awd7metrics40FaceTimeAudioTierReport_AudioTierCounter17kCountFieldNumberE
|| __TEXT.__const __ZN3awd7metrics40FaceTimeAudioTierReport_AudioTierCounter20kBundlingFieldNumberE
|| __TEXT.__const __ZN3awd7metrics40FaceTimeAudioTierReport_AudioTierCounter21kInterfaceFieldNumberE
|| __TEXT.__const __ZN3awd7metrics40FaceTimeAudioTierReport_AudioTierCounter21kRelayTypeFieldNumberE
|| __TEXT.__const __ZN3awd7metrics40FaceTimeAudioTierReport_AudioTierCounter23kDuplicationFieldNumberE
|| __TEXT.__const __ZN3awd7metrics40FaceTimeAudioTierReport_AudioTierCounter24kCodecBitrateFieldNumberE
|| __TEXT.__const __ZN3awd7metrics40FaceTimeAudioTierReport_AudioTierCounter24kCodecPayloadFieldNumberE
|| __TEXT.__const __ZN3awd7metrics41FaceTimeCallAggregatedReport_SegmentStats23kREDMaxDelayFieldNumberE
|| __TEXT.__const __ZN3awd7metrics41FaceTimeCallAggregatedReport_SegmentStats23kSegmentNameFieldNumberE
|| __TEXT.__const __ZN3awd7metrics41FaceTimeCallAggregatedReport_SegmentStats24kBBRateTooLowFieldNumberE
|| __TEXT.__const __ZN3awd7metrics41FaceTimeCallAggregatedReport_SegmentStats24kPLRHistogramFieldNumberE
|| __TEXT.__const __ZN3awd7metrics41FaceTimeCallAggregatedReport_SegmentStats24kRBRHistogramFieldNumberE
|| __TEXT.__const __ZN3awd7metrics41FaceTimeCallAggregatedReport_SegmentStats24kRTTHistogramFieldNumberE
|| __TEXT.__const __ZN3awd7metrics41FaceTimeCallAggregatedReport_SegmentStats24kSBRHistogramFieldNumberE
|| __TEXT.__const __ZN3awd7metrics41FaceTimeCallAggregatedReport_SegmentStats24kTBRHistogramFieldNumberE
|| __TEXT.__const __ZN3awd7metrics41FaceTimeCallAggregatedReport_SegmentStats27kBBQueueTooLargeFieldNumberE
|| __TEXT.__const __ZN3awd7metrics41FaceTimeCallAggregatedReport_SegmentStats27kSegmentDurationFieldNumberE
|| __TEXT.__const __ZN3awd7metrics41FaceTimeCallAggregatedReport_SegmentStats27kSegmentREDStateFieldNumberE
|| __TEXT.__const __ZN3awd7metrics41FaceTimeCallAggregatedReport_SegmentStats28kJBQSizeHistogramFieldNumberE
|| __TEXT.__const __ZN3awd7metrics41FaceTimeCallAggregatedReport_SegmentStats28kLatencyHistogramFieldNumberE
|| __TEXT.__const __ZN3awd7metrics41FaceTimeCallAggregatedReport_SegmentStats28kREDReceivedCountFieldNumberE
|| __TEXT.__const __ZN3awd7metrics41FaceTimeCallAggregatedReport_SegmentStats29kJBTargetHistogramFieldNumberE
|| __TEXT.__const __ZN3awd7metrics41FaceTimeCallAggregatedReport_SegmentStats29kREDDiscardedCountFieldNumberE
|| __TEXT.__const __ZN3awd7metrics41FaceTimeCallAggregatedReport_SegmentStats30kFramerateHistogramFieldNumberE
|| __TEXT.__const __ZN3awd7metrics41FaceTimeCallAggregatedReport_SegmentStats30kREDNumPayloadsUsedFieldNumberE
|| __TEXT.__const __ZN3awd7metrics41FaceTimeCallAggregatedReport_SegmentStats32kAudioFlushPercentageFieldNumberE
|| __TEXT.__const __ZN3awd7metrics41FaceTimeCallAggregatedReport_SegmentStats32kVideoFlushPercentageFieldNumberE
|| __TEXT.__const __ZN3awd7metrics41FaceTimeCallAggregatedReport_SegmentStats32kVideoJitterHistogramFieldNumberE
|| __TEXT.__const __ZN3awd7metrics41FaceTimeCallAggregatedReport_SegmentStats33kMaxAudioStallIntervalFieldNumberE
|| __TEXT.__const __ZN3awd7metrics41FaceTimeCallAggregatedReport_SegmentStats33kMaxVideoStallIntervalFieldNumberE
|| __TEXT.__const __ZN3awd7metrics41FaceTimeCallAggregatedReport_SegmentStats34kAudioErasuresHistogramFieldNumberE
|| __TEXT.__const __ZN3awd7metrics41FaceTimeCallAggregatedReport_SegmentStats36kVideoResolutionHistogramFieldNumberE
|| __TEXT.__const __ZN3awd7metrics41FaceTimeCallAggregatedReport_SegmentStats38kMaxNoRemotePacketsIntervalFieldNumberE
|| __TEXT.__const __ZN3awd7metrics41FaceTimeCallAggregatedReport_SegmentStats38kREDErasureCompensationRateFieldNumberE
|| __TEXT.__const __ZN3awd7metrics41FaceTimeCallAggregatedReport_SegmentStats38kVideoQualityScoreHistogramFieldNumberE
|| __TEXT.__const __ZN3awd7metrics41FaceTimeCallAggregatedReport_SegmentStats40kMaxNoRemotePacketsPercentageFieldNumberE
|| __TEXT.__const __ZN3awd7metrics41FaceTimeCallAggregatedReport_SegmentStats40kSegmentAdaptiveLearningStateFieldNumberE
|| __TEXT.__const __ZN3awd7metrics41FaceTimeCallAggregatedReport_SegmentStats41kTotalAudioStallTimePercentageFieldNumberE
|| __TEXT.__const __ZN3awd7metrics41FaceTimeCallAggregatedReport_SegmentStats41kTotalVideoStallTimePercentageFieldNumberE
|| __TEXT.__const __ZN3awd7metrics41FaceTimeCallAggregatedReport_SegmentStats41kVideoEncodingBitrateHistogramFieldNumberE
|| __TEXT.__const __ZN3awd7metrics7RTStats17kNonceFieldNumberE
|| __TEXT.__const __ZN3awd7metrics7RTStats19kAvgRateFieldNumberE
|| __TEXT.__const __ZN3awd7metrics7RTStats19kRxWidthFieldNumberE
|| __TEXT.__const __ZN3awd7metrics7RTStats19kTxWidthFieldNumberE
|| __TEXT.__const __ZN3awd7metrics7RTStats20kRxHeightFieldNumberE
|| __TEXT.__const __ZN3awd7metrics7RTStats20kTxHeightFieldNumberE
|| __TEXT.__const __ZN3awd7metrics7RTStats21kTimestampFieldNumberE
|| __TEXT.__const __ZN3awd7metrics7RTStats22kPIPPercentFieldNumberE
|| __TEXT.__const __ZN3awd7metrics7RTStats23kPIPDurationFieldNumberE
|| __TEXT.__const __ZN3awd7metrics7RTStats24kWAvgLossRateFieldNumberE
|| __TEXT.__const __ZN3awd7metrics7RTStats25kInterfaceNameFieldNumberE
|| __TEXT.__const __ZN3awd7metrics7RTStats26kRxFrameRateAvgFieldNumberE
|| __TEXT.__const __ZN3awd7metrics7RTStats26kRxFrameRateMaxFieldNumberE
|| __TEXT.__const __ZN3awd7metrics7RTStats26kRxFrameRateMinFieldNumberE
|| __TEXT.__const __ZN3awd7metrics7RTStats26kTxFrameRateAvgFieldNumberE
|| __TEXT.__const __ZN3awd7metrics7RTStats26kTxFrameRateMaxFieldNumberE
|| __TEXT.__const __ZN3awd7metrics7RTStats26kTxFrameRateMinFieldNumberE
|| __TEXT.__const __ZN3awd7metrics7RTStats29kUplinkEstimateAvgFieldNumberE
|| __TEXT.__const __ZN3awd7metrics7RTStats31kDownlinkEstimateAvgFieldNumberE
|| __TEXT.__const __ZN3awd7metrics7RTStats31kRemoteInterfaceNameFieldNumberE
|| __TEXT.__const __ZN3awd7metrics7RTStats32kWAvgInterArrivalTimeFieldNumberE
|| __TEXT.__const __ZN3awd7metrics7RTStats32kWAvgJitterBufferSizeFieldNumberE
|| __TEXT.__const __ZN3awd7metrics7RTStats34kTargetJitterBufferSizeFieldNumberE
|| __TEXT.__const __ZTSN3awd7metrics12PLRHistogramE
|| __TEXT.__const __ZTSN3awd7metrics12RTTHistogramE
|| __TEXT.__const __ZTSN3awd7metrics17FaceTimeDTXStatusE
|| __TEXT.__const __ZTSN3awd7metrics17VideoQualityStatsE
|| __TEXT.__const __ZTSN3awd7metrics18MaxJitterHistogramE
|| __TEXT.__const __ZTSN3awd7metrics19FaceTimeVideoStatusE
|| __TEXT.__const __ZTSN3awd7metrics19RTCSessionEndMetricE
|| __TEXT.__const __ZTSN3awd7metrics21AvcSidecarVideoStreamE
|| __TEXT.__const __ZTSN3awd7metrics21FaceTimeBasebandStatsE
|| __TEXT.__const __ZTSN3awd7metrics21TargetTxRateHistogramE
|| __TEXT.__const __ZTSN3awd7metrics23FaceTimeAudioTierReportE
|| __TEXT.__const __ZTSN3awd7metrics23FaceTimeInterfaceStatusE
|| __TEXT.__const __ZTSN3awd7metrics23FaceTimePeerToPeerEndedE
|| __TEXT.__const __ZTSN3awd7metrics24AudioWindowLossHistogramE
|| __TEXT.__const __ZTSN3awd7metrics25FaceTimeCallUpgradedEventE
|| __TEXT.__const __ZTSN3awd7metrics25FaceTimeModeRoleTransportE
|| __TEXT.__const __ZTSN3awd7metrics25FaceTimePeerToPeerStartedE
|| __TEXT.__const __ZTSN3awd7metrics26FaceTimeConnectivityTimingE
|| __TEXT.__const __ZTSN3awd7metrics27FacetimeNetworkStatusReportE
|| __TEXT.__const __ZTSN3awd7metrics28FaceTimeCallAggregatedReportE
|| __TEXT.__const __ZTSN3awd7metrics32HomeKitIPCameraNetworkStatisticsE
|| __TEXT.__const __ZTSN3awd7metrics34RTCSessionEndMetric_InterfaceStatsE
|| __TEXT.__const __ZTSN3awd7metrics40FaceTimeAudioTierReport_AudioTierCounterE
|| __TEXT.__const __ZTSN3awd7metrics41FaceTimeCallAggregatedReport_SegmentStatsE
|| __TEXT.__const __ZTSN3awd7metrics7RTStatsE
|| __TEXT.__text __ZN3awd7metrics12PLRHistogram10SharedCtorEv
|| __TEXT.__text __ZN3awd7metrics12PLRHistogram10SharedDtorEv
|| __TEXT.__text __ZN3awd7metrics12PLRHistogram16default_instanceEv
|| __TEXT.__text __ZN3awd7metrics12PLRHistogram21CheckTypeAndMergeFromERKN20wireless_diagnostics6google8protobuf11MessageLiteE
|| __TEXT.__text __ZN3awd7metrics12PLRHistogram21InitAsDefaultInstanceEv
|| __TEXT.__text __ZN3awd7metrics12PLRHistogram27MergePartialFromCodedStreamEPN20wireless_diagnostics6google8protobuf2io16CodedInputStreamE
|| __TEXT.__text __ZN3awd7metrics12PLRHistogram4SwapEPS1_
|| __TEXT.__text __ZN3awd7metrics12PLRHistogram5ClearEv
|| __TEXT.__text __ZN3awd7metrics12PLRHistogram8CopyFromERKS1_
|| __TEXT.__text __ZN3awd7metrics12PLRHistogram9MergeFromERKS1_
|| __TEXT.__text __ZN3awd7metrics12PLRHistogramC1ERKS1_
|| __TEXT.__text __ZN3awd7metrics12PLRHistogramC1Ev
|| __TEXT.__text __ZN3awd7metrics12PLRHistogramC2ERKS1_
|| __TEXT.__text __ZN3awd7metrics12PLRHistogramC2Ev
|| __TEXT.__text __ZN3awd7metrics12PLRHistogramD0Ev
|| __TEXT.__text __ZN3awd7metrics12PLRHistogramD1Ev
|| __TEXT.__text __ZN3awd7metrics12PLRHistogramD2Ev
|| __TEXT.__text __ZN3awd7metrics12RTTHistogram10SharedCtorEv
|| __TEXT.__text __ZN3awd7metrics12RTTHistogram10SharedDtorEv
|| __TEXT.__text __ZN3awd7metrics12RTTHistogram16default_instanceEv
|| __TEXT.__text __ZN3awd7metrics12RTTHistogram21CheckTypeAndMergeFromERKN20wireless_diagnostics6google8protobuf11MessageLiteE
|| __TEXT.__text __ZN3awd7metrics12RTTHistogram21InitAsDefaultInstanceEv
|| __TEXT.__text __ZN3awd7metrics12RTTHistogram27MergePartialFromCodedStreamEPN20wireless_diagnostics6google8protobuf2io16CodedInputStreamE
|| __TEXT.__text __ZN3awd7metrics12RTTHistogram4SwapEPS1_
|| __TEXT.__text __ZN3awd7metrics12RTTHistogram5ClearEv
|| __TEXT.__text __ZN3awd7metrics12RTTHistogram8CopyFromERKS1_
|| __TEXT.__text __ZN3awd7metrics12RTTHistogram9MergeFromERKS1_
|| __TEXT.__text __ZN3awd7metrics12RTTHistogramC1ERKS1_
|| __TEXT.__text __ZN3awd7metrics12RTTHistogramC1Ev
|| __TEXT.__text __ZN3awd7metrics12RTTHistogramC2ERKS1_
|| __TEXT.__text __ZN3awd7metrics12RTTHistogramC2Ev
|| __TEXT.__text __ZN3awd7metrics12RTTHistogramD0Ev
|| __TEXT.__text __ZN3awd7metrics12RTTHistogramD1Ev
|| __TEXT.__text __ZN3awd7metrics12RTTHistogramD2Ev
|| __TEXT.__text __ZN3awd7metrics17FaceTimeDTXStatus10SharedCtorEv
|| __TEXT.__text __ZN3awd7metrics17FaceTimeDTXStatus10SharedDtorEv
|| __TEXT.__text __ZN3awd7metrics17FaceTimeDTXStatus16default_instanceEv
|| __TEXT.__text __ZN3awd7metrics17FaceTimeDTXStatus21CheckTypeAndMergeFromERKN20wireless_diagnostics6google8protobuf11MessageLiteE
|| __TEXT.__text __ZN3awd7metrics17FaceTimeDTXStatus21InitAsDefaultInstanceEv
|| __TEXT.__text __ZN3awd7metrics17FaceTimeDTXStatus27MergePartialFromCodedStreamEPN20wireless_diagnostics6google8protobuf2io16CodedInputStreamE
|| __TEXT.__text __ZN3awd7metrics17FaceTimeDTXStatus4SwapEPS1_
|| __TEXT.__text __ZN3awd7metrics17FaceTimeDTXStatus5ClearEv
|| __TEXT.__text __ZN3awd7metrics17FaceTimeDTXStatus8CopyFromERKS1_
|| __TEXT.__text __ZN3awd7metrics17FaceTimeDTXStatus9MergeFromERKS1_
|| __TEXT.__text __ZN3awd7metrics17FaceTimeDTXStatusC1ERKS1_
|| __TEXT.__text __ZN3awd7metrics17FaceTimeDTXStatusC1Ev
|| __TEXT.__text __ZN3awd7metrics17FaceTimeDTXStatusC2ERKS1_
|| __TEXT.__text __ZN3awd7metrics17FaceTimeDTXStatusC2Ev
|| __TEXT.__text __ZN3awd7metrics17FaceTimeDTXStatusD0Ev
|| __TEXT.__text __ZN3awd7metrics17FaceTimeDTXStatusD1Ev
|| __TEXT.__text __ZN3awd7metrics17FaceTimeDTXStatusD2Ev
|| __TEXT.__text __ZN3awd7metrics17VideoQualityStats10SharedCtorEv
|| __TEXT.__text __ZN3awd7metrics17VideoQualityStats10SharedDtorEv
|| __TEXT.__text __ZN3awd7metrics17VideoQualityStats16default_instanceEv
|| __TEXT.__text __ZN3awd7metrics17VideoQualityStats21CheckTypeAndMergeFromERKN20wireless_diagnostics6google8protobuf11MessageLiteE
|| __TEXT.__text __ZN3awd7metrics17VideoQualityStats21InitAsDefaultInstanceEv
|| __TEXT.__text __ZN3awd7metrics17VideoQualityStats27MergePartialFromCodedStreamEPN20wireless_diagnostics6google8protobuf2io16CodedInputStreamE
|| __TEXT.__text __ZN3awd7metrics17VideoQualityStats4SwapEPS1_
|| __TEXT.__text __ZN3awd7metrics17VideoQualityStats5ClearEv
|| __TEXT.__text __ZN3awd7metrics17VideoQualityStats8CopyFromERKS1_
|| __TEXT.__text __ZN3awd7metrics17VideoQualityStats9MergeFromERKS1_
|| __TEXT.__text __ZN3awd7metrics17VideoQualityStatsC1ERKS1_
|| __TEXT.__text __ZN3awd7metrics17VideoQualityStatsC1Ev
|| __TEXT.__text __ZN3awd7metrics17VideoQualityStatsC2ERKS1_
|| __TEXT.__text __ZN3awd7metrics17VideoQualityStatsC2Ev
|| __TEXT.__text __ZN3awd7metrics17VideoQualityStatsD0Ev
|| __TEXT.__text __ZN3awd7metrics17VideoQualityStatsD1Ev
|| __TEXT.__text __ZN3awd7metrics17VideoQualityStatsD2Ev
|| __TEXT.__text __ZN3awd7metrics18MaxJitterHistogram10SharedCtorEv
|| __TEXT.__text __ZN3awd7metrics18MaxJitterHistogram10SharedDtorEv
|| __TEXT.__text __ZN3awd7metrics18MaxJitterHistogram16default_instanceEv
|| __TEXT.__text __ZN3awd7metrics18MaxJitterHistogram21CheckTypeAndMergeFromERKN20wireless_diagnostics6google8protobuf11MessageLiteE
|| __TEXT.__text __ZN3awd7metrics18MaxJitterHistogram21InitAsDefaultInstanceEv
|| __TEXT.__text __ZN3awd7metrics18MaxJitterHistogram27MergePartialFromCodedStreamEPN20wireless_diagnostics6google8protobuf2io16CodedInputStreamE
|| __TEXT.__text __ZN3awd7metrics18MaxJitterHistogram4SwapEPS1_
|| __TEXT.__text __ZN3awd7metrics18MaxJitterHistogram5ClearEv
|| __TEXT.__text __ZN3awd7metrics18MaxJitterHistogram8CopyFromERKS1_
|| __TEXT.__text __ZN3awd7metrics18MaxJitterHistogram9MergeFromERKS1_
|| __TEXT.__text __ZN3awd7metrics18MaxJitterHistogramC1ERKS1_
|| __TEXT.__text __ZN3awd7metrics18MaxJitterHistogramC1Ev
|| __TEXT.__text __ZN3awd7metrics18MaxJitterHistogramC2ERKS1_
|| __TEXT.__text __ZN3awd7metrics18MaxJitterHistogramC2Ev
|| __TEXT.__text __ZN3awd7metrics18MaxJitterHistogramD0Ev
|| __TEXT.__text __ZN3awd7metrics18MaxJitterHistogramD1Ev
|| __TEXT.__text __ZN3awd7metrics18MaxJitterHistogramD2Ev
|| __TEXT.__text __ZN3awd7metrics19FaceTimeVideoStatus10SharedCtorEv
|| __TEXT.__text __ZN3awd7metrics19FaceTimeVideoStatus10SharedDtorEv
|| __TEXT.__text __ZN3awd7metrics19FaceTimeVideoStatus16default_instanceEv
|| __TEXT.__text __ZN3awd7metrics19FaceTimeVideoStatus21CheckTypeAndMergeFromERKN20wireless_diagnostics6google8protobuf11MessageLiteE
|| __TEXT.__text __ZN3awd7metrics19FaceTimeVideoStatus21InitAsDefaultInstanceEv
|| __TEXT.__text __ZN3awd7metrics19FaceTimeVideoStatus27MergePartialFromCodedStreamEPN20wireless_diagnostics6google8protobuf2io16CodedInputStreamE
|| __TEXT.__text __ZN3awd7metrics19FaceTimeVideoStatus4SwapEPS1_
|| __TEXT.__text __ZN3awd7metrics19FaceTimeVideoStatus5ClearEv
|| __TEXT.__text __ZN3awd7metrics19FaceTimeVideoStatus8CopyFromERKS1_
|| __TEXT.__text __ZN3awd7metrics19FaceTimeVideoStatus9MergeFromERKS1_
|| __TEXT.__text __ZN3awd7metrics19FaceTimeVideoStatusC1ERKS1_
|| __TEXT.__text __ZN3awd7metrics19FaceTimeVideoStatusC1Ev
|| __TEXT.__text __ZN3awd7metrics19FaceTimeVideoStatusC2ERKS1_
|| __TEXT.__text __ZN3awd7metrics19FaceTimeVideoStatusC2Ev
|| __TEXT.__text __ZN3awd7metrics19FaceTimeVideoStatusD0Ev
|| __TEXT.__text __ZN3awd7metrics19FaceTimeVideoStatusD1Ev
|| __TEXT.__text __ZN3awd7metrics19FaceTimeVideoStatusD2Ev
|| __TEXT.__text __ZN3awd7metrics19RTCSessionEndMetric10SharedCtorEv
|| __TEXT.__text __ZN3awd7metrics19RTCSessionEndMetric10SharedDtorEv
|| __TEXT.__text __ZN3awd7metrics19RTCSessionEndMetric16default_instanceEv
|| __TEXT.__text __ZN3awd7metrics19RTCSessionEndMetric21CheckTypeAndMergeFromERKN20wireless_diagnostics6google8protobuf11MessageLiteE
|| __TEXT.__text __ZN3awd7metrics19RTCSessionEndMetric21InitAsDefaultInstanceEv
|| __TEXT.__text __ZN3awd7metrics19RTCSessionEndMetric27MergePartialFromCodedStreamEPN20wireless_diagnostics6google8protobuf2io16CodedInputStreamE
|| __TEXT.__text __ZN3awd7metrics19RTCSessionEndMetric4SwapEPS1_
|| __TEXT.__text __ZN3awd7metrics19RTCSessionEndMetric5ClearEv
|| __TEXT.__text __ZN3awd7metrics19RTCSessionEndMetric8CopyFromERKS1_
|| __TEXT.__text __ZN3awd7metrics19RTCSessionEndMetric9MergeFromERKS1_
|| __TEXT.__text __ZN3awd7metrics19RTCSessionEndMetricC1ERKS1_
|| __TEXT.__text __ZN3awd7metrics19RTCSessionEndMetricC1Ev
|| __TEXT.__text __ZN3awd7metrics19RTCSessionEndMetricC2ERKS1_
|| __TEXT.__text __ZN3awd7metrics19RTCSessionEndMetricC2Ev
|| __TEXT.__text __ZN3awd7metrics19RTCSessionEndMetricD0Ev
|| __TEXT.__text __ZN3awd7metrics19RTCSessionEndMetricD1Ev
|| __TEXT.__text __ZN3awd7metrics19RTCSessionEndMetricD2Ev
|| __TEXT.__text __ZN3awd7metrics21AvcSidecarVideoStream10SharedCtorEv
|| __TEXT.__text __ZN3awd7metrics21AvcSidecarVideoStream10SharedDtorEv
|| __TEXT.__text __ZN3awd7metrics21AvcSidecarVideoStream16default_instanceEv
|| __TEXT.__text __ZN3awd7metrics21AvcSidecarVideoStream21CheckTypeAndMergeFromERKN20wireless_diagnostics6google8protobuf11MessageLiteE
|| __TEXT.__text __ZN3awd7metrics21AvcSidecarVideoStream21InitAsDefaultInstanceEv
|| __TEXT.__text __ZN3awd7metrics21AvcSidecarVideoStream27MergePartialFromCodedStreamEPN20wireless_diagnostics6google8protobuf2io16CodedInputStreamE
|| __TEXT.__text __ZN3awd7metrics21AvcSidecarVideoStream4SwapEPS1_
|| __TEXT.__text __ZN3awd7metrics21AvcSidecarVideoStream5ClearEv
|| __TEXT.__text __ZN3awd7metrics21AvcSidecarVideoStream8CopyFromERKS1_
|| __TEXT.__text __ZN3awd7metrics21AvcSidecarVideoStream9MergeFromERKS1_
|| __TEXT.__text __ZN3awd7metrics21AvcSidecarVideoStreamC1ERKS1_
|| __TEXT.__text __ZN3awd7metrics21AvcSidecarVideoStreamC1Ev
|| __TEXT.__text __ZN3awd7metrics21AvcSidecarVideoStreamC2ERKS1_
|| __TEXT.__text __ZN3awd7metrics21AvcSidecarVideoStreamC2Ev
|| __TEXT.__text __ZN3awd7metrics21AvcSidecarVideoStreamD0Ev
|| __TEXT.__text __ZN3awd7metrics21AvcSidecarVideoStreamD1Ev
|| __TEXT.__text __ZN3awd7metrics21AvcSidecarVideoStreamD2Ev
|| __TEXT.__text __ZN3awd7metrics21FaceTimeBasebandStats10SharedCtorEv
|| __TEXT.__text __ZN3awd7metrics21FaceTimeBasebandStats10SharedDtorEv
|| __TEXT.__text __ZN3awd7metrics21FaceTimeBasebandStats16default_instanceEv
|| __TEXT.__text __ZN3awd7metrics21FaceTimeBasebandStats21CheckTypeAndMergeFromERKN20wireless_diagnostics6google8protobuf11MessageLiteE
|| __TEXT.__text __ZN3awd7metrics21FaceTimeBasebandStats21InitAsDefaultInstanceEv
|| __TEXT.__text __ZN3awd7metrics21FaceTimeBasebandStats27MergePartialFromCodedStreamEPN20wireless_diagnostics6google8protobuf2io16CodedInputStreamE
|| __TEXT.__text __ZN3awd7metrics21FaceTimeBasebandStats4SwapEPS1_
|| __TEXT.__text __ZN3awd7metrics21FaceTimeBasebandStats5ClearEv
|| __TEXT.__text __ZN3awd7metrics21FaceTimeBasebandStats8CopyFromERKS1_
|| __TEXT.__text __ZN3awd7metrics21FaceTimeBasebandStats9MergeFromERKS1_
|| __TEXT.__text __ZN3awd7metrics21FaceTimeBasebandStatsC1ERKS1_
|| __TEXT.__text __ZN3awd7metrics21FaceTimeBasebandStatsC1Ev
|| __TEXT.__text __ZN3awd7metrics21FaceTimeBasebandStatsC2ERKS1_
|| __TEXT.__text __ZN3awd7metrics21FaceTimeBasebandStatsC2Ev
|| __TEXT.__text __ZN3awd7metrics21FaceTimeBasebandStatsD0Ev
|| __TEXT.__text __ZN3awd7metrics21FaceTimeBasebandStatsD1Ev
|| __TEXT.__text __ZN3awd7metrics21FaceTimeBasebandStatsD2Ev
|| __TEXT.__text __ZN3awd7metrics21TargetTxRateHistogram10SharedCtorEv
|| __TEXT.__text __ZN3awd7metrics21TargetTxRateHistogram10SharedDtorEv
|| __TEXT.__text __ZN3awd7metrics21TargetTxRateHistogram16default_instanceEv
|| __TEXT.__text __ZN3awd7metrics21TargetTxRateHistogram21CheckTypeAndMergeFromERKN20wireless_diagnostics6google8protobuf11MessageLiteE
|| __TEXT.__text __ZN3awd7metrics21TargetTxRateHistogram21InitAsDefaultInstanceEv
|| __TEXT.__text __ZN3awd7metrics21TargetTxRateHistogram27MergePartialFromCodedStreamEPN20wireless_diagnostics6google8protobuf2io16CodedInputStreamE
|| __TEXT.__text __ZN3awd7metrics21TargetTxRateHistogram4SwapEPS1_
|| __TEXT.__text __ZN3awd7metrics21TargetTxRateHistogram5ClearEv
|| __TEXT.__text __ZN3awd7metrics21TargetTxRateHistogram8CopyFromERKS1_
|| __TEXT.__text __ZN3awd7metrics21TargetTxRateHistogram9MergeFromERKS1_
|| __TEXT.__text __ZN3awd7metrics21TargetTxRateHistogramC1ERKS1_
|| __TEXT.__text __ZN3awd7metrics21TargetTxRateHistogramC1Ev
|| __TEXT.__text __ZN3awd7metrics21TargetTxRateHistogramC2ERKS1_
|| __TEXT.__text __ZN3awd7metrics21TargetTxRateHistogramC2Ev
|| __TEXT.__text __ZN3awd7metrics21TargetTxRateHistogramD0Ev
|| __TEXT.__text __ZN3awd7metrics21TargetTxRateHistogramD1Ev
|| __TEXT.__text __ZN3awd7metrics21TargetTxRateHistogramD2Ev
|| __TEXT.__text __ZN3awd7metrics23FaceTimeAudioTierReport10SharedCtorEv
|| __TEXT.__text __ZN3awd7metrics23FaceTimeAudioTierReport10SharedDtorEv
|| __TEXT.__text __ZN3awd7metrics23FaceTimeAudioTierReport16default_instanceEv
|| __TEXT.__text __ZN3awd7metrics23FaceTimeAudioTierReport21CheckTypeAndMergeFromERKN20wireless_diagnostics6google8protobuf11MessageLiteE
|| __TEXT.__text __ZN3awd7metrics23FaceTimeAudioTierReport21InitAsDefaultInstanceEv
|| __TEXT.__text __ZN3awd7metrics23FaceTimeAudioTierReport27MergePartialFromCodedStreamEPN20wireless_diagnostics6google8protobuf2io16CodedInputStreamE
|| __TEXT.__text __ZN3awd7metrics23FaceTimeAudioTierReport4SwapEPS1_
|| __TEXT.__text __ZN3awd7metrics23FaceTimeAudioTierReport5ClearEv
|| __TEXT.__text __ZN3awd7metrics23FaceTimeAudioTierReport8CopyFromERKS1_
|| __TEXT.__text __ZN3awd7metrics23FaceTimeAudioTierReport9MergeFromERKS1_
|| __TEXT.__text __ZN3awd7metrics23FaceTimeAudioTierReportC1ERKS1_
|| __TEXT.__text __ZN3awd7metrics23FaceTimeAudioTierReportC1Ev
|| __TEXT.__text __ZN3awd7metrics23FaceTimeAudioTierReportC2ERKS1_
|| __TEXT.__text __ZN3awd7metrics23FaceTimeAudioTierReportC2Ev
|| __TEXT.__text __ZN3awd7metrics23FaceTimeAudioTierReportD0Ev
|| __TEXT.__text __ZN3awd7metrics23FaceTimeAudioTierReportD1Ev
|| __TEXT.__text __ZN3awd7metrics23FaceTimeAudioTierReportD2Ev
|| __TEXT.__text __ZN3awd7metrics23FaceTimeInterfaceStatus10SharedCtorEv
|| __TEXT.__text __ZN3awd7metrics23FaceTimeInterfaceStatus10SharedDtorEv
|| __TEXT.__text __ZN3awd7metrics23FaceTimeInterfaceStatus16default_instanceEv
|| __TEXT.__text __ZN3awd7metrics23FaceTimeInterfaceStatus21CheckTypeAndMergeFromERKN20wireless_diagnostics6google8protobuf11MessageLiteE
|| __TEXT.__text __ZN3awd7metrics23FaceTimeInterfaceStatus21InitAsDefaultInstanceEv
|| __TEXT.__text __ZN3awd7metrics23FaceTimeInterfaceStatus27MergePartialFromCodedStreamEPN20wireless_diagnostics6google8protobuf2io16CodedInputStreamE
|| __TEXT.__text __ZN3awd7metrics23FaceTimeInterfaceStatus4SwapEPS1_
|| __TEXT.__text __ZN3awd7metrics23FaceTimeInterfaceStatus5ClearEv
|| __TEXT.__text __ZN3awd7metrics23FaceTimeInterfaceStatus8CopyFromERKS1_
|| __TEXT.__text __ZN3awd7metrics23FaceTimeInterfaceStatus9MergeFromERKS1_
|| __TEXT.__text __ZN3awd7metrics23FaceTimeInterfaceStatusC1ERKS1_
|| __TEXT.__text __ZN3awd7metrics23FaceTimeInterfaceStatusC1Ev
|| __TEXT.__text __ZN3awd7metrics23FaceTimeInterfaceStatusC2ERKS1_
|| __TEXT.__text __ZN3awd7metrics23FaceTimeInterfaceStatusC2Ev
|| __TEXT.__text __ZN3awd7metrics23FaceTimeInterfaceStatusD0Ev
|| __TEXT.__text __ZN3awd7metrics23FaceTimeInterfaceStatusD1Ev
|| __TEXT.__text __ZN3awd7metrics23FaceTimeInterfaceStatusD2Ev
|| __TEXT.__text __ZN3awd7metrics23FaceTimePeerToPeerEnded10SharedCtorEv
|| __TEXT.__text __ZN3awd7metrics23FaceTimePeerToPeerEnded10SharedDtorEv
|| __TEXT.__text __ZN3awd7metrics23FaceTimePeerToPeerEnded16default_instanceEv
|| __TEXT.__text __ZN3awd7metrics23FaceTimePeerToPeerEnded21CheckTypeAndMergeFromERKN20wireless_diagnostics6google8protobuf11MessageLiteE
|| __TEXT.__text __ZN3awd7metrics23FaceTimePeerToPeerEnded21InitAsDefaultInstanceEv
|| __TEXT.__text __ZN3awd7metrics23FaceTimePeerToPeerEnded27MergePartialFromCodedStreamEPN20wireless_diagnostics6google8protobuf2io16CodedInputStreamE
|| __TEXT.__text __ZN3awd7metrics23FaceTimePeerToPeerEnded4SwapEPS1_
|| __TEXT.__text __ZN3awd7metrics23FaceTimePeerToPeerEnded5ClearEv
|| __TEXT.__text __ZN3awd7metrics23FaceTimePeerToPeerEnded8CopyFromERKS1_
|| __TEXT.__text __ZN3awd7metrics23FaceTimePeerToPeerEnded9MergeFromERKS1_
|| __TEXT.__text __ZN3awd7metrics23FaceTimePeerToPeerEndedC1ERKS1_
|| __TEXT.__text __ZN3awd7metrics23FaceTimePeerToPeerEndedC1Ev
|| __TEXT.__text __ZN3awd7metrics23FaceTimePeerToPeerEndedC2ERKS1_
|| __TEXT.__text __ZN3awd7metrics23FaceTimePeerToPeerEndedC2Ev
|| __TEXT.__text __ZN3awd7metrics23FaceTimePeerToPeerEndedD0Ev
|| __TEXT.__text __ZN3awd7metrics23FaceTimePeerToPeerEndedD1Ev
|| __TEXT.__text __ZN3awd7metrics23FaceTimePeerToPeerEndedD2Ev
|| __TEXT.__text __ZN3awd7metrics24AudioWindowLossHistogram10SharedCtorEv
|| __TEXT.__text __ZN3awd7metrics24AudioWindowLossHistogram10SharedDtorEv
|| __TEXT.__text __ZN3awd7metrics24AudioWindowLossHistogram16default_instanceEv
|| __TEXT.__text __ZN3awd7metrics24AudioWindowLossHistogram21CheckTypeAndMergeFromERKN20wireless_diagnostics6google8protobuf11MessageLiteE
|| __TEXT.__text __ZN3awd7metrics24AudioWindowLossHistogram21InitAsDefaultInstanceEv
|| __TEXT.__text __ZN3awd7metrics24AudioWindowLossHistogram27MergePartialFromCodedStreamEPN20wireless_diagnostics6google8protobuf2io16CodedInputStreamE
|| __TEXT.__text __ZN3awd7metrics24AudioWindowLossHistogram4SwapEPS1_
|| __TEXT.__text __ZN3awd7metrics24AudioWindowLossHistogram5ClearEv
|| __TEXT.__text __ZN3awd7metrics24AudioWindowLossHistogram8CopyFromERKS1_
|| __TEXT.__text __ZN3awd7metrics24AudioWindowLossHistogram9MergeFromERKS1_
|| __TEXT.__text __ZN3awd7metrics24AudioWindowLossHistogramC1ERKS1_
|| __TEXT.__text __ZN3awd7metrics24AudioWindowLossHistogramC1Ev
|| __TEXT.__text __ZN3awd7metrics24AudioWindowLossHistogramC2ERKS1_
|| __TEXT.__text __ZN3awd7metrics24AudioWindowLossHistogramC2Ev
|| __TEXT.__text __ZN3awd7metrics24AudioWindowLossHistogramD0Ev
|| __TEXT.__text __ZN3awd7metrics24AudioWindowLossHistogramD1Ev
|| __TEXT.__text __ZN3awd7metrics24AudioWindowLossHistogramD2Ev
|| __TEXT.__text __ZN3awd7metrics25FaceTimeCallUpgradedEvent10SharedCtorEv
|| __TEXT.__text __ZN3awd7metrics25FaceTimeCallUpgradedEvent10SharedDtorEv
|| __TEXT.__text __ZN3awd7metrics25FaceTimeCallUpgradedEvent16default_instanceEv
|| __TEXT.__text __ZN3awd7metrics25FaceTimeCallUpgradedEvent21CheckTypeAndMergeFromERKN20wireless_diagnostics6google8protobuf11MessageLiteE
|| __TEXT.__text __ZN3awd7metrics25FaceTimeCallUpgradedEvent21InitAsDefaultInstanceEv
|| __TEXT.__text __ZN3awd7metrics25FaceTimeCallUpgradedEvent27MergePartialFromCodedStreamEPN20wireless_diagnostics6google8protobuf2io16CodedInputStreamE
|| __TEXT.__text __ZN3awd7metrics25FaceTimeCallUpgradedEvent4SwapEPS1_
|| __TEXT.__text __ZN3awd7metrics25FaceTimeCallUpgradedEvent5ClearEv
|| __TEXT.__text __ZN3awd7metrics25FaceTimeCallUpgradedEvent8CopyFromERKS1_
|| __TEXT.__text __ZN3awd7metrics25FaceTimeCallUpgradedEvent9MergeFromERKS1_
|| __TEXT.__text __ZN3awd7metrics25FaceTimeCallUpgradedEventC1ERKS1_
|| __TEXT.__text __ZN3awd7metrics25FaceTimeCallUpgradedEventC1Ev
|| __TEXT.__text __ZN3awd7metrics25FaceTimeCallUpgradedEventC2ERKS1_
|| __TEXT.__text __ZN3awd7metrics25FaceTimeCallUpgradedEventC2Ev
|| __TEXT.__text __ZN3awd7metrics25FaceTimeCallUpgradedEventD0Ev
|| __TEXT.__text __ZN3awd7metrics25FaceTimeCallUpgradedEventD1Ev
|| __TEXT.__text __ZN3awd7metrics25FaceTimeCallUpgradedEventD2Ev
|| __TEXT.__text __ZN3awd7metrics25FaceTimeModeRoleTransport10SharedCtorEv
|| __TEXT.__text __ZN3awd7metrics25FaceTimeModeRoleTransport10SharedDtorEv
|| __TEXT.__text __ZN3awd7metrics25FaceTimeModeRoleTransport16default_instanceEv
|| __TEXT.__text __ZN3awd7metrics25FaceTimeModeRoleTransport21CheckTypeAndMergeFromERKN20wireless_diagnostics6google8protobuf11MessageLiteE
|| __TEXT.__text __ZN3awd7metrics25FaceTimeModeRoleTransport21InitAsDefaultInstanceEv
|| __TEXT.__text __ZN3awd7metrics25FaceTimeModeRoleTransport27MergePartialFromCodedStreamEPN20wireless_diagnostics6google8protobuf2io16CodedInputStreamE
|| __TEXT.__text __ZN3awd7metrics25FaceTimeModeRoleTransport4SwapEPS1_
|| __TEXT.__text __ZN3awd7metrics25FaceTimeModeRoleTransport5ClearEv
|| __TEXT.__text __ZN3awd7metrics25FaceTimeModeRoleTransport8CopyFromERKS1_
|| __TEXT.__text __ZN3awd7metrics25FaceTimeModeRoleTransport9MergeFromERKS1_
|| __TEXT.__text __ZN3awd7metrics25FaceTimeModeRoleTransportC1ERKS1_
|| __TEXT.__text __ZN3awd7metrics25FaceTimeModeRoleTransportC1Ev
|| __TEXT.__text __ZN3awd7metrics25FaceTimeModeRoleTransportC2ERKS1_
|| __TEXT.__text __ZN3awd7metrics25FaceTimeModeRoleTransportC2Ev
|| __TEXT.__text __ZN3awd7metrics25FaceTimeModeRoleTransportD0Ev
|| __TEXT.__text __ZN3awd7metrics25FaceTimeModeRoleTransportD1Ev
|| __TEXT.__text __ZN3awd7metrics25FaceTimeModeRoleTransportD2Ev
|| __TEXT.__text __ZN3awd7metrics25FaceTimePeerToPeerStarted10SharedCtorEv
|| __TEXT.__text __ZN3awd7metrics25FaceTimePeerToPeerStarted10SharedDtorEv
|| __TEXT.__text __ZN3awd7metrics25FaceTimePeerToPeerStarted16default_instanceEv
|| __TEXT.__text __ZN3awd7metrics25FaceTimePeerToPeerStarted21CheckTypeAndMergeFromERKN20wireless_diagnostics6google8protobuf11MessageLiteE
|| __TEXT.__text __ZN3awd7metrics25FaceTimePeerToPeerStarted21InitAsDefaultInstanceEv
|| __TEXT.__text __ZN3awd7metrics25FaceTimePeerToPeerStarted27MergePartialFromCodedStreamEPN20wireless_diagnostics6google8protobuf2io16CodedInputStreamE
|| __TEXT.__text __ZN3awd7metrics25FaceTimePeerToPeerStarted4SwapEPS1_
|| __TEXT.__text __ZN3awd7metrics25FaceTimePeerToPeerStarted5ClearEv
|| __TEXT.__text __ZN3awd7metrics25FaceTimePeerToPeerStarted8CopyFromERKS1_
|| __TEXT.__text __ZN3awd7metrics25FaceTimePeerToPeerStarted9MergeFromERKS1_
|| __TEXT.__text __ZN3awd7metrics25FaceTimePeerToPeerStartedC1ERKS1_
|| __TEXT.__text __ZN3awd7metrics25FaceTimePeerToPeerStartedC1Ev
|| __TEXT.__text __ZN3awd7metrics25FaceTimePeerToPeerStartedC2ERKS1_
|| __TEXT.__text __ZN3awd7metrics25FaceTimePeerToPeerStartedC2Ev
|| __TEXT.__text __ZN3awd7metrics25FaceTimePeerToPeerStartedD0Ev
|| __TEXT.__text __ZN3awd7metrics25FaceTimePeerToPeerStartedD1Ev
|| __TEXT.__text __ZN3awd7metrics25FaceTimePeerToPeerStartedD2Ev
|| __TEXT.__text __ZN3awd7metrics26FaceTimeConnectivityTiming10SharedCtorEv
|| __TEXT.__text __ZN3awd7metrics26FaceTimeConnectivityTiming10SharedDtorEv
|| __TEXT.__text __ZN3awd7metrics26FaceTimeConnectivityTiming16default_instanceEv
|| __TEXT.__text __ZN3awd7metrics26FaceTimeConnectivityTiming21CheckTypeAndMergeFromERKN20wireless_diagnostics6google8protobuf11MessageLiteE
|| __TEXT.__text __ZN3awd7metrics26FaceTimeConnectivityTiming21InitAsDefaultInstanceEv
|| __TEXT.__text __ZN3awd7metrics26FaceTimeConnectivityTiming27MergePartialFromCodedStreamEPN20wireless_diagnostics6google8protobuf2io16CodedInputStreamE
|| __TEXT.__text __ZN3awd7metrics26FaceTimeConnectivityTiming4SwapEPS1_
|| __TEXT.__text __ZN3awd7metrics26FaceTimeConnectivityTiming5ClearEv
|| __TEXT.__text __ZN3awd7metrics26FaceTimeConnectivityTiming8CopyFromERKS1_
|| __TEXT.__text __ZN3awd7metrics26FaceTimeConnectivityTiming9MergeFromERKS1_
|| __TEXT.__text __ZN3awd7metrics26FaceTimeConnectivityTimingC1ERKS1_
|| __TEXT.__text __ZN3awd7metrics26FaceTimeConnectivityTimingC1Ev
|| __TEXT.__text __ZN3awd7metrics26FaceTimeConnectivityTimingC2ERKS1_
|| __TEXT.__text __ZN3awd7metrics26FaceTimeConnectivityTimingC2Ev
|| __TEXT.__text __ZN3awd7metrics26FaceTimeConnectivityTimingD0Ev
|| __TEXT.__text __ZN3awd7metrics26FaceTimeConnectivityTimingD1Ev
|| __TEXT.__text __ZN3awd7metrics26FaceTimeConnectivityTimingD2Ev
|| __TEXT.__text __ZN3awd7metrics27FacetimeNetworkStatusReport10SharedCtorEv
|| __TEXT.__text __ZN3awd7metrics27FacetimeNetworkStatusReport10SharedDtorEv
|| __TEXT.__text __ZN3awd7metrics27FacetimeNetworkStatusReport16default_instanceEv
|| __TEXT.__text __ZN3awd7metrics27FacetimeNetworkStatusReport21CheckTypeAndMergeFromERKN20wireless_diagnostics6google8protobuf11MessageLiteE
|| __TEXT.__text __ZN3awd7metrics27FacetimeNetworkStatusReport21InitAsDefaultInstanceEv
|| __TEXT.__text __ZN3awd7metrics27FacetimeNetworkStatusReport27MergePartialFromCodedStreamEPN20wireless_diagnostics6google8protobuf2io16CodedInputStreamE
|| __TEXT.__text __ZN3awd7metrics27FacetimeNetworkStatusReport4SwapEPS1_
|| __TEXT.__text __ZN3awd7metrics27FacetimeNetworkStatusReport5ClearEv
|| __TEXT.__text __ZN3awd7metrics27FacetimeNetworkStatusReport8CopyFromERKS1_
|| __TEXT.__text __ZN3awd7metrics27FacetimeNetworkStatusReport9MergeFromERKS1_
|| __TEXT.__text __ZN3awd7metrics27FacetimeNetworkStatusReportC1ERKS1_
|| __TEXT.__text __ZN3awd7metrics27FacetimeNetworkStatusReportC1Ev
|| __TEXT.__text __ZN3awd7metrics27FacetimeNetworkStatusReportC2ERKS1_
|| __TEXT.__text __ZN3awd7metrics27FacetimeNetworkStatusReportC2Ev
|| __TEXT.__text __ZN3awd7metrics27FacetimeNetworkStatusReportD0Ev
|| __TEXT.__text __ZN3awd7metrics27FacetimeNetworkStatusReportD1Ev
|| __TEXT.__text __ZN3awd7metrics27FacetimeNetworkStatusReportD2Ev
|| __TEXT.__text __ZN3awd7metrics28FaceTimeCallAggregatedReport10SharedCtorEv
|| __TEXT.__text __ZN3awd7metrics28FaceTimeCallAggregatedReport10SharedDtorEv
|| __TEXT.__text __ZN3awd7metrics28FaceTimeCallAggregatedReport16default_instanceEv
|| __TEXT.__text __ZN3awd7metrics28FaceTimeCallAggregatedReport21CheckTypeAndMergeFromERKN20wireless_diagnostics6google8protobuf11MessageLiteE
|| __TEXT.__text __ZN3awd7metrics28FaceTimeCallAggregatedReport21InitAsDefaultInstanceEv
|| __TEXT.__text __ZN3awd7metrics28FaceTimeCallAggregatedReport27MergePartialFromCodedStreamEPN20wireless_diagnostics6google8protobuf2io16CodedInputStreamE
|| __TEXT.__text __ZN3awd7metrics28FaceTimeCallAggregatedReport4SwapEPS1_
|| __TEXT.__text __ZN3awd7metrics28FaceTimeCallAggregatedReport5ClearEv
|| __TEXT.__text __ZN3awd7metrics28FaceTimeCallAggregatedReport8CopyFromERKS1_
|| __TEXT.__text __ZN3awd7metrics28FaceTimeCallAggregatedReport9MergeFromERKS1_
|| __TEXT.__text __ZN3awd7metrics28FaceTimeCallAggregatedReportC1ERKS1_
|| __TEXT.__text __ZN3awd7metrics28FaceTimeCallAggregatedReportC1Ev
|| __TEXT.__text __ZN3awd7metrics28FaceTimeCallAggregatedReportC2ERKS1_
|| __TEXT.__text __ZN3awd7metrics28FaceTimeCallAggregatedReportC2Ev
|| __TEXT.__text __ZN3awd7metrics28FaceTimeCallAggregatedReportD0Ev
|| __TEXT.__text __ZN3awd7metrics28FaceTimeCallAggregatedReportD1Ev
|| __TEXT.__text __ZN3awd7metrics28FaceTimeCallAggregatedReportD2Ev
|| __TEXT.__text __ZN3awd7metrics32HomeKitIPCameraNetworkStatistics10SharedCtorEv
|| __TEXT.__text __ZN3awd7metrics32HomeKitIPCameraNetworkStatistics10SharedDtorEv
|| __TEXT.__text __ZN3awd7metrics32HomeKitIPCameraNetworkStatistics16default_instanceEv
|| __TEXT.__text __ZN3awd7metrics32HomeKitIPCameraNetworkStatistics21CheckTypeAndMergeFromERKN20wireless_diagnostics6google8protobuf11MessageLiteE
|| __TEXT.__text __ZN3awd7metrics32HomeKitIPCameraNetworkStatistics21InitAsDefaultInstanceEv
|| __TEXT.__text __ZN3awd7metrics32HomeKitIPCameraNetworkStatistics27MergePartialFromCodedStreamEPN20wireless_diagnostics6google8protobuf2io16CodedInputStreamE
|| __TEXT.__text __ZN3awd7metrics32HomeKitIPCameraNetworkStatistics4SwapEPS1_
|| __TEXT.__text __ZN3awd7metrics32HomeKitIPCameraNetworkStatistics5ClearEv
|| __TEXT.__text __ZN3awd7metrics32HomeKitIPCameraNetworkStatistics8CopyFromERKS1_
|| __TEXT.__text __ZN3awd7metrics32HomeKitIPCameraNetworkStatistics9MergeFromERKS1_
|| __TEXT.__text __ZN3awd7metrics32HomeKitIPCameraNetworkStatisticsC1ERKS1_
|| __TEXT.__text __ZN3awd7metrics32HomeKitIPCameraNetworkStatisticsC1Ev
|| __TEXT.__text __ZN3awd7metrics32HomeKitIPCameraNetworkStatisticsC2ERKS1_
|| __TEXT.__text __ZN3awd7metrics32HomeKitIPCameraNetworkStatisticsC2Ev
|| __TEXT.__text __ZN3awd7metrics32HomeKitIPCameraNetworkStatisticsD0Ev
|| __TEXT.__text __ZN3awd7metrics32HomeKitIPCameraNetworkStatisticsD1Ev
|| __TEXT.__text __ZN3awd7metrics32HomeKitIPCameraNetworkStatisticsD2Ev
|| __TEXT.__text __ZN3awd7metrics33protobuf_AddDesc_Facetime_2eprotoEv
|| __TEXT.__text __ZN3awd7metrics34RTCSessionEndMetric_InterfaceStats10SharedCtorEv
|| __TEXT.__text __ZN3awd7metrics34RTCSessionEndMetric_InterfaceStats10SharedDtorEv
|| __TEXT.__text __ZN3awd7metrics34RTCSessionEndMetric_InterfaceStats16default_instanceEv
|| __TEXT.__text __ZN3awd7metrics34RTCSessionEndMetric_InterfaceStats21CheckTypeAndMergeFromERKN20wireless_diagnostics6google8protobuf11MessageLiteE
|| __TEXT.__text __ZN3awd7metrics34RTCSessionEndMetric_InterfaceStats21InitAsDefaultInstanceEv
|| __TEXT.__text __ZN3awd7metrics34RTCSessionEndMetric_InterfaceStats27MergePartialFromCodedStreamEPN20wireless_diagnostics6google8protobuf2io16CodedInputStreamE
|| __TEXT.__text __ZN3awd7metrics34RTCSessionEndMetric_InterfaceStats4SwapEPS1_
|| __TEXT.__text __ZN3awd7metrics34RTCSessionEndMetric_InterfaceStats5ClearEv
|| __TEXT.__text __ZN3awd7metrics34RTCSessionEndMetric_InterfaceStats8CopyFromERKS1_
|| __TEXT.__text __ZN3awd7metrics34RTCSessionEndMetric_InterfaceStats9MergeFromERKS1_
|| __TEXT.__text __ZN3awd7metrics34RTCSessionEndMetric_InterfaceStatsC1ERKS1_
|| __TEXT.__text __ZN3awd7metrics34RTCSessionEndMetric_InterfaceStatsC1Ev
|| __TEXT.__text __ZN3awd7metrics34RTCSessionEndMetric_InterfaceStatsC2ERKS1_
|| __TEXT.__text __ZN3awd7metrics34RTCSessionEndMetric_InterfaceStatsC2Ev
|| __TEXT.__text __ZN3awd7metrics34RTCSessionEndMetric_InterfaceStatsD0Ev
|| __TEXT.__text __ZN3awd7metrics34RTCSessionEndMetric_InterfaceStatsD1Ev
|| __TEXT.__text __ZN3awd7metrics34RTCSessionEndMetric_InterfaceStatsD2Ev
|| __TEXT.__text __ZN3awd7metrics38protobuf_ShutdownFile_Facetime_2eprotoEv
|| __TEXT.__text __ZN3awd7metrics40FaceTimeAudioTierReport_AudioTierCounter10SharedCtorEv
|| __TEXT.__text __ZN3awd7metrics40FaceTimeAudioTierReport_AudioTierCounter10SharedDtorEv
|| __TEXT.__text __ZN3awd7metrics40FaceTimeAudioTierReport_AudioTierCounter16default_instanceEv
|| __TEXT.__text __ZN3awd7metrics40FaceTimeAudioTierReport_AudioTierCounter21CheckTypeAndMergeFromERKN20wireless_diagnostics6google8protobuf11MessageLiteE
|| __TEXT.__text __ZN3awd7metrics40FaceTimeAudioTierReport_AudioTierCounter21InitAsDefaultInstanceEv
|| __TEXT.__text __ZN3awd7metrics40FaceTimeAudioTierReport_AudioTierCounter27MergePartialFromCodedStreamEPN20wireless_diagnostics6google8protobuf2io16CodedInputStreamE
|| __TEXT.__text __ZN3awd7metrics40FaceTimeAudioTierReport_AudioTierCounter4SwapEPS1_
|| __TEXT.__text __ZN3awd7metrics40FaceTimeAudioTierReport_AudioTierCounter5ClearEv
|| __TEXT.__text __ZN3awd7metrics40FaceTimeAudioTierReport_AudioTierCounter8CopyFromERKS1_
|| __TEXT.__text __ZN3awd7metrics40FaceTimeAudioTierReport_AudioTierCounter9MergeFromERKS1_
|| __TEXT.__text __ZN3awd7metrics40FaceTimeAudioTierReport_AudioTierCounterC1ERKS1_
|| __TEXT.__text __ZN3awd7metrics40FaceTimeAudioTierReport_AudioTierCounterC1Ev
|| __TEXT.__text __ZN3awd7metrics40FaceTimeAudioTierReport_AudioTierCounterC2ERKS1_
|| __TEXT.__text __ZN3awd7metrics40FaceTimeAudioTierReport_AudioTierCounterC2Ev
|| __TEXT.__text __ZN3awd7metrics40FaceTimeAudioTierReport_AudioTierCounterD0Ev
|| __TEXT.__text __ZN3awd7metrics40FaceTimeAudioTierReport_AudioTierCounterD1Ev
|| __TEXT.__text __ZN3awd7metrics40FaceTimeAudioTierReport_AudioTierCounterD2Ev
|| __TEXT.__text __ZN3awd7metrics41FaceTimeCallAggregatedReport_SegmentStats10SharedCtorEv
|| __TEXT.__text __ZN3awd7metrics41FaceTimeCallAggregatedReport_SegmentStats10SharedDtorEv
|| __TEXT.__text __ZN3awd7metrics41FaceTimeCallAggregatedReport_SegmentStats16default_instanceEv
|| __TEXT.__text __ZN3awd7metrics41FaceTimeCallAggregatedReport_SegmentStats21CheckTypeAndMergeFromERKN20wireless_diagnostics6google8protobuf11MessageLiteE
|| __TEXT.__text __ZN3awd7metrics41FaceTimeCallAggregatedReport_SegmentStats21InitAsDefaultInstanceEv
|| __TEXT.__text __ZN3awd7metrics41FaceTimeCallAggregatedReport_SegmentStats27MergePartialFromCodedStreamEPN20wireless_diagnostics6google8protobuf2io16CodedInputStreamE
|| __TEXT.__text __ZN3awd7metrics41FaceTimeCallAggregatedReport_SegmentStats4SwapEPS1_
|| __TEXT.__text __ZN3awd7metrics41FaceTimeCallAggregatedReport_SegmentStats5ClearEv
|| __TEXT.__text __ZN3awd7metrics41FaceTimeCallAggregatedReport_SegmentStats8CopyFromERKS1_
|| __TEXT.__text __ZN3awd7metrics41FaceTimeCallAggregatedReport_SegmentStats9MergeFromERKS1_
|| __TEXT.__text __ZN3awd7metrics41FaceTimeCallAggregatedReport_SegmentStatsC1ERKS1_
|| __TEXT.__text __ZN3awd7metrics41FaceTimeCallAggregatedReport_SegmentStatsC1Ev
|| __TEXT.__text __ZN3awd7metrics41FaceTimeCallAggregatedReport_SegmentStatsC2ERKS1_
|| __TEXT.__text __ZN3awd7metrics41FaceTimeCallAggregatedReport_SegmentStatsC2Ev
|| __TEXT.__text __ZN3awd7metrics41FaceTimeCallAggregatedReport_SegmentStatsD0Ev
|| __TEXT.__text __ZN3awd7metrics41FaceTimeCallAggregatedReport_SegmentStatsD1Ev
|| __TEXT.__text __ZN3awd7metrics41FaceTimeCallAggregatedReport_SegmentStatsD2Ev
|| __TEXT.__text __ZN3awd7metrics42protobuf_AddDesc_HomeKitNetworking_2eprotoEv
|| __TEXT.__text __ZN3awd7metrics47protobuf_ShutdownFile_HomeKitNetworking_2eprotoEv
|| __TEXT.__text __ZN3awd7metrics7RTStats10SharedCtorEv
|| __TEXT.__text __ZN3awd7metrics7RTStats10SharedDtorEv
|| __TEXT.__text __ZN3awd7metrics7RTStats16default_instanceEv
|| __TEXT.__text __ZN3awd7metrics7RTStats21CheckTypeAndMergeFromERKN20wireless_diagnostics6google8protobuf11MessageLiteE
|| __TEXT.__text __ZN3awd7metrics7RTStats21InitAsDefaultInstanceEv
|| __TEXT.__text __ZN3awd7metrics7RTStats27MergePartialFromCodedStreamEPN20wireless_diagnostics6google8protobuf2io16CodedInputStreamE
|| __TEXT.__text __ZN3awd7metrics7RTStats4SwapEPS1_
|| __TEXT.__text __ZN3awd7metrics7RTStats5ClearEv
|| __TEXT.__text __ZN3awd7metrics7RTStats8CopyFromERKS1_
|| __TEXT.__text __ZN3awd7metrics7RTStats9MergeFromERKS1_
|| __TEXT.__text __ZN3awd7metrics7RTStatsC1ERKS1_
|| __TEXT.__text __ZN3awd7metrics7RTStatsC1Ev
|| __TEXT.__text __ZN3awd7metrics7RTStatsC2ERKS1_
|| __TEXT.__text __ZN3awd7metrics7RTStatsC2Ev
|| __TEXT.__text __ZN3awd7metrics7RTStatsD0Ev
|| __TEXT.__text __ZN3awd7metrics7RTStatsD1Ev
|| __TEXT.__text __ZN3awd7metrics7RTStatsD2Ev
|| __TEXT.__text __ZNK3awd7metrics12PLRHistogram11GetTypeNameEv
|| __TEXT.__text __ZNK3awd7metrics12PLRHistogram13IsInitializedEv
|| __TEXT.__text __ZNK3awd7metrics12PLRHistogram13SetCachedSizeEi
|| __TEXT.__text __ZNK3awd7metrics12PLRHistogram24SerializeWithCachedSizesEPN20wireless_diagnostics6google8protobuf2io17CodedOutputStreamE
|| __TEXT.__text __ZNK3awd7metrics12PLRHistogram3NewEv
|| __TEXT.__text __ZNK3awd7metrics12PLRHistogram8ByteSizeEv
|| __TEXT.__text __ZNK3awd7metrics12RTTHistogram11GetTypeNameEv
|| __TEXT.__text __ZNK3awd7metrics12RTTHistogram13IsInitializedEv
|| __TEXT.__text __ZNK3awd7metrics12RTTHistogram13SetCachedSizeEi
|| __TEXT.__text __ZNK3awd7metrics12RTTHistogram24SerializeWithCachedSizesEPN20wireless_diagnostics6google8protobuf2io17CodedOutputStreamE
|| __TEXT.__text __ZNK3awd7metrics12RTTHistogram3NewEv
|| __TEXT.__text __ZNK3awd7metrics12RTTHistogram8ByteSizeEv
|| __TEXT.__text __ZNK3awd7metrics17FaceTimeDTXStatus11GetTypeNameEv
|| __TEXT.__text __ZNK3awd7metrics17FaceTimeDTXStatus13IsInitializedEv
|| __TEXT.__text __ZNK3awd7metrics17FaceTimeDTXStatus13SetCachedSizeEi
|| __TEXT.__text __ZNK3awd7metrics17FaceTimeDTXStatus24SerializeWithCachedSizesEPN20wireless_diagnostics6google8protobuf2io17CodedOutputStreamE
|| __TEXT.__text __ZNK3awd7metrics17FaceTimeDTXStatus3NewEv
|| __TEXT.__text __ZNK3awd7metrics17FaceTimeDTXStatus8ByteSizeEv
|| __TEXT.__text __ZNK3awd7metrics17VideoQualityStats11GetTypeNameEv
|| __TEXT.__text __ZNK3awd7metrics17VideoQualityStats13IsInitializedEv
|| __TEXT.__text __ZNK3awd7metrics17VideoQualityStats13SetCachedSizeEi
|| __TEXT.__text __ZNK3awd7metrics17VideoQualityStats24SerializeWithCachedSizesEPN20wireless_diagnostics6google8protobuf2io17CodedOutputStreamE
|| __TEXT.__text __ZNK3awd7metrics17VideoQualityStats3NewEv
|| __TEXT.__text __ZNK3awd7metrics17VideoQualityStats8ByteSizeEv
|| __TEXT.__text __ZNK3awd7metrics18MaxJitterHistogram11GetTypeNameEv
|| __TEXT.__text __ZNK3awd7metrics18MaxJitterHistogram13IsInitializedEv
|| __TEXT.__text __ZNK3awd7metrics18MaxJitterHistogram13SetCachedSizeEi
|| __TEXT.__text __ZNK3awd7metrics18MaxJitterHistogram24SerializeWithCachedSizesEPN20wireless_diagnostics6google8protobuf2io17CodedOutputStreamE
|| __TEXT.__text __ZNK3awd7metrics18MaxJitterHistogram3NewEv
|| __TEXT.__text __ZNK3awd7metrics18MaxJitterHistogram8ByteSizeEv
|| __TEXT.__text __ZNK3awd7metrics19FaceTimeVideoStatus11GetTypeNameEv
|| __TEXT.__text __ZNK3awd7metrics19FaceTimeVideoStatus13IsInitializedEv
|| __TEXT.__text __ZNK3awd7metrics19FaceTimeVideoStatus13SetCachedSizeEi
|| __TEXT.__text __ZNK3awd7metrics19FaceTimeVideoStatus24SerializeWithCachedSizesEPN20wireless_diagnostics6google8protobuf2io17CodedOutputStreamE
|| __TEXT.__text __ZNK3awd7metrics19FaceTimeVideoStatus3NewEv
|| __TEXT.__text __ZNK3awd7metrics19FaceTimeVideoStatus8ByteSizeEv
|| __TEXT.__text __ZNK3awd7metrics19RTCSessionEndMetric11GetTypeNameEv
|| __TEXT.__text __ZNK3awd7metrics19RTCSessionEndMetric13IsInitializedEv
|| __TEXT.__text __ZNK3awd7metrics19RTCSessionEndMetric13SetCachedSizeEi
|| __TEXT.__text __ZNK3awd7metrics19RTCSessionEndMetric24SerializeWithCachedSizesEPN20wireless_diagnostics6google8protobuf2io17CodedOutputStreamE
|| __TEXT.__text __ZNK3awd7metrics19RTCSessionEndMetric3NewEv
|| __TEXT.__text __ZNK3awd7metrics19RTCSessionEndMetric8ByteSizeEv
|| __TEXT.__text __ZNK3awd7metrics21AvcSidecarVideoStream11GetTypeNameEv
|| __TEXT.__text __ZNK3awd7metrics21AvcSidecarVideoStream13IsInitializedEv
|| __TEXT.__text __ZNK3awd7metrics21AvcSidecarVideoStream13SetCachedSizeEi
|| __TEXT.__text __ZNK3awd7metrics21AvcSidecarVideoStream24SerializeWithCachedSizesEPN20wireless_diagnostics6google8protobuf2io17CodedOutputStreamE
|| __TEXT.__text __ZNK3awd7metrics21AvcSidecarVideoStream3NewEv
|| __TEXT.__text __ZNK3awd7metrics21AvcSidecarVideoStream8ByteSizeEv
|| __TEXT.__text __ZNK3awd7metrics21FaceTimeBasebandStats11GetTypeNameEv
|| __TEXT.__text __ZNK3awd7metrics21FaceTimeBasebandStats13IsInitializedEv
|| __TEXT.__text __ZNK3awd7metrics21FaceTimeBasebandStats13SetCachedSizeEi
|| __TEXT.__text __ZNK3awd7metrics21FaceTimeBasebandStats24SerializeWithCachedSizesEPN20wireless_diagnostics6google8protobuf2io17CodedOutputStreamE
|| __TEXT.__text __ZNK3awd7metrics21FaceTimeBasebandStats3NewEv
|| __TEXT.__text __ZNK3awd7metrics21FaceTimeBasebandStats8ByteSizeEv
|| __TEXT.__text __ZNK3awd7metrics21TargetTxRateHistogram11GetTypeNameEv
|| __TEXT.__text __ZNK3awd7metrics21TargetTxRateHistogram13IsInitializedEv
|| __TEXT.__text __ZNK3awd7metrics21TargetTxRateHistogram13SetCachedSizeEi
|| __TEXT.__text __ZNK3awd7metrics21TargetTxRateHistogram24SerializeWithCachedSizesEPN20wireless_diagnostics6google8protobuf2io17CodedOutputStreamE
|| __TEXT.__text __ZNK3awd7metrics21TargetTxRateHistogram3NewEv
|| __TEXT.__text __ZNK3awd7metrics21TargetTxRateHistogram8ByteSizeEv
|| __TEXT.__text __ZNK3awd7metrics23FaceTimeAudioTierReport11GetTypeNameEv
|| __TEXT.__text __ZNK3awd7metrics23FaceTimeAudioTierReport13IsInitializedEv
|| __TEXT.__text __ZNK3awd7metrics23FaceTimeAudioTierReport13SetCachedSizeEi
|| __TEXT.__text __ZNK3awd7metrics23FaceTimeAudioTierReport24SerializeWithCachedSizesEPN20wireless_diagnostics6google8protobuf2io17CodedOutputStreamE
|| __TEXT.__text __ZNK3awd7metrics23FaceTimeAudioTierReport3NewEv
|| __TEXT.__text __ZNK3awd7metrics23FaceTimeAudioTierReport8ByteSizeEv
|| __TEXT.__text __ZNK3awd7metrics23FaceTimeInterfaceStatus11GetTypeNameEv
|| __TEXT.__text __ZNK3awd7metrics23FaceTimeInterfaceStatus13IsInitializedEv
|| __TEXT.__text __ZNK3awd7metrics23FaceTimeInterfaceStatus13SetCachedSizeEi
|| __TEXT.__text __ZNK3awd7metrics23FaceTimeInterfaceStatus24SerializeWithCachedSizesEPN20wireless_diagnostics6google8protobuf2io17CodedOutputStreamE
|| __TEXT.__text __ZNK3awd7metrics23FaceTimeInterfaceStatus3NewEv
|| __TEXT.__text __ZNK3awd7metrics23FaceTimeInterfaceStatus8ByteSizeEv
|| __TEXT.__text __ZNK3awd7metrics23FaceTimePeerToPeerEnded11GetTypeNameEv
|| __TEXT.__text __ZNK3awd7metrics23FaceTimePeerToPeerEnded13IsInitializedEv
|| __TEXT.__text __ZNK3awd7metrics23FaceTimePeerToPeerEnded13SetCachedSizeEi
|| __TEXT.__text __ZNK3awd7metrics23FaceTimePeerToPeerEnded24SerializeWithCachedSizesEPN20wireless_diagnostics6google8protobuf2io17CodedOutputStreamE
|| __TEXT.__text __ZNK3awd7metrics23FaceTimePeerToPeerEnded3NewEv
|| __TEXT.__text __ZNK3awd7metrics23FaceTimePeerToPeerEnded8ByteSizeEv
|| __TEXT.__text __ZNK3awd7metrics24AudioWindowLossHistogram11GetTypeNameEv
|| __TEXT.__text __ZNK3awd7metrics24AudioWindowLossHistogram13IsInitializedEv
|| __TEXT.__text __ZNK3awd7metrics24AudioWindowLossHistogram13SetCachedSizeEi
|| __TEXT.__text __ZNK3awd7metrics24AudioWindowLossHistogram24SerializeWithCachedSizesEPN20wireless_diagnostics6google8protobuf2io17CodedOutputStreamE
|| __TEXT.__text __ZNK3awd7metrics24AudioWindowLossHistogram3NewEv
|| __TEXT.__text __ZNK3awd7metrics24AudioWindowLossHistogram8ByteSizeEv
|| __TEXT.__text __ZNK3awd7metrics25FaceTimeCallUpgradedEvent11GetTypeNameEv
|| __TEXT.__text __ZNK3awd7metrics25FaceTimeCallUpgradedEvent13IsInitializedEv
|| __TEXT.__text __ZNK3awd7metrics25FaceTimeCallUpgradedEvent13SetCachedSizeEi
|| __TEXT.__text __ZNK3awd7metrics25FaceTimeCallUpgradedEvent24SerializeWithCachedSizesEPN20wireless_diagnostics6google8protobuf2io17CodedOutputStreamE
|| __TEXT.__text __ZNK3awd7metrics25FaceTimeCallUpgradedEvent3NewEv
|| __TEXT.__text __ZNK3awd7metrics25FaceTimeCallUpgradedEvent8ByteSizeEv
|| __TEXT.__text __ZNK3awd7metrics25FaceTimeModeRoleTransport11GetTypeNameEv
|| __TEXT.__text __ZNK3awd7metrics25FaceTimeModeRoleTransport13IsInitializedEv
|| __TEXT.__text __ZNK3awd7metrics25FaceTimeModeRoleTransport13SetCachedSizeEi
|| __TEXT.__text __ZNK3awd7metrics25FaceTimeModeRoleTransport24SerializeWithCachedSizesEPN20wireless_diagnostics6google8protobuf2io17CodedOutputStreamE
|| __TEXT.__text __ZNK3awd7metrics25FaceTimeModeRoleTransport3NewEv
|| __TEXT.__text __ZNK3awd7metrics25FaceTimeModeRoleTransport8ByteSizeEv
|| __TEXT.__text __ZNK3awd7metrics25FaceTimePeerToPeerStarted11GetTypeNameEv
|| __TEXT.__text __ZNK3awd7metrics25FaceTimePeerToPeerStarted13IsInitializedEv
|| __TEXT.__text __ZNK3awd7metrics25FaceTimePeerToPeerStarted13SetCachedSizeEi
|| __TEXT.__text __ZNK3awd7metrics25FaceTimePeerToPeerStarted24SerializeWithCachedSizesEPN20wireless_diagnostics6google8protobuf2io17CodedOutputStreamE
|| __TEXT.__text __ZNK3awd7metrics25FaceTimePeerToPeerStarted3NewEv
|| __TEXT.__text __ZNK3awd7metrics25FaceTimePeerToPeerStarted8ByteSizeEv
|| __TEXT.__text __ZNK3awd7metrics26FaceTimeConnectivityTiming11GetTypeNameEv
|| __TEXT.__text __ZNK3awd7metrics26FaceTimeConnectivityTiming13IsInitializedEv
|| __TEXT.__text __ZNK3awd7metrics26FaceTimeConnectivityTiming13SetCachedSizeEi
|| __TEXT.__text __ZNK3awd7metrics26FaceTimeConnectivityTiming24SerializeWithCachedSizesEPN20wireless_diagnostics6google8protobuf2io17CodedOutputStreamE
|| __TEXT.__text __ZNK3awd7metrics26FaceTimeConnectivityTiming3NewEv
|| __TEXT.__text __ZNK3awd7metrics26FaceTimeConnectivityTiming8ByteSizeEv
|| __TEXT.__text __ZNK3awd7metrics27FacetimeNetworkStatusReport11GetTypeNameEv
|| __TEXT.__text __ZNK3awd7metrics27FacetimeNetworkStatusReport13IsInitializedEv
|| __TEXT.__text __ZNK3awd7metrics27FacetimeNetworkStatusReport13SetCachedSizeEi
|| __TEXT.__text __ZNK3awd7metrics27FacetimeNetworkStatusReport24SerializeWithCachedSizesEPN20wireless_diagnostics6google8protobuf2io17CodedOutputStreamE
|| __TEXT.__text __ZNK3awd7metrics27FacetimeNetworkStatusReport3NewEv
|| __TEXT.__text __ZNK3awd7metrics27FacetimeNetworkStatusReport8ByteSizeEv
|| __TEXT.__text __ZNK3awd7metrics28FaceTimeCallAggregatedReport11GetTypeNameEv
|| __TEXT.__text __ZNK3awd7metrics28FaceTimeCallAggregatedReport13IsInitializedEv
|| __TEXT.__text __ZNK3awd7metrics28FaceTimeCallAggregatedReport13SetCachedSizeEi
|| __TEXT.__text __ZNK3awd7metrics28FaceTimeCallAggregatedReport24SerializeWithCachedSizesEPN20wireless_diagnostics6google8protobuf2io17CodedOutputStreamE
|| __TEXT.__text __ZNK3awd7metrics28FaceTimeCallAggregatedReport3NewEv
|| __TEXT.__text __ZNK3awd7metrics28FaceTimeCallAggregatedReport8ByteSizeEv
|| __TEXT.__text __ZNK3awd7metrics32HomeKitIPCameraNetworkStatistics11GetTypeNameEv
|| __TEXT.__text __ZNK3awd7metrics32HomeKitIPCameraNetworkStatistics13IsInitializedEv
|| __TEXT.__text __ZNK3awd7metrics32HomeKitIPCameraNetworkStatistics13SetCachedSizeEi
|| __TEXT.__text __ZNK3awd7metrics32HomeKitIPCameraNetworkStatistics24SerializeWithCachedSizesEPN20wireless_diagnostics6google8protobuf2io17CodedOutputStreamE
|| __TEXT.__text __ZNK3awd7metrics32HomeKitIPCameraNetworkStatistics3NewEv
|| __TEXT.__text __ZNK3awd7metrics32HomeKitIPCameraNetworkStatistics8ByteSizeEv
|| __TEXT.__text __ZNK3awd7metrics34RTCSessionEndMetric_InterfaceStats11GetTypeNameEv
|| __TEXT.__text __ZNK3awd7metrics34RTCSessionEndMetric_InterfaceStats13IsInitializedEv
|| __TEXT.__text __ZNK3awd7metrics34RTCSessionEndMetric_InterfaceStats13SetCachedSizeEi
|| __TEXT.__text __ZNK3awd7metrics34RTCSessionEndMetric_InterfaceStats24SerializeWithCachedSizesEPN20wireless_diagnostics6google8protobuf2io17CodedOutputStreamE
|| __TEXT.__text __ZNK3awd7metrics34RTCSessionEndMetric_InterfaceStats3NewEv
|| __TEXT.__text __ZNK3awd7metrics34RTCSessionEndMetric_InterfaceStats8ByteSizeEv
|| __TEXT.__text __ZNK3awd7metrics40FaceTimeAudioTierReport_AudioTierCounter11GetTypeNameEv
|| __TEXT.__text __ZNK3awd7metrics40FaceTimeAudioTierReport_AudioTierCounter13IsInitializedEv
|| __TEXT.__text __ZNK3awd7metrics40FaceTimeAudioTierReport_AudioTierCounter13SetCachedSizeEi
|| __TEXT.__text __ZNK3awd7metrics40FaceTimeAudioTierReport_AudioTierCounter24SerializeWithCachedSizesEPN20wireless_diagnostics6google8protobuf2io17CodedOutputStreamE
|| __TEXT.__text __ZNK3awd7metrics40FaceTimeAudioTierReport_AudioTierCounter3NewEv
|| __TEXT.__text __ZNK3awd7metrics40FaceTimeAudioTierReport_AudioTierCounter8ByteSizeEv
|| __TEXT.__text __ZNK3awd7metrics41FaceTimeCallAggregatedReport_SegmentStats11GetTypeNameEv
|| __TEXT.__text __ZNK3awd7metrics41FaceTimeCallAggregatedReport_SegmentStats13IsInitializedEv
|| __TEXT.__text __ZNK3awd7metrics41FaceTimeCallAggregatedReport_SegmentStats13SetCachedSizeEi
|| __TEXT.__text __ZNK3awd7metrics41FaceTimeCallAggregatedReport_SegmentStats24SerializeWithCachedSizesEPN20wireless_diagnostics6google8protobuf2io17CodedOutputStreamE
|| __TEXT.__text __ZNK3awd7metrics41FaceTimeCallAggregatedReport_SegmentStats3NewEv
|| __TEXT.__text __ZNK3awd7metrics41FaceTimeCallAggregatedReport_SegmentStats8ByteSizeEv
|| __TEXT.__text __ZNK3awd7metrics7RTStats11GetTypeNameEv
|| __TEXT.__text __ZNK3awd7metrics7RTStats13IsInitializedEv
|| __TEXT.__text __ZNK3awd7metrics7RTStats13SetCachedSizeEi
|| __TEXT.__text __ZNK3awd7metrics7RTStats24SerializeWithCachedSizesEPN20wireless_diagnostics6google8protobuf2io17CodedOutputStreamE
|| __TEXT.__text __ZNK3awd7metrics7RTStats3NewEv
|| __TEXT.__text __ZNK3awd7metrics7RTStats8ByteSizeEv
__ libSystem.B.dylib: __Unwind_Resume
__ libSystem.B.dylib: ___assert_rtn
__ libSystem.B.dylib: _memcpy
__ libSystem.B.dylib: _strlen
__ libSystem.B.dylib: dyld_stub_binder
__ libc++.1.dylib: __ZNKSt3__121__basic_string_commonILb1EE20__throw_length_errorEv
__ libc++.1.dylib: __ZNSt3__112basic_stringIcNS_11char_traitsIcEENS_9allocatorIcEEEaSERKS5_
__ libc++.1.dylib: __ZSt9terminatev
__ libc++.1.dylib: __ZTVN10__cxxabiv120__si_class_type_infoE
__ libc++.1.dylib: __ZdaPv
__ libc++.1.dylib: __ZdlPv
__ libc++.1.dylib: __Znam
__ libc++.1.dylib: __Znwm
__ libc++.1.dylib: ___cxa_begin_catch
__ libc++.1.dylib: ___dynamic_cast
__ libc++.1.dylib: ___gxx_personality_v0
__ libprotobuf-lite.dylib: __ZN20wireless_diagnostics6google8protobuf11MessageLiteD2Ev
__ libprotobuf-lite.dylib: __ZN20wireless_diagnostics6google8protobuf2io16CodedInputStream15ReadTagFallbackEv
__ libprotobuf-lite.dylib: __ZN20wireless_diagnostics6google8protobuf2io16CodedInputStream20ReadVarint32FallbackEPj
__ libprotobuf-lite.dylib: __ZN20wireless_diagnostics6google8protobuf2io16CodedInputStream20ReadVarint64FallbackEPy
__ libprotobuf-lite.dylib: __ZN20wireless_diagnostics6google8protobuf2io16CodedInputStream26ReadLittleEndian32FallbackEPj
__ libprotobuf-lite.dylib: __ZN20wireless_diagnostics6google8protobuf2io16CodedInputStream8PopLimitEi
__ libprotobuf-lite.dylib: __ZN20wireless_diagnostics6google8protobuf2io16CodedInputStream9PushLimitEi
__ libprotobuf-lite.dylib: __ZN20wireless_diagnostics6google8protobuf2io17CodedOutputStream12VarintSize64Ey
__ libprotobuf-lite.dylib: __ZN20wireless_diagnostics6google8protobuf2io17CodedOutputStream13WriteVarint32Ej
__ libprotobuf-lite.dylib: __ZN20wireless_diagnostics6google8protobuf2io17CodedOutputStream20VarintSize32FallbackEj
__ libprotobuf-lite.dylib: __ZN20wireless_diagnostics6google8protobuf8internal10LogMessageC1ENS1_8LogLevelEPKci
__ libprotobuf-lite.dylib: __ZN20wireless_diagnostics6google8protobuf8internal10LogMessageD1Ev
__ libprotobuf-lite.dylib: __ZN20wireless_diagnostics6google8protobuf8internal10LogMessagelsEPKc
__ libprotobuf-lite.dylib: __ZN20wireless_diagnostics6google8protobuf8internal10OnShutdownEPFvvE
__ libprotobuf-lite.dylib: __ZN20wireless_diagnostics6google8protobuf8internal11LogFinisheraSERNS2_10LogMessageE
__ libprotobuf-lite.dylib: __ZN20wireless_diagnostics6google8protobuf8internal12kEmptyStringE
__ libprotobuf-lite.dylib: __ZN20wireless_diagnostics6google8protobuf8internal13VerifyVersionEiiPKc
__ libprotobuf-lite.dylib: __ZN20wireless_diagnostics6google8protobuf8internal14WireFormatLite10ReadStringEPNS1_2io16CodedInputStreamEPNSt3__112basic_stringIcNS7_11char_traitsIcEENS7_9allocatorIcEEEE
__ libprotobuf-lite.dylib: __ZN20wireless_diagnostics6google8protobuf8internal14WireFormatLite10WriteFloatEifPNS1_2io17CodedOutputStreamE
__ libprotobuf-lite.dylib: __ZN20wireless_diagnostics6google8protobuf8internal14WireFormatLite10WriteInt32EiiPNS1_2io17CodedOutputStreamE
__ libprotobuf-lite.dylib: __ZN20wireless_diagnostics6google8protobuf8internal14WireFormatLite11WriteStringEiRKNSt3__112basic_stringIcNS4_11char_traitsIcEENS4_9allocatorIcEEEEPNS1_2io17CodedOutputStreamE
__ libprotobuf-lite.dylib: __ZN20wireless_diagnostics6google8protobuf8internal14WireFormatLite11WriteUInt32EijPNS1_2io17CodedOutputStreamE
__ libprotobuf-lite.dylib: __ZN20wireless_diagnostics6google8protobuf8internal14WireFormatLite11WriteUInt64EiyPNS1_2io17CodedOutputStreamE
__ libprotobuf-lite.dylib: __ZN20wireless_diagnostics6google8protobuf8internal14WireFormatLite12WriteMessageEiRKNS1_11MessageLiteEPNS1_2io17CodedOutputStreamE
__ libprotobuf-lite.dylib: __ZN20wireless_diagnostics6google8protobuf8internal14WireFormatLite9SkipFieldEPNS1_2io16CodedInputStreamEj
__ libprotobuf-lite.dylib: __ZN20wireless_diagnostics6google8protobuf8internal14WireFormatLite9WriteBoolEibPNS1_2io17CodedOutputStreamE
__ libprotobuf-lite.dylib: __ZN20wireless_diagnostics6google8protobuf8internal20RepeatedPtrFieldBase4SwapEPS3_
__ libprotobuf-lite.dylib: __ZN20wireless_diagnostics6google8protobuf8internal20RepeatedPtrFieldBase7ReserveEi
__ libprotobuf-lite.dylib: __ZNK20wireless_diagnostics6google8protobuf11MessageLite25InitializationErrorStringEv
__ libprotobuf-lite.dylib: __ZNK20wireless_diagnostics6google8protobuf11MessageLite31SerializeWithCachedSizesToArrayEPh
__ libprotobuf-lite.dylib: __ZNK20wireless_diagnostics6google8protobuf2io16CodedInputStream15BytesUntilLimitEv
__ libprotobuf-lite.dylib: __ZTIN20wireless_diagnostics6google8protobuf11MessageLiteE
