|| __DATA.__common _GlobalObjectToInstallTheHandler
|| __DATA.__common __ZN3awd7metrics51static_descriptor_initializer_CCMetricsABM_2eproto_E
|| __DATA.__common __ZN3awd7metrics56static_descriptor_initializer_CCMetricsABMPower_2eproto_E
|| __DATA.__data __ZGVN3ctu9SingletonI12CapabilitiesS1_NS_23PthreadMutexGuardPolicyIS1_EEE9sInstanceE
|| __DATA.__data __ZGVN3ctu9SingletonI13ABMPropertiesS1_NS_23PthreadMutexGuardPolicyIS1_EEE9sInstanceE
|| __DATA.__data __ZGVN3ctu9SingletonI13ABMStatisticsS1_NS_23PthreadMutexGuardPolicyIS1_EEE9sInstanceE
|| __DATA.__data __ZGVN3ctu9SingletonI13ServerLoggingS1_NS_23PthreadMutexGuardPolicyIS1_EEE9sInstanceE
|| __DATA.__data __ZGVN3ctu9SingletonINS_18XpcJetsamAssertionES1_NS_23PthreadMutexGuardPolicyIS1_EEE9sInstanceE
|| __DATA.__data __ZGVN3ctu9SingletonINS_5power9assertionES2_NS_23PthreadMutexGuardPolicyIS2_EEE9sInstanceE
|| __DATA.__data __ZN15IPCDriverCommon15kQMuxNamePrefixE
|| __DATA.__data __ZN15IPCDriverCommon16kQMuxControlNameE
|| __DATA.__data __ZN18EURRouterIPCDriver11kStateNamesE
|| __DATA.__data __ZN3abm19kCommandSetIPCTraceE
|| __DATA.__data __ZN3abm22kEventTransportIsReadyE
|| __DATA.__data __ZN3abm22kKeyPowerDownMessageIdE
|| __DATA.__data __ZN3abm24kKeyPowerDownMessageListE
|| __DATA.__data __ZN3abm26kKeyPowerDownMessageQMISvcE
|| __DATA.__data __ZN3abm29kActionCreateNetworkInterfaceE
|| __DATA.__data __ZN3abm29kActionRemoveNetworkInterfaceE
|| __DATA.__data __ZN3abm30kActionConfigureDataThrottlingE
|| __DATA.__data __ZN3abm31kActionActivateNetworkInterfaceE
|| __DATA.__data __ZN3abm31kCommandNetworkInterfaceControlE
|| __DATA.__data __ZN3abm31kCommandSetPowerDownMessageListE
|| __DATA.__data __ZN3abm33kActionDeactivateNetworkInterfaceE
|| __DATA.__data __ZN3ctu9SingletonI12CapabilitiesS1_NS_23PthreadMutexGuardPolicyIS1_EEE9sInstanceE
|| __DATA.__data __ZN3ctu9SingletonI13ABMPropertiesS1_NS_23PthreadMutexGuardPolicyIS1_EEE9sInstanceE
|| __DATA.__data __ZN3ctu9SingletonI13ABMStatisticsS1_NS_23PthreadMutexGuardPolicyIS1_EEE9sInstanceE
|| __DATA.__data __ZN3ctu9SingletonI13ServerLoggingS1_NS_23PthreadMutexGuardPolicyIS1_EEE9sInstanceE
|| __DATA.__data __ZN3ctu9SingletonI16ABMNetworkPolicyS1_NS_23PthreadMutexGuardPolicyIS1_EEE9sInstanceE
|| __DATA.__data __ZN3ctu9SingletonINS_18XpcJetsamAssertionES1_NS_23PthreadMutexGuardPolicyIS1_EEE9sInstanceE
|| __DATA.__data __ZN3ctu9SingletonINS_5power9assertionES2_NS_23PthreadMutexGuardPolicyIS2_EEE9sInstanceE
|| __DATA.__data __ZN4coex10kKeyPolicyE
|| __DATA.__data __ZN4coex13kKeyWWANStateE
|| __DATA.__data __ZN4coex15kKeyLinkQualityE
|| __DATA.__data __ZN4coex17kKeyFailConditionE
|| __DATA.__data __ZN4coex17kKeyWLANConnStateE
|| __DATA.__data __ZN4coex17kKeyWLANScanStateE
|| __DATA.__data __ZN4diag6config12kNoneDMCFileE
|| __DATA.__data __ZN4diag6config12kTempModeKeyE
|| __DATA.__data __ZN4diag6config15kDIAGScratchDirE
|| __DATA.__data __ZN4diag6config15kTempEnabledKeyE
|| __DATA.__data __ZN4diag6config16kExtraDMCFileKeyE
|| __DATA.__data __ZN4diag6config16kLowWatermarkKeyE
|| __DATA.__data __ZN4diag6config16kSleepDMCFileKeyE
|| __DATA.__data __ZN4diag6config16kUseThresholdKeyE
|| __DATA.__data __ZN4diag6config17kHighWatermarkKeyE
|| __DATA.__data __ZN4diag6config18kPrimaryDMCFileKeyE
|| __DATA.__data __ZN4diag6config18kStallDetectionKeyE
|| __DATA.__data __ZN4diag6config18kThroughputDMCFileE
|| __DATA.__data __ZN4diag6config19kBufferingOnAPAwakeE
|| __DATA.__data __ZN4diag6config19kKeepScratchLogsKeyE
|| __DATA.__data __ZN4diag6config20kDefaultExtraDMCFileE
|| __DATA.__data __ZN4diag6config20kDefaultSleepDMCFileE
|| __DATA.__data __ZN4diag6config20kSecondaryDMCFileKeyE
|| __DATA.__data __ZN4diag6config22kDefaultPrimaryDMCFileE
|| __DATA.__data __ZN4diag6config22kEnabledDuringSleepKeyE
|| __DATA.__data __ZN4diag6config24kDefaultSecondaryDMCFileE
|| __DATA.__data __ZN4diag6config26kStallDetectionRecoveryKeyE
|| __DATA.__data _kABMDefaultServiceName
|| __DATA.__data _kBasebandXpc
|| __DATA.__data _kCommandCheckIn
|| __DATA.__data _kCommandCheckOut
|| __DATA.__data _kCommandEventsOff
|| __DATA.__data _kCommandEventsOn
|| __DATA.__data _kCommandSignalNotification
|| __DATA.__data _kDaemonLogScratchDir
|| __DATA.__data _kKeepScratchLogsKey
|| __DATA.__data _kKeyClientName
|| __DATA.__data _kKeyCommand
|| __DATA.__data _kKeyCommandData
|| __DATA.__data _kKeyCommandResult
|| __DATA.__data _kKeyEntitlementBasebanddAllow
|| __DATA.__data _kKeyEntitlementFineGrained
|| __DATA.__data _kKeyEvent
|| __DATA.__data _kKeyEventData
|| __DATA.__data _kKeyEventsList
|| __DATA.__data _kValueInvalid
|| __DATA.__objc_data _OBJC_CLASS_$_CMHandDetectionDelegate
|| __DATA.__objc_data _OBJC_METACLASS_$_CMHandDetectionDelegate
|| __DATA.__objc_ivar _OBJC_IVAR_$_ABMTapToRadar.fMaxUniqueSignatures
|| __DATA.__objc_ivar _OBJC_IVAR_$_ABMTapToRadar.fMinTimeBetweenSameNotificationSec
|| __DATA.__objc_ivar _OBJC_IVAR_$_ABMTapToRadar.fMode
|| __DATA.__objc_ivar _OBJC_IVAR_$_ABMTapToRadar.fQueue
|| __DATA.__objc_ivar _OBJC_IVAR_$_CMHandDetectionDelegate.fCallBack
|| __DATA_CONST.__const __ZN3abm15kGetWorkoutInfoE
|| __DATA_CONST.__const __ZN3abm15kKeyWorkoutTypeE
|| __DATA_CONST.__const __ZN3abm15kSetWorkoutInfoE
|| __DATA_CONST.__const __ZN3abm16kKeySwimLocationE
|| __DATA_CONST.__const __ZN3abm16kKeyWorkoutStateE
|| __DATA_CONST.__const __ZN3abm19kKeyWorkoutLocationE
|| __DATA_CONST.__const __ZN3abm23kKeyWorkoutInfoOverrideE
|| __DATA_CONST.__const __ZN4diag6config15kADPLScratchDirE
|| __DATA_CONST.__const __ZN5radio13HealthService25kKeyDataReportingIntervalE
|| __DATA_CONST.__const __ZTI10BootModule
|| __DATA_CONST.__const __ZTI10CPMSModule
|| __DATA_CONST.__const __ZTI10LogTracker
|| __DATA_CONST.__const __ZTI10PowerStats
|| __DATA_CONST.__const __ZTI11RadioModule
|| __DATA_CONST.__const __ZTI11StatsModule
|| __DATA_CONST.__const __ZTI11TraceModule
|| __DATA_CONST.__const __ZTI12PowerManager
|| __DATA_CONST.__const __ZTI12QMIXpcServer
|| __DATA_CONST.__const __ZTI12TraceManager
|| __DATA_CONST.__const __ZTI13AntennaModule
|| __DATA_CONST.__const __ZTI13DriverFactory
|| __DATA_CONST.__const __ZTI14BootController
|| __DATA_CONST.__const __ZTI14EmptyLogWriter
|| __DATA_CONST.__const __ZTI14ResetDetection
|| __DATA_CONST.__const __ZTI14ServiceManager
|| __DATA_CONST.__const __ZTI15RouterIPCDriver
|| __DATA_CONST.__const __ZTI15TransportModule
|| __DATA_CONST.__const __ZTI16NetworkingModule
|| __DATA_CONST.__const __ZTI17ABMServerInternal
|| __DATA_CONST.__const __ZTI17ABMServiceManager
|| __DATA_CONST.__const __ZTI17BasebandTransport
|| __DATA_CONST.__const __ZTI17WorkLoopIPCDriver
|| __DATA_CONST.__const __ZTI18DataStallDetection
|| __DATA_CONST.__const __ZTI18EURRouterIPCDriver
|| __DATA_CONST.__const __ZTI19QMITransportService
|| __DATA_CONST.__const __ZTI20BasebandTransportMAV
|| __DATA_CONST.__const __ZTI21CircularFileLogWriter
|| __DATA_CONST.__const __ZTI23FlashlessBootController
|| __DATA_CONST.__const __ZTI5Stats
|| __DATA_CONST.__const __ZTI7Service
|| __DATA_CONST.__const __ZTI8FSModule
|| __DATA_CONST.__const __ZTI8StatsAWD
|| __DATA_CONST.__const __ZTI9BootStats
|| __DATA_CONST.__const __ZTI9Simulator
|| __DATA_CONST.__const __ZTIN3awd7metrics15CrashReasonTypeE
|| __DATA_CONST.__const __ZTIN3awd7metrics17CommCenterNVMSyncE
|| __DATA_CONST.__const __ZTIN3awd7metrics18CommCenterWakeInfoE
|| __DATA_CONST.__const __ZTIN3awd7metrics22CommCenterBasebanCrashE
|| __DATA_CONST.__const __ZTIN3awd7metrics23CommCenterBasebandTraceE
|| __DATA_CONST.__const __ZTIN3awd7metrics23CommCenterLowPowerEventE
|| __DATA_CONST.__const __ZTIN3awd7metrics23CommCenterLowPowerStatsE
|| __DATA_CONST.__const __ZTIN3awd7metrics25CommCenterMissedMTMessageE
|| __DATA_CONST.__const __ZTIN3awd7metrics26CommCenterBasebandBootTimeE
|| __DATA_CONST.__const __ZTIN3awd7metrics27CommCenterPowerVotingRecordE
|| __DATA_CONST.__const __ZTIN3awd7metrics32CommCenterPowerTransitionFailureE
|| __DATA_CONST.__const __ZTIN3awd7metrics32CommCenterPowerTransitionSuccessE
|| __DATA_CONST.__const __ZTIN4coex6Module5StateE
|| __DATA_CONST.__const __ZTIN4coex6ModuleE
|| __DATA_CONST.__const __ZTIN4coex9XpcClientE
|| __DATA_CONST.__const __ZTIN5radio13HealthService5StateE
|| __DATA_CONST.__const __ZTIN7antenna16HKWorkoutManagerE
|| __DATA_CONST.__const __ZTIN7antenna18IOKitEventNotifierE
|| __DATA_CONST.__const __ZTV10BootModule
|| __DATA_CONST.__const __ZTV10CPMSModule
|| __DATA_CONST.__const __ZTV10LogTracker
|| __DATA_CONST.__const __ZTV10PowerStats
|| __DATA_CONST.__const __ZTV11RadioModule
|| __DATA_CONST.__const __ZTV11StatsModule
|| __DATA_CONST.__const __ZTV11TraceModule
|| __DATA_CONST.__const __ZTV12PowerManager
|| __DATA_CONST.__const __ZTV12QMIXpcServer
|| __DATA_CONST.__const __ZTV12TraceManager
|| __DATA_CONST.__const __ZTV13AntennaModule
|| __DATA_CONST.__const __ZTV13DriverFactory
|| __DATA_CONST.__const __ZTV14BootController
|| __DATA_CONST.__const __ZTV14EmptyLogWriter
|| __DATA_CONST.__const __ZTV14ResetDetection
|| __DATA_CONST.__const __ZTV14ServiceManager
|| __DATA_CONST.__const __ZTV15RouterIPCDriver
|| __DATA_CONST.__const __ZTV15TransportModule
|| __DATA_CONST.__const __ZTV16NetworkingModule
|| __DATA_CONST.__const __ZTV17ABMServerInternal
|| __DATA_CONST.__const __ZTV17ABMServiceManager
|| __DATA_CONST.__const __ZTV17BasebandTransport
|| __DATA_CONST.__const __ZTV17WorkLoopIPCDriver
|| __DATA_CONST.__const __ZTV18DataStallDetection
|| __DATA_CONST.__const __ZTV18EURRouterIPCDriver
|| __DATA_CONST.__const __ZTV19QMITransportService
|| __DATA_CONST.__const __ZTV20BasebandTransportMAV
|| __DATA_CONST.__const __ZTV21CircularFileLogWriter
|| __DATA_CONST.__const __ZTV23FlashlessBootController
|| __DATA_CONST.__const __ZTV5Stats
|| __DATA_CONST.__const __ZTV7Service
|| __DATA_CONST.__const __ZTV8FSModule
|| __DATA_CONST.__const __ZTV8StatsAWD
|| __DATA_CONST.__const __ZTV9BootStats
|| __DATA_CONST.__const __ZTV9Simulator
|| __DATA_CONST.__const __ZTVN3awd7metrics15CrashReasonTypeE
|| __DATA_CONST.__const __ZTVN3awd7metrics17CommCenterNVMSyncE
|| __DATA_CONST.__const __ZTVN3awd7metrics18CommCenterWakeInfoE
|| __DATA_CONST.__const __ZTVN3awd7metrics22CommCenterBasebanCrashE
|| __DATA_CONST.__const __ZTVN3awd7metrics23CommCenterBasebandTraceE
|| __DATA_CONST.__const __ZTVN3awd7metrics23CommCenterLowPowerEventE
|| __DATA_CONST.__const __ZTVN3awd7metrics23CommCenterLowPowerStatsE
|| __DATA_CONST.__const __ZTVN3awd7metrics25CommCenterMissedMTMessageE
|| __DATA_CONST.__const __ZTVN3awd7metrics26CommCenterBasebandBootTimeE
|| __DATA_CONST.__const __ZTVN3awd7metrics27CommCenterPowerVotingRecordE
|| __DATA_CONST.__const __ZTVN3awd7metrics32CommCenterPowerTransitionFailureE
|| __DATA_CONST.__const __ZTVN3awd7metrics32CommCenterPowerTransitionSuccessE
|| __DATA_CONST.__const __ZTVN4coex6Module5StateE
|| __DATA_CONST.__const __ZTVN4coex6ModuleE
|| __DATA_CONST.__const __ZTVN4coex9XpcClientE
|| __DATA_CONST.__const __ZTVN5radio13HealthService5StateE
|| __DATA_CONST.__const __ZTVN7antenna16HKWorkoutManagerE
|| __DATA_CONST.__const __ZTVN7antenna18IOKitEventNotifierE
|| __DATA_CONST.__const _kABMProjectBuildReason
|| __DATA_CONST.__const _kABMProjectBuildRevision
|| __DATA_CONST.__const _kABMProjectVersion
|| __DATA_CONST.__const _kOptionServiceName
|| __DATA_DIRTY.__common __ZN3awd7metrics15CrashReasonType17default_instance_E
|| __DATA_DIRTY.__common __ZN3awd7metrics17CommCenterNVMSync17default_instance_E
|| __DATA_DIRTY.__common __ZN3awd7metrics18CommCenterWakeInfo17default_instance_E
|| __DATA_DIRTY.__common __ZN3awd7metrics22CommCenterBasebanCrash17default_instance_E
|| __DATA_DIRTY.__common __ZN3awd7metrics23CommCenterBasebandTrace17default_instance_E
|| __DATA_DIRTY.__common __ZN3awd7metrics23CommCenterLowPowerEvent17default_instance_E
|| __DATA_DIRTY.__common __ZN3awd7metrics23CommCenterLowPowerStats17default_instance_E
|| __DATA_DIRTY.__common __ZN3awd7metrics25CommCenterMissedMTMessage17default_instance_E
|| __DATA_DIRTY.__common __ZN3awd7metrics26CommCenterBasebandBootTime17default_instance_E
|| __DATA_DIRTY.__common __ZN3awd7metrics27CommCenterPowerVotingRecord17default_instance_E
|| __DATA_DIRTY.__common __ZN3awd7metrics32CommCenterPowerTransitionFailure17default_instance_E
|| __DATA_DIRTY.__common __ZN3awd7metrics32CommCenterPowerTransitionSuccess17default_instance_E
|| __DATA_DIRTY.__data __ZGVN3ctu9SingletonI16ABMNetworkPolicyS1_NS_23PthreadMutexGuardPolicyIS1_EEE9sInstanceE
|| __DATA_DIRTY.__data __ZGVN3ctu9SingletonI9ABMServerS1_NS_23PthreadMutexGuardPolicyIS1_EEE9sInstanceE
|| __DATA_DIRTY.__data __ZGVN3ctu9SingletonIN3abm9AWDHelperES2_NS_23PthreadMutexGuardPolicyIS2_EEE9sInstanceE
|| __DATA_DIRTY.__data __ZN13DriverFactory9sInstanceE
|| __DATA_DIRTY.__data __ZN3ctu9SingletonI9ABMServerS1_NS_23PthreadMutexGuardPolicyIS1_EEE9sInstanceE
|| __DATA_DIRTY.__data __ZN3ctu9SingletonIN3abm9AWDHelperES2_NS_23PthreadMutexGuardPolicyIS2_EEE9sInstanceE
|| __DATA_DIRTY.__objc_data _OBJC_CLASS_$_ABMTapToRadar
|| __DATA_DIRTY.__objc_data _OBJC_METACLASS_$_ABMTapToRadar
|| __TEXT.__const __ZN3awd7metrics15CrashReasonType20kFileNameFieldNumberE
|| __TEXT.__const __ZN3awd7metrics15CrashReasonType22kLineNumberFieldNumberE
|| __TEXT.__const __ZN3awd7metrics15CrashReasonType23kCrashReasonFieldNumberE
|| __TEXT.__const __ZN3awd7metrics17CommCenterNVMSync18kReasonFieldNumberE
|| __TEXT.__const __ZN3awd7metrics17CommCenterNVMSync19kSuccessFieldNumberE
|| __TEXT.__const __ZN3awd7metrics17CommCenterNVMSync20kDurationFieldNumberE
|| __TEXT.__const __ZN3awd7metrics17CommCenterNVMSync21kTimestampFieldNumberE
|| __TEXT.__const __ZN3awd7metrics17CommCenterNVMSync25kNothingToSyncFieldNumberE
|| __TEXT.__const __ZN3awd7metrics18CommCenterWakeInfo21kTimestampFieldNumberE
|| __TEXT.__const __ZN3awd7metrics18CommCenterWakeInfo25kLastSleepTypeFieldNumberE
|| __TEXT.__const __ZN3awd7metrics18CommCenterWakeInfo28kLastWakeDurationFieldNumberE
|| __TEXT.__const __ZN3awd7metrics18CommCenterWakeInfo29kLastSleepDurationFieldNumberE
|| __TEXT.__const __ZN3awd7metrics22CommCenterBasebanCrash21kTimestampFieldNumberE
|| __TEXT.__const __ZN3awd7metrics22CommCenterBasebanCrash27kCrashReasonTypeFieldNumberE
|| __TEXT.__const __ZN3awd7metrics23CommCenterBasebandTrace21kTimestampFieldNumberE
|| __TEXT.__const __ZN3awd7metrics23CommCenterBasebandTrace23kRequestTypeFieldNumberE
|| __TEXT.__const __ZN3awd7metrics23CommCenterBasebandTrace25kRequestReasonFieldNumberE
|| __TEXT.__const __ZN3awd7metrics23CommCenterLowPowerEvent18kReasonFieldNumberE
|| __TEXT.__const __ZN3awd7metrics23CommCenterLowPowerEvent21kEventTypeFieldNumberE
|| __TEXT.__const __ZN3awd7metrics23CommCenterLowPowerEvent21kSleepTypeFieldNumberE
|| __TEXT.__const __ZN3awd7metrics23CommCenterLowPowerEvent21kTimestampFieldNumberE
|| __TEXT.__const __ZN3awd7metrics23CommCenterLowPowerStats17kWakesFieldNumberE
|| __TEXT.__const __ZN3awd7metrics23CommCenterLowPowerStats21kTimestampFieldNumberE
|| __TEXT.__const __ZN3awd7metrics23CommCenterLowPowerStats22kIdleSleepsFieldNumberE
|| __TEXT.__const __ZN3awd7metrics23CommCenterLowPowerStats24kForcedSleepsFieldNumberE
|| __TEXT.__const __ZN3awd7metrics23CommCenterLowPowerStats27kLowpowerRevertsFieldNumberE
|| __TEXT.__const __ZN3awd7metrics23CommCenterLowPowerStats27kOperationDefersFieldNumberE
|| __TEXT.__const __ZN3awd7metrics23CommCenterLowPowerStats28kMissedMTMessagesFieldNumberE
|| __TEXT.__const __ZN3awd7metrics23CommCenterLowPowerStats31kNumMissedMTMessagesFieldNumberE
|| __TEXT.__const __ZN3awd7metrics23CommCenterLowPowerStats34kOperationInterruptionsFieldNumberE
|| __TEXT.__const __ZN3awd7metrics25CommCenterMissedMTMessage17kCountFieldNumberE
|| __TEXT.__const __ZN3awd7metrics25CommCenterMissedMTMessage21kMessageIDFieldNumberE
|| __TEXT.__const __ZN3awd7metrics25CommCenterMissedMTMessage23kServiceTypeFieldNumberE
|| __TEXT.__const __ZN3awd7metrics25CommCenterMissedMTMessage24kMissedMTTypeFieldNumberE
|| __TEXT.__const __ZN3awd7metrics26CommCenterBasebandBootTime19kAttemptFieldNumberE
|| __TEXT.__const __ZN3awd7metrics26CommCenterBasebandBootTime19kSuccessFieldNumberE
|| __TEXT.__const __ZN3awd7metrics26CommCenterBasebandBootTime20kBootTimeFieldNumberE
|| __TEXT.__const __ZN3awd7metrics26CommCenterBasebandBootTime21kTimestampFieldNumberE
|| __TEXT.__const __ZN3awd7metrics26CommCenterBasebandBootTime24kErrorDetailsFieldNumberE
|| __TEXT.__const __ZN3awd7metrics27CommCenterPowerVotingRecord22kRecordTypeFieldNumberE
|| __TEXT.__const __ZN3awd7metrics27CommCenterPowerVotingRecord26kFilterIdReasonFieldNumberE
|| __TEXT.__const __ZN3awd7metrics32CommCenterPowerTransitionFailure21kTimestampFieldNumberE
|| __TEXT.__const __ZN3awd7metrics32CommCenterPowerTransitionFailure25kVotingRecordsFieldNumberE
|| __TEXT.__const __ZN3awd7metrics32CommCenterPowerTransitionFailure26kTransitionTypeFieldNumberE
|| __TEXT.__const __ZN3awd7metrics32CommCenterPowerTransitionFailure27kTriggerIdReasonFieldNumberE
|| __TEXT.__const __ZN3awd7metrics32CommCenterPowerTransitionSuccess21kTimestampFieldNumberE
|| __TEXT.__const __ZN3awd7metrics32CommCenterPowerTransitionSuccess25kVotingRecordsFieldNumberE
|| __TEXT.__const __ZN3awd7metrics32CommCenterPowerTransitionSuccess26kTransitionTypeFieldNumberE
|| __TEXT.__const __ZN3awd7metrics32CommCenterPowerTransitionSuccess27kTriggerIdReasonFieldNumberE
|| __TEXT.__const __ZN4diag6config11kMaxHistoryE
|| __TEXT.__const __ZN4diag6config12kDefaultModeE
|| __TEXT.__const __ZN4diag6config15kDefaultHistoryE
|| __TEXT.__const __ZN4diag6config19kDefaultADPLHistoryE
|| __TEXT.__const __ZN4diag6config20kDefaultLowWatermarkE
|| __TEXT.__const __ZN4diag6config20kDefaultUseThresholdE
|| __TEXT.__const __ZN4diag6config20kDefaultWatchHistoryE
|| __TEXT.__const __ZN4diag6config21kDefaultHighWatermarkE
|| __TEXT.__const __ZN4diag6config22kDefaultStallDetectionE
|| __TEXT.__const __ZTS10BootModule
|| __TEXT.__const __ZTS10CPMSModule
|| __TEXT.__const __ZTS10LogTracker
|| __TEXT.__const __ZTS10PowerStats
|| __TEXT.__const __ZTS11RadioModule
|| __TEXT.__const __ZTS11StatsModule
|| __TEXT.__const __ZTS11TraceModule
|| __TEXT.__const __ZTS12PowerManager
|| __TEXT.__const __ZTS12QMIXpcServer
|| __TEXT.__const __ZTS12TraceManager
|| __TEXT.__const __ZTS13AntennaModule
|| __TEXT.__const __ZTS13DriverFactory
|| __TEXT.__const __ZTS14BootController
|| __TEXT.__const __ZTS14EmptyLogWriter
|| __TEXT.__const __ZTS14ResetDetection
|| __TEXT.__const __ZTS14ServiceManager
|| __TEXT.__const __ZTS15RouterIPCDriver
|| __TEXT.__const __ZTS15TransportModule
|| __TEXT.__const __ZTS16NetworkingModule
|| __TEXT.__const __ZTS17ABMServerInternal
|| __TEXT.__const __ZTS17ABMServiceManager
|| __TEXT.__const __ZTS17BasebandTransport
|| __TEXT.__const __ZTS17WorkLoopIPCDriver
|| __TEXT.__const __ZTS18DataStallDetection
|| __TEXT.__const __ZTS18EURRouterIPCDriver
|| __TEXT.__const __ZTS19QMITransportService
|| __TEXT.__const __ZTS20BasebandTransportMAV
|| __TEXT.__const __ZTS21CircularFileLogWriter
|| __TEXT.__const __ZTS23FlashlessBootController
|| __TEXT.__const __ZTS5Stats
|| __TEXT.__const __ZTS7Service
|| __TEXT.__const __ZTS8FSModule
|| __TEXT.__const __ZTS8StatsAWD
|| __TEXT.__const __ZTS9BootStats
|| __TEXT.__const __ZTS9Simulator
|| __TEXT.__const __ZTSN3awd7metrics15CrashReasonTypeE
|| __TEXT.__const __ZTSN3awd7metrics17CommCenterNVMSyncE
|| __TEXT.__const __ZTSN3awd7metrics18CommCenterWakeInfoE
|| __TEXT.__const __ZTSN3awd7metrics22CommCenterBasebanCrashE
|| __TEXT.__const __ZTSN3awd7metrics23CommCenterBasebandTraceE
|| __TEXT.__const __ZTSN3awd7metrics23CommCenterLowPowerEventE
|| __TEXT.__const __ZTSN3awd7metrics23CommCenterLowPowerStatsE
|| __TEXT.__const __ZTSN3awd7metrics25CommCenterMissedMTMessageE
|| __TEXT.__const __ZTSN3awd7metrics26CommCenterBasebandBootTimeE
|| __TEXT.__const __ZTSN3awd7metrics27CommCenterPowerVotingRecordE
|| __TEXT.__const __ZTSN3awd7metrics32CommCenterPowerTransitionFailureE
|| __TEXT.__const __ZTSN3awd7metrics32CommCenterPowerTransitionSuccessE
|| __TEXT.__const __ZTSN4coex6Module5StateE
|| __TEXT.__const __ZTSN4coex6ModuleE
|| __TEXT.__const __ZTSN4coex9XpcClientE
|| __TEXT.__const __ZTSN5radio13HealthService5StateE
|| __TEXT.__const __ZTSN7antenna16HKWorkoutManagerE
|| __TEXT.__const __ZTSN7antenna18IOKitEventNotifierE
|| __TEXT.__text _AppleBasebandManagerGetProfile
|| __TEXT.__text _AppleBasebandManagerInitServer
|| __TEXT.__text _AppleBasebandManagerShutdownServer
|| __TEXT.__text _AppleBasebandManagerStartServer
|| __TEXT.__text _AppleBasebandManagerStopServer
|| __TEXT.__text __Z15GetABMLogServerv
|| __TEXT.__text __Z15GetGlobalLoggerNSt3__110shared_ptrIN3ctu9LogServerEEE
|| __TEXT.__text __Z15GetOsLogContextv
|| __TEXT.__text __Z18ClientGetLogServerv
|| __TEXT.__text __Z20ABMGetProjectVersionv
|| __TEXT.__text __Z21GetMaxTransportIOSizev
|| __TEXT.__text __Z22hasBasebandEntitlementRKN3xpc4dictE
|| __TEXT.__text __Z23ABMGetRootVersionStringv
|| __TEXT.__text __Z8asString13ShutdownStage
|| __TEXT.__text __Z8asStringRK10PowerState
|| __TEXT.__text __Z8asStringRK10SleepState
|| __TEXT.__text __Z8asStringRK7LogInfo
|| __TEXT.__text __ZN10BootModule10initializeEN8dispatch13group_sessionE
|| __TEXT.__text __ZN10BootModule13shutdown_syncEN8dispatch5blockIU13block_pointerFviNSt3__112basic_stringIcNS2_11char_traitsIcEENS2_9allocatorIcEEEEEEE
|| __TEXT.__text __ZN10BootModule14hardReset_syncE9ResetInfoN8dispatch5blockIU13block_pointerFviNSt3__112basic_stringIcNS3_11char_traitsIcEENS3_9allocatorIcEEEEEEE
|| __TEXT.__text __ZN10BootModule14softReset_syncE9ResetInfoN8dispatch5blockIU13block_pointerFviNSt3__112basic_stringIcNS3_11char_traitsIcEENS3_9allocatorIcEEEEEEE
|| __TEXT.__text __ZN10BootModule16changeState_syncENS_5StateE
|| __TEXT.__text __ZN10BootModule16handleReset_syncE9ResetInfoN8dispatch5blockIU13block_pointerFviNSt3__112basic_stringIcNS3_11char_traitsIcEENS3_9allocatorIcEEEEEEE
|| __TEXT.__text __ZN10BootModule17requestReset_syncE9ResetInfoN8dispatch5blockIU13block_pointerFviNSt3__112basic_stringIcNS3_11char_traitsIcEENS3_9allocatorIcEEEEEEE
|| __TEXT.__text __ZN10BootModule17submitMetric_syncEjyb
|| __TEXT.__text __ZN10BootModule21handleBootFailed_syncENSt3__112basic_stringIcNS0_11char_traitsIcEENS0_9allocatorIcEEEE
|| __TEXT.__text __ZN10BootModule22checkFSSyncStatus_syncEN8dispatch5blockIU13block_pointerFvbbEEE
|| __TEXT.__text __ZN10BootModule25finishInitialization_syncEv
|| __TEXT.__text __ZN10BootModule28calculateBootStatistics_syncEv
|| __TEXT.__text __ZN10BootModule31reportStatisticsBootUpTime_syncEv
|| __TEXT.__text __ZN10BootModule34reportStatisticsHardResetTime_syncEv
|| __TEXT.__text __ZN10BootModule4initEv
|| __TEXT.__text __ZN10BootModule5startEN8dispatch13group_sessionE
|| __TEXT.__text __ZN10BootModule6createENSt3__18weak_ptrI14ServiceManagerEE
|| __TEXT.__text __ZN10BootModule8shutdownE13ShutdownStageN8dispatch13group_sessionE
|| __TEXT.__text __ZN10BootModule9boot_syncEv
|| __TEXT.__text __ZN10BootModuleC1ENSt3__18weak_ptrI14ServiceManagerEE
|| __TEXT.__text __ZN10BootModuleC2ENSt3__18weak_ptrI14ServiceManagerEE
|| __TEXT.__text __ZN10BootModuleD0Ev
|| __TEXT.__text __ZN10BootModuleD1Ev
|| __TEXT.__text __ZN10BootModuleD2Ev
|| __TEXT.__text __ZN10BudgetData3getE15BudgetTimeScale
|| __TEXT.__text __ZN10BudgetData3setE15BudgetTimeScalej
|| __TEXT.__text __ZN10BudgetData5clearEv
|| __TEXT.__text __ZN10BudgetDataC1EOS_
|| __TEXT.__text __ZN10BudgetDataC1ERKS_
|| __TEXT.__text __ZN10BudgetDataC1Ev
|| __TEXT.__text __ZN10BudgetDataC2EOS_
|| __TEXT.__text __ZN10BudgetDataC2ERKS_
|| __TEXT.__text __ZN10BudgetDataC2Ev
|| __TEXT.__text __ZN10BudgetDataD1Ev
|| __TEXT.__text __ZN10BudgetDataD2Ev
|| __TEXT.__text __ZN10BudgetDataaSERKS_
|| __TEXT.__text __ZN10CPMSModule10initializeEN8dispatch13group_sessionE
|| __TEXT.__text __ZN10CPMSModule11getErrorMsgEP7NSError
|| __TEXT.__text __ZN10CPMSModule20initPowerConfig_syncEv
|| __TEXT.__text __ZN10CPMSModule22evaluateBrickMode_syncER11PowerBudget
|| __TEXT.__text __ZN10CPMSModule24sendPowerBudgetToBB_syncER11PowerBudget
|| __TEXT.__text __ZN10CPMSModule25ackPowerBudgetToCPMS_syncER11PowerBudget
|| __TEXT.__text __ZN10CPMSModule25finishInitialization_syncEv
|| __TEXT.__text __ZN10CPMSModule26reportPowerBudgetNeed_syncER11PowerBudget
|| __TEXT.__text __ZN10CPMSModule27debounceConnectedState_syncEv
|| __TEXT.__text __ZN10CPMSModule28evaluatePowerBudgetNeed_syncEv
|| __TEXT.__text __ZN10CPMSModule6createENSt3__18weak_ptrI14ServiceManagerEE
|| __TEXT.__text __ZN10CPMSModule8shutdownEN8dispatch13group_sessionE
|| __TEXT.__text __ZN10CPMSModuleC1ENSt3__18weak_ptrI14ServiceManagerEE
|| __TEXT.__text __ZN10CPMSModuleC2ENSt3__18weak_ptrI14ServiceManagerEE
|| __TEXT.__text __ZN10CPMSModuleD0Ev
|| __TEXT.__text __ZN10CPMSModuleD1Ev
|| __TEXT.__text __ZN10CPMSModuleD2Ev
|| __TEXT.__text __ZN10LogTracker10initializeEN8dispatch13group_sessionE
|| __TEXT.__text __ZN10LogTracker11ddtLog_syncEN8dispatch13group_sessionEN3xpc4dictE
|| __TEXT.__text __ZN10LogTracker14copyPreferenceEv
|| __TEXT.__text __ZN10LogTracker14systemLog_syncEN8dispatch13group_sessionEN3xpc4dictENSt3__18functionIFvbS3_EEE
|| __TEXT.__text __ZN10LogTracker16archiveLogs_syncEN8dispatch13group_sessionEN3xpc4dictE
|| __TEXT.__text __ZN10LogTracker16getConfigurationEv
|| __TEXT.__text __ZN10LogTracker16getLoggingConfigEv
|| __TEXT.__text __ZN10LogTracker16jsonSummary_syncEN8dispatch13group_sessionEN3xpc4dictE
|| __TEXT.__text __ZN10LogTracker16setProperty_syncEN3xpc4dictEN8dispatch5blockIU13block_pointerFviS1_EEE
|| __TEXT.__text __ZN10LogTracker23isInternalProperty_syncEN3xpc4dictERS1_Ri
|| __TEXT.__text __ZN10LogTracker24checkLoggingVersion_syncEv
|| __TEXT.__text __ZN10LogTracker25finishInitialization_syncEv
|| __TEXT.__text __ZN10LogTracker26postLogCollectionSupportedEv
|| __TEXT.__text __ZN10LogTracker26updateLoggingSettings_syncEN3abm6helper13LoggingConfigEN3xpc4dictE
|| __TEXT.__text __ZN10LogTracker28initializeCommonSummary_syncEv
|| __TEXT.__text __ZN10LogTracker30postLogCollectionExternal_syncEN3xpc4dictE
|| __TEXT.__text __ZN10LogTracker30postLogCollectionInternal_syncEN3xpc4dictE
|| __TEXT.__text __ZN10LogTracker32isDefaultCarrierProfileInstalledEv
|| __TEXT.__text __ZN10LogTracker6createENSt3__18weak_ptrI14ServiceManagerEE
|| __TEXT.__text __ZN10LogTracker8shutdownEN8dispatch13group_sessionE
|| __TEXT.__text __ZN10LogTrackerC1ENSt3__18weak_ptrI14ServiceManagerEE
|| __TEXT.__text __ZN10LogTrackerC2ENSt3__18weak_ptrI14ServiceManagerEE
|| __TEXT.__text __ZN10LogTrackerD0Ev
|| __TEXT.__text __ZN10LogTrackerD1Ev
|| __TEXT.__text __ZN10LogTrackerD2Ev
|| __TEXT.__text __ZN10PowerStats11reportStatsEj
|| __TEXT.__text __ZN10PowerStats12gotAssertionENSt3__112basic_stringIcNS0_11char_traitsIcEENS0_9allocatorIcEEEEN3ctu5power9assertion6StatusE
|| __TEXT.__text __ZN10PowerStats18noPendingAssertionEv
|| __TEXT.__text __ZN10PowerStats19setPowerdownMessageEN3xpc4dictE
|| __TEXT.__text __ZN10PowerStats20registerStatsHandlerEN8dispatch8callbackIU13block_pointerFvN3xpc4dictEEEE
|| __TEXT.__text __ZN10PowerStats23reportSystemStateChangeE11SystemStateS0_
|| __TEXT.__text __ZN10PowerStats5clearEv
|| __TEXT.__text __ZN10PowerStats6createEv
|| __TEXT.__text __ZN10PowerStats9dumpStateEv
|| __TEXT.__text __ZN10PowerStatsC1Ev
|| __TEXT.__text __ZN10PowerStatsC2Ev
|| __TEXT.__text __ZN10PowerStatsD0Ev
|| __TEXT.__text __ZN10PowerStatsD1Ev
|| __TEXT.__text __ZN10PowerStatsD2Ev
|| __TEXT.__text __ZN10TapToRadar21createRadarIfPossibleEN3xpc4dictERKNSt3__112basic_stringIcNS2_11char_traitsIcEENS2_9allocatorIcEEEE
|| __TEXT.__text __ZN10TapToRadar7getModeEv
|| __TEXT.__text __ZN10TapToRadar7setModeENS_4ModeE
|| __TEXT.__text __ZN11PowerBudget3getE15BudgetTimeScale
|| __TEXT.__text __ZN11PowerBudget3setE15BudgetTimeScalej
|| __TEXT.__text __ZN11PowerBudget4fillEO10BudgetData
|| __TEXT.__text __ZN11PowerBudget4fillEPK12NSDictionary
|| __TEXT.__text __ZN11PowerBudget4fillER10BudgetData
|| __TEXT.__text __ZN11PowerBudget7getDataEv
|| __TEXT.__text __ZN11PowerBudget9getNSDictEv
|| __TEXT.__text __ZN11PowerBudgetC1EO10BudgetData
|| __TEXT.__text __ZN11PowerBudgetC1EOS_
|| __TEXT.__text __ZN11PowerBudgetC1EPK12NSDictionary
|| __TEXT.__text __ZN11PowerBudgetC1ER10BudgetData
|| __TEXT.__text __ZN11PowerBudgetC1ERKS_
|| __TEXT.__text __ZN11PowerBudgetC1Ev
|| __TEXT.__text __ZN11PowerBudgetC2EO10BudgetData
|| __TEXT.__text __ZN11PowerBudgetC2EOS_
|| __TEXT.__text __ZN11PowerBudgetC2EPK12NSDictionary
|| __TEXT.__text __ZN11PowerBudgetC2ER10BudgetData
|| __TEXT.__text __ZN11PowerBudgetC2ERKS_
|| __TEXT.__text __ZN11PowerBudgetC2Ev
|| __TEXT.__text __ZN11PowerBudgetD1Ev
|| __TEXT.__text __ZN11PowerBudgetD2Ev
|| __TEXT.__text __ZN11PowerBudgetaSERKS_
|| __TEXT.__text __ZN11RadioModule10initializeEN8dispatch13group_sessionE
|| __TEXT.__text __ZN11RadioModule14setRegion_syncEv
|| __TEXT.__text __ZN11RadioModule15getVersion_syncEN8dispatch5blockIU13block_pointerFvNSt3__112basic_stringIcNS2_11char_traitsIcEENS2_9allocatorIcEEEEEEE
|| __TEXT.__text __ZN11RadioModule21getOperatingMode_syncEN8dispatch5blockIU13block_pointerFviEEE
|| __TEXT.__text __ZN11RadioModule21setOperatingMode_syncEjN5radio13OperatingModeEN8dispatch5blockIU13block_pointerFvbEEE
|| __TEXT.__text __ZN11RadioModule23startHealthService_syncEv
|| __TEXT.__text __ZN11RadioModule25finishInitialization_syncEv
|| __TEXT.__text __ZN11RadioModule25queryFieldTestConfig_syncEv
|| __TEXT.__text __ZN11RadioModule29queryRFCalibrationStatus_syncEv
|| __TEXT.__text __ZN11RadioModule34queryFactoryCalibrationStatus_syncEv
|| __TEXT.__text __ZN11RadioModule4initEv
|| __TEXT.__text __ZN11RadioModule4wakeEN8dispatch13group_sessionE
|| __TEXT.__text __ZN11RadioModule5sleepEN8dispatch13group_sessionE
|| __TEXT.__text __ZN11RadioModule5startEN8dispatch13group_sessionE
|| __TEXT.__text __ZN11RadioModule6createENSt3__18weak_ptrI14ServiceManagerEE
|| __TEXT.__text __ZN11RadioModule8shutdownE13ShutdownStageN8dispatch13group_sessionE
|| __TEXT.__text __ZN11RadioModuleC1ENSt3__18weak_ptrI14ServiceManagerEEN8dispatch8workloopE
|| __TEXT.__text __ZN11RadioModuleC2ENSt3__18weak_ptrI14ServiceManagerEEN8dispatch8workloopE
|| __TEXT.__text __ZN11RadioModuleD0Ev
|| __TEXT.__text __ZN11RadioModuleD1Ev
|| __TEXT.__text __ZN11RadioModuleD2Ev
|| __TEXT.__text __ZN11StatsModule10initializeEN8dispatch13group_sessionE
|| __TEXT.__text __ZN11StatsModule14reportAWD_syncEjN3xpc6objectE
|| __TEXT.__text __ZN11StatsModule15updateData_syncEN3abm5stats7StatsIDEN3xpc4dictE
|| __TEXT.__text __ZN11StatsModule16getAllStats_syncEv
|| __TEXT.__text __ZN11StatsModule16reportStats_syncEN3abm5stats7StatsIDEN3xpc4dictE
|| __TEXT.__text __ZN11StatsModule20initializeStats_syncEv
|| __TEXT.__text __ZN11StatsModule21addStatsToModule_syncEN3abm5stats7StatsIDE
|| __TEXT.__text __ZN11StatsModule4initEv
|| __TEXT.__text __ZN11StatsModule5startEN8dispatch13group_sessionE
|| __TEXT.__text __ZN11StatsModule6createENSt3__18weak_ptrI14ServiceManagerEE
|| __TEXT.__text __ZN11StatsModule8shutdownE13ShutdownStageN8dispatch13group_sessionE
|| __TEXT.__text __ZN11StatsModuleC1ENSt3__18weak_ptrI14ServiceManagerEE
|| __TEXT.__text __ZN11StatsModuleC2ENSt3__18weak_ptrI14ServiceManagerEE
|| __TEXT.__text __ZN11StatsModuleD0Ev
|| __TEXT.__text __ZN11StatsModuleD1Ev
|| __TEXT.__text __ZN11StatsModuleD2Ev
|| __TEXT.__text __ZN11SystemState13getPowerStateEv
|| __TEXT.__text __ZN11SystemState13getSleepStateEv
|| __TEXT.__text __ZN11SystemState21getSystemNotificationEv
|| __TEXT.__text __ZN11SystemState24acceptSystemNotificationEj
|| __TEXT.__text __ZN11SystemStateC1Ev
|| __TEXT.__text __ZN11SystemStateC2Ev
|| __TEXT.__text __ZN11SystemStateD1Ev
|| __TEXT.__text __ZN11SystemStateD2Ev
|| __TEXT.__text __ZN11TraceFilter12removeFilterEN3xpc4dictE
|| __TEXT.__text __ZN11TraceFilter21determineFilterActionERNSt3__112basic_stringIcNS0_11char_traitsIcEENS0_9allocatorIcEEEE
|| __TEXT.__text __ZN11TraceFilter9addFilterEN3xpc4dictE
|| __TEXT.__text __ZN11TraceFilter9getFilterERN3xpc4dictE
|| __TEXT.__text __ZN11TraceModule11changeStateENS_5StateE
|| __TEXT.__text __ZN11TraceModule11collectLogsENSt3__110shared_ptrI11TraceResultEEN3ctu2cf11CFSharedRefIK14__CFDictionaryEE
|| __TEXT.__text __ZN11TraceModule11getPropertyENSt3__112basic_stringIcNS0_11char_traitsIcEENS0_9allocatorIcEEEES6_RS6_
|| __TEXT.__text __ZN11TraceModule11performWorkENS_5StateENSt3__110shared_ptrI11TraceResultEEN8dispatch5blockIU13block_pointerFvvEEES9_
|| __TEXT.__text __ZN11TraceModule11setPropertyENSt3__112basic_stringIcNS0_11char_traitsIcEENS0_9allocatorIcEEEES6_S6_NS0_10shared_ptrI11TraceResultEE
|| __TEXT.__text __ZN11TraceModule12exitLowPowerENSt3__110shared_ptrI11TraceResultEE
|| __TEXT.__text __ZN11TraceModule12stopInternalEN8dispatch5groupEN3ctu2cf11CFSharedRefIK14__CFDictionaryEE
|| __TEXT.__text __ZN11TraceModule13abortInternalEN8dispatch5groupEN3ctu2cf11CFSharedRefIK14__CFDictionaryEE
|| __TEXT.__text __ZN11TraceModule13enterLowPowerENSt3__110shared_ptrI11TraceResultEE
|| __TEXT.__text __ZN11TraceModule13startInternalEN8dispatch5groupEN3ctu2cf11CFSharedRefIK14__CFDictionaryEE
|| __TEXT.__text __ZN11TraceModule13stateAsStringENS_5StateE
|| __TEXT.__text __ZN11TraceModule15prepareInternalEN8dispatch5groupEN3ctu2cf11CFSharedRefIK14__CFDictionaryEE
|| __TEXT.__text __ZN11TraceModule16addTraceToManageERKNSt3__112basic_stringIcNS0_11char_traitsIcEENS0_9allocatorIcEEEENS0_10shared_ptrI5TraceEE
|| __TEXT.__text __ZN11TraceModule16shutdownInternalEN8dispatch5groupEN3ctu2cf11CFSharedRefIK14__CFDictionaryEE
|| __TEXT.__text __ZN11TraceModule16snapshotInternalEN8dispatch5groupEN3ctu2cf11CFSharedRefIK14__CFDictionaryEE
|| __TEXT.__text __ZN11TraceModule17commandResetModemE9ResetInfo
|| __TEXT.__text __ZN11TraceModule18setLastCrashReasonENSt3__112basic_stringIcNS0_11char_traitsIcEENS0_9allocatorIcEEEE
|| __TEXT.__text __ZN11TraceModule19collectBasebandLogsENSt3__110shared_ptrI11TraceResultEEN3ctu2cf11CFSharedRefIK14__CFDictionaryEE
|| __TEXT.__text __ZN11TraceModule19setPropertyInternalEN8dispatch5groupERKNSt3__112basic_stringIcNS2_11char_traitsIcEENS2_9allocatorIcEEEESA_SA_
|| __TEXT.__text __ZN11TraceModule20createLogFolderPathsEv
|| __TEXT.__text __ZN11TraceModule20exitLowPowerInternalEN8dispatch5groupE
|| __TEXT.__text __ZN11TraceModule21enterLowPowerInternalEN8dispatch5groupE
|| __TEXT.__text __ZN11TraceModule22createDumpingFile_syncEv
|| __TEXT.__text __ZN11TraceModule22removeDumpingFile_syncEi
|| __TEXT.__text __ZN11TraceModule4initEv
|| __TEXT.__text __ZN11TraceModule4stopENSt3__110shared_ptrI11TraceResultEEN3ctu2cf11CFSharedRefIK14__CFDictionaryEE
|| __TEXT.__text __ZN11TraceModule5abortENSt3__110shared_ptrI11TraceResultEEN3ctu2cf11CFSharedRefIK14__CFDictionaryEE
|| __TEXT.__text __ZN11TraceModule5flushENSt3__110shared_ptrI11TraceResultEE
|| __TEXT.__text __ZN11TraceModule5startENSt3__110shared_ptrI11TraceResultEEN3ctu2cf11CFSharedRefIK14__CFDictionaryEE
|| __TEXT.__text __ZN11TraceModule6createEv
|| __TEXT.__text __ZN11TraceModule7prepareENSt3__110shared_ptrI11TraceResultEEN3ctu2cf11CFSharedRefIK14__CFDictionaryEE
|| __TEXT.__text __ZN11TraceModule8shutdownENSt3__110shared_ptrI11TraceResultEE
|| __TEXT.__text __ZN11TraceModule9dumpStateEN8dispatch5groupENSt3__112basic_stringIcNS2_11char_traitsIcEENS2_9allocatorIcEEEE
|| __TEXT.__text __ZN11TraceModuleC1Ev
|| __TEXT.__text __ZN11TraceModuleC2Ev
|| __TEXT.__text __ZN11TraceModuleD0Ev
|| __TEXT.__text __ZN11TraceModuleD1Ev
|| __TEXT.__text __ZN11TraceModuleD2Ev
|| __TEXT.__text __ZN12BBLogTracker10getLastLogEj
|| __TEXT.__text __ZN12BBLogTracker5countEv
|| __TEXT.__text __ZN12BBLogTracker6addLogERKNSt3__112basic_stringIcNS0_11char_traitsIcEENS0_9allocatorIcEEEEN3abm6helper14SystemLogsModeES8_
|| __TEXT.__text __ZN12BBLogTracker6getLogERKNSt3__112basic_stringIcNS0_11char_traitsIcEENS0_9allocatorIcEEEE
|| __TEXT.__text __ZN12BBLogTracker9limitLogsEj
|| __TEXT.__text __ZN12Capabilities10isMaverickEv
|| __TEXT.__text __ZN12Capabilities10shouldBootEv
|| __TEXT.__text __ZN12Capabilities14getFusingStateENSt3__16vectorIhNS0_9allocatorIhEEEEj
|| __TEXT.__text __ZN12Capabilities14isETBSupportedEv
|| __TEXT.__text __ZN12Capabilities15getTUDebugFlagsEv
|| __TEXT.__text __ZN12Capabilities15isCoexSupportedEv
|| __TEXT.__text __ZN12Capabilities15shouldSetRegionEv
|| __TEXT.__text __ZN12Capabilities16getABMLogEnabledEv
|| __TEXT.__text __ZN12Capabilities16getABMLogHistoryEv
|| __TEXT.__text __ZN12Capabilities17getFusingStateStrEN3ctu29TelephonyUtilRadioFusingStateE
|| __TEXT.__text __ZN12Capabilities17getLogScratchPathEv
|| __TEXT.__text __ZN12Capabilities17shouldBlockResetsEv
|| __TEXT.__text __ZN12Capabilities18getLogSnapshotPathEv
|| __TEXT.__text __ZN12Capabilities21create_default_globalEv
|| __TEXT.__text __ZN12Capabilities22isRadioHealthSupportedEv
|| __TEXT.__text __ZN12Capabilities23getCPMSDebounceTimerSecEv
|| __TEXT.__text __ZN12Capabilities23getFileSystemForcedSyncEv
|| __TEXT.__text __ZN12Capabilities24isNetworkPolicySupportedEv
|| __TEXT.__text __ZN12Capabilities24shouldReleaseResetDetectEv
|| __TEXT.__text __ZN12Capabilities25isChargerDesenseSupportedEv
|| __TEXT.__text __ZN12Capabilities26isFieldTestConfigSupportedEv
|| __TEXT.__text __ZN12Capabilities26shouldPanicOnBasebandResetEv
|| __TEXT.__text __ZN12Capabilities27isCalibrationQuerySupportedEv
|| __TEXT.__text __ZN12Capabilities27isCoexGPSReportingSupportedEv
|| __TEXT.__text __ZN12Capabilities29isCPMSConnectedStateSupportedEv
|| __TEXT.__text __ZN12Capabilities32getFileSystemFlushTimeoutSecondsEv
|| __TEXT.__text __ZN12Capabilities33getBEDLogCollectionTimeoutSecondsEv
|| __TEXT.__text __ZN12Capabilities33getFileSystemFlushIntervalSecondsEv
|| __TEXT.__text __ZN12Capabilities39shouldTriggerCoreDumpOnSoftResetTimeoutEv
|| __TEXT.__text __ZN12Capabilities39shouldTriggerStackshotOnShutdownTimeoutEv
|| __TEXT.__text __ZN12Capabilities7isWatchEv
|| __TEXT.__text __ZN12CapabilitiesC1Ev
|| __TEXT.__text __ZN12CapabilitiesC2Ev
|| __TEXT.__text __ZN12PowerManager10initializeEv
|| __TEXT.__text __ZN12PowerManager20createPowerAssertionENSt3__112basic_stringIcNS0_11char_traitsIcEENS0_9allocatorIcEEEE
|| __TEXT.__text __ZN12PowerManager21releasePowerAssertionENSt3__112basic_stringIcNS0_11char_traitsIcEENS0_9allocatorIcEEEE
|| __TEXT.__text __ZN12PowerManager22registerForPowerEventsEN8dispatch5blockIU13block_pointerFv10PowerStateNS0_13group_sessionEEEE
|| __TEXT.__text __ZN12PowerManager6createENSt3__18weak_ptrI14ServiceManagerEE
|| __TEXT.__text __ZN12PowerManager8shutdownEv
|| __TEXT.__text __ZN12PowerManagerC1ENSt3__18weak_ptrI14ServiceManagerEE
|| __TEXT.__text __ZN12PowerManagerC2ENSt3__18weak_ptrI14ServiceManagerEE
|| __TEXT.__text __ZN12QMIXpcServer10disconnectEv
|| __TEXT.__text __ZN12QMIXpcServer15initialize_syncEv
|| __TEXT.__text __ZN12QMIXpcServer17loadMappings_syncERNSt3__13setI4QMuxNS0_4lessIS2_EENS0_9allocatorIS2_EEEE
|| __TEXT.__text __ZN12QMIXpcServer6createERNSt3__13setI4QMuxNS0_4lessIS2_EENS0_9allocatorIS2_EEEE
|| __TEXT.__text __ZN12QMIXpcServerC1ERNSt3__13setI4QMuxNS0_4lessIS2_EENS0_9allocatorIS2_EEEE
|| __TEXT.__text __ZN12QMIXpcServerC2ERNSt3__13setI4QMuxNS0_4lessIS2_EENS0_9allocatorIS2_EEEE
|| __TEXT.__text __ZN12QMIXpcServerD0Ev
|| __TEXT.__text __ZN12QMIXpcServerD1Ev
|| __TEXT.__text __ZN12QMIXpcServerD2Ev
|| __TEXT.__text __ZN12TraceManager10initializeEN8dispatch13group_sessionE
|| __TEXT.__text __ZN12TraceManager16collectLogs_syncEN3xpc4dictEN8dispatch5blockIU13block_pointerFviS1_EEE
|| __TEXT.__text __ZN12TraceManager20initTraceHelper_syncEv
|| __TEXT.__text __ZN12TraceManager20updateBasebandFWInfoEv
|| __TEXT.__text __ZN12TraceManager21runOnTraceHelper_syncEPKcjbN3xpc4dictEN8dispatch13group_sessionENS4_8callbackIU13block_pointerFvN12TelephonyXPC6ResultES3_EEE
|| __TEXT.__text __ZN12TraceManager24collectBasebandLogs_syncEN3xpc4dictEN8dispatch5blockIU13block_pointerFviS1_EEE
|| __TEXT.__text __ZN12TraceManager25finishInitialization_syncEv
|| __TEXT.__text __ZN12TraceManager28setupDumpLogsIndication_syncEv
|| __TEXT.__text __ZN12TraceManager29handleDumpLogsIndication_syncEN3ctu2cf11CFSharedRefIK14__CFDictionaryEE
|| __TEXT.__text __ZN12TraceManager4initEv
|| __TEXT.__text __ZN12TraceManager4wakeEN8dispatch13group_sessionE
|| __TEXT.__text __ZN12TraceManager5sleepEN8dispatch13group_sessionE
|| __TEXT.__text __ZN12TraceManager5startEN8dispatch13group_sessionE
|| __TEXT.__text __ZN12TraceManager6createENSt3__18weak_ptrI14ServiceManagerEE
|| __TEXT.__text __ZN12TraceManager8shutdownE13ShutdownStageN8dispatch13group_sessionE
|| __TEXT.__text __ZN12TraceManagerC1ENSt3__18weak_ptrI14ServiceManagerEE
|| __TEXT.__text __ZN12TraceManagerC2ENSt3__18weak_ptrI14ServiceManagerEE
|| __TEXT.__text __ZN12TraceManagerD0Ev
|| __TEXT.__text __ZN12TraceManagerD1Ev
|| __TEXT.__text __ZN12TraceManagerD2Ev
|| __TEXT.__text __ZN13AntennaModule10initializeEN8dispatch13group_sessionE
|| __TEXT.__text __ZN13AntennaModule14hardResetModemERKN3xpc4dictE
|| __TEXT.__text __ZN13AntennaModule15processCallbackERKN3xpc4dictE
|| __TEXT.__text __ZN13AntennaModule16setProperty_syncERKN3xpc4dictE
|| __TEXT.__text __ZN13AntennaModule18initializePropertyEv
|| __TEXT.__text __ZN13AntennaModule19reportTransmitStateERKN3xpc4dictE
|| __TEXT.__text __ZN13AntennaModule20createPowerAssertionEv
|| __TEXT.__text __ZN13AntennaModule21releasePowerAssertionEv
|| __TEXT.__text __ZN13AntennaModule23initializeProperty_syncERKNSt3__112basic_stringIcNS0_11char_traitsIcEENS0_9allocatorIcEEEE
|| __TEXT.__text __ZN13AntennaModule25finishInitialization_syncEv
|| __TEXT.__text __ZN13AntennaModule4initEv
|| __TEXT.__text __ZN13AntennaModule4wakeEN8dispatch13group_sessionE
|| __TEXT.__text __ZN13AntennaModule5sleepEN8dispatch13group_sessionE
|| __TEXT.__text __ZN13AntennaModule5startEN8dispatch13group_sessionE
|| __TEXT.__text __ZN13AntennaModule6createENSt3__18weak_ptrI14ServiceManagerEE
|| __TEXT.__text __ZN13AntennaModule8shutdownE13ShutdownStageN8dispatch13group_sessionE
|| __TEXT.__text __ZN13AntennaModuleC1ENSt3__18weak_ptrI14ServiceManagerEEN8dispatch8workloopE
|| __TEXT.__text __ZN13AntennaModuleC2ENSt3__18weak_ptrI14ServiceManagerEEN8dispatch8workloopE
|| __TEXT.__text __ZN13AntennaModuleD0Ev
|| __TEXT.__text __ZN13AntennaModuleD1Ev
|| __TEXT.__text __ZN13AntennaModuleD2Ev
|| __TEXT.__text __ZN13DriverFactory10initializeEN8dispatch13group_sessionE
|| __TEXT.__text __ZN13DriverFactory13weakRFSDriverEv
|| __TEXT.__text __ZN13DriverFactory15createAwdDriverEv
|| __TEXT.__text __ZN13DriverFactory15createRFSDriverEv
|| __TEXT.__text __ZN13DriverFactory15weakRadioDriverEv
|| __TEXT.__text __ZN13DriverFactory16createCPMSDriverEv
|| __TEXT.__text __ZN13DriverFactory16createCoexDriverEv
|| __TEXT.__text __ZN13DriverFactory16getRadioWorkloopEv
|| __TEXT.__text __ZN13DriverFactory17createRadioDriverEN8dispatch8workloopE
|| __TEXT.__text __ZN13DriverFactory18createHealthDriverENSt3__16vectorIjNS0_9allocatorIjEEEE
|| __TEXT.__text __ZN13DriverFactory19createAntennaDriverEN8dispatch8workloopE
|| __TEXT.__text __ZN13DriverFactory22createLogCommandDriverEN8dispatch8callbackIU13block_pointerFvN4logs15CollectionStateEEEENS1_IU13block_pointerFvNSt3__110shared_ptrINS7_6vectorIhNS7_9allocatorIhEEEEEEbEEEN3ctu2cf11CFSharedRefIK14__CFDictionaryEENS7_12basic_stringIcNS7_11char_traitsIcEENSA_IcEEEE
|| __TEXT.__text __ZN13DriverFactory5startEN8dispatch13group_sessionE
|| __TEXT.__text __ZN13DriverFactory6createENSt3__18weak_ptrI14ServiceManagerEE
|| __TEXT.__text __ZN13DriverFactory8shutdownE13ShutdownStageN8dispatch13group_sessionE
|| __TEXT.__text __ZN13DriverFactoryC1ENSt3__18weak_ptrI14ServiceManagerEE
|| __TEXT.__text __ZN13DriverFactoryC2ENSt3__18weak_ptrI14ServiceManagerEE
|| __TEXT.__text __ZN13ServerLogging13snapshot_syncEN3ctu2cf11CFSharedRefIK14__CFDictionaryEE
|| __TEXT.__text __ZN13ServerLogging17registerLogServerENSt3__110shared_ptrIN3ctu9LogServerEEE
|| __TEXT.__text __ZN13ServerLogging18backupFolders_syncERKNSt3__112basic_stringIcNS0_11char_traitsIcEENS0_9allocatorIcEEEES8_
|| __TEXT.__text __ZN13ServerLogging24clearScratchFolders_syncEv
|| __TEXT.__text __ZN13ServerLogging24monitorSnapshotPath_syncEv
|| __TEXT.__text __ZN13ServerLogging4initEv
|| __TEXT.__text __ZN13ServerLogging8snapshotEN3ctu2cf11CFSharedRefIK14__CFDictionaryEE
|| __TEXT.__text __ZN13ServerLogging9init_syncEv
|| __TEXT.__text __ZN13ServerLoggingC1ERKNSt3__112basic_stringIcNS0_11char_traitsIcEENS0_9allocatorIcEEEES8_
|| __TEXT.__text __ZN13ServerLoggingC2ERKNSt3__112basic_stringIcNS0_11char_traitsIcEENS0_9allocatorIcEEEES8_
|| __TEXT.__text __ZN13ServerLoggingD1Ev
|| __TEXT.__text __ZN13ServerLoggingD2Ev
|| __TEXT.__text __ZN14BootController10resetModemEv
|| __TEXT.__text __ZN14BootController13powerOffModemEv
|| __TEXT.__text __ZN14BootController15getManagerStateER12ManagerState
|| __TEXT.__text __ZN14BootController15powerCycleModemEv
|| __TEXT.__text __ZN14BootController15setManagerStateE12ManagerState
|| __TEXT.__text __ZN14BootController25markNonvolatileDataErasedEv
|| __TEXT.__text __ZN14BootController7prepareERNSt3__112basic_stringIcNS0_11char_traitsIcEENS0_9allocatorIcEEEE
|| __TEXT.__text __ZN14BootControllerC2Ev
|| __TEXT.__text __ZN14EmptyLogWriter5closeEv
|| __TEXT.__text __ZN14EmptyLogWriter5writeENSt3__110shared_ptrIN3ctu10LogMessageEEE
|| __TEXT.__text __ZN14EmptyLogWriterC1Ev
|| __TEXT.__text __ZN14EmptyLogWriterC2Ev
|| __TEXT.__text __ZN14ResetDetection16addToBlocks_syncENSt3__112basic_stringIcNS0_11char_traitsIcEENS0_9allocatorIcEEEEN8dispatch5blockIU13block_pointerFviEEERNS0_3mapIS6_NS0_4pairIP17dispatch_source_sSB_EENS0_4lessIS6_EENS4_INSD_IKS6_SG_EEEEEEy
|| __TEXT.__text __ZN14ResetDetection16invokeBlock_syncERNSt3__14pairIKNS0_12basic_stringIcNS0_11char_traitsIcEENS0_9allocatorIcEEEENS1_IP17dispatch_source_sN8dispatch5blockIU13block_pointerFviEEEEEEEi
|| __TEXT.__text __ZN14ResetDetection19resetDetectCallbackEPvjjS0_
|| __TEXT.__text __ZN14ResetDetection20sResetDetectCallbackEPvjjS0_
|| __TEXT.__text __ZN14ResetDetection28notifyResetDetectBlocks_syncERNSt3__13mapINS0_12basic_stringIcNS0_11char_traitsIcEENS0_9allocatorIcEEEENS0_4pairIP17dispatch_source_sN8dispatch5blockIU13block_pointerFviEEEEENS0_4lessIS7_EENS5_INS8_IKS7_SG_EEEEEE
|| __TEXT.__text __ZN14ResetDetection3addENSt3__112basic_stringIcNS0_11char_traitsIcEENS0_9allocatorIcEEEEbN8dispatch5blockIU13block_pointerFviEEEy
|| __TEXT.__text __ZN14ResetDetection5startEv
|| __TEXT.__text __ZN14ResetDetection6createEN8dispatch5queueENSt3__110shared_ptrIN3ctu9LogServerEEEP11__CFRunLoop
|| __TEXT.__text __ZN14ResetDetectionC1EN8dispatch5queueENSt3__110shared_ptrIN3ctu9LogServerEEEP11__CFRunLoop
|| __TEXT.__text __ZN14ResetDetectionC2EN8dispatch5queueENSt3__110shared_ptrIN3ctu9LogServerEEEP11__CFRunLoop
|| __TEXT.__text __ZN14ResetDetectionD0Ev
|| __TEXT.__text __ZN14ResetDetectionD1Ev
|| __TEXT.__text __ZN14ResetDetectionD2Ev
|| __TEXT.__text __ZN14ServiceManager20createPowerAssertionENSt3__112basic_stringIcNS0_11char_traitsIcEENS0_9allocatorIcEEEE
|| __TEXT.__text __ZN14ServiceManager21releasePowerAssertionENSt3__112basic_stringIcNS0_11char_traitsIcEENS0_9allocatorIcEEEE
|| __TEXT.__text __ZN14ServiceManager22shutdownGlobalServicesEv
|| __TEXT.__text __ZN14ServiceManager23registerEventDispatcherEN8dispatch5blockIU13block_pointerFvNSt3__112basic_stringIcNS2_11char_traitsIcEENS2_9allocatorIcEEEEN3ctu2cf11CFSharedRefIK14__CFDictionaryEENS1_IU13block_pointerFvvEEEEEE
|| __TEXT.__text __ZN14ServiceManager23shutdownDynamicServicesEv
|| __TEXT.__text __ZN14ServiceManager24initializeGlobalServicesEv
|| __TEXT.__text __ZN14ServiceManager25initializeDynamicServicesEv
|| __TEXT.__text __ZN14ServiceManager4initENSt3__110shared_ptrI14PowerInterfaceEE
|| __TEXT.__text __ZN14ServiceManager4wakeEN8dispatch13group_sessionE
|| __TEXT.__text __ZN14ServiceManager5sleepEN8dispatch13group_sessionE
|| __TEXT.__text __ZN14ServiceManagerC2EPKc
|| __TEXT.__text __ZN14ServiceManagerD0Ev
|| __TEXT.__text __ZN14ServiceManagerD1Ev
|| __TEXT.__text __ZN14ServiceManagerD2Ev
|| __TEXT.__text __ZN15RouterIPCDriver12exitLowPowerEv
|| __TEXT.__text __ZN15RouterIPCDriver13enterLowPowerEv
|| __TEXT.__text __ZN15RouterIPCDriver16configureLogSizeEj
|| __TEXT.__text __ZN15RouterIPCDriver19getFatalErrorReasonEv
|| __TEXT.__text __ZN15RouterIPCDriver20triggerFatalError_nlEPKc
|| __TEXT.__text __ZN15RouterIPCDriver21hasFatalErrorOccurredEv
|| __TEXT.__text __ZN15RouterIPCDriver22getFatalErrorReason_nlEv
|| __TEXT.__text __ZN15RouterIPCDriver24hasFatalErrorOccurred_nlEv
|| __TEXT.__text __ZN15RouterIPCDriver5flushEv
|| __TEXT.__text __ZN15RouterIPCDriver6engageEv
|| __TEXT.__text __ZN15RouterIPCDriver7getTimeERjS0_
|| __TEXT.__text __ZN15RouterIPCDriver7recoverEv
|| __TEXT.__text __ZN15RouterIPCDriver8snapshotENSt3__112basic_stringIcNS0_11char_traitsIcEENS0_9allocatorIcEEEE
|| __TEXT.__text __ZN15RouterIPCDriver8tearDownEv
|| __TEXT.__text __ZN15RouterIPCDriver9disengageEv
|| __TEXT.__text __ZN15RouterIPCDriverC2ENSt3__18weak_ptrI16ATCSResetInvokerEENS0_10shared_ptrIN3ctu9LogServerEEENS0_12basic_stringIcNS0_11char_traitsIcEENS0_9allocatorIcEEEE
|| __TEXT.__text __ZN15RouterIPCDriverD0Ev
|| __TEXT.__text __ZN15RouterIPCDriverD1Ev
|| __TEXT.__text __ZN15RouterIPCDriverD2Ev
|| __TEXT.__text __ZN15TransportModule10initializeEN8dispatch13group_sessionE
|| __TEXT.__text __ZN15TransportModule20claimSystemWake_syncEv
|| __TEXT.__text __ZN15TransportModule25finishInitialization_syncEv
|| __TEXT.__text __ZN15TransportModule28configureDataThrottling_syncEN3xpc4dictES1_
|| __TEXT.__text __ZN15TransportModule4initEv
|| __TEXT.__text __ZN15TransportModule4wakeEN8dispatch13group_sessionE
|| __TEXT.__text __ZN15TransportModule5sleepEN8dispatch13group_sessionE
|| __TEXT.__text __ZN15TransportModule5startEN8dispatch13group_sessionE
|| __TEXT.__text __ZN15TransportModule6createENSt3__18weak_ptrI14ServiceManagerEE
|| __TEXT.__text __ZN15TransportModule8shutdownE13ShutdownStageN8dispatch13group_sessionE
|| __TEXT.__text __ZN15TransportModuleC1ENSt3__18weak_ptrI14ServiceManagerEE
|| __TEXT.__text __ZN15TransportModuleC2ENSt3__18weak_ptrI14ServiceManagerEE
|| __TEXT.__text __ZN15TransportModuleD0Ev
|| __TEXT.__text __ZN15TransportModuleD1Ev
|| __TEXT.__text __ZN15TransportModuleD2Ev
|| __TEXT.__text __ZN16NetworkingModule10initializeEN8dispatch13group_sessionE
|| __TEXT.__text __ZN16NetworkingModule18sendVisitInfo_syncEjj
|| __TEXT.__text __ZN16NetworkingModule24applyLQMAbortPolicy_syncEv
|| __TEXT.__text __ZN16NetworkingModule25finishInitialization_syncEv
|| __TEXT.__text __ZN16NetworkingModule4initEv
|| __TEXT.__text __ZN16NetworkingModule6createENSt3__18weak_ptrI14ServiceManagerEE
|| __TEXT.__text __ZN16NetworkingModule8shutdownEN8dispatch13group_sessionE
|| __TEXT.__text __ZN16NetworkingModuleC1ENSt3__18weak_ptrI14ServiceManagerEE
|| __TEXT.__text __ZN16NetworkingModuleC2ENSt3__18weak_ptrI14ServiceManagerEE
|| __TEXT.__text __ZN16NetworkingModuleD0Ev
|| __TEXT.__text __ZN16NetworkingModuleD1Ev
|| __TEXT.__text __ZN16NetworkingModuleD2Ev
|| __TEXT.__text __ZN16TransportService6createENSt3__110shared_ptrIN3ctu9LogServerEEENS1_I20AppleBasebandManagerEENS0_8weak_ptrI15TransportModuleEE
|| __TEXT.__text __ZN17ABMServerInternal10getRunLoopEv
|| __TEXT.__text __ZN17ABMServerInternal10start_syncEN8dispatch13group_sessionE
|| __TEXT.__text __ZN17ABMServerInternal12unicast_syncEN3xpc10connectionENSt3__112basic_stringIcNS2_11char_traitsIcEENS2_9allocatorIcEEEEN3ctu2cf11CFSharedRefIK14__CFDictionaryEEN8dispatch5blockIU13block_pointerFvvEEE
|| __TEXT.__text __ZN17ABMServerInternal13getState_syncEv
|| __TEXT.__text __ZN17ABMServerInternal13shutdown_syncEN8dispatch13group_sessionE
|| __TEXT.__text __ZN17ABMServerInternal14broadcast_syncENSt3__112basic_stringIcNS0_11char_traitsIcEENS0_9allocatorIcEEEEN3ctu2cf11CFSharedRefIK14__CFDictionaryEEN8dispatch5blockIU13block_pointerFvvEEE
|| __TEXT.__text __ZN17ABMServerInternal15finishStop_syncEv
|| __TEXT.__text __ZN17ABMServerInternal16changeState_syncE11ServerState
|| __TEXT.__text __ZN17ABMServerInternal16stopRunLoop_syncEv
|| __TEXT.__text __ZN17ABMServerInternal17startRunLoop_syncEv
|| __TEXT.__text __ZN17ABMServerInternal18checkShutdown_syncEN8dispatch13group_sessionE
|| __TEXT.__text __ZN17ABMServerInternal18handleMessage_syncEN3xpc10connectionENS0_4dictE
|| __TEXT.__text __ZN17ABMServerInternal19finishShutdown_syncEv
|| __TEXT.__text __ZN17ABMServerInternal19getClientState_syncEN3xpc10connectionE
|| __TEXT.__text __ZN17ABMServerInternal20handleNewClient_syncEN3xpc10connectionE
|| __TEXT.__text __ZN17ABMServerInternal20registerNotificationEN3xpc10connectionEbN3ctu2cf11CFSharedRefIK9__CFArrayEE
|| __TEXT.__text __ZN17ABMServerInternal22handleClientError_syncEN3xpc10connectionENS0_6objectE
|| __TEXT.__text __ZN17ABMServerInternal22handleServerError_syncEN3xpc6objectE
|| __TEXT.__text __ZN17ABMServerInternal24handlePublicMessage_syncEN3xpc10connectionERNS0_4dictE
|| __TEXT.__text __ZN17ABMServerInternal25broadcastServerState_syncENSt3__112basic_stringIcNS0_11char_traitsIcEENS0_9allocatorIcEEEE
|| __TEXT.__text __ZN17ABMServerInternal26handleInternalMessage_syncEN3xpc10connectionERNS0_4dictE
|| __TEXT.__text __ZN17ABMServerInternal4initENSt3__112basic_stringIcNS0_11char_traitsIcEENS0_9allocatorIcEEEENS0_10shared_ptrI14ServiceManagerEE
|| __TEXT.__text __ZN17ABMServerInternal4stopEP16dispatch_group_s
|| __TEXT.__text __ZN17ABMServerInternal5startEP16dispatch_group_s
|| __TEXT.__text __ZN17ABMServerInternal6createEv
|| __TEXT.__text __ZN17ABMServerInternal8shutdownEP16dispatch_group_s
|| __TEXT.__text __ZN17ABMServerInternal9broadcastENSt3__112basic_stringIcNS0_11char_traitsIcEENS0_9allocatorIcEEEEN3ctu2cf11CFSharedRefIK14__CFDictionaryEEN8dispatch5blockIU13block_pointerFvvEEE
|| __TEXT.__text __ZN17ABMServerInternal9stop_syncEN8dispatch13group_sessionE
|| __TEXT.__text __ZN17ABMServerInternalC1Ev
|| __TEXT.__text __ZN17ABMServerInternalC2Ev
|| __TEXT.__text __ZN17ABMServerInternalD0Ev
|| __TEXT.__text __ZN17ABMServerInternalD1Ev
|| __TEXT.__text __ZN17ABMServerInternalD2Ev
|| __TEXT.__text __ZN17ABMServiceManager17getInitTimeoutSecEv
|| __TEXT.__text __ZN17ABMServiceManager18getSleepTimeoutSecEv
|| __TEXT.__text __ZN17ABMServiceManager18getStartTimeoutSecEv
|| __TEXT.__text __ZN17ABMServiceManager21getShutdownTimeoutSecE13ShutdownStage
|| __TEXT.__text __ZN17ABMServiceManager22registerGlobalServicesEv
|| __TEXT.__text __ZN17ABMServiceManager23registerDynamicServicesEv
|| __TEXT.__text __ZN17ABMServiceManager28getDefaultShutdownTimeoutSecEv
|| __TEXT.__text __ZN17ABMServiceManager4initEv
|| __TEXT.__text __ZN17ABMServiceManager6createEv
|| __TEXT.__text __ZN17ABMServiceManagerC1Ev
|| __TEXT.__text __ZN17ABMServiceManagerC2Ev
|| __TEXT.__text __ZN17BasebandTransport10Parameters8toStringEv
|| __TEXT.__text __ZN17BasebandTransport10close_syncEv
|| __TEXT.__text __ZN17BasebandTransport10stopReaderEv
|| __TEXT.__text __ZN17BasebandTransport12openPCI_syncEv
|| __TEXT.__text __ZN17BasebandTransport12reportStatusEjN8dispatch5blockIU13block_pointerFvNS_6StatusEEEE
|| __TEXT.__text __ZN17BasebandTransport12timerOn_syncEv
|| __TEXT.__text __ZN17BasebandTransport13openHSIC_syncEv
|| __TEXT.__text __ZN17BasebandTransport13timerOff_syncEv
|| __TEXT.__text __ZN17BasebandTransport14queueRead_syncEv
|| __TEXT.__text __ZN17BasebandTransport15switchDIAG_syncEv
|| __TEXT.__text __ZN17BasebandTransport16startReader_syncEv
|| __TEXT.__text __ZN17BasebandTransport17updateDeltas_syncEv
|| __TEXT.__text __ZN17BasebandTransport4initEv
|| __TEXT.__text __ZN17BasebandTransport4openENS_10ParametersEN8dispatch5blockIU13block_pointerFvPhjEEE
|| __TEXT.__text __ZN17BasebandTransport4readEPhmPjbj
|| __TEXT.__text __ZN17BasebandTransport5closeEv
|| __TEXT.__text __ZN17BasebandTransport5writeEPKhmPjbj
|| __TEXT.__text __ZN17BasebandTransport6Status4initEv
|| __TEXT.__text __ZN17BasebandTransport6Status8toStringEv
|| __TEXT.__text __ZN17BasebandTransport6StatusC1Ev
|| __TEXT.__text __ZN17BasebandTransport6StatusC2Ev
|| __TEXT.__text __ZN17BasebandTransport6createENSt3__110shared_ptrIN3ctu9LogServerEEEN8dispatch5queueE
|| __TEXT.__text __ZN17BasebandTransport7getNameEv
|| __TEXT.__text __ZN17BasebandTransport8asStringENS_5StateE
|| __TEXT.__text __ZN17BasebandTransport8asStringENS_8ProtocolE
|| __TEXT.__text __ZN17BasebandTransport9dumpStateEb
|| __TEXT.__text __ZN17BasebandTransport9getStatusEv
|| __TEXT.__text __ZN17BasebandTransport9read_syncEN8dispatch13group_sessionE
|| __TEXT.__text __ZN17BasebandTransportC1ENSt3__110shared_ptrIN3ctu9LogServerEEEN8dispatch5queueE
|| __TEXT.__text __ZN17BasebandTransportC2ENSt3__110shared_ptrIN3ctu9LogServerEEEN8dispatch5queueE
|| __TEXT.__text __ZN17BasebandTransportD0Ev
|| __TEXT.__text __ZN17BasebandTransportD1Ev
|| __TEXT.__text __ZN17BasebandTransportD2Ev
|| __TEXT.__text __ZN17BasebandTransportdeEv
|| __TEXT.__text __ZN17ServerClientState12setCheckedInERKNSt3__112basic_stringIcNS0_11char_traitsIcEENS0_9allocatorIcEEEE
|| __TEXT.__text __ZN17ServerClientState25registerNotification_syncEbN3ctu2cf11CFSharedRefIK9__CFArrayEE
|| __TEXT.__text __ZN17ServerClientState29isNotificationRegistered_syncERKNSt3__112basic_stringIcNS0_11char_traitsIcEENS0_9allocatorIcEEEE
|| __TEXT.__text __ZN17ServerClientStateC1ERKNSt3__112basic_stringIcNS0_11char_traitsIcEENS0_9allocatorIcEEEE
|| __TEXT.__text __ZN17ServerClientStateC1Ev
|| __TEXT.__text __ZN17ServerClientStateC2ERKNSt3__112basic_stringIcNS0_11char_traitsIcEENS0_9allocatorIcEEEE
|| __TEXT.__text __ZN17ServerClientStateC2Ev
|| __TEXT.__text __ZN17WorkLoopIPCDriver10assignWorkEPNS_4WorkE
|| __TEXT.__text __ZN17WorkLoopIPCDriver12completeWorkEPNS_4WorkEb
|| __TEXT.__text __ZN17WorkLoopIPCDriver16processWorkQueueEPv
|| __TEXT.__text __ZN17WorkLoopIPCDriverC2Ev
|| __TEXT.__text __ZN17WorkLoopIPCDriverD0Ev
|| __TEXT.__text __ZN17WorkLoopIPCDriverD1Ev
|| __TEXT.__text __ZN17WorkLoopIPCDriverD2Ev
|| __TEXT.__text __ZN18DataStallDetection11setCallbackEN8dispatch8callbackIU13block_pointerFvNSt3__112basic_stringIcNS2_11char_traitsIcEENS2_9allocatorIcEEEEEEE
|| __TEXT.__text __ZN18DataStallDetection5startEv
|| __TEXT.__text __ZN18DataStallDetection6createENSt3__110shared_ptrIN3ctu9LogServerEEE
|| __TEXT.__text __ZN18DataStallDetectionC1ENSt3__110shared_ptrIN3ctu9LogServerEEE
|| __TEXT.__text __ZN18DataStallDetectionC2ENSt3__110shared_ptrIN3ctu9LogServerEEE
|| __TEXT.__text __ZN18DataStallDetectionD0Ev
|| __TEXT.__text __ZN18DataStallDetectionD1Ev
|| __TEXT.__text __ZN18DataStallDetectionD2Ev
|| __TEXT.__text __ZN18EURRouterIPCDriver10workEngageEv
|| __TEXT.__text __ZN18EURRouterIPCDriver11processWorkEPN17WorkLoopIPCDriver4WorkE
|| __TEXT.__text __ZN18EURRouterIPCDriver11workRecoverEv
|| __TEXT.__text __ZN18EURRouterIPCDriver12workTearDownEv
|| __TEXT.__text __ZN18EURRouterIPCDriver16workExitLowPowerEv
|| __TEXT.__text __ZN18EURRouterIPCDriver17workEnterLowPowerEv
|| __TEXT.__text __ZN18EURRouterIPCDriver18createQMuxChannelsERKNSt3__112basic_stringIcNS0_11char_traitsIcEENS0_9allocatorIcEEEEbb
|| __TEXT.__text __ZN18EURRouterIPCDriver19changeStateInternalENS_5StateE
|| __TEXT.__text __ZN18EURRouterIPCDriver19handleInternalErrorEPKc
|| __TEXT.__text __ZN18EURRouterIPCDriver19stopWorkersInternalEv
|| __TEXT.__text __ZN18EURRouterIPCDriver20startWorkersInternalEv
|| __TEXT.__text __ZN18EURRouterIPCDriver22prepareWorkersInternalEv
|| __TEXT.__text __ZN18EURRouterIPCDriver4initEv
|| __TEXT.__text __ZN18EURRouterIPCDriver6createENSt3__18weak_ptrI16ATCSResetInvokerEE
|| __TEXT.__text __ZN18EURRouterIPCDriver7EURWorkC1EjPN17WorkLoopIPCDriver12WorkCallbackEPv
|| __TEXT.__text __ZN18EURRouterIPCDriver7EURWorkC2EjPN17WorkLoopIPCDriver12WorkCallbackEPv
|| __TEXT.__text __ZN18EURRouterIPCDriver8activateEv
|| __TEXT.__text __ZN18EURRouterIPCDriverC1ENSt3__18weak_ptrI16ATCSResetInvokerEE
|| __TEXT.__text __ZN18EURRouterIPCDriverC2ENSt3__18weak_ptrI16ATCSResetInvokerEE
|| __TEXT.__text __ZN18EURRouterIPCDriverD0Ev
|| __TEXT.__text __ZN18EURRouterIPCDriverD1Ev
|| __TEXT.__text __ZN18EURRouterIPCDriverD2Ev
|| __TEXT.__text __ZN19QMITransportService12enableBypassEb
|| __TEXT.__text __ZN19QMITransportService12exitLowPowerEN8dispatch13group_sessionE
|| __TEXT.__text __ZN19QMITransportService13enterLowPowerEN8dispatch13group_sessionE
|| __TEXT.__text __ZN19QMITransportService13shutdown_syncEv
|| __TEXT.__text __ZN19QMITransportService18getWakeReason_syncEj
|| __TEXT.__text __ZN19QMITransportService20configureHistorySizeEj
|| __TEXT.__text __ZN19QMITransportService21registerForWakeReasonEN8dispatch8callbackIU13block_pointerFv10WakeReasonEEE
|| __TEXT.__text __ZN19QMITransportService21updateWakeReason_syncEv
|| __TEXT.__text __ZN19QMITransportService22cancelWakeRequest_syncEv
|| __TEXT.__text __ZN19QMITransportService25shouldTeardownOnWillResetEv
|| __TEXT.__text __ZN19QMITransportService28reportPowerDownMessages_syncEv
|| __TEXT.__text __ZN19QMITransportService4initEv
|| __TEXT.__text __ZN19QMITransportService6engageEv
|| __TEXT.__text __ZN19QMITransportService7recoverEv
|| __TEXT.__text __ZN19QMITransportService8shutdownEv
|| __TEXT.__text __ZN19QMITransportService8snapshotENSt3__112basic_stringIcNS0_11char_traitsIcEENS0_9allocatorIcEEEE
|| __TEXT.__text __ZN19QMITransportService8tearDownEv
|| __TEXT.__text __ZN19QMITransportService9dumpStateEv
|| __TEXT.__text __ZN19QMITransportServiceC1ENSt3__110shared_ptrIN3ctu9LogServerEEENS1_I20AppleBasebandManagerEENS0_8weak_ptrI15TransportModuleEE
|| __TEXT.__text __ZN19QMITransportServiceC2ENSt3__110shared_ptrIN3ctu9LogServerEEENS1_I20AppleBasebandManagerEENS0_8weak_ptrI15TransportModuleEE
|| __TEXT.__text __ZN19QMITransportServiceD0Ev
|| __TEXT.__text __ZN19QMITransportServiceD1Ev
|| __TEXT.__text __ZN19QMITransportServiceD2Ev
|| __TEXT.__text __ZN20BasebandTransportMAV15switchDIAG_syncEv
|| __TEXT.__text __ZN20BasebandTransportMAVC1ENSt3__110shared_ptrIN3ctu9LogServerEEEN8dispatch5queueE
|| __TEXT.__text __ZN20BasebandTransportMAVC2ENSt3__110shared_ptrIN3ctu9LogServerEEEN8dispatch5queueE
|| __TEXT.__text __ZN20BasebandTransportMAVD0Ev
|| __TEXT.__text __ZN20BasebandTransportMAVD1Ev
|| __TEXT.__text __ZN20BasebandTransportMAVD2Ev
|| __TEXT.__text __ZN21CircularFileLogWriter10clear_syncEv
|| __TEXT.__text __ZN21CircularFileLogWriter10close_syncEv
|| __TEXT.__text __ZN21CircularFileLogWriter10write_syncENSt3__110shared_ptrIN3ctu10LogMessageEEE
|| __TEXT.__text __ZN21CircularFileLogWriter10write_syncEPKcm
|| __TEXT.__text __ZN21CircularFileLogWriter11setCapacityEm
|| __TEXT.__text __ZN21CircularFileLogWriter15openNewLog_syncEv
|| __TEXT.__text __ZN21CircularFileLogWriter17clearOldLogs_syncEv
|| __TEXT.__text __ZN21CircularFileLogWriter17getFileIndex_syncERjS0_
|| __TEXT.__text __ZN21CircularFileLogWriter20closeRunningLog_syncEv
|| __TEXT.__text __ZN21CircularFileLogWriter4openEv
|| __TEXT.__text __ZN21CircularFileLogWriter5clearEv
|| __TEXT.__text __ZN21CircularFileLogWriter5closeEv
|| __TEXT.__text __ZN21CircularFileLogWriter5writeENSt3__110shared_ptrIN3ctu10LogMessageEEE
|| __TEXT.__text __ZN21CircularFileLogWriter5writeEPKcm
|| __TEXT.__text __ZN21CircularFileLogWriter6createERKNS_6ParamsE
|| __TEXT.__text __ZN21CircularFileLogWriterC1ERKNS_6ParamsE
|| __TEXT.__text __ZN21CircularFileLogWriterC2ERKNS_6ParamsE
|| __TEXT.__text __ZN21NetworkStatsInterface5queryEv
|| __TEXT.__text __ZN21NetworkStatsInterface6createENSt3__110shared_ptrIN3ctu9LogServerEEE
|| __TEXT.__text __ZN21NetworkStatsInterfaceC1ENSt3__110shared_ptrIN3ctu9LogServerEEE
|| __TEXT.__text __ZN21NetworkStatsInterfaceC2ENSt3__110shared_ptrIN3ctu9LogServerEEE
|| __TEXT.__text __ZN23FlashlessBootController10sHandleLogEPviPKc
|| __TEXT.__text __ZN23FlashlessBootController11handleErrorEP9__CFError
|| __TEXT.__text __ZN23FlashlessBootController11printOutputEPK14__CFDictionary
|| __TEXT.__text __ZN23FlashlessBootController7prepareERNSt3__112basic_stringIcNS0_11char_traitsIcEENS0_9allocatorIcEEEE
|| __TEXT.__text __ZN23FlashlessBootController9bootModemERNSt3__112basic_stringIcNS0_11char_traitsIcEENS0_9allocatorIcEEEE
|| __TEXT.__text __ZN23FlashlessBootController9handleLogEiPKc
|| __TEXT.__text __ZN23FlashlessBootControllerC1Ev
|| __TEXT.__text __ZN23FlashlessBootControllerC2Ev
|| __TEXT.__text __ZN3abm15ParseWakeDataIPEN3xpc4dictERS1_
|| __TEXT.__text __ZN3abm19ParseWakeDataEurekaEN3xpc4dictERS1_
|| __TEXT.__text __ZN3abm22AWDHelperGetConnectionEv
|| __TEXT.__text __ZN3abm22AWDHelperSetConnectionENSt3__110shared_ptrIN3awd19AWDServerConnectionEEE
|| __TEXT.__text __ZN3abm5debug17registerLogServerENSt3__110shared_ptrIN3ctu9LogServerEEE
|| __TEXT.__text __ZN3abm5stats12typeAsStringENS0_7StatsIDE
|| __TEXT.__text __ZN3abm8asStringENS_11WorkoutTypeE
|| __TEXT.__text __ZN3abm8asStringENS_12SwimLocationE
|| __TEXT.__text __ZN3abm8asStringENS_12WorkoutStateE
|| __TEXT.__text __ZN3abm8asStringENS_15WorkoutLocationE
|| __TEXT.__text __ZN3awd7metrics15CrashReasonType10SharedCtorEv
|| __TEXT.__text __ZN3awd7metrics15CrashReasonType10SharedDtorEv
|| __TEXT.__text __ZN3awd7metrics15CrashReasonType16default_instanceEv
|| __TEXT.__text __ZN3awd7metrics15CrashReasonType21CheckTypeAndMergeFromERKN20wireless_diagnostics6google8protobuf11MessageLiteE
|| __TEXT.__text __ZN3awd7metrics15CrashReasonType21InitAsDefaultInstanceEv
|| __TEXT.__text __ZN3awd7metrics15CrashReasonType27MergePartialFromCodedStreamEPN20wireless_diagnostics6google8protobuf2io16CodedInputStreamE
|| __TEXT.__text __ZN3awd7metrics15CrashReasonType4SwapEPS1_
|| __TEXT.__text __ZN3awd7metrics15CrashReasonType5ClearEv
|| __TEXT.__text __ZN3awd7metrics15CrashReasonType8CopyFromERKS1_
|| __TEXT.__text __ZN3awd7metrics15CrashReasonType9MergeFromERKS1_
|| __TEXT.__text __ZN3awd7metrics15CrashReasonTypeC1ERKS1_
|| __TEXT.__text __ZN3awd7metrics15CrashReasonTypeC1Ev
|| __TEXT.__text __ZN3awd7metrics15CrashReasonTypeC2ERKS1_
|| __TEXT.__text __ZN3awd7metrics15CrashReasonTypeC2Ev
|| __TEXT.__text __ZN3awd7metrics15CrashReasonTypeD0Ev
|| __TEXT.__text __ZN3awd7metrics15CrashReasonTypeD1Ev
|| __TEXT.__text __ZN3awd7metrics15CrashReasonTypeD2Ev
|| __TEXT.__text __ZN3awd7metrics17CommCenterNVMSync10SharedCtorEv
|| __TEXT.__text __ZN3awd7metrics17CommCenterNVMSync10SharedDtorEv
|| __TEXT.__text __ZN3awd7metrics17CommCenterNVMSync16default_instanceEv
|| __TEXT.__text __ZN3awd7metrics17CommCenterNVMSync21CheckTypeAndMergeFromERKN20wireless_diagnostics6google8protobuf11MessageLiteE
|| __TEXT.__text __ZN3awd7metrics17CommCenterNVMSync21InitAsDefaultInstanceEv
|| __TEXT.__text __ZN3awd7metrics17CommCenterNVMSync27MergePartialFromCodedStreamEPN20wireless_diagnostics6google8protobuf2io16CodedInputStreamE
|| __TEXT.__text __ZN3awd7metrics17CommCenterNVMSync4SwapEPS1_
|| __TEXT.__text __ZN3awd7metrics17CommCenterNVMSync5ClearEv
|| __TEXT.__text __ZN3awd7metrics17CommCenterNVMSync8CopyFromERKS1_
|| __TEXT.__text __ZN3awd7metrics17CommCenterNVMSync9MergeFromERKS1_
|| __TEXT.__text __ZN3awd7metrics17CommCenterNVMSyncC1ERKS1_
|| __TEXT.__text __ZN3awd7metrics17CommCenterNVMSyncC1Ev
|| __TEXT.__text __ZN3awd7metrics17CommCenterNVMSyncC2ERKS1_
|| __TEXT.__text __ZN3awd7metrics17CommCenterNVMSyncC2Ev
|| __TEXT.__text __ZN3awd7metrics17CommCenterNVMSyncD0Ev
|| __TEXT.__text __ZN3awd7metrics17CommCenterNVMSyncD1Ev
|| __TEXT.__text __ZN3awd7metrics17CommCenterNVMSyncD2Ev
|| __TEXT.__text __ZN3awd7metrics18CommCenterWakeInfo10SharedCtorEv
|| __TEXT.__text __ZN3awd7metrics18CommCenterWakeInfo10SharedDtorEv
|| __TEXT.__text __ZN3awd7metrics18CommCenterWakeInfo16default_instanceEv
|| __TEXT.__text __ZN3awd7metrics18CommCenterWakeInfo21CheckTypeAndMergeFromERKN20wireless_diagnostics6google8protobuf11MessageLiteE
|| __TEXT.__text __ZN3awd7metrics18CommCenterWakeInfo21InitAsDefaultInstanceEv
|| __TEXT.__text __ZN3awd7metrics18CommCenterWakeInfo27MergePartialFromCodedStreamEPN20wireless_diagnostics6google8protobuf2io16CodedInputStreamE
|| __TEXT.__text __ZN3awd7metrics18CommCenterWakeInfo4SwapEPS1_
|| __TEXT.__text __ZN3awd7metrics18CommCenterWakeInfo5ClearEv
|| __TEXT.__text __ZN3awd7metrics18CommCenterWakeInfo8CopyFromERKS1_
|| __TEXT.__text __ZN3awd7metrics18CommCenterWakeInfo9MergeFromERKS1_
|| __TEXT.__text __ZN3awd7metrics18CommCenterWakeInfoC1ERKS1_
|| __TEXT.__text __ZN3awd7metrics18CommCenterWakeInfoC1Ev
|| __TEXT.__text __ZN3awd7metrics18CommCenterWakeInfoC2ERKS1_
|| __TEXT.__text __ZN3awd7metrics18CommCenterWakeInfoC2Ev
|| __TEXT.__text __ZN3awd7metrics18CommCenterWakeInfoD0Ev
|| __TEXT.__text __ZN3awd7metrics18CommCenterWakeInfoD1Ev
|| __TEXT.__text __ZN3awd7metrics18CommCenterWakeInfoD2Ev
|| __TEXT.__text __ZN3awd7metrics22CommCenterBasebanCrash10SharedCtorEv
|| __TEXT.__text __ZN3awd7metrics22CommCenterBasebanCrash10SharedDtorEv
|| __TEXT.__text __ZN3awd7metrics22CommCenterBasebanCrash16default_instanceEv
|| __TEXT.__text __ZN3awd7metrics22CommCenterBasebanCrash21CheckTypeAndMergeFromERKN20wireless_diagnostics6google8protobuf11MessageLiteE
|| __TEXT.__text __ZN3awd7metrics22CommCenterBasebanCrash21InitAsDefaultInstanceEv
|| __TEXT.__text __ZN3awd7metrics22CommCenterBasebanCrash27MergePartialFromCodedStreamEPN20wireless_diagnostics6google8protobuf2io16CodedInputStreamE
|| __TEXT.__text __ZN3awd7metrics22CommCenterBasebanCrash4SwapEPS1_
|| __TEXT.__text __ZN3awd7metrics22CommCenterBasebanCrash5ClearEv
|| __TEXT.__text __ZN3awd7metrics22CommCenterBasebanCrash8CopyFromERKS1_
|| __TEXT.__text __ZN3awd7metrics22CommCenterBasebanCrash9MergeFromERKS1_
|| __TEXT.__text __ZN3awd7metrics22CommCenterBasebanCrashC1ERKS1_
|| __TEXT.__text __ZN3awd7metrics22CommCenterBasebanCrashC1Ev
|| __TEXT.__text __ZN3awd7metrics22CommCenterBasebanCrashC2ERKS1_
|| __TEXT.__text __ZN3awd7metrics22CommCenterBasebanCrashC2Ev
|| __TEXT.__text __ZN3awd7metrics22CommCenterBasebanCrashD0Ev
|| __TEXT.__text __ZN3awd7metrics22CommCenterBasebanCrashD1Ev
|| __TEXT.__text __ZN3awd7metrics22CommCenterBasebanCrashD2Ev
|| __TEXT.__text __ZN3awd7metrics23CommCenterBasebandTrace10SharedCtorEv
|| __TEXT.__text __ZN3awd7metrics23CommCenterBasebandTrace10SharedDtorEv
|| __TEXT.__text __ZN3awd7metrics23CommCenterBasebandTrace16default_instanceEv
|| __TEXT.__text __ZN3awd7metrics23CommCenterBasebandTrace21CheckTypeAndMergeFromERKN20wireless_diagnostics6google8protobuf11MessageLiteE
|| __TEXT.__text __ZN3awd7metrics23CommCenterBasebandTrace21InitAsDefaultInstanceEv
|| __TEXT.__text __ZN3awd7metrics23CommCenterBasebandTrace27MergePartialFromCodedStreamEPN20wireless_diagnostics6google8protobuf2io16CodedInputStreamE
|| __TEXT.__text __ZN3awd7metrics23CommCenterBasebandTrace4SwapEPS1_
|| __TEXT.__text __ZN3awd7metrics23CommCenterBasebandTrace5ClearEv
|| __TEXT.__text __ZN3awd7metrics23CommCenterBasebandTrace8CopyFromERKS1_
|| __TEXT.__text __ZN3awd7metrics23CommCenterBasebandTrace9MergeFromERKS1_
|| __TEXT.__text __ZN3awd7metrics23CommCenterBasebandTraceC1ERKS1_
|| __TEXT.__text __ZN3awd7metrics23CommCenterBasebandTraceC1Ev
|| __TEXT.__text __ZN3awd7metrics23CommCenterBasebandTraceC2ERKS1_
|| __TEXT.__text __ZN3awd7metrics23CommCenterBasebandTraceC2Ev
|| __TEXT.__text __ZN3awd7metrics23CommCenterBasebandTraceD0Ev
|| __TEXT.__text __ZN3awd7metrics23CommCenterBasebandTraceD1Ev
|| __TEXT.__text __ZN3awd7metrics23CommCenterBasebandTraceD2Ev
|| __TEXT.__text __ZN3awd7metrics23CommCenterLowPowerEvent10SharedCtorEv
|| __TEXT.__text __ZN3awd7metrics23CommCenterLowPowerEvent10SharedDtorEv
|| __TEXT.__text __ZN3awd7metrics23CommCenterLowPowerEvent16default_instanceEv
|| __TEXT.__text __ZN3awd7metrics23CommCenterLowPowerEvent21CheckTypeAndMergeFromERKN20wireless_diagnostics6google8protobuf11MessageLiteE
|| __TEXT.__text __ZN3awd7metrics23CommCenterLowPowerEvent21InitAsDefaultInstanceEv
|| __TEXT.__text __ZN3awd7metrics23CommCenterLowPowerEvent27MergePartialFromCodedStreamEPN20wireless_diagnostics6google8protobuf2io16CodedInputStreamE
|| __TEXT.__text __ZN3awd7metrics23CommCenterLowPowerEvent4SwapEPS1_
|| __TEXT.__text __ZN3awd7metrics23CommCenterLowPowerEvent5ClearEv
|| __TEXT.__text __ZN3awd7metrics23CommCenterLowPowerEvent8CopyFromERKS1_
|| __TEXT.__text __ZN3awd7metrics23CommCenterLowPowerEvent9MergeFromERKS1_
|| __TEXT.__text __ZN3awd7metrics23CommCenterLowPowerEventC1ERKS1_
|| __TEXT.__text __ZN3awd7metrics23CommCenterLowPowerEventC1Ev
|| __TEXT.__text __ZN3awd7metrics23CommCenterLowPowerEventC2ERKS1_
|| __TEXT.__text __ZN3awd7metrics23CommCenterLowPowerEventC2Ev
|| __TEXT.__text __ZN3awd7metrics23CommCenterLowPowerEventD0Ev
|| __TEXT.__text __ZN3awd7metrics23CommCenterLowPowerEventD1Ev
|| __TEXT.__text __ZN3awd7metrics23CommCenterLowPowerEventD2Ev
|| __TEXT.__text __ZN3awd7metrics23CommCenterLowPowerStats10SharedCtorEv
|| __TEXT.__text __ZN3awd7metrics23CommCenterLowPowerStats10SharedDtorEv
|| __TEXT.__text __ZN3awd7metrics23CommCenterLowPowerStats16default_instanceEv
|| __TEXT.__text __ZN3awd7metrics23CommCenterLowPowerStats21CheckTypeAndMergeFromERKN20wireless_diagnostics6google8protobuf11MessageLiteE
|| __TEXT.__text __ZN3awd7metrics23CommCenterLowPowerStats21InitAsDefaultInstanceEv
|| __TEXT.__text __ZN3awd7metrics23CommCenterLowPowerStats27MergePartialFromCodedStreamEPN20wireless_diagnostics6google8protobuf2io16CodedInputStreamE
|| __TEXT.__text __ZN3awd7metrics23CommCenterLowPowerStats4SwapEPS1_
|| __TEXT.__text __ZN3awd7metrics23CommCenterLowPowerStats5ClearEv
|| __TEXT.__text __ZN3awd7metrics23CommCenterLowPowerStats8CopyFromERKS1_
|| __TEXT.__text __ZN3awd7metrics23CommCenterLowPowerStats9MergeFromERKS1_
|| __TEXT.__text __ZN3awd7metrics23CommCenterLowPowerStatsC1ERKS1_
|| __TEXT.__text __ZN3awd7metrics23CommCenterLowPowerStatsC1Ev
|| __TEXT.__text __ZN3awd7metrics23CommCenterLowPowerStatsC2ERKS1_
|| __TEXT.__text __ZN3awd7metrics23CommCenterLowPowerStatsC2Ev
|| __TEXT.__text __ZN3awd7metrics23CommCenterLowPowerStatsD0Ev
|| __TEXT.__text __ZN3awd7metrics23CommCenterLowPowerStatsD1Ev
|| __TEXT.__text __ZN3awd7metrics23CommCenterLowPowerStatsD2Ev
|| __TEXT.__text __ZN3awd7metrics25CommCenterMissedMTMessage10SharedCtorEv
|| __TEXT.__text __ZN3awd7metrics25CommCenterMissedMTMessage10SharedDtorEv
|| __TEXT.__text __ZN3awd7metrics25CommCenterMissedMTMessage16default_instanceEv
|| __TEXT.__text __ZN3awd7metrics25CommCenterMissedMTMessage21CheckTypeAndMergeFromERKN20wireless_diagnostics6google8protobuf11MessageLiteE
|| __TEXT.__text __ZN3awd7metrics25CommCenterMissedMTMessage21InitAsDefaultInstanceEv
|| __TEXT.__text __ZN3awd7metrics25CommCenterMissedMTMessage27MergePartialFromCodedStreamEPN20wireless_diagnostics6google8protobuf2io16CodedInputStreamE
|| __TEXT.__text __ZN3awd7metrics25CommCenterMissedMTMessage4SwapEPS1_
|| __TEXT.__text __ZN3awd7metrics25CommCenterMissedMTMessage5ClearEv
|| __TEXT.__text __ZN3awd7metrics25CommCenterMissedMTMessage8CopyFromERKS1_
|| __TEXT.__text __ZN3awd7metrics25CommCenterMissedMTMessage9MergeFromERKS1_
|| __TEXT.__text __ZN3awd7metrics25CommCenterMissedMTMessageC1ERKS1_
|| __TEXT.__text __ZN3awd7metrics25CommCenterMissedMTMessageC1Ev
|| __TEXT.__text __ZN3awd7metrics25CommCenterMissedMTMessageC2ERKS1_
|| __TEXT.__text __ZN3awd7metrics25CommCenterMissedMTMessageC2Ev
|| __TEXT.__text __ZN3awd7metrics25CommCenterMissedMTMessageD0Ev
|| __TEXT.__text __ZN3awd7metrics25CommCenterMissedMTMessageD1Ev
|| __TEXT.__text __ZN3awd7metrics25CommCenterMissedMTMessageD2Ev
|| __TEXT.__text __ZN3awd7metrics26CommCenterBasebandBootTime10SharedCtorEv
|| __TEXT.__text __ZN3awd7metrics26CommCenterBasebandBootTime10SharedDtorEv
|| __TEXT.__text __ZN3awd7metrics26CommCenterBasebandBootTime16default_instanceEv
|| __TEXT.__text __ZN3awd7metrics26CommCenterBasebandBootTime21CheckTypeAndMergeFromERKN20wireless_diagnostics6google8protobuf11MessageLiteE
|| __TEXT.__text __ZN3awd7metrics26CommCenterBasebandBootTime21InitAsDefaultInstanceEv
|| __TEXT.__text __ZN3awd7metrics26CommCenterBasebandBootTime27MergePartialFromCodedStreamEPN20wireless_diagnostics6google8protobuf2io16CodedInputStreamE
|| __TEXT.__text __ZN3awd7metrics26CommCenterBasebandBootTime4SwapEPS1_
|| __TEXT.__text __ZN3awd7metrics26CommCenterBasebandBootTime5ClearEv
|| __TEXT.__text __ZN3awd7metrics26CommCenterBasebandBootTime8CopyFromERKS1_
|| __TEXT.__text __ZN3awd7metrics26CommCenterBasebandBootTime9MergeFromERKS1_
|| __TEXT.__text __ZN3awd7metrics26CommCenterBasebandBootTimeC1ERKS1_
|| __TEXT.__text __ZN3awd7metrics26CommCenterBasebandBootTimeC1Ev
|| __TEXT.__text __ZN3awd7metrics26CommCenterBasebandBootTimeC2ERKS1_
|| __TEXT.__text __ZN3awd7metrics26CommCenterBasebandBootTimeC2Ev
|| __TEXT.__text __ZN3awd7metrics26CommCenterBasebandBootTimeD0Ev
|| __TEXT.__text __ZN3awd7metrics26CommCenterBasebandBootTimeD1Ev
|| __TEXT.__text __ZN3awd7metrics26CommCenterBasebandBootTimeD2Ev
|| __TEXT.__text __ZN3awd7metrics27CommCenterPowerVotingRecord10SharedCtorEv
|| __TEXT.__text __ZN3awd7metrics27CommCenterPowerVotingRecord10SharedDtorEv
|| __TEXT.__text __ZN3awd7metrics27CommCenterPowerVotingRecord16default_instanceEv
|| __TEXT.__text __ZN3awd7metrics27CommCenterPowerVotingRecord21CheckTypeAndMergeFromERKN20wireless_diagnostics6google8protobuf11MessageLiteE
|| __TEXT.__text __ZN3awd7metrics27CommCenterPowerVotingRecord21InitAsDefaultInstanceEv
|| __TEXT.__text __ZN3awd7metrics27CommCenterPowerVotingRecord27MergePartialFromCodedStreamEPN20wireless_diagnostics6google8protobuf2io16CodedInputStreamE
|| __TEXT.__text __ZN3awd7metrics27CommCenterPowerVotingRecord4SwapEPS1_
|| __TEXT.__text __ZN3awd7metrics27CommCenterPowerVotingRecord5ClearEv
|| __TEXT.__text __ZN3awd7metrics27CommCenterPowerVotingRecord8CopyFromERKS1_
|| __TEXT.__text __ZN3awd7metrics27CommCenterPowerVotingRecord9MergeFromERKS1_
|| __TEXT.__text __ZN3awd7metrics27CommCenterPowerVotingRecordC1ERKS1_
|| __TEXT.__text __ZN3awd7metrics27CommCenterPowerVotingRecordC1Ev
|| __TEXT.__text __ZN3awd7metrics27CommCenterPowerVotingRecordC2ERKS1_
|| __TEXT.__text __ZN3awd7metrics27CommCenterPowerVotingRecordC2Ev
|| __TEXT.__text __ZN3awd7metrics27CommCenterPowerVotingRecordD0Ev
|| __TEXT.__text __ZN3awd7metrics27CommCenterPowerVotingRecordD1Ev
|| __TEXT.__text __ZN3awd7metrics27CommCenterPowerVotingRecordD2Ev
|| __TEXT.__text __ZN3awd7metrics27CommCenterSleepType_IsValidEi
|| __TEXT.__text __ZN3awd7metrics30CommCenterMissedMTType_IsValidEi
|| __TEXT.__text __ZN3awd7metrics31CommCenterNVMSyncReason_IsValidEi
|| __TEXT.__text __ZN3awd7metrics32CommCenterPowerTransitionFailure10SharedCtorEv
|| __TEXT.__text __ZN3awd7metrics32CommCenterPowerTransitionFailure10SharedDtorEv
|| __TEXT.__text __ZN3awd7metrics32CommCenterPowerTransitionFailure16default_instanceEv
|| __TEXT.__text __ZN3awd7metrics32CommCenterPowerTransitionFailure21CheckTypeAndMergeFromERKN20wireless_diagnostics6google8protobuf11MessageLiteE
|| __TEXT.__text __ZN3awd7metrics32CommCenterPowerTransitionFailure21InitAsDefaultInstanceEv
|| __TEXT.__text __ZN3awd7metrics32CommCenterPowerTransitionFailure27MergePartialFromCodedStreamEPN20wireless_diagnostics6google8protobuf2io16CodedInputStreamE
|| __TEXT.__text __ZN3awd7metrics32CommCenterPowerTransitionFailure4SwapEPS1_
|| __TEXT.__text __ZN3awd7metrics32CommCenterPowerTransitionFailure5ClearEv
|| __TEXT.__text __ZN3awd7metrics32CommCenterPowerTransitionFailure8CopyFromERKS1_
|| __TEXT.__text __ZN3awd7metrics32CommCenterPowerTransitionFailure9MergeFromERKS1_
|| __TEXT.__text __ZN3awd7metrics32CommCenterPowerTransitionFailureC1ERKS1_
|| __TEXT.__text __ZN3awd7metrics32CommCenterPowerTransitionFailureC1Ev
|| __TEXT.__text __ZN3awd7metrics32CommCenterPowerTransitionFailureC2ERKS1_
|| __TEXT.__text __ZN3awd7metrics32CommCenterPowerTransitionFailureC2Ev
|| __TEXT.__text __ZN3awd7metrics32CommCenterPowerTransitionFailureD0Ev
|| __TEXT.__text __ZN3awd7metrics32CommCenterPowerTransitionFailureD1Ev
|| __TEXT.__text __ZN3awd7metrics32CommCenterPowerTransitionFailureD2Ev
|| __TEXT.__text __ZN3awd7metrics32CommCenterPowerTransitionSuccess10SharedCtorEv
|| __TEXT.__text __ZN3awd7metrics32CommCenterPowerTransitionSuccess10SharedDtorEv
|| __TEXT.__text __ZN3awd7metrics32CommCenterPowerTransitionSuccess16default_instanceEv
|| __TEXT.__text __ZN3awd7metrics32CommCenterPowerTransitionSuccess21CheckTypeAndMergeFromERKN20wireless_diagnostics6google8protobuf11MessageLiteE
|| __TEXT.__text __ZN3awd7metrics32CommCenterPowerTransitionSuccess21InitAsDefaultInstanceEv
|| __TEXT.__text __ZN3awd7metrics32CommCenterPowerTransitionSuccess27MergePartialFromCodedStreamEPN20wireless_diagnostics6google8protobuf2io16CodedInputStreamE
|| __TEXT.__text __ZN3awd7metrics32CommCenterPowerTransitionSuccess4SwapEPS1_
|| __TEXT.__text __ZN3awd7metrics32CommCenterPowerTransitionSuccess5ClearEv
|| __TEXT.__text __ZN3awd7metrics32CommCenterPowerTransitionSuccess8CopyFromERKS1_
|| __TEXT.__text __ZN3awd7metrics32CommCenterPowerTransitionSuccess9MergeFromERKS1_
|| __TEXT.__text __ZN3awd7metrics32CommCenterPowerTransitionSuccessC1ERKS1_
|| __TEXT.__text __ZN3awd7metrics32CommCenterPowerTransitionSuccessC1Ev
|| __TEXT.__text __ZN3awd7metrics32CommCenterPowerTransitionSuccessC2ERKS1_
|| __TEXT.__text __ZN3awd7metrics32CommCenterPowerTransitionSuccessC2Ev
|| __TEXT.__text __ZN3awd7metrics32CommCenterPowerTransitionSuccessD0Ev
|| __TEXT.__text __ZN3awd7metrics32CommCenterPowerTransitionSuccessD1Ev
|| __TEXT.__text __ZN3awd7metrics32CommCenterPowerTransitionSuccessD2Ev
|| __TEXT.__text __ZN3awd7metrics35CommCenterLowPowerEventType_IsValidEi
|| __TEXT.__text __ZN3awd7metrics37protobuf_AddDesc_CCMetricsABM_2eprotoEv
|| __TEXT.__text __ZN3awd7metrics42protobuf_AddDesc_CCMetricsABMPower_2eprotoEv
|| __TEXT.__text __ZN3awd7metrics42protobuf_ShutdownFile_CCMetricsABM_2eprotoEv
|| __TEXT.__text __ZN3awd7metrics47protobuf_ShutdownFile_CCMetricsABMPower_2eprotoEv
|| __TEXT.__text __ZN4coex6Module10initializeEN8dispatch13group_sessionE
|| __TEXT.__text __ZN4coex6Module5State14getSubPropertyEPK10__CFStringNS_5SubIdEb
|| __TEXT.__text __ZN4coex6Module5State14setPolicy_syncENS_5SubIdE
|| __TEXT.__text __ZN4coex6Module5State18sendWWANState_syncENS_5SubIdE
|| __TEXT.__text __ZN4coex6Module5State19setIndications_syncEv
|| __TEXT.__text __ZN4coex6Module5State20sendLinkQuality_syncENS_5SubIdE
|| __TEXT.__text __ZN4coex6Module5State21fetchBandInfoSet_syncEN3ctu2cf11CFSharedRefIK9__CFArrayEEPKcN3xpc4dictE
|| __TEXT.__text __ZN4coex6Module5State22handleSetWCI2Mode_syncEN3xpc4dictENS_5SubIdE
|| __TEXT.__text __ZN4coex6Module5State22sendFailCondition_syncENS_5SubIdE
|| __TEXT.__text __ZN4coex6Module5State23handleSetLAAConfig_syncEN3xpc4dictENS_5SubIdE
|| __TEXT.__text __ZN4coex6Module5State23setLinkQualityMode_syncEjNS_5SubIdE
|| __TEXT.__text __ZN4coex6Module5State24handleSetWiFiStatus_syncEN3xpc4dictENS_5SubIdE
|| __TEXT.__text __ZN4coex6Module5State26handleSetTxPowerLimit_syncEN3xpc6objectENS_5SubIdE
|| __TEXT.__text __ZN4coex6Module5State29handleSetLinkQualityMode_syncEN3xpc4dictENS_5SubIdE
|| __TEXT.__text __ZN4coex6Module5State30convertScanFreqBandFilter_syncEN3xpc5arrayEN3ctu2cf11CFSharedRefIK9__CFArrayEE
|| __TEXT.__text __ZN4coex6Module5State30handleSetRC1DurationParam_syncEN3xpc4dictENS_5SubIdE
|| __TEXT.__text __ZN4coex6Module5State30handleSetWCI2TxPowerLimit_syncEN3xpc6objectENS_5SubIdE
|| __TEXT.__text __ZN4coex6Module5State31handleCommandDriverStarted_syncEv
|| __TEXT.__text __ZN4coex6Module5State31handleSetFCMBCMAntennaMode_syncEN3xpc4dictENS_5SubIdE
|| __TEXT.__text __ZN4coex6Module5State32handleGetScanFreqBandFilter_syncENS_5SubIdE
|| __TEXT.__text __ZN4coex6Module5State32handleSetScanFreqBandFilter_syncEN3xpc5arrayENS_5SubIdE
|| __TEXT.__text __ZN4coex6Module5State33handleSetWCI2CalibrationInfo_syncEN3xpc4dictENS_5SubIdE
|| __TEXT.__text __ZN4coex6Module5State35handleCommandDriverStateUpdate_syncEN3ctu2cf11CFSharedRefIK14__CFDictionaryEENS_5SubIdE
|| __TEXT.__text __ZN4coex6Module5State37handleSetNetworkConfigOfInterest_syncEN3xpc5arrayENS_5SubIdE
|| __TEXT.__text __ZN4coex6Module5State4initEv
|| __TEXT.__text __ZN4coex6Module5State6createENSt3__110shared_ptrIN3ctu9LogServerEEENS2_8weak_ptrI14ServiceManagerEE
|| __TEXT.__text __ZN4coex6Module5State8shutdownE13ShutdownStageN8dispatch13group_sessionE
|| __TEXT.__text __ZN4coex6Module5StateC1ENSt3__110shared_ptrIN3ctu9LogServerEEENS3_INS_13CommandDriverEEENS2_8weak_ptrI14ServiceManagerEE
|| __TEXT.__text __ZN4coex6Module5StateC2ENSt3__110shared_ptrIN3ctu9LogServerEEENS3_INS_13CommandDriverEEENS2_8weak_ptrI14ServiceManagerEE
|| __TEXT.__text __ZN4coex6Module5StateD0Ev
|| __TEXT.__text __ZN4coex6Module5StateD1Ev
|| __TEXT.__text __ZN4coex6Module5StateD2Ev
|| __TEXT.__text __ZN4coex6Module5startEN8dispatch13group_sessionE
|| __TEXT.__text __ZN4coex6Module6createENSt3__18weak_ptrI14ServiceManagerEE
|| __TEXT.__text __ZN4coex6Module8shutdownE13ShutdownStageN8dispatch13group_sessionE
|| __TEXT.__text __ZN4coex6ModuleC1ENSt3__18weak_ptrI14ServiceManagerEE
|| __TEXT.__text __ZN4coex6ModuleC2ENSt3__18weak_ptrI14ServiceManagerEE
|| __TEXT.__text __ZN4coex6ModuleD0Ev
|| __TEXT.__text __ZN4coex6ModuleD1Ev
|| __TEXT.__text __ZN4coex6ModuleD2Ev
|| __TEXT.__text __ZN4coex9XpcClient11sendMessageE19WCMReceiveMessageIdN3xpc6objectENS_5SubIdE
|| __TEXT.__text __ZN4coex9XpcClient13register_syncEv
|| __TEXT.__text __ZN4coex9XpcClient18handleMessage_syncEN3xpc4dictE
|| __TEXT.__text __ZN4coex9XpcClient22handleServerError_syncEN3xpc6objectE
|| __TEXT.__text __ZN4coex9XpcClient22registerCommandHandlerE16WCMSendMessageIdN8dispatch5blockIU13block_pointerFvN3xpc6objectENS_5SubIdEEEE
|| __TEXT.__text __ZN4coex9XpcClient4initEv
|| __TEXT.__text __ZN4coex9XpcClient5startEv
|| __TEXT.__text __ZN4coex9XpcClient6createENSt3__110shared_ptrIN3ctu9LogServerEEERKNS1_12basic_stringIcNS1_11char_traitsIcEENS1_9allocatorIcEEEE
|| __TEXT.__text __ZN4coex9XpcClient7getNameEv
|| __TEXT.__text __ZN4coex9XpcClientC1ENSt3__110shared_ptrIN3ctu9LogServerEEERKNS1_12basic_stringIcNS1_11char_traitsIcEENS1_9allocatorIcEEEE
|| __TEXT.__text __ZN4coex9XpcClientC2ENSt3__110shared_ptrIN3ctu9LogServerEEERKNS1_12basic_stringIcNS1_11char_traitsIcEENS1_9allocatorIcEEEE
|| __TEXT.__text __ZN4coex9XpcClientD0Ev
|| __TEXT.__text __ZN4coex9XpcClientD1Ev
|| __TEXT.__text __ZN4coex9XpcClientD2Ev
|| __TEXT.__text __ZN4diag6config21getShouldAlwaysFilterEv
|| __TEXT.__text __ZN4diag6config8toStringENS0_13DuringAPSleepE
|| __TEXT.__text __ZN4diag6config8toStringENS0_4ModeE
|| __TEXT.__text __ZN4diag6config8toStringENS0_8RecoveryE
|| __TEXT.__text __ZN4prop10systemlogs3getERKNSt3__112basic_stringIcNS1_11char_traitsIcEENS1_9allocatorIcEEEERS7_
|| __TEXT.__text __ZN4prop10systemlogs3setERKNSt3__112basic_stringIcNS1_11char_traitsIcEENS1_9allocatorIcEEEES9_
|| __TEXT.__text __ZN4prop11compression3getERKNSt3__112basic_stringIcNS1_11char_traitsIcEENS1_9allocatorIcEEEERS7_
|| __TEXT.__text __ZN4prop11compression3setERKNSt3__112basic_stringIcNS1_11char_traitsIcEENS1_9allocatorIcEEEES9_
|| __TEXT.__text __ZN4prop13tracesettings10anyEnabledEv
|| __TEXT.__text __ZN4prop13tracesettings12isContinuousEv
|| __TEXT.__text __ZN4prop13tracesettings3getERKNSt3__112basic_stringIcNS1_11char_traitsIcEENS1_9allocatorIcEEEERS7_
|| __TEXT.__text __ZN4prop13tracesettings3setERKNSt3__112basic_stringIcNS1_11char_traitsIcEENS1_9allocatorIcEEEES9_
|| __TEXT.__text __ZN4prop13tracesettings7enabledEPKc
|| __TEXT.__text __ZN4prop3ddt3getERKNSt3__112basic_stringIcNS1_11char_traitsIcEENS1_9allocatorIcEEEERS7_
|| __TEXT.__text __ZN4prop3ddt3setERKNSt3__112basic_stringIcNS1_11char_traitsIcEENS1_9allocatorIcEEEES9_
|| __TEXT.__text __ZN4prop3getERKNSt3__112basic_stringIcNS0_11char_traitsIcEENS0_9allocatorIcEEEES8_RS6_
|| __TEXT.__text __ZN4prop3ipc3getERKNSt3__112basic_stringIcNS1_11char_traitsIcEENS1_9allocatorIcEEEERS7_
|| __TEXT.__text __ZN4prop3ipc3setERKNSt3__112basic_stringIcNS1_11char_traitsIcEENS1_9allocatorIcEEEES9_
|| __TEXT.__text __ZN4prop3setERKNSt3__112basic_stringIcNS0_11char_traitsIcEENS0_9allocatorIcEEEES8_S8_
|| __TEXT.__text __ZN4prop3ttr3getERKNSt3__112basic_stringIcNS1_11char_traitsIcEENS1_9allocatorIcEEEERS7_
|| __TEXT.__text __ZN4prop3ttr3setERKNSt3__112basic_stringIcNS1_11char_traitsIcEENS1_9allocatorIcEEEES9_
|| __TEXT.__text __ZN4prop5bbipc3getERKNSt3__112basic_stringIcNS1_11char_traitsIcEENS1_9allocatorIcEEEERS7_
|| __TEXT.__text __ZN4prop5bbipc3setERKNSt3__112basic_stringIcNS1_11char_traitsIcEENS1_9allocatorIcEEEES9_
|| __TEXT.__text __ZN4prop7bbtrace3getERKNSt3__112basic_stringIcNS1_11char_traitsIcEENS1_9allocatorIcEEEERS7_
|| __TEXT.__text __ZN4prop7bbtrace3setERKNSt3__112basic_stringIcNS1_11char_traitsIcEENS1_9allocatorIcEEEES9_
|| __TEXT.__text __ZN4prop7profile3getERKNSt3__112basic_stringIcNS1_11char_traitsIcEENS1_9allocatorIcEEEERS7_
|| __TEXT.__text __ZN4prop7profile3setERKNSt3__112basic_stringIcNS1_11char_traitsIcEENS1_9allocatorIcEEEES9_
|| __TEXT.__text __ZN4prop8coredump3getERKNSt3__112basic_stringIcNS1_11char_traitsIcEENS1_9allocatorIcEEEERS7_
|| __TEXT.__text __ZN4prop8coredump3setERKNSt3__112basic_stringIcNS1_11char_traitsIcEENS1_9allocatorIcEEEES9_
|| __TEXT.__text __ZN4prop9logfilter3getERKNSt3__112basic_stringIcNS1_11char_traitsIcEENS1_9allocatorIcEEEERS7_
|| __TEXT.__text __ZN4prop9logfilter3setERKNSt3__112basic_stringIcNS1_11char_traitsIcEENS1_9allocatorIcEEEES9_
|| __TEXT.__text __ZN4util2fs10fileExistsERKNSt3__112basic_stringIcNS1_11char_traitsIcEENS1_9allocatorIcEEEE
|| __TEXT.__text __ZN4util2fs10removeFileERKNSt3__112basic_stringIcNS1_11char_traitsIcEENS1_9allocatorIcEEEE
|| __TEXT.__text __ZN4util2fs11getBasePathERKNSt3__112basic_stringIcNS1_11char_traitsIcEENS1_9allocatorIcEEEE
|| __TEXT.__text __ZN4util2fs11getFileNameERKNSt3__112basic_stringIcNS1_11char_traitsIcEENS1_9allocatorIcEEEE
|| __TEXT.__text __ZN4util2fs11getFileSizeERKNSt3__112basic_stringIcNS1_11char_traitsIcEENS1_9allocatorIcEEEERm
|| __TEXT.__text __ZN4util2fs11getFileSizeERNSt3__114basic_ifstreamIcNS1_11char_traitsIcEEEERm
|| __TEXT.__text __ZN4util2fs11updateOwnerENSt3__112basic_stringIcNS1_11char_traitsIcEENS1_9allocatorIcEEEEjj
|| __TEXT.__text __ZN4util2fs13moveDirUniqueERKNSt3__112basic_stringIcNS1_11char_traitsIcEENS1_9allocatorIcEEEES9_
|| __TEXT.__text __ZN4util2fs14hashFromStringERKNSt3__112basic_stringIcNS1_11char_traitsIcEENS1_9allocatorIcEEEE
|| __TEXT.__text __ZN4util2fs16createUniquePathENSt3__112basic_stringIcNS1_11char_traitsIcEENS1_9allocatorIcEEEE
|| __TEXT.__text __ZN4util2fs16getFilteredFilesENSt3__112basic_stringIcNS1_11char_traitsIcEENS1_9allocatorIcEEEENS1_11basic_regexIcNS1_12regex_traitsIcEEEERNS1_6vectorIS7_NS5_IS7_EEEEb
|| __TEXT.__text __ZN4util2fs16getLastNumberDirERKNSt3__112basic_stringIcNS1_11char_traitsIcEENS1_9allocatorIcEEEE
|| __TEXT.__text __ZN4util2fs16getPartitionInfoENSt3__112basic_stringIcNS1_11char_traitsIcEENS1_9allocatorIcEEEERmS8_S8_
|| __TEXT.__text __ZN4util2fs17removeDirContentsERKNSt3__112basic_stringIcNS1_11char_traitsIcEENS1_9allocatorIcEEEEm
|| __TEXT.__text __ZN4util2fs17writeToCompletionEP7__sFILEPKhm
|| __TEXT.__text __ZN4util2fs17writeToCompletionEiPKhm
|| __TEXT.__text __ZN4util2fs20createUniqueFilenameENSt3__112basic_stringIcNS1_11char_traitsIcEENS1_9allocatorIcEEEE
|| __TEXT.__text __ZN4util2fs23displayUserNotificationERKNSt3__112basic_stringIcNS1_11char_traitsIcEENS1_9allocatorIcEEEES9_bd
|| __TEXT.__text __ZN4util2fs5chmodERKNSt3__112basic_stringIcNS1_11char_traitsIcEENS1_9allocatorIcEEEEt
|| __TEXT.__text __ZN4util2fs5chownERKNSt3__112basic_stringIcNS1_11char_traitsIcEENS1_9allocatorIcEEEEjj
|| __TEXT.__text __ZN4util2fs5isDirERKNSt3__112basic_stringIcNS1_11char_traitsIcEENS1_9allocatorIcEEEE
|| __TEXT.__text __ZN4util2fs6renameERKNSt3__112basic_stringIcNS1_11char_traitsIcEENS1_9allocatorIcEEEES9_
|| __TEXT.__text __ZN4util2fs7lockDirERKNSt3__112basic_stringIcNS1_11char_traitsIcEENS1_9allocatorIcEEEE
|| __TEXT.__text __ZN4util2fs7readDirERKNSt3__112basic_stringIcNS1_11char_traitsIcEENS1_9allocatorIcEEEERNS1_6vectorIS7_NS5_IS7_EEEE
|| __TEXT.__text __ZN4util2fs8copyFileERKNSt3__112basic_stringIcNS1_11char_traitsIcEENS1_9allocatorIcEEEES9_b
|| __TEXT.__text __ZN4util2fs8loadFileERKNSt3__112basic_stringIcNS1_11char_traitsIcEENS1_9allocatorIcEEEERNS1_6vectorIcS6_EE
|| __TEXT.__text __ZN4util2fs8openFileERKNSt3__112basic_stringIcNS1_11char_traitsIcEENS1_9allocatorIcEEEEit
|| __TEXT.__text __ZN4util2fs8toStringENS0_6userIDE
|| __TEXT.__text __ZN4util2fs9closeFileEi
|| __TEXT.__text __ZN4util2fs9createDirERKNSt3__112basic_stringIcNS1_11char_traitsIcEENS1_9allocatorIcEEEEtb
|| __TEXT.__text __ZN4util2fs9getUidGidENS0_6userIDERjS2_
|| __TEXT.__text __ZN4util2fs9removeDirERKNSt3__112basic_stringIcNS1_11char_traitsIcEENS1_9allocatorIcEEEE
|| __TEXT.__text __ZN4util2fs9unlockDirEi
|| __TEXT.__text __ZN5Stats4initEN3abm5stats7StatsIDE
|| __TEXT.__text __ZN5Stats6createEN3abm5stats7StatsIDE
|| __TEXT.__text __ZN5StatsC2ENSt3__112basic_stringIcNS0_11char_traitsIcEENS0_9allocatorIcEEEE
|| __TEXT.__text __ZN5StatsD0Ev
|| __TEXT.__text __ZN5StatsD1Ev
|| __TEXT.__text __ZN5StatsD2Ev
|| __TEXT.__text __ZN5radio13HealthService12exitLowPowerEN8dispatch8callbackIU13block_pointerFvvEEE
|| __TEXT.__text __ZN5radio13HealthService13enterLowPowerEN8dispatch8callbackIU13block_pointerFvvEEE
|| __TEXT.__text __ZN5radio13HealthService15reportDataStatsEv
|| __TEXT.__text __ZN5radio13HealthService5State12exitLowPowerEN8dispatch8callbackIU13block_pointerFvvEEE
|| __TEXT.__text __ZN5radio13HealthService5State13enterLowPowerEN8dispatch8callbackIU13block_pointerFvvEEE
|| __TEXT.__text __ZN5radio13HealthService5State15reportDataStatsEv
|| __TEXT.__text __ZN5radio13HealthService5State20reportDataStats_syncEv
|| __TEXT.__text __ZN5radio13HealthService5State27stopDataReportingTimer_syncEv
|| __TEXT.__text __ZN5radio13HealthService5State28queryAndReportDataStats_syncEv
|| __TEXT.__text __ZN5radio13HealthService5State28startDataReportingTimer_syncEN3ctu2cf11CFSharedRefIK14__CFDictionaryEE
|| __TEXT.__text __ZN5radio13HealthService5State28startDataStallReporting_syncEv
|| __TEXT.__text __ZN5radio13HealthService5State5resetEv
|| __TEXT.__text __ZN5radio13HealthService5State5startEN3ctu2cf11CFSharedRefIK14__CFDictionaryEE
|| __TEXT.__text __ZN5radio13HealthService5StateC1ENSt3__110shared_ptrIN3ctu9LogServerEEENS3_I18DataStallDetectionEE
|| __TEXT.__text __ZN5radio13HealthService5StateC2ENSt3__110shared_ptrIN3ctu9LogServerEEENS3_I18DataStallDetectionEE
|| __TEXT.__text __ZN5radio13HealthService5StateD0Ev
|| __TEXT.__text __ZN5radio13HealthService5StateD1Ev
|| __TEXT.__text __ZN5radio13HealthService5StateD2Ev
|| __TEXT.__text __ZN5radio13HealthService5resetEv
|| __TEXT.__text __ZN5radio13HealthServiceC1ENSt3__110shared_ptrIN3ctu9LogServerEEENS2_I18DataStallDetectionEENS3_2cf11CFSharedRefIK14__CFDictionaryEE
|| __TEXT.__text __ZN5radio13HealthServiceC2ENSt3__110shared_ptrIN3ctu9LogServerEEENS2_I18DataStallDetectionEENS3_2cf11CFSharedRefIK14__CFDictionaryEE
|| __TEXT.__text __ZN6config2hw10regionCodeEv
|| __TEXT.__text __ZN6config2hw11getBootArgsEv
|| __TEXT.__text __ZN6config2hw14deviceMaterialEv
|| __TEXT.__text __ZN6config2hw3iceEv
|| __TEXT.__text __ZN6config2hw3pciEv
|| __TEXT.__text __ZN6config2hw4hsicEv
|| __TEXT.__text __ZN6config2hw5watchEv
|| __TEXT.__text __ZN6config2hw6eurekaEv
|| __TEXT.__text __ZN6config2hw7productEv
|| __TEXT.__text __ZN6config2hw8bbusbmuxEv
|| __TEXT.__text __ZN6config2hw9radioTypeEv
|| __TEXT.__text __ZN6config5build19internal_or_carrierEv
|| __TEXT.__text __ZN6config5build7carrierEv
|| __TEXT.__text __ZN6config5build7versionEv
|| __TEXT.__text __ZN6config5build8internalEv
|| __TEXT.__text __ZN7Service17getServiceManagerEv
|| __TEXT.__text __ZN7Service22registerCommandHandlerERKNSt3__112basic_stringIcNS0_11char_traitsIcEENS0_9allocatorIcEEEEN8dispatch5blockIU13block_pointerFvN3xpc4dictENSA_IU13block_pointerFviSC_EEEEEE
|| __TEXT.__text __ZN7ServiceC2ENSt3__18weak_ptrI14ServiceManagerEE
|| __TEXT.__text __ZN7ServiceD0Ev
|| __TEXT.__text __ZN7ServiceD1Ev
|| __TEXT.__text __ZN7ServiceD2Ev
|| __TEXT.__text __ZN7antenna10PPMManager15reportTelemetryEN3xpc4dictE
|| __TEXT.__text __ZN7antenna10PPMManager5startEv
|| __TEXT.__text __ZN7antenna10PPMManager6createENSt3__110shared_ptrIN3ctu9LogServerEEE
|| __TEXT.__text __ZN7antenna10PPMManager8shutdownEv
|| __TEXT.__text __ZN7antenna10PPMManagerC1ENSt3__110shared_ptrIN3ctu9LogServerEEE
|| __TEXT.__text __ZN7antenna10PPMManagerC2ENSt3__110shared_ptrIN3ctu9LogServerEEE
|| __TEXT.__text __ZN7antenna15CMOnBodyManager11isSupportedEv
|| __TEXT.__text __ZN7antenna15CMOnBodyManager13setThresholdsEPK14__CFDictionary
|| __TEXT.__text __ZN7antenna15CMOnBodyManager19motionCallback_syncENS0_14CMOnBodyResultENS0_24CMOnBodyResultConfidenceE
|| __TEXT.__text __ZN7antenna15CMOnBodyManager19stopMotionDetectionEv
|| __TEXT.__text __ZN7antenna15CMOnBodyManager20startMotionDetectionEPK14__CFDictionaryN8dispatch5blockIU13block_pointerFvNS0_14CMOnBodyResultENS0_24CMOnBodyResultConfidenceEEEE
|| __TEXT.__text __ZN7antenna15CMOnBodyManager6createEN8dispatch5queueE
|| __TEXT.__text __ZN7antenna15CMOnBodyManager8shutdownEv
|| __TEXT.__text __ZN7antenna15CMOnBodyManagerC1EN8dispatch5queueE
|| __TEXT.__text __ZN7antenna15CMOnBodyManagerC2EN8dispatch5queueE
|| __TEXT.__text __ZN7antenna15CMOnBodyManagerD1Ev
|| __TEXT.__text __ZN7antenna15CMOnBodyManagerD2Ev
|| __TEXT.__text __ZN7antenna16HKWorkoutManager16registerCallbackEN8dispatch5blockIU13block_pointerFvN3abm11WorkoutTypeENS3_12WorkoutStateENS3_15WorkoutLocationENS3_12SwimLocationEEEE
|| __TEXT.__text __ZN7antenna16HKWorkoutManager4stopEv
|| __TEXT.__text __ZN7antenna16HKWorkoutManager5startEv
|| __TEXT.__text __ZN7antenna16HKWorkoutManager6createEN8dispatch8workloopE
|| __TEXT.__text __ZN7antenna16HKWorkoutManagerC1EN8dispatch8workloopE
|| __TEXT.__text __ZN7antenna16HKWorkoutManagerC2EN8dispatch8workloopE
|| __TEXT.__text __ZN7antenna16HKWorkoutManagerD0Ev
|| __TEXT.__text __ZN7antenna16HKWorkoutManagerD1Ev
|| __TEXT.__text __ZN7antenna16HKWorkoutManagerD2Ev
|| __TEXT.__text __ZN7antenna18IOKitEventNotifier14setMESAQualityEN3ctu5iokit31TelephonyIOKitMesaSignalQualityE
|| __TEXT.__text __ZN7antenna18IOKitEventNotifier16queryPowerSourceEv
|| __TEXT.__text __ZN7antenna18IOKitEventNotifier20registerCallbackMesaEN8dispatch8callbackIU13block_pointerFvN3ctu5iokit23TelephonyIOKitMesaEventEEEE
|| __TEXT.__text __ZN7antenna18IOKitEventNotifier21registerCallbackVideoEN8dispatch8callbackIU13block_pointerFvN3ctu5iokit25TelephonyIOKitDisplayLinkEEEE
|| __TEXT.__text __ZN7antenna18IOKitEventNotifier25registerCallbackAccessoryEN8dispatch8callbackIU13block_pointerFvN3ctu5iokit32TelephonyIOKitAccessoryParameterEEEE
|| __TEXT.__text __ZN7antenna18IOKitEventNotifier27registerCallbackPowerSourceEN8dispatch8callbackIU13block_pointerFvN3ctu5iokit25TelephonyIOKitPowerSourceEEEE
|| __TEXT.__text __ZN7antenna18IOKitEventNotifier29getAccessoryPrimaryPortNumberEv
|| __TEXT.__text __ZN7antenna18IOKitEventNotifier5startEv
|| __TEXT.__text __ZN7antenna18IOKitEventNotifier6createENSt3__110shared_ptrIN3ctu9LogServerEEEP11__CFRunLoop
|| __TEXT.__text __ZN7antenna18IOKitEventNotifier8shutdownEv
|| __TEXT.__text __ZN7antenna18IOKitEventNotifierC1ENSt3__110shared_ptrIN3ctu9LogServerEEEP11__CFRunLoop
|| __TEXT.__text __ZN7antenna18IOKitEventNotifierC2ENSt3__110shared_ptrIN3ctu9LogServerEEEP11__CFRunLoop
|| __TEXT.__text __ZN7antenna18IOKitEventNotifierD0Ev
|| __TEXT.__text __ZN7antenna18IOKitEventNotifierD1Ev
|| __TEXT.__text __ZN7antenna18IOKitEventNotifierD2Ev
|| __TEXT.__text __ZN7antenna22CMHandDetectionManager11isSupportedEv
|| __TEXT.__text __ZN7antenna22CMHandDetectionManager16registerCallbackEN8dispatch5blockIU13block_pointerFvNS0_21CMHandDetectionResultEEEE
|| __TEXT.__text __ZN7antenna22CMHandDetectionManager4stopEv
|| __TEXT.__text __ZN7antenna22CMHandDetectionManager5startEv
|| __TEXT.__text __ZN7antenna22CMHandDetectionManager6createEN8dispatch5queueENS1_8workloopE
|| __TEXT.__text __ZN7antenna22CMHandDetectionManager8shutdownEv
|| __TEXT.__text __ZN7antenna22CMHandDetectionManagerC1EN8dispatch5queueENS1_8workloopE
|| __TEXT.__text __ZN7antenna22CMHandDetectionManagerC2EN8dispatch5queueENS1_8workloopE
|| __TEXT.__text __ZN7antenna22CMHandDetectionManagerD1Ev
|| __TEXT.__text __ZN7antenna22CMHandDetectionManagerD2Ev
|| __TEXT.__text __ZN7antenna7Service10callActiveEv
|| __TEXT.__text __ZN7antenna7Service11stopServiceEv
|| __TEXT.__text __ZN7antenna7Service12callInactiveEv
|| __TEXT.__text __ZN7antenna7Service12exitLowPowerEv
|| __TEXT.__text __ZN7antenna7Service12startServiceEv
|| __TEXT.__text __ZN7antenna7Service13enterLowPowerEv
|| __TEXT.__text __ZN7antenna7Service13setAudioStateEN3xpc4dictE
|| __TEXT.__text __ZN7antenna7Service18antennaGetPropertyERKN3xpc4dictE
|| __TEXT.__text __ZN7antenna7Service18antennaSetPropertyERKN3xpc4dictE
|| __TEXT.__text __ZN7antenna7Service19setMotionThresholdsEN3xpc4dictE
|| __TEXT.__text __ZN7antenna7Service8Internal10callActiveEv
|| __TEXT.__text __ZN7antenna7Service8Internal11stopServiceEv
|| __TEXT.__text __ZN7antenna7Service8Internal12callInactiveEv
|| __TEXT.__text __ZN7antenna7Service8Internal12exitLowPowerEv
|| __TEXT.__text __ZN7antenna7Service8Internal12startServiceEv
|| __TEXT.__text __ZN7antenna7Service8Internal13enterLowPowerEv
|| __TEXT.__text __ZN7antenna7Service8Internal13lqmState_syncENS0_11LinkQualityE
|| __TEXT.__text __ZN7antenna7Service8Internal13setAudioStateEN3xpc4dictE
|| __TEXT.__text __ZN7antenna7Service8Internal14enablePPM_syncEb
|| __TEXT.__text __ZN7antenna7Service8Internal15isMotionSupportEv
|| __TEXT.__text __ZN7antenna7Service8Internal16calculateTxValueEjj
|| __TEXT.__text __ZN7antenna7Service8Internal16sendAudioSpeakerEv
|| __TEXT.__text __ZN7antenna7Service8Internal16setMaxPower_syncERKN3xpc4dictE
|| __TEXT.__text __ZN7antenna7Service8Internal16setMaxPower_syncEi
|| __TEXT.__text __ZN7antenna7Service8Internal16stopService_syncEv
|| __TEXT.__text __ZN7antenna7Service8Internal17getAccessoryStateEv
|| __TEXT.__text __ZN7antenna7Service8Internal17setupTxPower_syncEv
|| __TEXT.__text __ZN7antenna7Service8Internal17systemElapsedTimeEv
|| __TEXT.__text __ZN7antenna7Service8Internal18antennaGetPropertyERKN3xpc4dictE
|| __TEXT.__text __ZN7antenna7Service8Internal18antennaSetPropertyERKN3xpc4dictE
|| __TEXT.__text __ZN7antenna7Service8Internal18configTxPower_syncENS_14TxPowerSvcTypeE
|| __TEXT.__text __ZN7antenna7Service8Internal18configuration_syncEv
|| __TEXT.__text __ZN7antenna7Service8Internal18handDetectCallbackENS_22CMHandDetectionManager21CMHandDetectionResultE
|| __TEXT.__text __ZN7antenna7Service8Internal19setMotionThresholdsEN3xpc4dictE
|| __TEXT.__text __ZN7antenna7Service8Internal20handleDumpState_syncEv
|| __TEXT.__text __ZN7antenna7Service8Internal20sendPowerSource_syncEv
|| __TEXT.__text __ZN7antenna7Service8Internal20sendWorkoutInfo_syncEv
|| __TEXT.__text __ZN7antenna7Service8Internal20systemTimeDifferenceEjj
|| __TEXT.__text __ZN7antenna7Service8Internal20transmitStateHandlerENS_15BBTransmitStateENS_17BBTransmitTriggerE
|| __TEXT.__text __ZN7antenna7Service8Internal21isAccessoryOverriddenEv
|| __TEXT.__text __ZN7antenna7Service8Internal21isHandednessConditionEv
|| __TEXT.__text __ZN7antenna7Service8Internal21mesaNotification_syncEN3ctu5iokit23TelephonyIOKitMesaEventE
|| __TEXT.__text __ZN7antenna7Service8Internal21sendAudioSpeaker_syncEv
|| __TEXT.__text __ZN7antenna7Service8Internal22isAudioAnyOutputActiveEv
|| __TEXT.__text __ZN7antenna7Service8Internal22stopHandDetection_syncEv
|| __TEXT.__text __ZN7antenna7Service8Internal22videoNotification_syncEN3ctu5iokit25TelephonyIOKitDisplayLinkE
|| __TEXT.__text __ZN7antenna7Service8Internal23isMotionOnTablePositionEv
|| __TEXT.__text __ZN7antenna7Service8Internal23sendAudioAccessory_syncEv
|| __TEXT.__text __ZN7antenna7Service8Internal23sendDeviceMaterial_syncEv
|| __TEXT.__text __ZN7antenna7Service8Internal23sendVideoAccessory_syncEb
|| __TEXT.__text __ZN7antenna7Service8Internal23stopTxPowerCapping_syncEv
|| __TEXT.__text __ZN7antenna7Service8Internal24getPowerSourceState_syncEv
|| __TEXT.__text __ZN7antenna7Service8Internal24isAudioOtherOutputActiveEv
|| __TEXT.__text __ZN7antenna7Service8Internal24sendAccessoryStatus_syncEv
|| __TEXT.__text __ZN7antenna7Service8Internal24setTxPowerAudioMode_syncERKN3xpc4dictE
|| __TEXT.__text __ZN7antenna7Service8Internal24setTxPowerPlayAlert_syncENS0_24TxPowerCappingIPhoneModeE
|| __TEXT.__text __ZN7antenna7Service8Internal24startTxPowerCapping_syncEv
|| __TEXT.__text __ZN7antenna7Service8Internal24stopMotionDetection_syncEv
|| __TEXT.__text __ZN7antenna7Service8Internal25copyTxPowerAudioMode_syncEv
|| __TEXT.__text __ZN7antenna7Service8Internal25enableTxPowerCapping_syncEb
|| __TEXT.__text __ZN7antenna7Service8Internal25getTxPowerAudioModeStringEv
|| __TEXT.__text __ZN7antenna7Service8Internal25motionDetectCallback_syncENS_15CMOnBodyManager14CMOnBodyResultENS2_24CMOnBodyResultConfidenceE
|| __TEXT.__text __ZN7antenna7Service8Internal25processHandDetection_syncEv
|| __TEXT.__text __ZN7antenna7Service8Internal25setLinkQualityMetric_syncENS0_11LinkQualityE
|| __TEXT.__text __ZN7antenna7Service8Internal25setTxPowerAudioAlert_syncERKN3xpc4dictE
|| __TEXT.__text __ZN7antenna7Service8Internal25setTxPowerMotionMode_syncERKN3xpc4dictE
|| __TEXT.__text __ZN7antenna7Service8Internal25startMotionDetection_syncEv
|| __TEXT.__text __ZN7antenna7Service8Internal26accessoryNotification_syncEN3ctu5iokit32TelephonyIOKitAccessoryParameterE
|| __TEXT.__text __ZN7antenna7Service8Internal26copyTxPowerAudioAlert_syncEv
|| __TEXT.__text __ZN7antenna7Service8Internal26copyTxPowerMotionMode_syncEv
|| __TEXT.__text __ZN7antenna7Service8Internal26getTxPowerMotionModeStringEv
|| __TEXT.__text __ZN7antenna7Service8Internal26isAudioSpeakerOutputActiveEv
|| __TEXT.__text __ZN7antenna7Service8Internal27isAudioReceiverOutputActiveEv
|| __TEXT.__text __ZN7antenna7Service8Internal28checkStartHandDetection_syncEv
|| __TEXT.__text __ZN7antenna7Service8Internal28createTransmitStateDict_syncENS_15BBTransmitStateENS_17BBTransmitTriggerE
|| __TEXT.__text __ZN7antenna7Service8Internal28getTxPowerCappingCurrentModeEv
|| __TEXT.__text __ZN7antenna7Service8Internal28isPowerSourceOverridden_syncEv
|| __TEXT.__text __ZN7antenna7Service8Internal28powerSourceNotification_syncEN3ctu5iokit25TelephonyIOKitPowerSourceE
|| __TEXT.__text __ZN7antenna7Service8Internal29stopTxPowerCappingIPhone_syncEv
|| __TEXT.__text __ZN7antenna7Service8Internal30startTxPowerCappingIPhone_syncEv
|| __TEXT.__text __ZN7antenna7Service8Internal30stopTxMotionCallbackTimer_syncEv
|| __TEXT.__text __ZN7antenna7Service8Internal31isAudioReceiverOutputOnlyActiveEv
|| __TEXT.__text __ZN7antenna7Service8Internal31sendTxPowerCappingIPadMode_syncEv
|| __TEXT.__text __ZN7antenna7Service8Internal31startTxMotionCallbackTimer_syncEv
|| __TEXT.__text __ZN7antenna7Service8Internal32setTxPowerCappingIPhoneMode_syncERKN3xpc4dictE
|| __TEXT.__text __ZN7antenna7Service8Internal32stopTxPowerCappingIPadTimer_syncEv
|| __TEXT.__text __ZN7antenna7Service8Internal33copyTxPowerCappingIPhoneMode_syncEv
|| __TEXT.__text __ZN7antenna7Service8Internal33sendMotionHandDetectionState_syncENS_22CMHandDetectionManager21CMHandDetectionResultE
|| __TEXT.__text __ZN7antenna7Service8Internal33startTxPowerCappingIPadTimer_syncEv
|| __TEXT.__text __ZN7antenna7Service8Internal34setTxPowerMotionHandDetection_syncENSt3__112basic_stringIcNS2_11char_traitsIcEENS2_9allocatorIcEEEE
|| __TEXT.__text __ZN7antenna7Service8Internal34stopTxPowerCappingIPhoneTimer_syncEv
|| __TEXT.__text __ZN7antenna7Service8Internal35enableTxPowerCappingIndication_syncEv
|| __TEXT.__text __ZN7antenna7Service8Internal35startTxPowerCappingIPhoneTimer_syncEv
|| __TEXT.__text __ZN7antenna7Service8Internal36handleMotionCallbackTimerExpiry_syncEv
|| __TEXT.__text __ZN7antenna7Service8Internal37enableTxPowerCappingNotification_syncEb
|| __TEXT.__text __ZN7antenna7Service8Internal37getTxPowerCappingAntennaFreeSpaceModeEv
|| __TEXT.__text __ZN7antenna7Service8Internal37handleTxPowerCappingIPadResponse_syncEb
|| __TEXT.__text __ZN7antenna7Service8Internal37stopTxPowerCappingIPadWithMotion_syncEv
|| __TEXT.__text __ZN7antenna7Service8Internal38getTxPowerCappingIPhoneModeString_syncERKNS0_24TxPowerCappingIPhoneModeE
|| __TEXT.__text __ZN7antenna7Service8Internal38startTxPowerCappingIPadWithMotion_syncEv
|| __TEXT.__text __ZN7antenna7Service8Internal40getTxPowerIPadWithMotionCappingMode_syncEv
|| __TEXT.__text __ZN7antenna7Service8Internal40handleTxPowerCappingIPadTimerExpiry_syncEv
|| __TEXT.__text __ZN7antenna7Service8Internal42handleTxPowerCappingIPhoneTimerExpiry_syncEv
|| __TEXT.__text __ZN7antenna7Service8Internal42stopTxPowerCappingIPadWithMotionTimer_syncEv
|| __TEXT.__text __ZN7antenna7Service8Internal43startTxPowerCappingIPadWithMotionTimer_syncEv
|| __TEXT.__text __ZN7antenna7Service8Internal45setTxPowerCappingIPhoneOverrideFreeSpace_syncERKN3xpc6objectE
|| __TEXT.__text __ZN7antenna7Service8Internal4initEv
|| __TEXT.__text __ZN7antenna7Service8Internal50handleTxPowerCappingIPadWithMotionTimerExpiry_syncEv
|| __TEXT.__text __ZN7antenna7Service8Internal53getTxPowerCappingIPhoneOverriddenFreeSpaceString_syncEv
|| __TEXT.__text __ZN7antenna7Service8Internal6createENSt3__110shared_ptrIN3ctu9LogServerEEEN8dispatch8callbackIU13block_pointerFvN3xpc4dictEEEENS7_8workloopE
|| __TEXT.__text __ZN7antenna7Service8Internal8shutdownEv
|| __TEXT.__text __ZN7antenna7Service8Internal9dumpStateEv
|| __TEXT.__text __ZN7antenna7Service8InternalC1ENSt3__110shared_ptrIN3ctu9LogServerEEEN8dispatch8callbackIU13block_pointerFvN3xpc4dictEEEENS7_8workloopE
|| __TEXT.__text __ZN7antenna7Service8InternalC2ENSt3__110shared_ptrIN3ctu9LogServerEEEN8dispatch8callbackIU13block_pointerFvN3xpc4dictEEEENS7_8workloopE
|| __TEXT.__text __ZN7antenna7Service8shutdownEv
|| __TEXT.__text __ZN7antenna7Service9dumpStateEv
|| __TEXT.__text __ZN7antenna7ServiceC1ENSt3__110shared_ptrIN3ctu9LogServerEEEN8dispatch8callbackIU13block_pointerFvN3xpc4dictEEEENS6_8workloopE
|| __TEXT.__text __ZN7antenna7ServiceC2ENSt3__110shared_ptrIN3ctu9LogServerEEEN8dispatch8callbackIU13block_pointerFvN3xpc4dictEEEENS6_8workloopE
|| __TEXT.__text __ZN7antenna7ServiceD1Ev
|| __TEXT.__text __ZN7antenna7ServiceD2Ev
|| __TEXT.__text __ZN8FSModule10initializeEN8dispatch13group_sessionE
|| __TEXT.__text __ZN8FSModule13requestFSSyncEjN8dispatch8callbackIU13block_pointerFvbEEE
|| __TEXT.__text __ZN8FSModule17handleResult_syncEb
|| __TEXT.__text __ZN8FSModule17submitMetric_syncEb
|| __TEXT.__text __ZN8FSModule18requestFSSync_syncEv
|| __TEXT.__text __ZN8FSModule18resetBaseband_syncERKNSt3__112basic_stringIcNS0_11char_traitsIcEENS0_9allocatorIcEEEE
|| __TEXT.__text __ZN8FSModule20cancelSyncTimer_syncEv
|| __TEXT.__text __ZN8FSModule21restartSyncTimer_syncEv
|| __TEXT.__text __ZN8FSModule23requestFSSyncIndicationEv
|| __TEXT.__text __ZN8FSModule24handleBasebandReset_syncEv
|| __TEXT.__text __ZN8FSModule25finishInitialization_syncEv
|| __TEXT.__text __ZN8FSModule25handleBasebandBooted_syncEv
|| __TEXT.__text __ZN8FSModule25repeatFlushOperation_syncEv
|| __TEXT.__text __ZN8FSModule26eraseRemoteFileSystem_syncEv
|| __TEXT.__text __ZN8FSModule4initEv
|| __TEXT.__text __ZN8FSModule4wakeEN8dispatch13group_sessionE
|| __TEXT.__text __ZN8FSModule5sleepEN8dispatch13group_sessionE
|| __TEXT.__text __ZN8FSModule5startEN8dispatch13group_sessionE
|| __TEXT.__text __ZN8FSModule6createENSt3__18weak_ptrI14ServiceManagerEE
|| __TEXT.__text __ZN8FSModule8shutdownE13ShutdownStageN8dispatch13group_sessionE
|| __TEXT.__text __ZN8FSModuleC1ENSt3__18weak_ptrI14ServiceManagerEE
|| __TEXT.__text __ZN8FSModuleC2ENSt3__18weak_ptrI14ServiceManagerEE
|| __TEXT.__text __ZN8FSModuleD0Ev
|| __TEXT.__text __ZN8FSModuleD1Ev
|| __TEXT.__text __ZN8FSModuleD2Ev
|| __TEXT.__text __ZN8StatsAWD11submit_syncEjN3xpc6objectE
|| __TEXT.__text __ZN8StatsAWD15fillMetric_syncERNSt3__110unique_ptrIN3awd7metrics17CommCenterNVMSyncENS0_14default_deleteIS4_EEEEN3xpc6objectE
|| __TEXT.__text __ZN8StatsAWD15fillMetric_syncERNSt3__110unique_ptrIN3awd7metrics18CommCenterWakeInfoENS0_14default_deleteIS4_EEEEN3xpc6objectE
|| __TEXT.__text __ZN8StatsAWD15fillMetric_syncERNSt3__110unique_ptrIN3awd7metrics22CommCenterBasebanCrashENS0_14default_deleteIS4_EEEEN3xpc6objectE
|| __TEXT.__text __ZN8StatsAWD15fillMetric_syncERNSt3__110unique_ptrIN3awd7metrics23CommCenterBasebandTraceENS0_14default_deleteIS4_EEEEN3xpc6objectE
|| __TEXT.__text __ZN8StatsAWD15fillMetric_syncERNSt3__110unique_ptrIN3awd7metrics23CommCenterLowPowerEventENS0_14default_deleteIS4_EEEEN3xpc6objectE
|| __TEXT.__text __ZN8StatsAWD15fillMetric_syncERNSt3__110unique_ptrIN3awd7metrics23CommCenterLowPowerStatsENS0_14default_deleteIS4_EEEEN3xpc6objectE
|| __TEXT.__text __ZN8StatsAWD15fillMetric_syncERNSt3__110unique_ptrIN3awd7metrics26CommCenterBasebandBootTimeENS0_14default_deleteIS4_EEEEN3xpc6objectE
|| __TEXT.__text __ZN8StatsAWD4initEv
|| __TEXT.__text __ZN8StatsAWD6createEv
|| __TEXT.__text __ZN8StatsAWD6submitEjN3xpc6objectE
|| __TEXT.__text __ZN8StatsAWDC1Ev
|| __TEXT.__text __ZN8StatsAWDC2Ev
|| __TEXT.__text __ZN8StatsAWDD0Ev
|| __TEXT.__text __ZN8StatsAWDD1Ev
|| __TEXT.__text __ZN8StatsAWDD2Ev
|| __TEXT.__text __ZN8defaults10systemlogs11max_historyEv
|| __TEXT.__text __ZN8defaults10systemlogs24userConfirmationRequiredEv
|| __TEXT.__text __ZN8defaults10systemlogs3getERKNSt3__112basic_stringIcNS1_11char_traitsIcEENS1_9allocatorIcEEEERS7_
|| __TEXT.__text __ZN8defaults10systemlogs4modeEv
|| __TEXT.__text __ZN8defaults10systemlogs7historyEv
|| __TEXT.__text __ZN8defaults10systemlogs9supportedEv
|| __TEXT.__text __ZN8defaults11compression3getERKNSt3__112basic_stringIcNS1_11char_traitsIcEENS1_9allocatorIcEEEERS7_
|| __TEXT.__text __ZN8defaults11compression4modeEv
|| __TEXT.__text __ZN8defaults11compression9supportedEv
|| __TEXT.__text __ZN8defaults13tracesettings3getERKNSt3__112basic_stringIcNS1_11char_traitsIcEENS1_9allocatorIcEEEERS7_
|| __TEXT.__text __ZN8defaults13tracesettings6configEv
|| __TEXT.__text __ZN8defaults3ddt3getERKNSt3__112basic_stringIcNS1_11char_traitsIcEENS1_9allocatorIcEEEERS7_
|| __TEXT.__text __ZN8defaults3ddt7enabledEv
|| __TEXT.__text __ZN8defaults3ddt9supportedEv
|| __TEXT.__text __ZN8defaults3getERKNSt3__112basic_stringIcNS0_11char_traitsIcEENS0_9allocatorIcEEEES8_RS6_
|| __TEXT.__text __ZN8defaults3ipc12buffer_countEv
|| __TEXT.__text __ZN8defaults3ipc3getERKNSt3__112basic_stringIcNS1_11char_traitsIcEENS1_9allocatorIcEEEERS7_
|| __TEXT.__text __ZN8defaults3ipc7enabledEv
|| __TEXT.__text __ZN8defaults3ipc7historyEv
|| __TEXT.__text __ZN8defaults3ttr3getERKNSt3__112basic_stringIcNS1_11char_traitsIcEENS1_9allocatorIcEEEERS7_
|| __TEXT.__text __ZN8defaults3ttr4modeEv
|| __TEXT.__text __ZN8defaults3ttr9supportedEv
|| __TEXT.__text __ZN8defaults5bbipc3getERKNSt3__112basic_stringIcNS1_11char_traitsIcEENS1_9allocatorIcEEEERS7_
|| __TEXT.__text __ZN8defaults5bbipc7enabledEv
|| __TEXT.__text __ZN8defaults6helper9supportedEv
|| __TEXT.__text __ZN8defaults7bbtrace11max_historyEv
|| __TEXT.__text __ZN8defaults7bbtrace11primary_dmcEv
|| __TEXT.__text __ZN8defaults7bbtrace13secondary_dmcEv
|| __TEXT.__text __ZN8defaults7bbtrace14low_water_markEv
|| __TEXT.__text __ZN8defaults7bbtrace14stall_recoveryEv
|| __TEXT.__text __ZN8defaults7bbtrace15high_water_markEv
|| __TEXT.__text __ZN8defaults7bbtrace15stall_detectionEv
|| __TEXT.__text __ZN8defaults7bbtrace17keep_scratch_logsEv
|| __TEXT.__text __ZN8defaults7bbtrace20buffering_on_ap_wakeEv
|| __TEXT.__text __ZN8defaults7bbtrace20enabled_during_sleepEv
|| __TEXT.__text __ZN8defaults7bbtrace21max_memory_file_countEv
|| __TEXT.__text __ZN8defaults7bbtrace3getERKNSt3__112basic_stringIcNS1_11char_traitsIcEENS1_9allocatorIcEEEERS7_
|| __TEXT.__text __ZN8defaults7bbtrace4modeEv
|| __TEXT.__text __ZN8defaults7bbtrace7enabledEv
|| __TEXT.__text __ZN8defaults7bbtrace7historyEv
|| __TEXT.__text __ZN8defaults7bbtrace9extra_dmcEv
|| __TEXT.__text __ZN8defaults7bbtrace9sleep_dmcEv
|| __TEXT.__text __ZN8defaults7profile3getERKNSt3__112basic_stringIcNS1_11char_traitsIcEENS1_9allocatorIcEEEERS7_
|| __TEXT.__text __ZN8defaults7profile7enabledEv
|| __TEXT.__text __ZN8defaults7profile7versionEv
|| __TEXT.__text __ZN8defaults8coredump3getERKNSt3__112basic_stringIcNS1_11char_traitsIcEENS1_9allocatorIcEEEERS7_
|| __TEXT.__text __ZN8defaults8coredump7enabledEv
|| __TEXT.__text __ZN8defaults9logfilter13max_log_limitEv
|| __TEXT.__text __ZN8defaults9logfilter16free_space_limitEv
|| __TEXT.__text __ZN8defaults9logfilter3getERKNSt3__112basic_stringIcNS1_11char_traitsIcEENS1_9allocatorIcEEEERS7_
|| __TEXT.__text __ZN8defaults9logfilter9supportedEv
|| __TEXT.__text __ZN9ABMServer10getProfileEv
|| __TEXT.__text __ZN9ABMServer10getRunLoopEv
|| __TEXT.__text __ZN9ABMServer21create_default_globalEv
|| __TEXT.__text __ZN9ABMServer24previousShutdownWasCleanEv
|| __TEXT.__text __ZN9ABMServer4initENSt3__112basic_stringIcNS0_11char_traitsIcEENS0_9allocatorIcEEEENS0_10shared_ptrI14ServiceManagerEE
|| __TEXT.__text __ZN9ABMServer4stopEP16dispatch_group_s
|| __TEXT.__text __ZN9ABMServer5startEP16dispatch_group_s
|| __TEXT.__text __ZN9ABMServer8shutdownEP16dispatch_group_s
|| __TEXT.__text __ZN9ABMServer9broadcastENSt3__112basic_stringIcNS0_11char_traitsIcEENS0_9allocatorIcEEEEN3ctu2cf11CFSharedRefIK14__CFDictionaryEEN8dispatch5blockIU13block_pointerFvvEEE
|| __TEXT.__text __ZN9ABMServerC1Ev
|| __TEXT.__text __ZN9ABMServerC2Ev
|| __TEXT.__text __ZN9BootStats10updateDataEN3ctu2cf11CFSharedRefIK14__CFDictionaryEEN3xpc4dictE
|| __TEXT.__text __ZN9BootStats14createInternalEv
|| __TEXT.__text __ZN9BootStats4initEN3abm5stats7StatsIDE
|| __TEXT.__text __ZN9BootStatsC1Ev
|| __TEXT.__text __ZN9BootStatsC2Ev
|| __TEXT.__text __ZN9BootStatsD0Ev
|| __TEXT.__text __ZN9BootStatsD1Ev
|| __TEXT.__text __ZN9BootStatsD2Ev
|| __TEXT.__text __ZN9ResetInfo10setSubTypeEPK10__CFString
|| __TEXT.__text __ZN9ResetInfo13fetchFromDictERN3xpc4dictE
|| __TEXT.__text __ZN9ResetInfo7setTimeENSt3__112basic_stringIcNS0_11char_traitsIcEENS0_9allocatorIcEEEE
|| __TEXT.__text __ZN9ResetInfo7setTypeEPK10__CFString
|| __TEXT.__text __ZN9ResetInfo8setRadarEN3abm6helper9RadarTypeE
|| __TEXT.__text __ZN9ResetInfo9setReasonERKNSt3__112basic_stringIcNS0_11char_traitsIcEENS0_9allocatorIcEEEE
|| __TEXT.__text __ZN9ResetInfoC1EPK10__CFStringS2_NSt3__112basic_stringIcNS3_11char_traitsIcEENS3_9allocatorIcEEEES9_N3abm6helper9RadarTypeE
|| __TEXT.__text __ZN9ResetInfoC1ERKNSt3__112basic_stringIcNS0_11char_traitsIcEENS0_9allocatorIcEEEES8_S8_S6_N3abm6helper9RadarTypeE
|| __TEXT.__text __ZN9ResetInfoC1Ev
|| __TEXT.__text __ZN9ResetInfoC2EPK10__CFStringS2_NSt3__112basic_stringIcNS3_11char_traitsIcEENS3_9allocatorIcEEEES9_N3abm6helper9RadarTypeE
|| __TEXT.__text __ZN9ResetInfoC2ERKNSt3__112basic_stringIcNS0_11char_traitsIcEENS0_9allocatorIcEEEES8_S8_S6_N3abm6helper9RadarTypeE
|| __TEXT.__text __ZN9ResetInfoC2Ev
|| __TEXT.__text __ZN9ResetInfoD1Ev
|| __TEXT.__text __ZN9ResetInfoD2Ev
|| __TEXT.__text __ZN9Simulator10initializeEN8dispatch13group_sessionE
|| __TEXT.__text __ZN9Simulator25finishInitialization_syncEv
|| __TEXT.__text __ZN9Simulator37handleSimulatedPowerNotification_syncEj
|| __TEXT.__text __ZN9Simulator5startEN8dispatch13group_sessionE
|| __TEXT.__text __ZN9Simulator6createENSt3__18weak_ptrI14ServiceManagerEE
|| __TEXT.__text __ZN9Simulator8shutdownE13ShutdownStageN8dispatch13group_sessionE
|| __TEXT.__text __ZN9SimulatorC1ENSt3__18weak_ptrI14ServiceManagerEE
|| __TEXT.__text __ZN9SimulatorC2ENSt3__18weak_ptrI14ServiceManagerEE
|| __TEXT.__text __ZN9Timestamp3nowER7timeval
|| __TEXT.__text __ZN9Timestamp3setERK7timevalNS_10TimeDomainE
|| __TEXT.__text __ZN9TimestampC1ERK7timevalNS_10TimeDomainE
|| __TEXT.__text __ZN9TimestampC1ERKS_
|| __TEXT.__text __ZN9TimestampC1ElNS_10TimeDomainE
|| __TEXT.__text __ZN9TimestampC1Ev
|| __TEXT.__text __ZN9TimestampC2ERK7timevalNS_10TimeDomainE
|| __TEXT.__text __ZN9TimestampC2ERKS_
|| __TEXT.__text __ZN9TimestampC2ElNS_10TimeDomainE
|| __TEXT.__text __ZN9TimestampC2Ev
|| __TEXT.__text __ZNK10BootModule17getShutdownStagesEv
|| __TEXT.__text __ZNK10BootModule21getPowerAssertionNameEv
|| __TEXT.__text __ZNK10BootModule7getNameEv
|| __TEXT.__text __ZNK10BudgetData8for_eachENSt3__18functionIFbRK15BudgetTimeScaleRKNS0_8optionalIjEEEEE
|| __TEXT.__text __ZNK10CPMSModule7getNameEv
|| __TEXT.__text __ZNK10LogTracker7getNameEv
|| __TEXT.__text __ZNK10PowerStats25submitWakeInfoMetric_syncEN3awd7metrics19CommCenterSleepTypeEjj
|| __TEXT.__text __ZNK10PowerStats30submitLowPowerEventMetric_syncEN3awd7metrics27CommCenterLowPowerEventTypeENS1_19CommCenterSleepTypeENSt3__112basic_stringIcNS4_11char_traitsIcEENS4_9allocatorIcEEEE
|| __TEXT.__text __ZNK10PowerStats30submitLowPowerStatsMetric_syncEv
|| __TEXT.__text __ZNK10PowerStats7getNameEv
|| __TEXT.__text __ZNK11PowerBudget8asStringE15BudgetTimeScale
|| __TEXT.__text __ZNK11PowerBudget9to_stringEv
|| __TEXT.__text __ZNK11RadioModule17getShutdownStagesEv
|| __TEXT.__text __ZNK11RadioModule7getNameEv
|| __TEXT.__text __ZNK11StatsModule17getShutdownStagesEv
|| __TEXT.__text __ZNK11StatsModule7getNameEv
|| __TEXT.__text __ZNK11TraceModule14traceSupportedERKNSt3__112basic_stringIcNS0_11char_traitsIcEENS0_9allocatorIcEEEE
|| __TEXT.__text __ZNK11TraceModule16getTraceNoAssertERKNSt3__112basic_stringIcNS0_11char_traitsIcEENS0_9allocatorIcEEEE
|| __TEXT.__text __ZNK11TraceModule18getLastCrashReasonERNSt3__112basic_stringIcNS0_11char_traitsIcEENS0_9allocatorIcEEEE
|| __TEXT.__text __ZNK11TraceModule22isStateTransitionValidENS_5StateE
|| __TEXT.__text __ZNK11TraceModule7getNameEv
|| __TEXT.__text __ZNK11TraceModule8getTraceERKNSt3__112basic_stringIcNS0_11char_traitsIcEENS0_9allocatorIcEEEE
|| __TEXT.__text __ZNK12Capabilities14isCarrierBuildEv
|| __TEXT.__text __ZNK12Capabilities15isCPMSSupportedEv
|| __TEXT.__text __ZNK12Capabilities15isInternalBuildEv
|| __TEXT.__text __ZNK12Capabilities20isETSBypassSupportedEv
|| __TEXT.__text __ZNK12Capabilities30isTraceBackgroundModeSupportedEv
|| __TEXT.__text __ZNK12QMIXpcServer7getNameEv
|| __TEXT.__text __ZNK12TraceManager17getShutdownStagesEv
|| __TEXT.__text __ZNK12TraceManager22submitTraceMetric_syncENSt3__112basic_stringIcNS0_11char_traitsIcEENS0_9allocatorIcEEEES6_
|| __TEXT.__text __ZNK12TraceManager7getNameEv
|| __TEXT.__text __ZNK13AntennaModule17getShutdownStagesEv
|| __TEXT.__text __ZNK13AntennaModule7getNameEv
|| __TEXT.__text __ZNK13DriverFactory17getShutdownStagesEv
|| __TEXT.__text __ZNK13DriverFactory7getNameEv
|| __TEXT.__text __ZNK14BootController7getNameEv
|| __TEXT.__text __ZNK14ResetDetection7getNameEv
|| __TEXT.__text __ZNK14ServiceManager10runCommandERKNSt3__112basic_stringIcNS0_11char_traitsIcEENS0_9allocatorIcEEEEN3xpc4dictEN8dispatch5blockIU13block_pointerFviSA_EEE
|| __TEXT.__text __ZNK14ServiceManager12isServerDownEv
|| __TEXT.__text __ZNK14ServiceManager14broadcastEventENSt3__112basic_stringIcNS0_11char_traitsIcEENS0_9allocatorIcEEEEN3ctu2cf11CFSharedRefIK14__CFDictionaryEEN8dispatch5blockIU13block_pointerFvvEEE
|| __TEXT.__text __ZNK14ServiceManager22registerCommandHandlerERKNSt3__112basic_stringIcNS0_11char_traitsIcEENS0_9allocatorIcEEEEN8dispatch5blockIU13block_pointerFvN3xpc4dictENSA_IU13block_pointerFviSC_EEEEEE
|| __TEXT.__text __ZNK15TransportModule17getShutdownStagesEv
|| __TEXT.__text __ZNK15TransportModule7getNameEv
|| __TEXT.__text __ZNK16NetworkingModule20getBundleIDList_syncERKNSt3__112basic_stringIcNS0_11char_traitsIcEENS0_9allocatorIcEEEE
|| __TEXT.__text __ZNK16NetworkingModule7getNameEv
|| __TEXT.__text __ZNK17ABMServerInternal7getNameEv
|| __TEXT.__text __ZNK17ABMServiceManager7getNameEv
|| __TEXT.__text __ZNK17ServerClientState7getNameEv
|| __TEXT.__text __ZNK18DataStallDetection7getNameEv
|| __TEXT.__text __ZNK19QMITransportService7getNameEv
|| __TEXT.__text __ZNK21CircularFileLogWriter21generateFileName_syncEm
|| __TEXT.__text __ZNK21NetworkStatsInterface15applyInterfacesEU13block_pointerFvP7ifaddrsjE
|| __TEXT.__text __ZNK21NetworkStatsInterface16getInterfaceListEv
|| __TEXT.__text __ZNK21NetworkStatsInterface7getNameEv
|| __TEXT.__text __ZNK3awd7metrics15CrashReasonType11GetTypeNameEv
|| __TEXT.__text __ZNK3awd7metrics15CrashReasonType13IsInitializedEv
|| __TEXT.__text __ZNK3awd7metrics15CrashReasonType13SetCachedSizeEi
|| __TEXT.__text __ZNK3awd7metrics15CrashReasonType24SerializeWithCachedSizesEPN20wireless_diagnostics6google8protobuf2io17CodedOutputStreamE
|| __TEXT.__text __ZNK3awd7metrics15CrashReasonType3NewEv
|| __TEXT.__text __ZNK3awd7metrics15CrashReasonType8ByteSizeEv
|| __TEXT.__text __ZNK3awd7metrics17CommCenterNVMSync11GetTypeNameEv
|| __TEXT.__text __ZNK3awd7metrics17CommCenterNVMSync13IsInitializedEv
|| __TEXT.__text __ZNK3awd7metrics17CommCenterNVMSync13SetCachedSizeEi
|| __TEXT.__text __ZNK3awd7metrics17CommCenterNVMSync24SerializeWithCachedSizesEPN20wireless_diagnostics6google8protobuf2io17CodedOutputStreamE
|| __TEXT.__text __ZNK3awd7metrics17CommCenterNVMSync3NewEv
|| __TEXT.__text __ZNK3awd7metrics17CommCenterNVMSync8ByteSizeEv
|| __TEXT.__text __ZNK3awd7metrics18CommCenterWakeInfo11GetTypeNameEv
|| __TEXT.__text __ZNK3awd7metrics18CommCenterWakeInfo13IsInitializedEv
|| __TEXT.__text __ZNK3awd7metrics18CommCenterWakeInfo13SetCachedSizeEi
|| __TEXT.__text __ZNK3awd7metrics18CommCenterWakeInfo24SerializeWithCachedSizesEPN20wireless_diagnostics6google8protobuf2io17CodedOutputStreamE
|| __TEXT.__text __ZNK3awd7metrics18CommCenterWakeInfo3NewEv
|| __TEXT.__text __ZNK3awd7metrics18CommCenterWakeInfo8ByteSizeEv
|| __TEXT.__text __ZNK3awd7metrics22CommCenterBasebanCrash11GetTypeNameEv
|| __TEXT.__text __ZNK3awd7metrics22CommCenterBasebanCrash13IsInitializedEv
|| __TEXT.__text __ZNK3awd7metrics22CommCenterBasebanCrash13SetCachedSizeEi
|| __TEXT.__text __ZNK3awd7metrics22CommCenterBasebanCrash24SerializeWithCachedSizesEPN20wireless_diagnostics6google8protobuf2io17CodedOutputStreamE
|| __TEXT.__text __ZNK3awd7metrics22CommCenterBasebanCrash3NewEv
|| __TEXT.__text __ZNK3awd7metrics22CommCenterBasebanCrash8ByteSizeEv
|| __TEXT.__text __ZNK3awd7metrics23CommCenterBasebandTrace11GetTypeNameEv
|| __TEXT.__text __ZNK3awd7metrics23CommCenterBasebandTrace13IsInitializedEv
|| __TEXT.__text __ZNK3awd7metrics23CommCenterBasebandTrace13SetCachedSizeEi
|| __TEXT.__text __ZNK3awd7metrics23CommCenterBasebandTrace24SerializeWithCachedSizesEPN20wireless_diagnostics6google8protobuf2io17CodedOutputStreamE
|| __TEXT.__text __ZNK3awd7metrics23CommCenterBasebandTrace3NewEv
|| __TEXT.__text __ZNK3awd7metrics23CommCenterBasebandTrace8ByteSizeEv
|| __TEXT.__text __ZNK3awd7metrics23CommCenterLowPowerEvent11GetTypeNameEv
|| __TEXT.__text __ZNK3awd7metrics23CommCenterLowPowerEvent13IsInitializedEv
|| __TEXT.__text __ZNK3awd7metrics23CommCenterLowPowerEvent13SetCachedSizeEi
|| __TEXT.__text __ZNK3awd7metrics23CommCenterLowPowerEvent24SerializeWithCachedSizesEPN20wireless_diagnostics6google8protobuf2io17CodedOutputStreamE
|| __TEXT.__text __ZNK3awd7metrics23CommCenterLowPowerEvent3NewEv
|| __TEXT.__text __ZNK3awd7metrics23CommCenterLowPowerEvent8ByteSizeEv
|| __TEXT.__text __ZNK3awd7metrics23CommCenterLowPowerStats11GetTypeNameEv
|| __TEXT.__text __ZNK3awd7metrics23CommCenterLowPowerStats13IsInitializedEv
|| __TEXT.__text __ZNK3awd7metrics23CommCenterLowPowerStats13SetCachedSizeEi
|| __TEXT.__text __ZNK3awd7metrics23CommCenterLowPowerStats24SerializeWithCachedSizesEPN20wireless_diagnostics6google8protobuf2io17CodedOutputStreamE
|| __TEXT.__text __ZNK3awd7metrics23CommCenterLowPowerStats3NewEv
|| __TEXT.__text __ZNK3awd7metrics23CommCenterLowPowerStats8ByteSizeEv
|| __TEXT.__text __ZNK3awd7metrics25CommCenterMissedMTMessage11GetTypeNameEv
|| __TEXT.__text __ZNK3awd7metrics25CommCenterMissedMTMessage13IsInitializedEv
|| __TEXT.__text __ZNK3awd7metrics25CommCenterMissedMTMessage13SetCachedSizeEi
|| __TEXT.__text __ZNK3awd7metrics25CommCenterMissedMTMessage24SerializeWithCachedSizesEPN20wireless_diagnostics6google8protobuf2io17CodedOutputStreamE
|| __TEXT.__text __ZNK3awd7metrics25CommCenterMissedMTMessage3NewEv
|| __TEXT.__text __ZNK3awd7metrics25CommCenterMissedMTMessage8ByteSizeEv
|| __TEXT.__text __ZNK3awd7metrics26CommCenterBasebandBootTime11GetTypeNameEv
|| __TEXT.__text __ZNK3awd7metrics26CommCenterBasebandBootTime13IsInitializedEv
|| __TEXT.__text __ZNK3awd7metrics26CommCenterBasebandBootTime13SetCachedSizeEi
|| __TEXT.__text __ZNK3awd7metrics26CommCenterBasebandBootTime24SerializeWithCachedSizesEPN20wireless_diagnostics6google8protobuf2io17CodedOutputStreamE
|| __TEXT.__text __ZNK3awd7metrics26CommCenterBasebandBootTime3NewEv
|| __TEXT.__text __ZNK3awd7metrics26CommCenterBasebandBootTime8ByteSizeEv
|| __TEXT.__text __ZNK3awd7metrics27CommCenterPowerVotingRecord11GetTypeNameEv
|| __TEXT.__text __ZNK3awd7metrics27CommCenterPowerVotingRecord13IsInitializedEv
|| __TEXT.__text __ZNK3awd7metrics27CommCenterPowerVotingRecord13SetCachedSizeEi
|| __TEXT.__text __ZNK3awd7metrics27CommCenterPowerVotingRecord24SerializeWithCachedSizesEPN20wireless_diagnostics6google8protobuf2io17CodedOutputStreamE
|| __TEXT.__text __ZNK3awd7metrics27CommCenterPowerVotingRecord3NewEv
|| __TEXT.__text __ZNK3awd7metrics27CommCenterPowerVotingRecord8ByteSizeEv
|| __TEXT.__text __ZNK3awd7metrics32CommCenterPowerTransitionFailure11GetTypeNameEv
|| __TEXT.__text __ZNK3awd7metrics32CommCenterPowerTransitionFailure13IsInitializedEv
|| __TEXT.__text __ZNK3awd7metrics32CommCenterPowerTransitionFailure13SetCachedSizeEi
|| __TEXT.__text __ZNK3awd7metrics32CommCenterPowerTransitionFailure24SerializeWithCachedSizesEPN20wireless_diagnostics6google8protobuf2io17CodedOutputStreamE
|| __TEXT.__text __ZNK3awd7metrics32CommCenterPowerTransitionFailure3NewEv
|| __TEXT.__text __ZNK3awd7metrics32CommCenterPowerTransitionFailure8ByteSizeEv
|| __TEXT.__text __ZNK3awd7metrics32CommCenterPowerTransitionSuccess11GetTypeNameEv
|| __TEXT.__text __ZNK3awd7metrics32CommCenterPowerTransitionSuccess13IsInitializedEv
|| __TEXT.__text __ZNK3awd7metrics32CommCenterPowerTransitionSuccess13SetCachedSizeEi
|| __TEXT.__text __ZNK3awd7metrics32CommCenterPowerTransitionSuccess24SerializeWithCachedSizesEPN20wireless_diagnostics6google8protobuf2io17CodedOutputStreamE
|| __TEXT.__text __ZNK3awd7metrics32CommCenterPowerTransitionSuccess3NewEv
|| __TEXT.__text __ZNK3awd7metrics32CommCenterPowerTransitionSuccess8ByteSizeEv
|| __TEXT.__text __ZNK4coex6Module17getShutdownStagesEv
|| __TEXT.__text __ZNK4coex6Module5State17getShutdownStagesEv
|| __TEXT.__text __ZNK4coex6Module5State7getNameEv
|| __TEXT.__text __ZNK4coex6Module7getNameEv
|| __TEXT.__text __ZNK5radio13HealthService5State7getNameEv
|| __TEXT.__text __ZNK7Service10runCommandERKNSt3__112basic_stringIcNS0_11char_traitsIcEENS0_9allocatorIcEEEEN3xpc4dictEN8dispatch5blockIU13block_pointerFviSA_EEE
|| __TEXT.__text __ZNK7Service12isServerDownEv
|| __TEXT.__text __ZNK7Service14broadcastEventENSt3__112basic_stringIcNS0_11char_traitsIcEENS0_9allocatorIcEEEEN3ctu2cf11CFSharedRefIK14__CFDictionaryEEN8dispatch5blockIU13block_pointerFvvEEE
|| __TEXT.__text __ZNK7Service14broadcastEventENSt3__112basic_stringIcNS0_11char_traitsIcEENS0_9allocatorIcEEEEN3xpc4dictEN8dispatch5blockIU13block_pointerFvvEEE
|| __TEXT.__text __ZNK7Service21getRegisteredCommandsEv
|| __TEXT.__text __ZNK7antenna10PPMManager7getNameEv
|| __TEXT.__text __ZNK7antenna16HKWorkoutManager7getNameEv
|| __TEXT.__text __ZNK7antenna18IOKitEventNotifier7getNameEv
|| __TEXT.__text __ZNK7antenna7Service8Internal7getNameEv
|| __TEXT.__text __ZNK8FSModule17getShutdownStagesEv
|| __TEXT.__text __ZNK8FSModule7getNameEv
|| __TEXT.__text __ZNK8StatsAWD7getNameEv
|| __TEXT.__text __ZNK9ResetInfo10getSubTypeEv
|| __TEXT.__text __ZNK9ResetInfo6isMTBFEv
|| __TEXT.__text __ZNK9ResetInfo7getTimeEv
|| __TEXT.__text __ZNK9ResetInfo7getTypeEv
|| __TEXT.__text __ZNK9ResetInfo8asStringEv
|| __TEXT.__text __ZNK9ResetInfo8getRadarEv
|| __TEXT.__text __ZNK9ResetInfo9addToDictERN3ctu2cf11CFSharedRefI14__CFDictionaryEE
|| __TEXT.__text __ZNK9ResetInfo9addToDictERN3xpc4dictE
|| __TEXT.__text __ZNK9ResetInfo9getReasonEv
|| __TEXT.__text __ZNK9Simulator17getShutdownStagesEv
|| __TEXT.__text __ZNK9Simulator7getNameEv
|| __TEXT.__text __ZNK9Timestamp3getER7timevalNS_10TimeDomainE
|| __TEXT.__text __ZNK9Timestamp8asStringENS_10TimeDomainENS_6FormatE
|| __TEXT.__text __ZThn104_N11TraceModuleD0Ev
|| __TEXT.__text __ZThn104_N11TraceModuleD1Ev
|| __TEXT.__text __ZThn104_N19QMITransportService12enableBypassEb
|| __TEXT.__text __ZThn104_N19QMITransportService12exitLowPowerEN8dispatch13group_sessionE
|| __TEXT.__text __ZThn104_N19QMITransportService13enterLowPowerEN8dispatch13group_sessionE
|| __TEXT.__text __ZThn104_N19QMITransportService20configureHistorySizeEj
|| __TEXT.__text __ZThn104_N19QMITransportService21registerForWakeReasonEN8dispatch8callbackIU13block_pointerFv10WakeReasonEEE
|| __TEXT.__text __ZThn104_N19QMITransportService25shouldTeardownOnWillResetEv
|| __TEXT.__text __ZThn104_N19QMITransportService28reportPowerDownMessages_syncEv
|| __TEXT.__text __ZThn104_N19QMITransportService4initEv
|| __TEXT.__text __ZThn104_N19QMITransportService6engageEv
|| __TEXT.__text __ZThn104_N19QMITransportService7recoverEv
|| __TEXT.__text __ZThn104_N19QMITransportService8shutdownEv
|| __TEXT.__text __ZThn104_N19QMITransportService8snapshotENSt3__112basic_stringIcNS0_11char_traitsIcEENS0_9allocatorIcEEEE
|| __TEXT.__text __ZThn104_N19QMITransportService8tearDownEv
|| __TEXT.__text __ZThn104_N19QMITransportService9dumpStateEv
|| __TEXT.__text __ZThn104_NK19QMITransportService7getNameEv
|| __TEXT.__text __ZThn160_N18EURRouterIPCDriver18createQMuxChannelsERKNSt3__112basic_stringIcNS0_11char_traitsIcEENS0_9allocatorIcEEEEbb
|| __TEXT.__text __ZThn160_N18EURRouterIPCDriver8activateEv
|| __TEXT.__text __ZThn160_N18EURRouterIPCDriverD0Ev
|| __TEXT.__text __ZThn160_N18EURRouterIPCDriverD1Ev
|| __TEXT.__text __ZThn208_N18EURRouterIPCDriverD0Ev
|| __TEXT.__text __ZThn208_N18EURRouterIPCDriverD1Ev
|| __TEXT.__text __ZThn320_N18EURRouterIPCDriver19handleInternalErrorEPKc
|| __TEXT.__text __ZThn320_N18EURRouterIPCDriverD0Ev
|| __TEXT.__text __ZThn320_N18EURRouterIPCDriverD1Ev
|| __TEXT.__text __ZThn48_N10BootModuleD0Ev
|| __TEXT.__text __ZThn48_N10BootModuleD1Ev
|| __TEXT.__text __ZThn48_N10CPMSModuleD0Ev
|| __TEXT.__text __ZThn48_N10CPMSModuleD1Ev
|| __TEXT.__text __ZThn48_N10LogTrackerD0Ev
|| __TEXT.__text __ZThn48_N10LogTrackerD1Ev
|| __TEXT.__text __ZThn48_N11RadioModuleD0Ev
|| __TEXT.__text __ZThn48_N11RadioModuleD1Ev
|| __TEXT.__text __ZThn48_N11StatsModuleD0Ev
|| __TEXT.__text __ZThn48_N11StatsModuleD1Ev
|| __TEXT.__text __ZThn48_N12TraceManagerD0Ev
|| __TEXT.__text __ZThn48_N12TraceManagerD1Ev
|| __TEXT.__text __ZThn48_N13AntennaModuleD0Ev
|| __TEXT.__text __ZThn48_N13AntennaModuleD1Ev
|| __TEXT.__text __ZThn48_N15RouterIPCDriverD0Ev
|| __TEXT.__text __ZThn48_N15RouterIPCDriverD1Ev
|| __TEXT.__text __ZThn48_N15TransportModuleD0Ev
|| __TEXT.__text __ZThn48_N15TransportModuleD1Ev
|| __TEXT.__text __ZThn48_N16NetworkingModuleD0Ev
|| __TEXT.__text __ZThn48_N16NetworkingModuleD1Ev
|| __TEXT.__text __ZThn48_N8FSModuleD0Ev
|| __TEXT.__text __ZThn48_N8FSModuleD1Ev
|| __TEXT.__text __ZThn72_N17ABMServerInternalD0Ev
|| __TEXT.__text __ZThn72_N17ABMServerInternalD1Ev
|| __TEXT.__text __ZThn72_N4coex9XpcClientD0Ev
|| __TEXT.__text __ZThn72_N4coex9XpcClientD1Ev
__ ABMHelper: __ZN3abm12HelperClient22registerForHelperReadyENS_6helper6UserIDEN8dispatch8callbackIU13block_pointerFvN12TelephonyXPC6ResultEN3xpc4dictEEEE
__ ABMHelper: __ZN3abm12HelperClient6createEPKcNSt3__110shared_ptrIN3ctu9LogServerEEE
__ ABMHelper: __ZN3abm12HelperClient7performENS_6helper6TaskIDEPKcN3xpc4dictEN8dispatch8callbackIU13block_pointerFvN12TelephonyXPC6ResultES6_EEE
__ ABMHelper: __ZN3abm12HelperClient7performENS_6helper6TaskIDEPKcN3xpc4dictERS6_
__ ABMHelper: __ZN3abm12kTraceFilterE
__ ABMHelper: __ZN3abm13kBBDumpPrefixE
__ ABMHelper: __ZN3abm13kKeyRadarTypeE
__ ABMHelper: __ZN3abm13kKeyTraceModeE
__ ABMHelper: __ZN3abm13kKeyTraceNameE
__ ABMHelper: __ZN3abm13kTraceProfileE
__ ABMHelper: __ZN3abm14kDefaultReasonE
__ ABMHelper: __ZN3abm14kTraceBasebandE
__ ABMHelper: __ZN3abm14kTraceCoreDumpE
__ ABMHelper: __ZN3abm14kTraceSettingsE
__ ABMHelper: __ZN3abm15kKeyTraceActionE
__ ABMHelper: __ZN3abm16kKeyTraceEnabledE
__ ABMHelper: __ZN3abm16kKeyTraceHistoryE
__ ABMHelper: __ZN3abm16kTraceSystemLogsE
__ ABMHelper: __ZN3abm16kTraceTapToRadarE
__ ABMHelper: __ZN3abm17kShutdownAllTraceE
__ ABMHelper: __ZN3abm17kTraceBasebandIPCE
__ ABMHelper: __ZN3abm17kTraceCompressionE
__ ABMHelper: __ZN3abm19kKeyTraceConfigPathE
__ ABMHelper: __ZN3abm19kKeyTraceFilterTypeE
__ ABMHelper: __ZN3abm20kCollectBasebandLogsE
__ ABMHelper: __ZN3abm20kKeyTraceFilterValueE
__ ABMHelper: __ZN3abm20kKeyTraceTimeToPurgeE
__ ABMHelper: __ZN3abm21kCollectTelephonyLogsE
__ ABMHelper: __ZN3abm21kKeyTraceFilterActionE
__ ABMHelper: __ZN3abm21kKeyTracePropertyNameE
__ ABMHelper: __ZN3abm21kTraceFilterFreeSpaceE
__ ABMHelper: __ZN3abm22kCommandAddTraceFilterE
__ ABMHelper: __ZN3abm22kCommandGetTraceFilterE
__ ABMHelper: __ZN3abm22kCommandTraceDumpStateE
__ ABMHelper: __ZN3abm22kKeyTraceDumpStatePathE
__ ABMHelper: __ZN3abm22kKeyTracePropertyValueE
__ ABMHelper: __ZN3abm22kTraceFilterActionLiteE
__ ABMHelper: __ZN3abm22kTraceFilterActionNoneE
__ ABMHelper: __ZN3abm23kEventTraceDumpStateEndE
__ ABMHelper: __ZN3abm23kTraceFilterMaxLogLimitE
__ ABMHelper: __ZN3abm24kCommandGetTracePropertyE
__ ABMHelper: __ZN3abm24kCommandSetTracePropertyE
__ ABMHelper: __ZN3abm24kKeyTraceDumpStateReasonE
__ ABMHelper: __ZN3abm24kKeyTraceSettingsVersionE
__ ABMHelper: __ZN3abm25kCommandRemoveTraceFilterE
__ ABMHelper: __ZN3abm25kEventTraceDumpStateBeginE
__ ABMHelper: __ZN3abm25kEventTraceDumpStateOsLogE
__ ABMHelper: __ZN3abm25kEventTracePropertyUpdateE
__ ABMHelper: __ZN3abm25kKeyTraceSettingsSelectedE
__ ABMHelper: __ZN3abm25kKeyTraceUserConfirmationE
__ ABMHelper: __ZN3abm27kCollectCommCenterCrashLogsE
__ ABMHelper: __ZN3abm27kKeyTraceMaxMemoryFileCountE
__ ABMHelper: __ZN3abm28kEventTracePostProcessingEndE
__ ABMHelper: __ZN3abm30kCommandTraceDumpStateInternalE
__ ABMHelper: __ZN3abm32kCommandGetTracePropertyInternalE
__ ABMHelper: __ZN3abm32kCommandSetTracePropertyInternalE
__ ABMHelper: __ZN3abm33kCollectTelephonyLogsWithCoredumpE
__ ABMHelper: __ZN3abm34kKeyTracePropertyWaitForCompletionE
__ ABMHelper: __ZN3abm36kKeyTraceDumpStatePerformCompressionE
__ ABMHelper: __ZN3abm36kTraceInstalledCarrierProfileVersionE
__ ABMHelper: __ZN3abm5trace11isSupportedENSt3__112basic_stringIcNS1_11char_traitsIcEENS1_9allocatorIcEEEE
__ ABMHelper: __ZN3abm5trace12kEURCoreDumpE
__ ABMHelper: __ZN3abm5trace12kICECoreDumpE
__ ABMHelper: __ZN3abm5trace12kTrashFolderE
__ ABMHelper: __ZN3abm5trace13kLogDirPrefixE
__ ABMHelper: __ZN3abm5trace14kScratchFolderE
__ ABMHelper: __ZN3abm5trace15kDDTFilePostFixE
__ ABMHelper: __ZN3abm5trace15kSnapshotFolderE
__ ABMHelper: __ZN3abm5trace17kLogCCCrashPrefixE
__ ABMHelper: __ZN3abm5trace18kSysdiagnosePrefixE
__ ABMHelper: __ZN3abm5trace19kUncompressedFolderE
__ ABMHelper: __ZN3abm5trace22kCommCenterCrashReasonE
__ ABMHelper: __ZN3abm5trace23kABMLogSummaryExtensionE
__ ABMHelper: __ZN3abm5trace23kDumpIndicationFilePathE
__ ABMHelper: __ZN3abm5trace24kCellularDEDumpingReasonE
__ ABMHelper: __ZN3abm5trace27kNumberOfLogsInSnapshotPathE
__ ABMHelper: __ZN3abm5trace28isDumpLogIndicationSupportedEv
__ ABMHelper: __ZN3abm5trace5kDIAGE
__ ABMHelper: __ZN3abm5trace9isAllowedEv
__ ABMHelper: __ZN3abm5trace9kICETraceE
__ ABMHelper: __ZN3abm6helper11kKeyHistoryE
__ ABMHelper: __ZN3abm6helper11kKeyLogPathE
__ ABMHelper: __ZN3abm6helper11kKeyTimeoutE
__ ABMHelper: __ZN3abm6helper13kKeyRadarTypeE
__ ABMHelper: __ZN3abm6helper13kKeyTraceNameE
__ ABMHelper: __ZN3abm6helper14kKeyRadarTitleE
__ ABMHelper: __ZN3abm6helper15kKeyPackagePathE
__ ABMHelper: __ZN3abm6helper15kKeyProcessNameE
__ ABMHelper: __ZN3abm6helper15kKeyProfileNameE
__ ABMHelper: __ZN3abm6helper15kKeyPropertyKeyE
__ ABMHelper: __ZN3abm6helper15kKeyRadarActionE
__ ABMHelper: __ZN3abm6helper16kKeyRadarMessageE
__ ABMHelper: __ZN3abm6helper17kCommandDumpStateE
__ ABMHelper: __ZN3abm6helper17kKeyArchiveSourceE
__ ABMHelper: __ZN3abm6helper17kKeyPropertyValueE
__ ABMHelper: __ZN3abm6helper18kCommandCaptureDDTE
__ ABMHelper: __ZN3abm6helper18kCommandTraceAbortE
__ ABMHelper: __ZN3abm6helper18kCommandTraceFlushE
__ ABMHelper: __ZN3abm6helper18kCommandTraceStartE
__ ABMHelper: __ZN3abm6helper19kCommandCollectLogsE
__ ABMHelper: __ZN3abm6helper19kCommandSetPropertyE
__ ABMHelper: __ZN3abm6helper19kCommandTraceReinitE
__ ABMHelper: __ZN3abm6helper19kKeyDumpStateReasonE
__ ABMHelper: __ZN3abm6helper19kKeySysdiagnosePathE
__ ABMHelper: __ZN3abm6helper19kKeyTimestampStringE
__ ABMHelper: __ZN3abm6helper20kCommandPrepareRadarE
__ ABMHelper: __ZN3abm6helper20kCommandTracePrepareE
__ ABMHelper: __ZN3abm6helper20kKeyRadarAttachmentsE
__ ABMHelper: __ZN3abm6helper21kCommandCreateArchiveE
__ ABMHelper: __ZN3abm6helper21kCommandTraceShutdownE
__ ABMHelper: __ZN3abm6helper22kCommandInstallProfileE
__ ABMHelper: __ZN3abm6helper23kKeyBasebandCrashReasonE
__ ABMHelper: __ZN3abm6helper24kCommandUninstallProfileE
__ ABMHelper: __ZN3abm6helper25kCommandOsLogTextSnapshotE
__ ABMHelper: __ZN3abm6helper25kCommandSysdiagnoseStatusE
__ ABMHelper: __ZN3abm6helper25kCommandTraceExitLowPowerE
__ ABMHelper: __ZN3abm6helper26kCommandGetLastCrashReasonE
__ ABMHelper: __ZN3abm6helper26kCommandSetLastCrashReasonE
__ ABMHelper: __ZN3abm6helper26kCommandTraceEnterLowPowerE
__ ABMHelper: __ZN3abm6helper27kCommandCollectBasebandLogsE
__ ABMHelper: __ZN3abm6helper27kCommandSysdiagnoseSnapshotE
__ ABMHelper: __ZN3abm6helper27kKeyRequireUserConfirmationE
__ ABMHelper: __ZN3abm6helper28kCommandOsLogArchiveSnapshotE
__ ABMHelper: __ZN3abm6helper29kCommandOsLogProcessingStatusE
__ ABMHelper: __ZN3abm6helper33kDefaultCarrierLoggingProfileNameE
__ ABMHelper: __ZN3abm6helper6asEnumEPKc
__ ABMHelper: __ZN3abm6helper8asStringENS0_13LoggingConfigE
__ ABMHelper: __ZN3abm6helper8asStringENS0_14SystemLogsModeE
__ ABMHelper: __ZN3abm6helper8asStringENS0_15CompressionModeE
__ ABMHelper: __ZN3abm6helper8kKeyModeE
__ ABMHelper: __ZN3abm8kTraceBBE
__ ABMHelper: __ZN3abm9kTraceDDTE
__ ABMHelper: __ZN3abm9kTraceIPCE
__ ABMHelper: __ZN4util12equal_nocaseERKNSt3__112basic_stringIcNS0_11char_traitsIcEENS0_9allocatorIcEEEES8_
__ ABMHelper: __ZN4util14moveDirContentENSt3__112basic_stringIcNS0_11char_traitsIcEENS0_9allocatorIcEEEES6_jNS0_11basic_regexIcNS0_12regex_traitsIcEEEE
__ ABMHelper: __ZN4util23readPlistToCFDictionaryENSt3__112basic_stringIcNS0_11char_traitsIcEENS0_9allocatorIcEEEE
__ ABMHelper: __ZN4util8to_upperERNSt3__112basic_stringIcNS0_11char_traitsIcEENS0_9allocatorIcEEEE
__ ABMHelper: __ZN4util9writeJSONEN3xpc4dictENSt3__112basic_stringIcNS2_11char_traitsIcEENS2_9allocatorIcEEEE
__ ABMHelper: __ZN5trace25kKeyActiveTraceConfigFileE
__ AppleBasebandManager: __ZN20AppleBasebandManager15setEventHandlerENSt3__112basic_stringIcNS0_11char_traitsIcEENS0_9allocatorIcEEEEN8dispatch8callbackIU13block_pointerFvNS0_10shared_ptrIN3abm6client5EventEEEEEE
__ AppleBasebandManager: __ZN20AppleBasebandManager6createENSt3__112basic_stringIcNS0_11char_traitsIcEENS0_9allocatorIcEEEEN3ctu2cf11CFSharedRefIK14__CFDictionaryEE
__ AppleBasebandManager: __ZN20AppleBasebandManager8eventsOnEv
__ AppleBasebandManager: __ZN3abm10kE75TypeR5E
__ AppleBasebandManager: __ZN3abm10kKeyActionE
__ AppleBasebandManager: __ZN3abm11kE75TypeR54E
__ AppleBasebandManager: __ZN3abm11kE75TypeR55E
__ AppleBasebandManager: __ZN3abm11kE75TypeR56E
__ AppleBasebandManager: __ZN3abm11kE75TypeR74E
__ AppleBasebandManager: __ZN3abm11kE75TypeR75E
__ AppleBasebandManager: __ZN3abm11kE75TypeR76E
__ AppleBasebandManager: __ZN3abm11kGetCLTMPPME
__ AppleBasebandManager: __ZN3abm11kKeyEnabledE
__ AppleBasebandManager: __ZN3abm11kKeyTimeoutE
__ AppleBasebandManager: __ZN3abm11kOverridingE
__ AppleBasebandManager: __ZN3abm11kSetCLTMPPME
__ AppleBasebandManager: __ZN3abm12kE75TypeB141E
__ AppleBasebandManager: __ZN3abm12kE75TypeB204E
__ AppleBasebandManager: __ZN3abm12kE75TypeB223E
__ AppleBasebandManager: __ZN3abm12kE75TypeB225E
__ AppleBasebandManager: __ZN3abm13kKeyStatsDataE
__ AppleBasebandManager: __ZN3abm13kKeyStatsTypeE
__ AppleBasebandManager: __ZN3abm14kCommandSetMCCE
__ AppleBasebandManager: __ZN3abm14kKeyLogSummaryE
__ AppleBasebandManager: __ZN3abm15kCommandSimTestE
__ AppleBasebandManager: __ZN3abm15kKeyErrorStringE
__ AppleBasebandManager: __ZN3abm15kKeyServerStateE
__ AppleBasebandManager: __ZN3abm15kKeyStatsDataIDE
__ AppleBasebandManager: __ZN3abm16kCTRadioMaxPowerE
__ AppleBasebandManager: __ZN3abm16kCommandGetStatsE
__ AppleBasebandManager: __ZN3abm16kKeyABMDomainPIDE
__ AppleBasebandManager: __ZN3abm16kKeyAudioOutputsE
__ AppleBasebandManager: __ZN3abm17kCTAccessoryStateE
__ AppleBasebandManager: __ZN3abm17kCommandSetBundleE
__ AppleBasebandManager: __ZN3abm17kE75StateAttachedE
__ AppleBasebandManager: __ZN3abm17kE75StateDetachedE
__ AppleBasebandManager: __ZN3abm17kEventBrickEnableE
__ AppleBasebandManager: __ZN3abm17kKeyAWDPowerCountE
__ AppleBasebandManager: __ZN3abm17kKeyAWDPowerMsgIDE
__ AppleBasebandManager: __ZN3abm17kKeyAWDPowerWakesE
__ AppleBasebandManager: __ZN3abm17kUnknownTimestampE
__ AppleBasebandManager: __ZN3abm18kCommandCallActiveE
__ AppleBasebandManager: __ZN3abm18kKeyAWDBootAttemptE
__ AppleBasebandManager: __ZN3abm18kKeyAWDBootSuccessE
__ AppleBasebandManager: __ZN3abm18kKeyAWDPowerReasonE
__ AppleBasebandManager: __ZN3abm18kKeyAudioWiredPortE
__ AppleBasebandManager: __ZN3abm18kKeyPreFlightErrorE
__ AppleBasebandManager: __ZN3abm18kKeySimTestPayloadE
__ AppleBasebandManager: __ZN3abm19kCTThermalTxBackoffE
__ AppleBasebandManager: __ZN3abm19kKeyAWDBootBootTimeE
__ AppleBasebandManager: __ZN3abm19kKeyBasebandVersionE
__ AppleBasebandManager: __ZN3abm19kKeyStatsBootUpTimeE
__ AppleBasebandManager: __ZN3abm19kKeyTimestampStringE
__ AppleBasebandManager: __ZN3abm19kServerStateStartedE
__ AppleBasebandManager: __ZN3abm19kServerStateStoppedE
__ AppleBasebandManager: __ZN3abm20kBasebandNVDataEraseE
__ AppleBasebandManager: __ZN3abm20kCTOverriddenE75TypeE
__ AppleBasebandManager: __ZN3abm20kCommandCallInactiveE
__ AppleBasebandManager: __ZN3abm20kCommandGetFreeSpaceE
__ AppleBasebandManager: __ZN3abm20kCommandSetFreeSpaceE
__ AppleBasebandManager: __ZN3abm20kEventABMHasShutdownE
__ AppleBasebandManager: __ZN3abm20kKeyABMDomainHWModelE
__ AppleBasebandManager: __ZN3abm20kKeyABMDomainVersionE
__ AppleBasebandManager: __ZN3abm20kKeyAWDNVMSyncReasonE
__ AppleBasebandManager: __ZN3abm20kKeyAWDTraceFileNameE
__ AppleBasebandManager: __ZN3abm20kKeyBasebandBootTimeE
__ AppleBasebandManager: __ZN3abm20kKeyCommandGetPKHashE
__ AppleBasebandManager: __ZN3abm20kKeyFSSyncInProgressE
__ AppleBasebandManager: __ZN3abm20kKeyFSSyncNotStartedE
__ AppleBasebandManager: __ZN3abm20kKeyLogSummaryDomainE
__ AppleBasebandManager: __ZN3abm20kLogSummaryABMDomainE
__ AppleBasebandManager: __ZN3abm20kPPMOverriddenEnableE
__ AppleBasebandManager: __ZN3abm20kServerStateStartingE
__ AppleBasebandManager: __ZN3abm20kServerStateStoppingE
__ AppleBasebandManager: __ZN3abm20kTxPowerAudioAlertOnE
__ AppleBasebandManager: __ZN3abm20kTxPowerAudioSpeakerE
__ AppleBasebandManager: __ZN3abm21kAntennaModuleDebugOnE
__ AppleBasebandManager: __ZN3abm21kCTThermalTxDutyCycleE
__ AppleBasebandManager: __ZN3abm21kCTTxPowerCommandDataE
__ AppleBasebandManager: __ZN3abm21kCommandResetBasebandE
__ AppleBasebandManager: __ZN3abm21kCommandSetAudioStateE
__ AppleBasebandManager: __ZN3abm21kEventBasebandVersionE
__ AppleBasebandManager: __ZN3abm21kKeyABMDomainBootArgsE
__ AppleBasebandManager: __ZN3abm21kKeyAWDNVMSyncSuccessE
__ AppleBasebandManager: __ZN3abm21kKeyAWDPowerEventTypeE
__ AppleBasebandManager: __ZN3abm21kKeyAWDPowerOpDeferesE
__ AppleBasebandManager: __ZN3abm21kKeyAWDPowerSleepTypeE
__ AppleBasebandManager: __ZN3abm21kKeyAudioOutputsOtherE
__ AppleBasebandManager: __ZN3abm21kKeyBasebandBootStateE
__ AppleBasebandManager: __ZN3abm21kKeyBasebandResetTypeE
__ AppleBasebandManager: __ZN3abm21kLogSummaryDumpDomainE
__ AppleBasebandManager: __ZN3abm21kPPMOverriddenDisableE
__ AppleBasebandManager: __ZN3abm21kTxPowerAudioAlertOffE
__ AppleBasebandManager: __ZN3abm22kAntennaModuleDebugOffE
__ AppleBasebandManager: __ZN3abm22kBasebandBootStateDeadE
__ AppleBasebandManager: __ZN3abm22kBasebandResetTypeHardE
__ AppleBasebandManager: __ZN3abm22kBasebandResetTypeSoftE
__ AppleBasebandManager: __ZN3abm22kCTSetTxPowerAudioModeE
__ AppleBasebandManager: __ZN3abm22kCTTxPowerCommandReplyE
__ AppleBasebandManager: __ZN3abm22kCommandBasebandNVDataE
__ AppleBasebandManager: __ZN3abm22kCommandBasebandSyncFSE
__ AppleBasebandManager: __ZN3abm22kCommandGetAntennaPortE
__ AppleBasebandManager: __ZN3abm22kCommandReportStatsAWDE
__ AppleBasebandManager: __ZN3abm22kCommandSetAntennaPortE
__ AppleBasebandManager: __ZN3abm22kCommandTxTrasmitStateE
__ AppleBasebandManager: __ZN3abm22kEventBasebandPowerOffE
__ AppleBasebandManager: __ZN3abm22kGetAntennaModuleDebugE
__ AppleBasebandManager: __ZN3abm22kGetPPMOverriddenStateE
__ AppleBasebandManager: __ZN3abm22kKeyABMDomainBBVersionE
__ AppleBasebandManager: __ZN3abm22kKeyABMDomainOSVersionE
__ AppleBasebandManager: __ZN3abm22kKeyABMDomainRadioTypeE
__ AppleBasebandManager: __ZN3abm22kKeyAWDNVMSyncDurationE
__ AppleBasebandManager: __ZN3abm22kKeyAWDPowerIdleSleepsE
__ AppleBasebandManager: __ZN3abm22kKeyAWDTraceLineNumberE
__ AppleBasebandManager: __ZN3abm22kKeyAudioConnectedPortE
__ AppleBasebandManager: __ZN3abm22kKeyBasebandEngageTimeE
__ AppleBasebandManager: __ZN3abm22kKeyCallBackIdentifierE
__ AppleBasebandManager: __ZN3abm22kKeyCommandGetManifestE
__ AppleBasebandManager: __ZN3abm22kKeyLogSummaryDumpPathE
__ AppleBasebandManager: __ZN3abm22kKeyLogSummaryDumpTimeE
__ AppleBasebandManager: __ZN3abm22kSetAntennaModuleDebugE
__ AppleBasebandManager: __ZN3abm22kSetPPMOverriddenStateE
__ AppleBasebandManager: __ZN3abm22kTxPowerAudioModeOtherE
__ AppleBasebandManager: __ZN3abm23kCTCopyTxPowerAudioModeE
__ AppleBasebandManager: __ZN3abm23kCTSetTxPowerAudioAlertE
__ AppleBasebandManager: __ZN3abm23kCTTxPowerAudioModeAutoE
__ AppleBasebandManager: __ZN3abm23kCTTxPowerCommandStringE
__ AppleBasebandManager: __ZN3abm23kCommandGetBasebandTimeE
__ AppleBasebandManager: __ZN3abm23kEventLogSummaryRequestE
__ AppleBasebandManager: __ZN3abm23kEventServerStateChangeE
__ AppleBasebandManager: __ZN3abm23kKeyAWDPowerForceSleepsE
__ AppleBasebandManager: __ZN3abm23kKeyAWDPowerMissedMTMsgE
__ AppleBasebandManager: __ZN3abm23kKeyAWDPowerServiceTypeE
__ AppleBasebandManager: __ZN3abm23kKeyAWDTraceCrashReasonE
__ AppleBasebandManager: __ZN3abm23kKeyAWDTraceRequestTypeE
__ AppleBasebandManager: __ZN3abm23kKeyAudioOutputsSpeakerE
__ AppleBasebandManager: __ZN3abm23kKeyBasebandCrashReasonE
__ AppleBasebandManager: __ZN3abm23kKeyBasebandResetIsMTBFE
__ AppleBasebandManager: __ZN3abm23kKeyBasebandResetReasonE
__ AppleBasebandManager: __ZN3abm23kKeyBasebandTimeSecondsE
__ AppleBasebandManager: __ZN3abm23kLogSummaryConfigDomainE
__ AppleBasebandManager: __ZN3abm24kBasebandBootStateBootedE
__ AppleBasebandManager: __ZN3abm24kCTCopyTxPowerAudioAlertE
__ AppleBasebandManager: __ZN3abm24kCTTxPowerAudioModeOtherE
__ AppleBasebandManager: __ZN3abm24kCommandAddNetworkPolicyE
__ AppleBasebandManager: __ZN3abm24kCommandGetNetworkPolicyE
__ AppleBasebandManager: __ZN3abm24kCommandReportLogSummaryE
__ AppleBasebandManager: __ZN3abm24kCommandTryBlindScanningE
__ AppleBasebandManager: __ZN3abm24kEventBasebandWakeReasonE
__ AppleBasebandManager: __ZN3abm24kKeyAWDPowerMissedMTTypeE
__ AppleBasebandManager: __ZN3abm24kKeyAWDPowerOpInterruptsE
__ AppleBasebandManager: __ZN3abm24kKeyAudioOutputsReceiverE
__ AppleBasebandManager: __ZN3abm24kKeyBasebandNVDataActionE
__ AppleBasebandManager: __ZN3abm24kKeyBasebandResetSubTypeE
__ AppleBasebandManager: __ZN3abm24kKeyBasebandTimeAsStringE
__ AppleBasebandManager: __ZN3abm24kKeyLogSummaryDumpReasonE
__ AppleBasebandManager: __ZN3abm24kKeyTransportBypassStateE
__ AppleBasebandManager: __ZN3abm24kTxPowerAudioModeHandsetE
__ AppleBasebandManager: __ZN3abm24kTxPowerCappingIPhoneOffE
__ AppleBasebandManager: __ZN3abm24kTxPowerMotionModeMovingE
__ AppleBasebandManager: __ZN3abm24kTxPowerMotionModeStaticE
__ AppleBasebandManager: __ZN3abm25kBasebandBootStateIsReadyE
__ AppleBasebandManager: __ZN3abm25kBasebandBootStateUnknownE
__ AppleBasebandManager: __ZN3abm25kCTSetTxPowerEnhancedModeE
__ AppleBasebandManager: __ZN3abm25kDeviceMaterialOverriddenE
__ AppleBasebandManager: __ZN3abm25kKeyAWDPowerLastSleepTypeE
__ AppleBasebandManager: __ZN3abm25kKeyAWDTraceRequestReasonE
__ AppleBasebandManager: __ZN3abm25kKeyBasebandImagePushTimeE
__ AppleBasebandManager: __ZN3abm25kKeyBasebandOperatingModeE
__ AppleBasebandManager: __ZN3abm25kKeyLogSummaryBBResetTypeE
__ AppleBasebandManager: __ZN3abm25kKeyLogSummaryTraceActionE
__ AppleBasebandManager: __ZN3abm25kKeyNetworkPolicyBundleIDE
__ AppleBasebandManager: __ZN3abm25kTxPowerCappingIPhoneBodyE
__ AppleBasebandManager: __ZN3abm25kTxPowerCappingIPhoneHeadE
__ AppleBasebandManager: __ZN3abm26kBasebandBootStateDidResetE
__ AppleBasebandManager: __ZN3abm26kCTCellularLongTransmitEndE
__ AppleBasebandManager: __ZN3abm26kCTCopyTxPowerEnhancedModeE
__ AppleBasebandManager: __ZN3abm26kCTTxPowerAudioModeHandsetE
__ AppleBasebandManager: __ZN3abm26kCTTxPowerAudioModeSpeakerE
__ AppleBasebandManager: __ZN3abm26kCommandGetAntennaPropertyE
__ AppleBasebandManager: __ZN3abm26kCommandRegisterLogSummaryE
__ AppleBasebandManager: __ZN3abm26kCommandSetAntennaPropertyE
__ AppleBasebandManager: __ZN3abm26kCopyAccessoryStateCommandE
__ AppleBasebandManager: __ZN3abm26kEventBasebandNVDataErasedE
__ AppleBasebandManager: __ZN3abm26kKeyAWDPowerNumMissedMTMsgE
__ AppleBasebandManager: __ZN3abm26kKeyBasebandBootStatisticsE
__ AppleBasebandManager: __ZN3abm26kKeyBasebandManagerVersionE
__ AppleBasebandManager: __ZN3abm26kKeyCLTMPPMOverridingStateE
__ AppleBasebandManager: __ZN3abm26kKeyCommandGetFirmwareInfoE
__ AppleBasebandManager: __ZN3abm26kKeyConfigDomainDDTEnabledE
__ AppleBasebandManager: __ZN3abm26kKeyLogSummaryFilterActionE
__ AppleBasebandManager: __ZN3abm27kBasebandBootStateWillResetE
__ AppleBasebandManager: __ZN3abm27kCTCellularShortTransmitEndE
__ AppleBasebandManager: __ZN3abm27kCommandRemoveNetworkPolicyE
__ AppleBasebandManager: __ZN3abm27kEventBasebandResetDetectedE
__ AppleBasebandManager: __ZN3abm27kKeyAWDNVMSyncNothingToSyncE
__ AppleBasebandManager: __ZN3abm27kKeyAWDPowerLowPowerRevertsE
__ AppleBasebandManager: __ZN3abm27kKeyCTCellularTransmitStateE
__ AppleBasebandManager: __ZN3abm27kKeyFSSyncWaitForCompletionE
__ AppleBasebandManager: __ZN3abm27kKeyLogSummaryBBCrashReasonE
__ AppleBasebandManager: __ZN3abm27kKeyNetworkPolicyRuleActionE
__ AppleBasebandManager: __ZN3abm27kLogSummaryPreferenceDomainE
__ AppleBasebandManager: __ZN3abm27kSetMaxTransmitPowerCommandE
__ AppleBasebandManager: __ZN3abm28kCTCellularLongTransmitStartE
__ AppleBasebandManager: __ZN3abm28kCTCellularTransmitStateIdleE
__ AppleBasebandManager: __ZN3abm28kCommandBasebandFSSyncStatusE
__ AppleBasebandManager: __ZN3abm28kCommandGetBasebandBootStateE
__ AppleBasebandManager: __ZN3abm28kCommandGetFieldTestPropertyE
__ AppleBasebandManager: __ZN3abm28kCommandSetFieldTestPropertyE
__ AppleBasebandManager: __ZN3abm28kCommandUnblockBasebandResetE
__ AppleBasebandManager: __ZN3abm28kEventCTCellularTrasmitStateE
__ AppleBasebandManager: __ZN3abm28kKeyAWDPowerLastWakeDurationE
__ AppleBasebandManager: __ZN3abm28kKeyBasebandTimeMicroSecondsE
__ AppleBasebandManager: __ZN3abm28kKeyCommandGetManifestStatusE
__ AppleBasebandManager: __ZN3abm28kKeyConfigDomainAPIPCEnabledE
__ AppleBasebandManager: __ZN3abm28kKeyConfigDomainBBIPCEnabledE
__ AppleBasebandManager: __ZN3abm28kKeyLogSummaryBBResetSubTypeE
__ AppleBasebandManager: __ZN3abm28kKeyPowerNotificationMessageE
__ AppleBasebandManager: __ZN3abm28kKeyStatsBootFirstBootUpTimeE
__ AppleBasebandManager: __ZN3abm28kSetLinkQualityMetricCommandE
__ AppleBasebandManager: __ZN3abm29kBasebandBootStateHasShutdownE
__ AppleBasebandManager: __ZN3abm29kCTCellularShortTransmitStartE
__ AppleBasebandManager: __ZN3abm29kCommandGetBasebandWakeReasonE
__ AppleBasebandManager: __ZN3abm29kCommandTransportBypassEnableE
__ AppleBasebandManager: __ZN3abm29kEventBasebandBootStateChangeE
__ AppleBasebandManager: __ZN3abm29kKeyAWDPowerLastSleepDurationE
__ AppleBasebandManager: __ZN3abm29kKeyCTCellularTransmitTriggerE
__ AppleBasebandManager: __ZN3abm29kKeyStatsBootLastRecoveryTimeE
__ AppleBasebandManager: __ZN3abm30kBasebandBootStateWillShutdownE
__ AppleBasebandManager: __ZN3abm30kCTTxPowerEnhancedDetectionOffE
__ AppleBasebandManager: __ZN3abm30kCommandGetBasebandManagerInfoE
__ AppleBasebandManager: __ZN3abm30kGetPowerSourceOverriddenStateE
__ AppleBasebandManager: __ZN3abm30kKeyConfigDomainSystemLogsModeE
__ AppleBasebandManager: __ZN3abm30kKeyStatsBootLastHardResetTimeE
__ AppleBasebandManager: __ZN3abm30kSetPowerSourceOverriddenStateE
__ AppleBasebandManager: __ZN3abm30kTxPowerCappingIPhoneFreeSpaceE
__ AppleBasebandManager: __ZN3abm31kCTSetTxPowerHandDetectionStateE
__ AppleBasebandManager: __ZN3abm31kCTSetTxPwrProxMotionAssistModeE
__ AppleBasebandManager: __ZN3abm31kCTTxPowerEnhancedDetectionAutoE
__ AppleBasebandManager: __ZN3abm31kCTTxPowerEnhancedDetectionBodyE
__ AppleBasebandManager: __ZN3abm31kCTTxPowerEnhancedDetectionHeadE
__ AppleBasebandManager: __ZN3abm31kConfigureAccessoryStateCommandE
__ AppleBasebandManager: __ZN3abm31kGetDeviceMaterialOverrideStateE
__ AppleBasebandManager: __ZN3abm31kKeyConfigDomainBasebandMuxModeE
__ AppleBasebandManager: __ZN3abm31kKeyConfigDomainCompressionModeE
__ AppleBasebandManager: __ZN3abm31kKeyConfigDomainCoreDumpEnabledE
__ AppleBasebandManager: __ZN3abm31kSetDeviceMaterialOverrideStateE
__ AppleBasebandManager: __ZN3abm31kSetMaxTransmitPowerDictCommandE
__ AppleBasebandManager: __ZN3abm31kTxPowerMotionHandDetectionLeftE
__ AppleBasebandManager: __ZN3abm32kBasebandResetSubTypeBootFailureE
__ AppleBasebandManager: __ZN3abm32kCTCopyTxPowerHandDetectionStateE
__ AppleBasebandManager: __ZN3abm32kCTCopyTxPwrProxMotionAssistModeE
__ AppleBasebandManager: __ZN3abm32kCommandGetBasebandLTEStatisticsE
__ AppleBasebandManager: __ZN3abm32kCommandGetBasebandOperatingModeE
__ AppleBasebandManager: __ZN3abm32kCommandSetBasebandOperatingModeE
__ AppleBasebandManager: __ZN3abm32kDeviceMaterialOverriddenBCMTypeE
__ AppleBasebandManager: __ZN3abm32kDeviceMaterialOverriddenFCMTypeE
__ AppleBasebandManager: __ZN3abm32kTxPowerMotionHandDetectionRightE
__ AppleBasebandManager: __ZN3abm33kCTCellularTransmitStateConnectedE
__ AppleBasebandManager: __ZN3abm33kCTTxPowerAudioModeConfiguredModeE
__ AppleBasebandManager: __ZN3abm33kCTTxPowerAudioModeSupportedModesE
__ AppleBasebandManager: __ZN3abm33kCommandSimulatePowerNotificationE
__ AppleBasebandManager: __ZN3abm33kEventBasebandOperatingModeChangeE
__ AppleBasebandManager: __ZN3abm33kTxPowerCappingIPhoneNonFreeSpaceE
__ AppleBasebandManager: __ZN3abm34kBasebandResetSubTypeBasebandCrashE
__ AppleBasebandManager: __ZN3abm34kBasebandResetSubTypeUserTriggeredE
__ AppleBasebandManager: __ZN3abm34kCTTxPowerAudioAlertConfiguredModeE
__ AppleBasebandManager: __ZN3abm34kCTTxPowerProxMotionAssistModeAutoE
__ AppleBasebandManager: __ZN3abm34kKeyConfigDomainBasebandLogEnabledE
__ AppleBasebandManager: __ZN3abm34kTxPowerCappingIPhoneFreeSpaceAutoE
__ AppleBasebandManager: __ZN3abm35kBasebandResetSubTypeCommandTimeoutE
__ AppleBasebandManager: __ZN3abm35kBasebandResetSubTypeTransportErrorE
__ AppleBasebandManager: __ZN3abm35kKeyCommandGetBasebandFirmwareNonceE
__ AppleBasebandManager: __ZN3abm35kKeyConfigDomainBasebandPrimaryMaskE
__ AppleBasebandManager: __ZN3abm36kCTTxPowerProxMotionAssistModeMovingE
__ AppleBasebandManager: __ZN3abm36kCTTxPowerProxMotionAssistModeStaticE
__ AppleBasebandManager: __ZN3abm36kNetworkPolicyRuleActionDenyLQMAbortE
__ AppleBasebandManager: __ZN3abm37kBasebandNVDataRestoreCarrierDefaultsE
__ AppleBasebandManager: __ZN3abm37kDeviceMaterialOverriddenTopEnclosureE
__ AppleBasebandManager: __ZN3abm38kBasebandResetSubTypeRemoteFSSyncErrorE
__ AppleBasebandManager: __ZN3abm39kCTTxPowerProxMotionAssistSupportedModeE
__ AppleBasebandManager: __ZN3abm40kCTTxPowerProxMotionAssistConfiguredModeE
__ AppleBasebandManager: __ZN3abm40kDeviceMaterialOverriddenBottomEnclosureE
__ AppleBasebandManager: __ZN3abm41kCTTxPowerEnhancedDetectionConfiguredModeE
__ AppleBasebandManager: __ZN3abm41kCTTxPowerEnhancedDetectionSupportedModesE
__ AppleBasebandManager: __ZN3abm42kBasebandResetSubTypeTxPowerCappingTimeoutE
__ AppleBasebandManager: __ZN3abm42kKeyConfigDomainBasebandEnabledDuringSleepE
__ AppleBasebandManager: __ZN3abm5kAutoE
__ AppleBasebandManager: __ZN3abm6client13CreateManagerERKNSt3__112basic_stringIcNS1_11char_traitsIcEENS1_9allocatorIcEEEEP16dispatch_queue_s
__ AppleBasebandManager: __ZN3abm6client14PerformCommandENSt3__110shared_ptrINS0_7ManagerEEERKNS1_12basic_stringIcNS1_11char_traitsIcEENS1_9allocatorIcEEEEPvPSD_
__ AppleBasebandManager: __ZN3abm7kKeyAWDE
__ AppleBasebandManager: __ZN3abm8asStringENS_7ProfileE
__ AppleBasebandManager: __ZN3abm9kKeyNonceE
__ AppleBasebandManager: __ZN3abm9kKeyStatsE
__ AppleBasebandManager: __ZNK3abm6client5Event4nameEv
__ AppleBasebandManager: __ZNK3abm6client5Event7getDataEv
__ AppleBasebandServices: __ZN4data16TransportService12exitLowPowerEv
__ AppleBasebandServices: __ZN4data16TransportService13enterLowPowerEv
__ AppleBasebandServices: __ZN4data16TransportService17unblockThrottlingEv
__ AppleBasebandServices: __ZN4data16TransportService9setConfigERKNS0_16ThrottlingConfigE
__ AppleBasebandServices: __ZN4data16TransportServiceC1ENSt3__110shared_ptrIN3ctu9LogServerEEE
__ AppleBasebandServices: __ZN4data16TransportServiceC1Ev
__ AppleBasebandServices: __ZNK4data16TransportService9dumpStateEv
__ AudioToolbox: _AudioServicesPlaySystemSound
__ CPMS: _OBJC_CLASS_$_CPMSAgent
__ CPMS: _OBJC_CLASS_$_CPMSClientDescription
__ CPMS: _kCPMSPowerTimeScale100ms
__ CPMS: _kCPMSPowerTimeScale1s
__ CPMS: _kCPMSPowerTimeScaleInstantaneous
__ CPMS: _kCPMSPowerTimeScaleThermal
__ CoreFoundation: _CFArrayAppendValue
__ CoreFoundation: _CFArrayApplyFunction
__ CoreFoundation: _CFArrayContainsValue
__ CoreFoundation: _CFArrayCreateMutable
__ CoreFoundation: _CFArrayGetCount
__ CoreFoundation: _CFArrayGetTypeID
__ CoreFoundation: _CFArrayGetValueAtIndex
__ CoreFoundation: _CFCopyDescription
__ CoreFoundation: _CFDataCreate
__ CoreFoundation: _CFDataGetBytes
__ CoreFoundation: _CFDataGetLength
__ CoreFoundation: _CFDataGetTypeID
__ CoreFoundation: _CFDictionaryAddValue
__ CoreFoundation: _CFDictionaryApplyFunction
__ CoreFoundation: _CFDictionaryCreate
__ CoreFoundation: _CFDictionaryCreateMutable
__ CoreFoundation: _CFDictionaryCreateMutableCopy
__ CoreFoundation: _CFDictionaryGetCount
__ CoreFoundation: _CFDictionaryGetTypeID
__ CoreFoundation: _CFDictionaryRemoveValue
__ CoreFoundation: _CFDictionarySetValue
__ CoreFoundation: _CFGetTypeID
__ CoreFoundation: _CFNotificationCenterGetDarwinNotifyCenter
__ CoreFoundation: _CFNotificationCenterPostNotification
__ CoreFoundation: _CFNumberCreate
__ CoreFoundation: _CFNumberGetTypeID
__ CoreFoundation: _CFNumberGetValue
__ CoreFoundation: _CFPreferencesSetValue
__ CoreFoundation: _CFPreferencesSynchronize
__ CoreFoundation: _CFRelease
__ CoreFoundation: _CFRetain
__ CoreFoundation: _CFRunLoopAddSource
__ CoreFoundation: _CFRunLoopGetCurrent
__ CoreFoundation: _CFRunLoopIsWaiting
__ CoreFoundation: _CFRunLoopPerformBlock
__ CoreFoundation: _CFRunLoopRemoveSource
__ CoreFoundation: _CFRunLoopRunInMode
__ CoreFoundation: _CFRunLoopSourceCreate
__ CoreFoundation: _CFRunLoopStop
__ CoreFoundation: _CFRunLoopWakeUp
__ CoreFoundation: _CFStringGetTypeID
__ CoreFoundation: _CFUserNotificationCreate
__ CoreFoundation: _CFUserNotificationDisplayNotice
__ CoreFoundation: _OBJC_CLASS_$_NSArray
__ CoreFoundation: _OBJC_CLASS_$_NSMutableArray
__ CoreFoundation: _OBJC_CLASS_$_NSMutableDictionary
__ CoreFoundation: ___CFConstantStringClassReference
__ CoreFoundation: _kCFAllocatorDefault
__ CoreFoundation: _kCFBooleanFalse
__ CoreFoundation: _kCFBooleanTrue
__ CoreFoundation: _kCFPreferencesCurrentHost
__ CoreFoundation: _kCFPreferencesCurrentUser
__ CoreFoundation: _kCFRunLoopDefaultMode
__ CoreFoundation: _kCFTypeArrayCallBacks
__ CoreFoundation: _kCFTypeDictionaryKeyCallBacks
__ CoreFoundation: _kCFTypeDictionaryValueCallBacks
__ CoreFoundation: _kCFUserNotificationAlertHeaderKey
__ CoreFoundation: _kCFUserNotificationAlertMessageKey
__ CoreFoundation: _kCFUserNotificationAlertTopMostKey
__ CoreFoundation: _kCFUserNotificationDefaultButtonTitleKey
__ CoreMotion: _OBJC_CLASS_$_CMCallHandednessManager
__ CoreMotion: _OBJC_CLASS_$_CMOnBodyStatusManager
__ Foundation: _OBJC_CLASS_$_NSBundle
__ Foundation: _OBJC_CLASS_$_NSNumber
__ Foundation: _OBJC_CLASS_$_NSString
__ Foundation: _OBJC_CLASS_$_NSUUID
__ HealthKit: _OBJC_CLASS_$_HKHealthStore
__ HealthKit: _kHKHealthDaemonActiveWorkoutServersDidUpdateNotification
__ IOKit: _IOPMClaimSystemWakeEvent
__ NetworkExtension: _OBJC_CLASS_$_NEPolicy
__ NetworkExtension: _OBJC_CLASS_$_NEPolicyCondition
__ NetworkExtension: _OBJC_CLASS_$_NEPolicyResult
__ NetworkExtension: _OBJC_CLASS_$_NEPolicyRouteRule
__ NetworkExtension: _OBJC_CLASS_$_NEPolicySession
__ SpringBoardServices: _SBUserNotificationDismissOnLock
__ SpringBoardServices: _SBUserNotificationDontDismissOnUnlock
__ SpringBoardServices: _SBUserNotificationPendInSetupIfNotAllowedKey
__ WirelessDiagnostics: __ZN3awd13MetricFactory22getSharedMetricFactoryEv
__ WirelessDiagnostics: __ZN3awd13MetricFactory32newMetricContainerWithIdentifierEj
__ WirelessDiagnostics: __ZN3awd15MetricContainer11storeMetricEyjRKN20wireless_diagnostics6google8protobuf11MessageLiteE
__ WirelessDiagnostics: __ZN3awd15MetricContainerD1Ev
__ WirelessDiagnostics: __ZN3awd15getAWDTimestampEv
__ WirelessDiagnostics: __ZN3awd19AWDServerConnection12SubmitMetricEPNS_15MetricContainerE
__ WirelessDiagnostics: __ZN3awd19AWDServerConnection44RegisterQueriableMetricCallbackForIdentifierEU13block_pointerFvjEj
__ WirelessDiagnostics: __ZN3awd19AWDServerConnectionC1Ej
__ WirelessDiagnostics: __ZN3awd19AWDServerConnectionD1Ev
__ libABMCommandDriversEUR.dylib: __ZN3abm18kKeyBasebandVendorE
__ libABMCommandDriversEUR.dylib: __ZN3abm20kKeyBasebandWakeDataE
__ libABMCommandDriversEUR.dylib: __ZN3abm20kKeyBasebandWakeTypeE
__ libABMCommandDriversEUR.dylib: __ZN3abm21kBasebandVendorEurekaE
__ libABMCommandDriversEUR.dylib: __ZN3abm21kBasebandWakeTypeDATAE
__ libABMCommandDriversEUR.dylib: __ZN3abm22kBasebandWakeSubTypeIPE
__ libABMCommandDriversEUR.dylib: __ZN3abm22kBasebandWakeTypeOTHERE
__ libABMCommandDriversEUR.dylib: __ZN3abm22kBasebandWakeTypeTRACEE
__ libABMCommandDriversEUR.dylib: __ZN3abm23kBasebandWakeSubTypeQMIE
__ libABMCommandDriversEUR.dylib: __ZN3abm23kKeyBasebandWakeChannelE
__ libABMCommandDriversEUR.dylib: __ZN3abm23kKeyBasebandWakeSubTypeE
__ libABMCommandDriversEUR.dylib: __ZN3abm24kBasebandWakeSubTypeDIAGE
__ libABMCommandDriversEUR.dylib: __ZN3abm24kBasebandWakeSubTypeHSICE
__ libABMCommandDriversEUR.dylib: __ZN3abm24kBasebandWakeSubTypeQMAPE
__ libABMCommandDriversEUR.dylib: __ZN3abm24kBasebandWakeSubTypeUARTE
__ libABMCommandDriversEUR.dylib: __ZN3abm24kBasebandWakeSubTypeUSERE
__ libABMCommandDriversEUR.dylib: __ZN3abm24kBasebandWakeTypeCONTROLE
__ libABMCommandDriversEUR.dylib: __ZN3abm24kBasebandWakeTypeUNKNOWNE
__ libABMCommandDriversEUR.dylib: __ZN3abm24kKeyBasebandWakeFromCMASE
__ libABMCommandDriversEUR.dylib: __ZN3abm24kKeyBasebandWakeQMIMsgIDE
__ libABMCommandDriversEUR.dylib: __ZN3abm25kKeyBasebandWakeIPVersionE
__ libABMCommandDriversEUR.dylib: __ZN3abm25kKeyBasebandWakeQMILengthE
__ libABMCommandDriversEUR.dylib: __ZN3abm26kBasebandWakeSubTypePAGINGE
__ libABMCommandDriversEUR.dylib: __ZN3abm26kBasebandWakeSubTypeSERIALE
__ libABMCommandDriversEUR.dylib: __ZN3abm26kKeyBasebandWakeDataParsedE
__ libABMCommandDriversEUR.dylib: __ZN3abm26kKeyBasebandWakeIPProtocolE
__ libABMCommandDriversEUR.dylib: __ZN3abm26kKeyBasebandWakeQMIMsgTypeE
__ libABMCommandDriversEUR.dylib: __ZN3abm27kBasebandWakeIPProtocol_TCPE
__ libABMCommandDriversEUR.dylib: __ZN3abm27kBasebandWakeIPProtocol_UDPE
__ libABMCommandDriversEUR.dylib: __ZN3abm27kBasebandWakeIPVersion_IPv4E
__ libABMCommandDriversEUR.dylib: __ZN3abm27kBasebandWakeIPVersion_IPv6E
__ libABMCommandDriversEUR.dylib: __ZN3abm27kKeyBasebandWakeQMIClientIDE
__ libABMCommandDriversEUR.dylib: __ZN3abm28kBasebandWakeIPProtocol_ICMPE
__ libABMCommandDriversEUR.dylib: __ZN3abm28kKeyBasebandWakeIPSourcePortE
__ libABMCommandDriversEUR.dylib: __ZN3abm30kKeyBasebandWakeQMIServiceTypeE
__ libABMCommandDriversEUR.dylib: __ZN3abm31kKeyBasebandWakeIPSourceAddressE
__ libABMCommandDriversEUR.dylib: __ZN3abm33kBasebandWakeIPProtocol_ICMP_IPv6E
__ libABMCommandDriversEUR.dylib: __ZN3abm33kKeyBasebandWakeDataParsingFailedE
__ libABMCommandDriversEUR.dylib: __ZN3abm33kKeyBasebandWakeIPDestinationPortE
__ libABMCommandDriversEUR.dylib: __ZN3abm36kKeyBasebandWakeIPDestinationAddressE
__ libABMCommandDriversEUR.dylib: __ZN4coex13CommandDriver10kKeyPolicyE
__ libABMCommandDriversEUR.dylib: __ZN4coex13CommandDriver10kKeyUplinkE
__ libABMCommandDriversEUR.dylib: __ZN4coex13CommandDriver10kKeyWindowE
__ libABMCommandDriversEUR.dylib: __ZN4coex13CommandDriver11kKeyTxPowerE
__ libABMCommandDriversEUR.dylib: __ZN4coex13CommandDriver12kKeyAPTTableE
__ libABMCommandDriversEUR.dylib: __ZN4coex13CommandDriver12kKeyBandmaskE
__ libABMCommandDriversEUR.dylib: __ZN4coex13CommandDriver12kKeyDLConfigE
__ libABMCommandDriversEUR.dylib: __ZN4coex13CommandDriver12kKeyDownlinkE
__ libABMCommandDriversEUR.dylib: __ZN4coex13CommandDriver12kKeyULConfigE
__ libABMCommandDriversEUR.dylib: __ZN4coex13CommandDriver13kKeyBandwidthE
__ libABMCommandDriversEUR.dylib: __ZN4coex13CommandDriver13kKeySetPolicyE
__ libABMCommandDriversEUR.dylib: __ZN4coex13CommandDriver13kKeyTDDConfigE
__ libABMCommandDriversEUR.dylib: __ZN4coex13CommandDriver14kKeyBlockCountE
__ libABMCommandDriversEUR.dylib: __ZN4coex13CommandDriver14kKeyMaxDenialsE
__ libABMCommandDriversEUR.dylib: __ZN4coex13CommandDriver14kKeyPollPolicyE
__ libABMCommandDriversEUR.dylib: __ZN4coex13CommandDriver14kKeyWLANScanIDE
__ libABMCommandDriversEUR.dylib: __ZN4coex13CommandDriver15kKeyBandFiltersE
__ libABMCommandDriversEUR.dylib: __ZN4coex13CommandDriver15kKeyFrameOffsetE
__ libABMCommandDriversEUR.dylib: __ZN4coex13CommandDriver15kKeyRBThresholdE
__ libABMCommandDriversEUR.dylib: __ZN4coex13CommandDriver15kKeyRC1DurationE
__ libABMCommandDriversEUR.dylib: __ZN4coex13CommandDriver16kKeySetBLERStatsE
__ libABMCommandDriversEUR.dylib: __ZN4coex13CommandDriver16kKeySetLAAConfigE
__ libABMCommandDriversEUR.dylib: __ZN4coex13CommandDriver16kKeySetSINRStatsE
__ libABMCommandDriversEUR.dylib: __ZN4coex13CommandDriver16kKeyWLANBandInfoE
__ libABMCommandDriversEUR.dylib: __ZN4coex13CommandDriver17kKeyDirectionMaskE
__ libABMCommandDriversEUR.dylib: __ZN4coex13CommandDriver17kKeyPollWWANStateE
__ libABMCommandDriversEUR.dylib: __ZN4coex13CommandDriver17kKeyRBFilterAlphaE
__ libABMCommandDriversEUR.dylib: __ZN4coex13CommandDriver17kKeySetWiFiStatusE
__ libABMCommandDriversEUR.dylib: __ZN4coex13CommandDriver17kKeyWLANScanStateE
__ libABMCommandDriversEUR.dylib: __ZN4coex13CommandDriver18kKeyPowerThresholdE
__ libABMCommandDriversEUR.dylib: __ZN4coex13CommandDriver18kKeySetBandFiltersE
__ libABMCommandDriversEUR.dylib: __ZN4coex13CommandDriver18kKeySetRC1DurationE
__ libABMCommandDriversEUR.dylib: __ZN4coex13CommandDriver18kKeySubframeConfigE
__ libABMCommandDriversEUR.dylib: __ZN4coex13CommandDriver19kKeyCenterFrequencyE
__ libABMCommandDriversEUR.dylib: __ZN4coex13CommandDriver19kKeyPollLinkQualityE
__ libABMCommandDriversEUR.dylib: __ZN4coex13CommandDriver19kKeyReportBLERStatsE
__ libABMCommandDriversEUR.dylib: __ZN4coex13CommandDriver19kKeyReportWWANStateE
__ libABMCommandDriversEUR.dylib: __ZN4coex13CommandDriver20kKeyExtCAGroupBitmapE
__ libABMCommandDriversEUR.dylib: __ZN4coex13CommandDriver20kKeyWCI2TxPowerLimitE
__ libABMCommandDriversEUR.dylib: __ZN4coex13CommandDriver21kKeyDLBandInformationE
__ libABMCommandDriversEUR.dylib: __ZN4coex13CommandDriver21kKeyLTETDDInformationE
__ libABMCommandDriversEUR.dylib: __ZN4coex13CommandDriver21kKeyPollWLANScanStateE
__ libABMCommandDriversEUR.dylib: __ZN4coex13CommandDriver21kKeyULBandInformationE
__ libABMCommandDriversEUR.dylib: __ZN4coex13CommandDriver22kKeyLTEBandInformationE
__ libABMCommandDriversEUR.dylib: __ZN4coex13CommandDriver22kKeyScanFreqBandFilterE
__ libABMCommandDriversEUR.dylib: __ZN4coex13CommandDriver22kKeyWLANConnectionModeE
__ libABMCommandDriversEUR.dylib: __ZN4coex13CommandDriver23kKeyExtTxDenialCABitmapE
__ libABMCommandDriversEUR.dylib: __ZN4coex13CommandDriver23kKeyFilteredRBThresholdE
__ libABMCommandDriversEUR.dylib: __ZN4coex13CommandDriver23kKeyLAAConfigDeactTimerE
__ libABMCommandDriversEUR.dylib: __ZN4coex13CommandDriver23kKeyReportFailConditionE
__ libABMCommandDriversEUR.dylib: __ZN4coex13CommandDriver23kKeyTxPowerLimitSuccessE
__ libABMCommandDriversEUR.dylib: __ZN4coex13CommandDriver23kKeyWLANConnectionBandsE
__ libABMCommandDriversEUR.dylib: __ZN4coex13CommandDriver23kKeyWLANConnectionStateE
__ libABMCommandDriversEUR.dylib: __ZN4coex13CommandDriver24kKeyLAAConfigCoexEnabledE
__ libABMCommandDriversEUR.dylib: __ZN4coex13CommandDriver24kKeyLAAConfigThresholdInE
__ libABMCommandDriversEUR.dylib: __ZN4coex13CommandDriver24kKeySetFCMBCMAntennaModeE
__ libABMCommandDriversEUR.dylib: __ZN4coex13CommandDriver24kKeyWLANConnectionHandleE
__ libABMCommandDriversEUR.dylib: __ZN4coex13CommandDriver25kKeyControllerRBThresholdE
__ libABMCommandDriversEUR.dylib: __ZN4coex13CommandDriver25kKeyExtCriticalULCABitmapE
__ libABMCommandDriversEUR.dylib: __ZN4coex13CommandDriver25kKeyGSMBandInformationSetE
__ libABMCommandDriversEUR.dylib: __ZN4coex13CommandDriver25kKeyGetScanFreqBandFilterE
__ libABMCommandDriversEUR.dylib: __ZN4coex13CommandDriver25kKeyHDRBandInformationSetE
__ libABMCommandDriversEUR.dylib: __ZN4coex13CommandDriver25kKeyLAAConfigThresholdOutE
__ libABMCommandDriversEUR.dylib: __ZN4coex13CommandDriver25kKeyLTEBandInformationSetE
__ libABMCommandDriversEUR.dylib: __ZN4coex13CommandDriver25kKeyLinkPathLossThresholdE
__ libABMCommandDriversEUR.dylib: __ZN4coex13CommandDriver25kKeySetScanFreqBandFilterE
__ libABMCommandDriversEUR.dylib: __ZN4coex13CommandDriver26kKeyControllerTxPowerLimitE
__ libABMCommandDriversEUR.dylib: __ZN4coex13CommandDriver26kKeyHarqNackRatioThresholdE
__ libABMCommandDriversEUR.dylib: __ZN4coex13CommandDriver26kKeyONEXBandInformationSetE
__ libABMCommandDriversEUR.dylib: __ZN4coex13CommandDriver26kKeyQMITxPowerLimitFailureE
__ libABMCommandDriversEUR.dylib: __ZN4coex13CommandDriver27kKeyExtPowerLimitingEnabledE
__ libABMCommandDriversEUR.dylib: __ZN4coex13CommandDriver27kKeyLAAConfigDeactStopTimerE
__ libABMCommandDriversEUR.dylib: __ZN4coex13CommandDriver27kKeyWCDMABandInformationSetE
__ libABMCommandDriversEUR.dylib: __ZN4coex13CommandDriver27kKeyWCI2TxPowerLimitFailureE
__ libABMCommandDriversEUR.dylib: __ZN4coex13CommandDriver27kKeyWCI2TxPowerLimitTimeoutE
__ libABMCommandDriversEUR.dylib: __ZN4coex13CommandDriver28kKeyBlockCountErrorThresholdE
__ libABMCommandDriversEUR.dylib: __ZN4coex13CommandDriver28kKeyTxFrameDenialsParametersE
__ libABMCommandDriversEUR.dylib: __ZN4coex13CommandDriver29kKeyFCMBCMAntennaSwitchingRATE
__ libABMCommandDriversEUR.dylib: __ZN4coex13CommandDriver29kKeyLAAConfigProtectCQIPeriodE
__ libABMCommandDriversEUR.dylib: __ZN4coex13CommandDriver29kKeyRbThresholdForAdvTxNoticeE
__ libABMCommandDriversEUR.dylib: __ZN4coex13CommandDriver29kKeyTDSCDMABandInformationSetE
__ libABMCommandDriversEUR.dylib: __ZN4coex13CommandDriver30kKeyFCMBCMAntennaSwitchingBandE
__ libABMCommandDriversEUR.dylib: __ZN4coex13CommandDriver30kKeyFCMBCMAntennaSwitchingPortE
__ libABMCommandDriversEUR.dylib: __ZN4coex13CommandDriver30kKeyGPSStateReportingSupportedE
__ libABMCommandDriversEUR.dylib: __ZN4coex13CommandDriver31kKeyExtAdvanceNoticeRBThresholdE
__ libABMCommandDriversEUR.dylib: __ZN4coex13CommandDriver31kKeyExtPowerLimitingRBThresholdE
__ libABMCommandDriversEUR.dylib: __ZN4coex13CommandDriver33kKeyControllerPowerLimitingEnableE
__ libABMCommandDriversEUR.dylib: __ZN4coex13CommandDriver33kKeyControllerTxPowerLimitTimeoutE
__ libABMCommandDriversEUR.dylib: __ZN4coex13CommandDriver33kKeyExtConsecutiveDenialThresholdE
__ libABMCommandDriversEUR.dylib: __ZN4coex13CommandDriver34kKeyExtAdvanceNoticePowerThresholdE
__ libABMCommandDriversEUR.dylib: __ZN4coex13CommandDriver34kKeyExtDutyCycleNumeratorRxPrioReqE
__ libABMCommandDriversEUR.dylib: __ZN4coex13CommandDriver34kKeyExtPowerLimitingPowerThresholdE
__ libABMCommandDriversEUR.dylib: __ZN4coex13CommandDriver34kKeyTxPowerThresholdForAdvTxNoticeE
__ libABMCommandDriversEUR.dylib: __ZN4coex13CommandDriver36kKeyContinuousTxSubframeDenialStatusE
__ libABMCommandDriversEUR.dylib: __ZN4coex13CommandDriver37kKeyFCMBCMAntennaSwitchingPortMapListE
__ libABMCommandDriversEUR.dylib: __ZN4coex13CommandDriver40kKeyContinuousTxSubframeDenialsThresholdE
__ libABMCommandDriversEUR.dylib: __ZN4coex13CommandDriver6kKeyOnE
__ libABMCommandDriversEUR.dylib: __ZN4coex13CommandDriver8kKeySINRE
__ libABMCommandDriversEUR.dylib: __ZN4coex13CommandDriver9kKeyAlphaE
__ libABMCommandDriversEUR.dylib: __ZN4coex16QMICommandDriverC1ENSt3__110shared_ptrIN3ctu9LogServerEEE
__ libABMCommandDriversEUR.dylib: __ZN4logs16QMICommandDriverC1ENSt3__110shared_ptrIN3ctu9LogServerEEEN8dispatch8callbackIU13block_pointerFvNS_15CollectionStateEEEENS7_IU13block_pointerFvNS2_INS1_6vectorIhNS1_9allocatorIhEEEEEEbEEENS3_2cf11CFSharedRefIK14__CFDictionaryEENS1_12basic_stringIcNS1_11char_traitsIcEENSD_IcEEEE
__ libABMCommandDriversEUR.dylib: __ZN5radio13CommandDriver16watchClientStateEN8dispatch8callbackIU13block_pointerFvN3ctu2cf11CFSharedRefI9__CFErrorEENS5_IK14__CFDictionaryEEEEE
__ libABMCommandDriversEUR.dylib: __ZN5radio13CommandDriver18watchOperatingModeEN8dispatch8callbackIU13block_pointerFvN3ctu2cf11CFSharedRefI9__CFErrorEENS5_IK14__CFDictionaryEEEEE
__ libABMCommandDriversEUR.dylib: __ZN5radio13CommandDriver22kKeyBasebandTimeStringE
__ libABMCommandDriversEUR.dylib: __ZN5radio13CommandDriver23kKeyBasebandTimeSecondsE
__ libABMCommandDriversEUR.dylib: __ZN5radio13CommandDriver26kKeyTransportClientStartedE
__ libABMCommandDriversEUR.dylib: __ZN5radio13CommandDriver28kKeyBasebandTimeMicroSecondsE
__ libABMCommandDriversEUR.dylib: __ZN5radio15RFCalibration_t4fillEN3ctu2cf11CFSharedRefIK14__CFDictionaryEE
__ libABMCommandDriversEUR.dylib: __ZN5radio15RFCalibration_t8toStringEv
__ libABMCommandDriversEUR.dylib: __ZN5radio15RFCalibration_tC1Ev
__ libABMCommandDriversEUR.dylib: __ZN5radio16QMICommandDriverC1ENSt3__110shared_ptrIN3ctu9LogServerEEEN8dispatch8workloopE
__ libABMCommandDriversEUR.dylib: __ZN5radio16RFSCommandDriver9kKeyDirtyE
__ libABMCommandDriversEUR.dylib: __ZN5radio19HealthCommandDriver9LinkStatsC1Ev
__ libABMCommandDriversEUR.dylib: __ZN5radio19QMIRFSCommandDriverC1ENSt3__110shared_ptrIN3ctu9LogServerEEE
__ libABMCommandDriversEUR.dylib: __ZN5radio21kKeyBasebandFWVersionE
__ libABMCommandDriversEUR.dylib: __ZN5radio22QMIHealthCommandDriverC1ENSt3__110shared_ptrIN3ctu9LogServerEEERKNS1_6vectorIjNS1_9allocatorIjEEEE
__ libABMCommandDriversEUR.dylib: __ZN5radio25kKeyBasebandOperatingModeE
__ libABMCommandDriversEUR.dylib: __ZN5radio26kKeyBasebandDumpLogsReasonE
__ libABMCommandDriversEUR.dylib: __ZN5radio33kKeyBasebandDumpLogsIssueCategoryE
__ libABMCommandDriversEUR.dylib: __ZN5radio36kKeyBasebandFactoryCalibrationStatusE
__ libABMCommandDriversEUR.dylib: __ZN5radio8asStringERKNS_13IssueCategoryE
__ libABMCommandDriversEUR.dylib: __ZN5radio8asStringERKNS_24FactoryCalibrationStatusE
__ libABMCommandDriversEUR.dylib: __ZN7antenna11kKeyCommandE
__ libABMCommandDriversEUR.dylib: __ZN7antenna13CommandDriver15registerHandlerENSt3__110shared_ptrINS_37AntennaCommandDriverDelegateInterfaceEEE
__ libABMCommandDriversEUR.dylib: __ZN7antenna13kKeyDMBCMTypeE
__ libABMCommandDriversEUR.dylib: __ZN7antenna13kKeyDMFCMTypeE
__ libABMCommandDriversEUR.dylib: __ZN7antenna13kKeyPPMEnableE
__ libABMCommandDriversEUR.dylib: __ZN7antenna13kKeyWiredPortE
__ libABMCommandDriversEUR.dylib: __ZN7antenna15kKeyPPMDurationE
__ libABMCommandDriversEUR.dylib: __ZN7antenna16QMICommandDriverC1ENSt3__110shared_ptrIN3ctu9LogServerEEEN8dispatch8workloopE
__ libABMCommandDriversEUR.dylib: __ZN7antenna16kKeySpeakerStateE
__ libABMCommandDriversEUR.dylib: __ZN7antenna17kCommandPPMEnableE
__ libABMCommandDriversEUR.dylib: __ZN7antenna18kKeyDMTopEnclosureE
__ libABMCommandDriversEUR.dylib: __ZN7antenna19kCommandWorkoutInfoE
__ libABMCommandDriversEUR.dylib: __ZN7antenna20kCommandSpeakerStateE
__ libABMCommandDriversEUR.dylib: __ZN7antenna20kKeyE75AccessoryTypeE
__ libABMCommandDriversEUR.dylib: __ZN7antenna20kKeyPowerSourceStateE
__ libABMCommandDriversEUR.dylib: __ZN7antenna21kCommandAntennaSwitchE
__ libABMCommandDriversEUR.dylib: __ZN7antenna21kKeyDMBottomEnclosureE
__ libABMCommandDriversEUR.dylib: __ZN7antenna22kCommandDeviceMaterialE
__ libABMCommandDriversEUR.dylib: __ZN7antenna22kCommandTxPowerCappingE
__ libABMCommandDriversEUR.dylib: __ZN7antenna22kKeyE75AccessoryStatusE
__ libABMCommandDriversEUR.dylib: __ZN7antenna22kKeyHandDetectionStateE
__ libABMCommandDriversEUR.dylib: __ZN7antenna22kKeyTxPowerCappingStopE
__ libABMCommandDriversEUR.dylib: __ZN7antenna23kKeyAntennaSwitchConfigE
__ libABMCommandDriversEUR.dylib: __ZN7antenna23kKeyTxPowerCappingStartE
__ libABMCommandDriversEUR.dylib: __ZN7antenna24kCommandPowerSourceStateE
__ libABMCommandDriversEUR.dylib: __ZN7antenna24kKeyTxPowerCappingEnableE
__ libABMCommandDriversEUR.dylib: __ZN7antenna24kKeyVideoAccessoryStatusE
__ libABMCommandDriversEUR.dylib: __ZN7antenna25kKeyCommandTxPowerSvcTypeE
__ libABMCommandDriversEUR.dylib: __ZN7antenna26kCommandHandDetectionStateE
__ libABMCommandDriversEUR.dylib: __ZN7antenna27kKeyAntennaSwitchARTDConfigE
__ libABMCommandDriversEUR.dylib: __ZN7antenna28kCommandTxPowerCappingEnableE
__ libABMCommandDriversEUR.dylib: __ZN7antenna28kCommandTxPowerConfigurationE
__ libABMCommandDriversEUR.dylib: __ZN7antenna28kKeyTransmitIndicationEnableE
__ libABMCommandDriversEUR.dylib: __ZN7antenna29kCommandPPMRegisterIndicationE
__ libABMCommandDriversEUR.dylib: __ZN7antenna29kCommandWiredPortNotificationE
__ libABMCommandDriversEUR.dylib: __ZN7antenna29kKeyTransmitIndicationVersionE
__ libABMCommandDriversEUR.dylib: __ZN7antenna29kTransmitIndicationVersion_v1E
__ libABMCommandDriversEUR.dylib: __ZN7antenna29kTransmitIndicationVersion_v2E
__ libABMCommandDriversEUR.dylib: __ZN7antenna31kCommandE75AccessoryStatusForRFE
__ libABMCommandDriversEUR.dylib: __ZN7antenna32kCommandTransmitIndicationConfigE
__ libABMCommandDriversEUR.dylib: __ZN7antenna33kCommandE75AccessoryStatusForARTDE
__ libABMCommandDriversEUR.dylib: __ZN7antenna36kKeyTxPowerCappingIPhoneBackoffLevelE
__ libABMCommandDriversEUR.dylib: __ZN7antenna36kKeyTxPowerConfigurationLimitTimeoutE
__ libABMCommandDriversEUR.dylib: __ZN7antenna37AntennaCommandDriverDelegateInterfaceD2Ev
__ libABMCommandDriversEUR.dylib: __ZN7antenna37kKeyTxPowerConfigurationCLTMDutyCycleE
__ libABMCommandDriversEUR.dylib: __ZN7antenna38kKeyTxPowerConfigurationCLTMPercentileE
__ libABMCommandDriversEUR.dylib: __ZN7antenna40kCommandTxPowerCappingIndicationRegisterE
__ libABMCommandDriversEUR.dylib: __ZN7antenna41kKeyTxPowerConfigurationCLTMRadioMaxPowerE
__ libABMCommandDriversEUR.dylib: __ZN7antenna45kKeyTxPowerCappingAntennaFreeSpaceConfigLevelE
__ libABMCommandDriversEUR.dylib: __ZTIN7antenna37AntennaCommandDriverDelegateInterfaceE
__ libATCommandStudioDynamic.dylib: __ZN12ATCSDPCQueue7enqueueEPNS_8CallbackE
__ libATCommandStudioDynamic.dylib: __ZN12ATCSDPCQueue8CallbackC2Ev
__ libATCommandStudioDynamic.dylib: __ZN12ATCSDPCQueue8CallbackD2Ev
__ libATCommandStudioDynamic.dylib: __ZN12ATCSDPCQueueC1Ev
__ libATCommandStudioDynamic.dylib: __ZN12ATCSDPCQueueD1Ev
__ libATCommandStudioDynamic.dylib: __ZN14_ATCSException19setExceptionHandlerEPFvRS_E
__ libATCommandStudioDynamic.dylib: __ZN19ATCSRouterIPCDriver15resetErrorStateEv
__ libATCommandStudioDynamic.dylib: __ZN19ATCSRouterIPCDriver6createERKNS_10ParametersE
__ libATCommandStudioDynamic.dylib: __ZN3qmi11kClientNameE
__ libATCommandStudioDynamic.dylib: __ZN3qmi14kClientSvcTypeE
__ libATCommandStudioDynamic.dylib: __ZN3qmi18QMuxServerAccepter21setValidationStrategyENSt3__18functionIFbPvEEE
__ libATCommandStudioDynamic.dylib: __ZN3qmi18QMuxServerAccepter6listenERNS_6ServerE
__ libATCommandStudioDynamic.dylib: __ZN3qmi18QMuxServerAccepterC1ERK4QMuxRKP16dispatch_queue_sRKNSt3__112basic_stringIcNS8_11char_traitsIcEENS8_9allocatorIcEEEE
__ libATCommandStudioDynamic.dylib: __ZN3qmi18QMuxServerAccepterD1Ev
__ libATCommandStudioDynamic.dylib: __ZN3qmi6Server6createERKN3xpc10connectionE
__ libATCommandStudioDynamic.dylib: __ZN3qmi6ServerD1Ev
__ libATCommandStudioDynamic.dylib: __ZN4QMux11invokeResetERKNSt3__112basic_stringIcNS0_11char_traitsIcEENS0_9allocatorIcEEEEb
__ libATCommandStudioDynamic.dylib: __ZN4QMux14enterPowerModeEP16dispatch_group_sN3qmi12PowerProfileE
__ libATCommandStudioDynamic.dylib: __ZN4QMux18setDriverAndCookieEP13ATCSIPCDriverPv
__ libATCommandStudioDynamic.dylib: __ZN4QMux23getQMIPowerDownMessagesEv
__ libATCommandStudioDynamic.dylib: __ZN4QMux4stopEv
__ libATCommandStudioDynamic.dylib: __ZN4QMux5startEv
__ libATCommandStudioDynamic.dylib: __ZN4QMuxC1EP13ATCSIPCDriverPvRKNSt3__112basic_stringIcNS3_11char_traitsIcEENS3_9allocatorIcEEEENS3_8weak_ptrI16ATCSResetInvokerEEbb
__ libATCommandStudioDynamic.dylib: __ZN4QMuxC1Ev
__ libATCommandStudioDynamic.dylib: __ZN4QMuxD1Ev
__ libATCommandStudioDynamic.dylib: __ZN9ATCSMutex10isUnlockedEv
__ libATCommandStudioDynamic.dylib: __ZN9ATCSMutex4lockEv
__ libATCommandStudioDynamic.dylib: __ZN9ATCSMutex6unlockEv
__ libATCommandStudioDynamic.dylib: __ZN9ATCSMutex8isLockedEv
__ libATCommandStudioDynamic.dylib: __ZN9ATCSMutexC1EPKc
__ libATCommandStudioDynamic.dylib: __ZN9ATCSMutexD1Ev
__ libATCommandStudioDynamic.dylib: __ZNK4QMux13isPoweredDownEv
__ libATCommandStudioDynamic.dylib: __ZNK4QMux7getNameEv
__ libATCommandStudioDynamic.dylib: __ZNK4QMux9dumpStateEv
__ libATCommandStudioDynamic.dylib: __ZNK4QMux9isRunningEv
__ libATCommandStudioDynamic.dylib: __ZTIN12ATCSDPCQueue8CallbackE
__ libATCommandStudioDynamic.dylib: _strcasecmp
__ libBBUpdaterDynamic.dylib: _BBUFSServerCopyDefaultDestination
__ libBBUpdaterDynamic.dylib: _BBUFSServerCreate
__ libBBUpdaterDynamic.dylib: _BBUFSServerFlush
__ libBBUpdaterDynamic.dylib: _BBUFSServerFlushInProgress
__ libBBUpdaterDynamic.dylib: _BBUFSServerParametersInit
__ libBBUpdaterDynamic.dylib: _BBUFSServerRelease
__ libBBUpdaterDynamic.dylib: _BBUFSServerStart
__ libBBUpdaterDynamic.dylib: _BBUFSServerStop
__ libBBUpdaterDynamic.dylib: _BBUpdaterExecCommand
__ libBBUpdaterDynamic.dylib: _BBUpdaterExtremeCreate
__ libBBUpdaterDynamic.dylib: _BBUpdaterRegisterLogSink
__ libBBUpdaterDynamic.dylib: _BBUpdaterSetOptions
__ libETLDynamic.dylib: _ETLDebugRegisterDelegate
__ libPCITransport.dylib: _TelephonyBasebandPCITransportCreate
__ libPCITransport.dylib: _TelephonyBasebandPCITransportInitParameters
__ libPCITransport.dylib: __ZN3pci5event8Listener6createEN8dispatch5blockIU13block_pointerFvNS0_4typeEONSt3__112basic_stringIcNS5_11char_traitsIcEENS5_9allocatorIcEEEEjEEEP11__CFRunLoop
__ libPPM.dylib: _OBJC_CLASS_$_PPMClient
__ libQMIParserDynamic.dylib: __ZN3qmi11MessageBase22setParsingErrorHandlerEPFbttPKhmE
__ libQMIParserDynamic.dylib: __ZN3qmi18MutableMessageBase20setWriteErrorHandlerEPFvtRNSt3__16vectorIhNS1_9allocatorIhEEEElE
__ libQMIParserDynamic.dylib: __ZN3qmi5parseEPKhiU13block_pointerFvRKNS_10QMuxHeaderES1_iiE
__ libQMIParserDynamic.dylib: __ZN3qmi8asStringENS_10QMuxHeader11MessageTypeE
__ libSystem.B.dylib: _NEHelperCacheCopyAppUUIDMapping
__ libSystem.B.dylib: __Block_copy
__ libSystem.B.dylib: __Block_object_assign
__ libSystem.B.dylib: __Block_object_dispose
__ libSystem.B.dylib: __Block_release
__ libSystem.B.dylib: __DefaultRuneLocale
__ libSystem.B.dylib: __NSConcreteGlobalBlock
__ libSystem.B.dylib: __NSConcreteStackBlock
__ libSystem.B.dylib: __Unwind_Resume
__ libSystem.B.dylib: ___cxa_atexit
__ libSystem.B.dylib: ___error
__ libSystem.B.dylib: ___maskrune
__ libSystem.B.dylib: ___stack_chk_fail
__ libSystem.B.dylib: ___stack_chk_guard
__ libSystem.B.dylib: ___tolower
__ libSystem.B.dylib: ___toupper
__ libSystem.B.dylib: __dispatch_source_type_timer
__ libSystem.B.dylib: __dispatch_source_type_vnode
__ libSystem.B.dylib: __os_activity_create
__ libSystem.B.dylib: __os_activity_current
__ libSystem.B.dylib: __os_log_debug_impl
__ libSystem.B.dylib: __os_log_default
__ libSystem.B.dylib: __os_log_error_impl
__ libSystem.B.dylib: __os_log_fault_impl
__ libSystem.B.dylib: __os_log_impl
__ libSystem.B.dylib: __xpc_error_connection_interrupted
__ libSystem.B.dylib: __xpc_error_connection_invalid
__ libSystem.B.dylib: __xpc_error_termination_imminent
__ libSystem.B.dylib: __xpc_type_array
__ libSystem.B.dylib: __xpc_type_connection
__ libSystem.B.dylib: __xpc_type_dictionary
__ libSystem.B.dylib: __xpc_type_null
__ libSystem.B.dylib: __xpc_type_uuid
__ libSystem.B.dylib: _abort
__ libSystem.B.dylib: _atoi
__ libSystem.B.dylib: _bzero
__ libSystem.B.dylib: _chmod
__ libSystem.B.dylib: _chown
__ libSystem.B.dylib: _close
__ libSystem.B.dylib: _closedir
__ libSystem.B.dylib: _difftime
__ libSystem.B.dylib: _dispatch_activate
__ libSystem.B.dylib: _dispatch_async
__ libSystem.B.dylib: _dispatch_async_and_wait
__ libSystem.B.dylib: _dispatch_async_f
__ libSystem.B.dylib: _dispatch_barrier_async_f
__ libSystem.B.dylib: _dispatch_get_global_queue
__ libSystem.B.dylib: _dispatch_group_async
__ libSystem.B.dylib: _dispatch_group_create
__ libSystem.B.dylib: _dispatch_group_enter
__ libSystem.B.dylib: _dispatch_group_leave
__ libSystem.B.dylib: _dispatch_group_notify
__ libSystem.B.dylib: _dispatch_group_notify_f
__ libSystem.B.dylib: _dispatch_group_wait
__ libSystem.B.dylib: _dispatch_once
__ libSystem.B.dylib: _dispatch_queue_attr_make_initially_inactive
__ libSystem.B.dylib: _dispatch_queue_attr_make_with_qos_class
__ libSystem.B.dylib: _dispatch_queue_create
__ libSystem.B.dylib: _dispatch_queue_create_with_target$V2
__ libSystem.B.dylib: _dispatch_release
__ libSystem.B.dylib: _dispatch_resume
__ libSystem.B.dylib: _dispatch_retain
__ libSystem.B.dylib: _dispatch_semaphore_create
__ libSystem.B.dylib: _dispatch_semaphore_signal
__ libSystem.B.dylib: _dispatch_semaphore_wait
__ libSystem.B.dylib: _dispatch_set_qos_class_floor
__ libSystem.B.dylib: _dispatch_source_cancel
__ libSystem.B.dylib: _dispatch_source_create
__ libSystem.B.dylib: _dispatch_source_set_cancel_handler
__ libSystem.B.dylib: _dispatch_source_set_event_handler
__ libSystem.B.dylib: _dispatch_source_set_timer
__ libSystem.B.dylib: _dispatch_suspend
__ libSystem.B.dylib: _dispatch_sync
__ libSystem.B.dylib: _dispatch_time
__ libSystem.B.dylib: _dispatch_workloop_create
__ libSystem.B.dylib: _dispatch_workloop_is_current
__ libSystem.B.dylib: _fchmod
__ libSystem.B.dylib: _fclose
__ libSystem.B.dylib: _fcntl
__ libSystem.B.dylib: _fflush
__ libSystem.B.dylib: _fopen
__ libSystem.B.dylib: _fread
__ libSystem.B.dylib: _free
__ libSystem.B.dylib: _freeifaddrs
__ libSystem.B.dylib: _fseek
__ libSystem.B.dylib: _fseeko
__ libSystem.B.dylib: _fstat
__ libSystem.B.dylib: _ftello
__ libSystem.B.dylib: _fwrite
__ libSystem.B.dylib: _getifaddrs
__ libSystem.B.dylib: _getpid
__ libSystem.B.dylib: _getprogname
__ libSystem.B.dylib: _getpwnam
__ libSystem.B.dylib: _gettimeofday
__ libSystem.B.dylib: _inet_ntop
__ libSystem.B.dylib: _localtime_r
__ libSystem.B.dylib: _lstat
__ libSystem.B.dylib: _memchr
__ libSystem.B.dylib: _memcmp
__ libSystem.B.dylib: _memcpy
__ libSystem.B.dylib: _memmove
__ libSystem.B.dylib: _memset
__ libSystem.B.dylib: _mkdir
__ libSystem.B.dylib: _notify_cancel
__ libSystem.B.dylib: _notify_register_dispatch
__ libSystem.B.dylib: _open
__ libSystem.B.dylib: _opendir
__ libSystem.B.dylib: _os_activity_scope_enter
__ libSystem.B.dylib: _os_activity_scope_leave
__ libSystem.B.dylib: _os_log_create
__ libSystem.B.dylib: _os_log_type_enabled
__ libSystem.B.dylib: _os_release
__ libSystem.B.dylib: _os_state_add_handler
__ libSystem.B.dylib: _os_state_remove_handler
__ libSystem.B.dylib: _os_unfair_lock_lock
__ libSystem.B.dylib: _os_unfair_lock_unlock
__ libSystem.B.dylib: _pthread_create
__ libSystem.B.dylib: _pthread_join
__ libSystem.B.dylib: _pthread_mutex_lock
__ libSystem.B.dylib: _pthread_mutex_unlock
__ libSystem.B.dylib: _pthread_setname_np
__ libSystem.B.dylib: _read
__ libSystem.B.dylib: _readdir
__ libSystem.B.dylib: _remove
__ libSystem.B.dylib: _rename
__ libSystem.B.dylib: _snprintf
__ libSystem.B.dylib: _sprintf
__ libSystem.B.dylib: _stat
__ libSystem.B.dylib: _statvfs
__ libSystem.B.dylib: _strcmp
__ libSystem.B.dylib: _strerror
__ libSystem.B.dylib: _strftime
__ libSystem.B.dylib: _strlen
__ libSystem.B.dylib: _strncasecmp
__ libSystem.B.dylib: _strncmp
__ libSystem.B.dylib: _strtol
__ libSystem.B.dylib: _strtoul
__ libSystem.B.dylib: _symlink
__ libSystem.B.dylib: _syslog
__ libSystem.B.dylib: _time
__ libSystem.B.dylib: _unlink
__ libSystem.B.dylib: _usleep
__ libSystem.B.dylib: _write
__ libSystem.B.dylib: _xpc_array_append_value
__ libSystem.B.dylib: _xpc_array_apply
__ libSystem.B.dylib: _xpc_array_create
__ libSystem.B.dylib: _xpc_array_get_count
__ libSystem.B.dylib: _xpc_array_get_value
__ libSystem.B.dylib: _xpc_bool_create
__ libSystem.B.dylib: _xpc_connection_cancel
__ libSystem.B.dylib: _xpc_connection_create_mach_service
__ libSystem.B.dylib: _xpc_connection_get_audit_token
__ libSystem.B.dylib: _xpc_connection_get_pid
__ libSystem.B.dylib: _xpc_connection_resume
__ libSystem.B.dylib: _xpc_connection_send_message
__ libSystem.B.dylib: _xpc_connection_send_message_with_reply
__ libSystem.B.dylib: _xpc_connection_suspend
__ libSystem.B.dylib: _xpc_copy_description
__ libSystem.B.dylib: _xpc_copy_entitlement_for_token
__ libSystem.B.dylib: _xpc_dictionary_apply
__ libSystem.B.dylib: _xpc_dictionary_create
__ libSystem.B.dylib: _xpc_dictionary_create_reply
__ libSystem.B.dylib: _xpc_dictionary_get_remote_connection
__ libSystem.B.dylib: _xpc_dictionary_get_value
__ libSystem.B.dylib: _xpc_dictionary_set_value
__ libSystem.B.dylib: _xpc_double_create
__ libSystem.B.dylib: _xpc_get_type
__ libSystem.B.dylib: _xpc_int64_create
__ libSystem.B.dylib: _xpc_null_create
__ libSystem.B.dylib: _xpc_release
__ libSystem.B.dylib: _xpc_retain
__ libSystem.B.dylib: _xpc_string_create
__ libSystem.B.dylib: _xpc_uint64_create
__ libSystem.B.dylib: _xpc_uuid_get_bytes
__ libSystem.B.dylib: dyld_stub_binder
__ libTelephonyBasebandDynamic.dylib: _TelephonyBasebandCreateController
__ libTelephonyBasebandDynamic.dylib: _TelephonyBasebandGetManagerState
__ libTelephonyBasebandDynamic.dylib: _TelephonyBasebandGetReset
__ libTelephonyBasebandDynamic.dylib: _TelephonyBasebandPowerOnModem
__ libTelephonyBasebandDynamic.dylib: _TelephonyBasebandPowercycleModem
__ libTelephonyBasebandDynamic.dylib: _TelephonyBasebandRegisterForReset
__ libTelephonyBasebandDynamic.dylib: _TelephonyBasebandResetModem
__ libTelephonyBasebandDynamic.dylib: _TelephonyBasebandSetManagerState
__ libTelephonyDebugDynamic.dylib: _TelephonyBasebandWatchdogStart
__ libTelephonyDebugDynamic.dylib: _TelephonyBasebandWatchdogStop
__ libTelephonyIOKitDynamic.dylib: __ZN3ctu5iokit10Controller14setMesaQualityENS0_31TelephonyIOKitMesaSignalQualityE
__ libTelephonyIOKitDynamic.dylib: __ZN3ctu5iokit10Controller14setPDPCallbackEN8dispatch8callbackIU13block_pointerFvNS0_17TelephonyIOKitPDPEEEEPKc
__ libTelephonyIOKitDynamic.dylib: __ZN3ctu5iokit10Controller15setMesaCallbackEN8dispatch8callbackIU13block_pointerFvNS0_23TelephonyIOKitMesaEventEEEE
__ libTelephonyIOKitDynamic.dylib: __ZN3ctu5iokit10Controller16queryPowerSourceEv
__ libTelephonyIOKitDynamic.dylib: __ZN3ctu5iokit10Controller18acquireMesaServiceEv
__ libTelephonyIOKitDynamic.dylib: __ZN3ctu5iokit10Controller18setDisplayCallbackEN8dispatch8callbackIU13block_pointerFvNS0_25TelephonyIOKitDisplayLinkEEEE
__ libTelephonyIOKitDynamic.dylib: __ZN3ctu5iokit10Controller20setAccessoryCallbackEN8dispatch8callbackIU13block_pointerFvNS0_32TelephonyIOKitAccessoryParameterEEEE
__ libTelephonyIOKitDynamic.dylib: __ZN3ctu5iokit10Controller22setPowerSourceCallbackEN8dispatch8callbackIU13block_pointerFvNS0_25TelephonyIOKitPowerSourceEEEE
__ libTelephonyIOKitDynamic.dylib: __ZN3ctu5iokit10Controller29getAccessoryPrimaryPortNumberEv
__ libTelephonyIOKitDynamic.dylib: __ZN3ctu5iokit10Controller6createENSt3__110shared_ptrINS_9LogServerEEEP11__CFRunLoop
__ libTelephonyIOKitDynamic.dylib: __ZN3ctu5iokit15IOHIDController13isProxCoveredEj
__ libTelephonyIOKitDynamic.dylib: __ZN3ctu5iokit15IOHIDController20registerProxCallbackEN8dispatch5blockIU13block_pointerFvjEEE
__ libTelephonyIOKitDynamic.dylib: __ZN3ctu5iokit15IOHIDController5startEv
__ libTelephonyIOKitDynamic.dylib: __ZN3ctu5iokit15IOHIDController6createEN8dispatch5queueENS2_8workloopE
__ libTelephonyIOKitDynamic.dylib: __ZN3ctu5iokit8asStringENS0_25TelephonyIOKitPowerSourceE
__ libTelephonyIOKitDynamic.dylib: __ZN3ctu5iokit8asStringENS0_27TelephonyIOKitAccessoryTypeE
__ libTelephonyIOKitDynamic.dylib: __ZN3ctu5iokit8asStringENS0_29TelephonyIOKitAccessoryStatusE
__ libTelephonyIOKitDynamic.dylib: __ZN3ctu5power7manager16registerListenerENS1_10parametersE
__ libTelephonyIOKitDynamic.dylib: __ZN3ctu5power7manager3getEv
__ libTelephonyIOKitDynamic.dylib: __ZN3ctu5power7manager8asStringEj
__ libTelephonyIOKitDynamic.dylib: __ZN3ctu5power9assertion14createInternalERKNSt3__112basic_stringIcNS2_11char_traitsIcEENS2_9allocatorIcEEEEj
__ libTelephonyIOKitDynamic.dylib: __ZN3ctu5power9assertionC1Ev
__ libTelephonyUtilDynamic.dylib: _TelephonyCapabilitiesAutomaticRadarFilingSupported
__ libTelephonyUtilDynamic.dylib: _TelephonyCapabilitiesRadioAccessoryDetectionForARTDSupported
__ libTelephonyUtilDynamic.dylib: _TelephonyCapabilitiesRadioAccessoryDetectionSupported
__ libTelephonyUtilDynamic.dylib: _TelephonyCapabilitiesRadioAccessoryTypeDetectionForARTDSupported
__ libTelephonyUtilDynamic.dylib: _TelephonyCapabilitiesRadioAccessoryTypeDetectionForRFSupported
__ libTelephonyUtilDynamic.dylib: _TelephonyCapabilitiesRadioC2kDevice
__ libTelephonyUtilDynamic.dylib: _TelephonyCapabilitiesRadioDIAGGetUSBLocationID
__ libTelephonyUtilDynamic.dylib: _TelephonyCapabilitiesRadioDeviceMaterialSupported
__ libTelephonyUtilDynamic.dylib: _TelephonyCapabilitiesRadioFusingCertIDFromSerialNumber
__ libTelephonyUtilDynamic.dylib: _TelephonyCapabilitiesRadioGetFirmwarePath
__ libTelephonyUtilDynamic.dylib: _TelephonyCapabilitiesRadioHSICGetDefaultRecoveryTimeoutSeconds
__ libTelephonyUtilDynamic.dylib: _TelephonyCapabilitiesRadioHSICGetIdleDisconnectTime
__ libTelephonyUtilDynamic.dylib: _TelephonyCapabilitiesRadioHSICGetNumControlChannels
__ libTelephonyUtilDynamic.dylib: _TelephonyCapabilitiesRadioHSICGetSuspendTimers
__ libTelephonyUtilDynamic.dylib: _TelephonyCapabilitiesRadioHSICSupported
__ libTelephonyUtilDynamic.dylib: _TelephonyCapabilitiesRadioIPCSupportsHSIC
__ libTelephonyUtilDynamic.dylib: _TelephonyCapabilitiesRadioIPCSupportsPCI
__ libTelephonyUtilDynamic.dylib: _TelephonyCapabilitiesRadioIPCSupportsRouter
__ libTelephonyUtilDynamic.dylib: _TelephonyCapabilitiesRadioMESASupported
__ libTelephonyUtilDynamic.dylib: _TelephonyCapabilitiesRadioPCIGetNumControlChannels
__ libTelephonyUtilDynamic.dylib: _TelephonyCapabilitiesRadioPCISupported
__ libTelephonyUtilDynamic.dylib: _TelephonyCapabilitiesRadioRemoteFilesystemSupported
__ libTelephonyUtilDynamic.dylib: _TelephonyCapabilitiesRadioTxPowerAntennaFreeSpaceConfigSupported
__ libTelephonyUtilDynamic.dylib: _TelephonyCapabilitiesRadioTxPowerAudioJackReportSupported
__ libTelephonyUtilDynamic.dylib: _TelephonyCapabilitiesRadioTxPowerAudioSpeakerSupported
__ libTelephonyUtilDynamic.dylib: _TelephonyCapabilitiesRadioTxPowerEnhancedDetectionModeSupported
__ libTelephonyUtilDynamic.dylib: _TelephonyCapabilitiesRadioTxPowerHandDetectionSupported
__ libTelephonyUtilDynamic.dylib: _TelephonyCapabilitiesRadioTxPowerMotionAlwaysSupported
__ libTelephonyUtilDynamic.dylib: _TelephonyCapabilitiesRadioTxPowerMotionSupported
__ libTelephonyUtilDynamic.dylib: _TelephonyCapabilitiesRadioTxPowerPPMSupported
__ libTelephonyUtilDynamic.dylib: _TelephonyCapabilitiesRadioTxPowerPowerSourceDetectionSupported
__ libTelephonyUtilDynamic.dylib: _TelephonyCapabilitiesRadioTxPowerTimeoutConfig
__ libTelephonyUtilDynamic.dylib: _TelephonyCapabilitiesRadioTxPowerVideoAntennaSwitingSupported
__ libTelephonyUtilDynamic.dylib: _TelephonyCapabilitiesRadioUMTSSupported
__ libTelephonyUtilDynamic.dylib: _TelephonyRadiosGetProduct
__ libTelephonyUtilDynamic.dylib: _TelephonyRadiosGetRadio
__ libTelephonyUtilDynamic.dylib: _TelephonyRadiosGetRadioVendor
__ libTelephonyUtilDynamic.dylib: _TelephonyUtilDebugRegisterDelegate
__ libTelephonyUtilDynamic.dylib: _TelephonyUtilDebugSetFlags
__ libTelephonyUtilDynamic.dylib: _TelephonyUtilGetSystemTime
__ libTelephonyUtilDynamic.dylib: _TelephonyUtilIsCarrierBuild
__ libTelephonyUtilDynamic.dylib: _TelephonyUtilIsInternalBuild
__ libTelephonyUtilDynamic.dylib: _TelephonyUtilIsVendorBuild
__ libTelephonyUtilDynamic.dylib: _TelephonyUtilSystemMachTime
__ libTelephonyUtilDynamic.dylib: _TelephonyUtilTransportFree
__ libTelephonyUtilDynamic.dylib: _TeleponyCapabilitiesRadioHSICPowersaveEnabled
__ libTelephonyUtilDynamic.dylib: __ZN3ctu10LogMessageC1ENS_9TimeStampENS_8LogLevelENSt3__112basic_stringIcNS3_11char_traitsIcEENS3_9allocatorIcEEEEOS9_ONS3_6vectorIS9_NS7_IS9_EEEE
__ libTelephonyUtilDynamic.dylib: __ZN3ctu10LoggerBaseINSt3__110shared_ptrINS_9LogServerEEEED0Ev
__ libTelephonyUtilDynamic.dylib: __ZN3ctu10LoggerBaseINSt3__110shared_ptrINS_9LogServerEEEED1Ev
__ libTelephonyUtilDynamic.dylib: __ZN3ctu11concurrency7Monitor12executeBlockEP16dispatch_group_sU13block_pointerFvvENS0_13PriorityQueue8PriorityE
__ libTelephonyUtilDynamic.dylib: __ZN3ctu11concurrency7Monitor12executeBlockEU13block_pointerFvvENS0_13PriorityQueue8PriorityE
__ libTelephonyUtilDynamic.dylib: __ZN3ctu11concurrency7Monitor18notifyOnCompletionEP16dispatch_group_sU13block_pointerFvvENS0_13PriorityQueue8PriorityE
__ libTelephonyUtilDynamic.dylib: __ZN3ctu11concurrency7MonitorC2ERKNSt3__112basic_stringIcNS2_11char_traitsIcEENS2_9allocatorIcEEEE
__ libTelephonyUtilDynamic.dylib: __ZN3ctu11concurrency7MonitorD2Ev
__ libTelephonyUtilDynamic.dylib: __ZN3ctu12OsLogContextC1EOS0_
__ libTelephonyUtilDynamic.dylib: __ZN3ctu12OsLogContextC1EPKcS2_
__ libTelephonyUtilDynamic.dylib: __ZN3ctu12OsLogContextC1ERKS0_
__ libTelephonyUtilDynamic.dylib: __ZN3ctu12OsLogContextD1Ev
__ libTelephonyUtilDynamic.dylib: __ZN3ctu12OsLogContextaSEOS0_
__ libTelephonyUtilDynamic.dylib: __ZN3ctu12StaticLoggerC1ENS_12OsLogContextERKNSt3__110shared_ptrINS_9LogServerEEE
__ libTelephonyUtilDynamic.dylib: __ZN3ctu12StaticLoggerC1ERKNSt3__112basic_stringIcNS1_11char_traitsIcEENS1_9allocatorIcEEEERKNS1_10shared_ptrINS_9LogServerEEE
__ libTelephonyUtilDynamic.dylib: __ZN3ctu12StaticLoggerC1Ev
__ libTelephonyUtilDynamic.dylib: __ZN3ctu12StaticLoggerD1Ev
__ libTelephonyUtilDynamic.dylib: __ZN3ctu13TrackedLogger22registerLoggerToServerERKNSt3__110shared_ptrINS_9LogServerEEERKNS1_12basic_stringIcNS1_11char_traitsIcEENS1_9allocatorIcEEEENS2_IS0_EE
__ libTelephonyUtilDynamic.dylib: __ZN3ctu14split_any_copyENS_4llvm9StringRefES1_
__ libTelephonyUtilDynamic.dylib: __ZN3ctu16LogMessageBuffer10takeStringEv
__ libTelephonyUtilDynamic.dylib: __ZN3ctu16LogMessageBuffer12takeMetadataEv
__ libTelephonyUtilDynamic.dylib: __ZN3ctu16LogMessageBuffer16createWithFormatEPKcz
__ libTelephonyUtilDynamic.dylib: __ZN3ctu16LogMessageBuffer7vprintfEPKcPc
__ libTelephonyUtilDynamic.dylib: __ZN3ctu16LogMessageBufferC1Ev
__ libTelephonyUtilDynamic.dylib: __ZN3ctu16LogMessageBufferD1Ev
__ libTelephonyUtilDynamic.dylib: __ZN3ctu16LoggerCommonBase11setLogLevelENS_8LogLevelE
__ libTelephonyUtilDynamic.dylib: __ZN3ctu16LoggerCommonBase20setInheritedLogLevelENS_8LogLevelE
__ libTelephonyUtilDynamic.dylib: __ZN3ctu16LoggerCommonBaseC2ENS_12OsLogContextE
__ libTelephonyUtilDynamic.dylib: __ZN3ctu16LoggerCommonBaseC2ERKNSt3__112basic_stringIcNS1_11char_traitsIcEENS1_9allocatorIcEEEEP8os_log_s
__ libTelephonyUtilDynamic.dylib: __ZN3ctu16LoggerCommonBaseaSERKS0_
__ libTelephonyUtilDynamic.dylib: __ZN3ctu18XpcJetsamAssertion14createActivityENSt3__112basic_stringIcNS1_11char_traitsIcEENS1_9allocatorIcEEEE
__ libTelephonyUtilDynamic.dylib: __ZN3ctu18XpcJetsamAssertion21create_default_globalEv
__ libTelephonyUtilDynamic.dylib: __ZN3ctu20DispatchTimerService6createENSt3__110shared_ptrINS_9LogServerEEE
__ libTelephonyUtilDynamic.dylib: __ZN3ctu2cf12MakeCFStringC1EPKc
__ libTelephonyUtilDynamic.dylib: __ZN3ctu2cf12MakeCFStringD1Ev
__ libTelephonyUtilDynamic.dylib: __ZN3ctu2cf12convert_copyERPK10__CFStringPKcjPK13__CFAllocator
__ libTelephonyUtilDynamic.dylib: __ZN3ctu2cf12convert_copyERPK10__CFStringRKNSt3__112basic_stringIcNS5_11char_traitsIcEENS5_9allocatorIcEEEEjPK13__CFAllocator
__ libTelephonyUtilDynamic.dylib: __ZN3ctu2cf12dict_adapterC1EPK14__CFDictionaryb
__ libTelephonyUtilDynamic.dylib: __ZN3ctu2cf12dict_adapterC1ERKS1_
__ libTelephonyUtilDynamic.dylib: __ZN3ctu2cf12dict_adapterD1Ev
__ libTelephonyUtilDynamic.dylib: __ZN3ctu2cf13plist_adapterC1EPK10__CFStringS4_
__ libTelephonyUtilDynamic.dylib: __ZN3ctu2cf13plist_adapterD1Ev
__ libTelephonyUtilDynamic.dylib: __ZN3ctu2cf4showEPKv
__ libTelephonyUtilDynamic.dylib: __ZN3ctu2cf6assignERNSt3__112basic_stringIcNS1_11char_traitsIcEENS1_9allocatorIcEEEEP9__CFError
__ libTelephonyUtilDynamic.dylib: __ZN3ctu2cf6assignERNSt3__112basic_stringIcNS1_11char_traitsIcEENS1_9allocatorIcEEEEPK10__CFString
__ libTelephonyUtilDynamic.dylib: __ZN3ctu2cf6assignERNSt3__112basic_stringIcNS1_11char_traitsIcEENS1_9allocatorIcEEEEPKv
__ libTelephonyUtilDynamic.dylib: __ZN3ctu2cf6assignERiPK10__CFNumber
__ libTelephonyUtilDynamic.dylib: __ZN3ctu2cf6assignERjPK10__CFNumber
__ libTelephonyUtilDynamic.dylib: __ZN3ctu2cf6assignERlPK10__CFNumber
__ libTelephonyUtilDynamic.dylib: __ZN3ctu2fs11file_existsENS_4llvm9StringRefE
__ libTelephonyUtilDynamic.dylib: __ZN3ctu2fs16create_directoryENS_4llvm9StringRefEtb
__ libTelephonyUtilDynamic.dylib: __ZN3ctu50TelephonyUtilRadioFusingInferFusingStateFromCertIDERKj
__ libTelephonyUtilDynamic.dylib: __ZN3ctu56TelephonyUtilRadioFusingInferFusingStateFromSerialNumberERKNSt3__112basic_stringIcNS0_11char_traitsIcEENS0_9allocatorIcEEEE
__ libTelephonyUtilDynamic.dylib: __ZN3ctu5Clock18now_in_nanosecondsEv
__ libTelephonyUtilDynamic.dylib: __ZN3ctu6asCharENS_8LogLevelE
__ libTelephonyUtilDynamic.dylib: __ZN3ctu6assignERNSt3__112basic_stringIcNS0_11char_traitsIcEENS0_9allocatorIcEEEEPKhjbb
__ libTelephonyUtilDynamic.dylib: __ZN3ctu7Gestalt6createEv
__ libTelephonyUtilDynamic.dylib: __ZN3ctu8tokenizeERKNSt3__112basic_stringIcNS0_11char_traitsIcEENS0_9allocatorIcEEEEcm
__ libTelephonyUtilDynamic.dylib: __ZN3ctu9LogServer10setEnabledEb
__ libTelephonyUtilDynamic.dylib: __ZN3ctu9LogServer12updateConfigEN3xpc4dictE
__ libTelephonyUtilDynamic.dylib: __ZN3ctu9LogServer3logENSt3__110shared_ptrINS_10LogMessageEEE
__ libTelephonyUtilDynamic.dylib: __ZN3ctu9LogServer5startEv
__ libTelephonyUtilDynamic.dylib: __ZN3ctu9LogServer6createERKNSt3__112basic_stringIcNS1_11char_traitsIcEENS1_9allocatorIcEEEE
__ libTelephonyUtilDynamic.dylib: __ZN3ctu9LogServer9addWriterENSt3__110shared_ptrINS_9LogWriterEEE
__ libTelephonyUtilDynamic.dylib: __ZN3ctu9LogWriter13getFullConfigEv
__ libTelephonyUtilDynamic.dylib: __ZN3ctu9LogWriter15getSimpleConfigEv
__ libTelephonyUtilDynamic.dylib: __ZN3ctu9LogWriter5flushEN8dispatch13group_sessionE
__ libTelephonyUtilDynamic.dylib: __ZN3ctu9LogWriter5writeERKNS_10LogMessageE
__ libTelephonyUtilDynamic.dylib: __ZN3ctu9XpcClient14setServer_syncEN3xpc10connectionE
__ libTelephonyUtilDynamic.dylib: __ZN3ctu9XpcClientC2ENSt3__112basic_stringIcNS1_11char_traitsIcEENS1_9allocatorIcEEEE
__ libTelephonyUtilDynamic.dylib: __ZN3ctu9XpcClientD2Ev
__ libTelephonyUtilDynamic.dylib: __ZN3ctu9XpcServer16setListener_syncEN3xpc10connectionE
__ libTelephonyUtilDynamic.dylib: __ZN3ctu9XpcServer18startListener_syncEv
__ libTelephonyUtilDynamic.dylib: __ZN3ctu9XpcServerC2ERKNSt3__112basic_stringIcNS1_11char_traitsIcEENS1_9allocatorIcEEEEN3xpc10connectionERKN8dispatch8workloopE
__ libTelephonyUtilDynamic.dylib: __ZN3ctu9XpcServerD2Ev
__ libTelephonyUtilDynamic.dylib: __ZN3ctu9cf_to_xpcEPKv
__ libTelephonyUtilDynamic.dylib: __ZN3ctu9xpc_to_cfEPv
__ libTelephonyUtilDynamic.dylib: __ZN3ctulsERNS_16LogMessageBufferEOS0_
__ libTelephonyUtilDynamic.dylib: __ZN3ctulsERNS_16LogMessageBufferEPKc
__ libTelephonyUtilDynamic.dylib: __ZN3ctulsERNS_16LogMessageBufferERKNSt3__112basic_stringIcNS2_11char_traitsIcEENS2_9allocatorIcEEEE
__ libTelephonyUtilDynamic.dylib: __ZN3ctulsERNS_16LogMessageBufferEj
__ libTelephonyUtilDynamic.dylib: __ZN3xpc19dyn_cast_or_defaultERKNS_6objectEPKc
__ libTelephonyUtilDynamic.dylib: __ZN3xpc19dyn_cast_or_defaultERKNS_6objectERKNSt3__112basic_stringIcNS3_11char_traitsIcEENS3_9allocatorIcEEEE
__ libTelephonyUtilDynamic.dylib: __ZN3xpc19dyn_cast_or_defaultERKNS_6objectERKNSt3__16vectorIhNS3_9allocatorIhEEEE
__ libTelephonyUtilDynamic.dylib: __ZN3xpc19dyn_cast_or_defaultERKNS_6objectEb
__ libTelephonyUtilDynamic.dylib: __ZN3xpc19dyn_cast_or_defaultERKNS_6objectEd
__ libTelephonyUtilDynamic.dylib: __ZN3xpc19dyn_cast_or_defaultERKNS_6objectEi
__ libTelephonyUtilDynamic.dylib: __ZN3xpc19dyn_cast_or_defaultERKNS_6objectEj
__ libTelephonyUtilDynamic.dylib: __ZN3xpc19dyn_cast_or_defaultERKNS_6objectEl
__ libTelephonyUtilDynamic.dylib: __ZN3xpc19dyn_cast_or_defaultERKNS_6objectEx
__ libTelephonyUtilDynamic.dylib: __ZN3xpc19dyn_cast_or_defaultERKNS_6objectEy
__ libTelephonyUtilDynamic.dylib: __ZN3xpc6bridgeERKNS_6objectE
__ libTelephonyUtilDynamic.dylib: __ZNK3ctu10LoggerBaseINSt3__110shared_ptrINS_9LogServerEEEE7enabledENS_8LogLevelE
__ libTelephonyUtilDynamic.dylib: __ZNK3ctu10LoggerBaseINSt3__110shared_ptrINS_9LogServerEEEE8forceLogENS_8LogLevelEONS_16LogMessageBufferE
__ libTelephonyUtilDynamic.dylib: __ZNK3ctu11concurrency7Monitor19executeBlockAndWaitEU13block_pointerFvvENS0_13PriorityQueue8PriorityEy
__ libTelephonyUtilDynamic.dylib: __ZNK3ctu16LoggerCommonBase11getLogLevelEv
__ libTelephonyUtilDynamic.dylib: __ZNK3ctu16LoggerCommonBase12getLogDomainEv
__ libTelephonyUtilDynamic.dylib: __ZNK3ctu16LoggerCommonBase16getLocalLogLevelEv
__ libTelephonyUtilDynamic.dylib: __ZNK3ctu2cf11map_adapter13copyCFDataRefEPK10__CFString
__ libTelephonyUtilDynamic.dylib: __ZNK3ctu2cf11map_adapter14copyCFArrayRefEPK10__CFString
__ libTelephonyUtilDynamic.dylib: __ZNK3ctu2cf11map_adapter15copyCFNumberRefEPK10__CFString
__ libTelephonyUtilDynamic.dylib: __ZNK3ctu2cf11map_adapter19copyCFDictionaryRefEPK10__CFString
__ libTelephonyUtilDynamic.dylib: __ZNK3ctu2cf11map_adapter6getIntEPK10__CFStringi
__ libTelephonyUtilDynamic.dylib: __ZNK3ctu2cf11map_adapter7getBoolEPK10__CFStringb
__ libTelephonyUtilDynamic.dylib: __ZNK3ctu2cf11map_adapter9getDoubleEPK10__CFStringd
__ libTelephonyUtilDynamic.dylib: __ZNK3ctu2cf11map_adapter9getStringEPK10__CFStringRKNSt3__112basic_stringIcNS5_11char_traitsIcEENS5_9allocatorIcEEEE
__ libTelephonyUtilDynamic.dylib: __ZNK3ctu9LogServer9getConfigEv
__ libTelephonyUtilDynamic.dylib: __ZNK3ctu9XpcServer16getListener_syncEv
__ libTelephonyUtilDynamic.dylib: __ZNK3xpc6object9to_stringEv
__ libTelephonyUtilDynamic.dylib: __ZTIN3ctu11concurrency7MonitorE
__ libTelephonyUtilDynamic.dylib: __ZTIN3ctu13TrackedLoggerE
__ libTelephonyUtilDynamic.dylib: __ZTIN3ctu16LoggerCommonBaseE
__ libTelephonyUtilDynamic.dylib: __ZTIN3ctu9LogWriterE
__ libTelephonyUtilDynamic.dylib: __ZTIN3ctu9XpcClientE
__ libTelephonyUtilDynamic.dylib: __ZTIN3ctu9XpcServerE
__ libTelephonyUtilDynamic.dylib: __ZTVN3ctu9LogWriterE
__ libTelephonyUtilDynamic.dylib: ___TUAssertTrigger
__ libUSBTransport.dylib: _TelephonyBasebandUSBTransportCreate
__ libUSBTransport.dylib: _TelephonyBasebandUSBTransportInitParameters
__ libUSBTransport.dylib: _USBTransportStatusToString
__ libc++.1.dylib: __ZNKSt13runtime_error4whatEv
__ libc++.1.dylib: __ZNKSt3__112basic_stringIcNS_11char_traitsIcEENS_9allocatorIcEEE4findEcm
__ libc++.1.dylib: __ZNKSt3__112basic_stringIcNS_11char_traitsIcEENS_9allocatorIcEEE7compareEPKc
__ libc++.1.dylib: __ZNKSt3__112basic_stringIcNS_11char_traitsIcEENS_9allocatorIcEEE7compareEmmPKc
__ libc++.1.dylib: __ZNKSt3__112basic_stringIcNS_11char_traitsIcEENS_9allocatorIcEEE7compareEmmPKcm
__ libc++.1.dylib: __ZNKSt3__119__shared_weak_count13__get_deleterERKSt9type_info
__ libc++.1.dylib: __ZNKSt3__120__vector_base_commonILb1EE20__throw_length_errorEv
__ libc++.1.dylib: __ZNKSt3__121__basic_string_commonILb1EE20__throw_length_errorEv
__ libc++.1.dylib: __ZNKSt3__123__match_any_but_newlineIcE6__execERNS_7__stateIcEE
__ libc++.1.dylib: __ZNKSt3__16locale4nameEv
__ libc++.1.dylib: __ZNKSt3__16locale9has_facetERNS0_2idE
__ libc++.1.dylib: __ZNKSt3__16locale9use_facetERNS0_2idE
__ libc++.1.dylib: __ZNKSt3__18ios_base6getlocEv
__ libc++.1.dylib: __ZNKSt9exception4whatEv
__ libc++.1.dylib: __ZNSt11logic_errorC2EPKc
__ libc++.1.dylib: __ZNSt12length_errorD1Ev
__ libc++.1.dylib: __ZNSt13runtime_errorC2EPKc
__ libc++.1.dylib: __ZNSt13runtime_errorC2ERKS_
__ libc++.1.dylib: __ZNSt13runtime_errorD2Ev
__ libc++.1.dylib: __ZNSt3__111regex_errorC1ENS_15regex_constants10error_typeE
__ libc++.1.dylib: __ZNSt3__111regex_errorD1Ev
__ libc++.1.dylib: __ZNSt3__112bad_weak_ptrD1Ev
__ libc++.1.dylib: __ZNSt3__112basic_stringIcNS_11char_traitsIcEENS_9allocatorIcEEE5eraseEmm
__ libc++.1.dylib: __ZNSt3__112basic_stringIcNS_11char_traitsIcEENS_9allocatorIcEEE6appendEPKc
__ libc++.1.dylib: __ZNSt3__112basic_stringIcNS_11char_traitsIcEENS_9allocatorIcEEE6appendEPKcm
__ libc++.1.dylib: __ZNSt3__112basic_stringIcNS_11char_traitsIcEENS_9allocatorIcEEE6assignEPKc
__ libc++.1.dylib: __ZNSt3__112basic_stringIcNS_11char_traitsIcEENS_9allocatorIcEEE6insertEmPKc
__ libc++.1.dylib: __ZNSt3__112basic_stringIcNS_11char_traitsIcEENS_9allocatorIcEEE6insertEmPKcm
__ libc++.1.dylib: __ZNSt3__112basic_stringIcNS_11char_traitsIcEENS_9allocatorIcEEE6resizeEmc
__ libc++.1.dylib: __ZNSt3__112basic_stringIcNS_11char_traitsIcEENS_9allocatorIcEEE9push_backEc
__ libc++.1.dylib: __ZNSt3__112basic_stringIcNS_11char_traitsIcEENS_9allocatorIcEEEC1ERKS5_
__ libc++.1.dylib: __ZNSt3__112basic_stringIcNS_11char_traitsIcEENS_9allocatorIcEEEC1ERKS5_mmRKS4_
__ libc++.1.dylib: __ZNSt3__112basic_stringIcNS_11char_traitsIcEENS_9allocatorIcEEED1Ev
__ libc++.1.dylib: __ZNSt3__112basic_stringIcNS_11char_traitsIcEENS_9allocatorIcEEEaSERKS5_
__ libc++.1.dylib: __ZNSt3__112basic_stringIcNS_11char_traitsIcEENS_9allocatorIcEEEaSEc
__ libc++.1.dylib: __ZNSt3__113basic_istreamIcNS_11char_traitsIcEEE4readEPcl
__ libc++.1.dylib: __ZNSt3__113basic_istreamIcNS_11char_traitsIcEEE5seekgExNS_8ios_base7seekdirE
__ libc++.1.dylib: __ZNSt3__113basic_istreamIcNS_11char_traitsIcEEE5tellgEv
__ libc++.1.dylib: __ZNSt3__113basic_istreamIcNS_11char_traitsIcEEED0Ev
__ libc++.1.dylib: __ZNSt3__113basic_istreamIcNS_11char_traitsIcEEED1Ev
__ libc++.1.dylib: __ZNSt3__113basic_istreamIcNS_11char_traitsIcEEED2Ev
__ libc++.1.dylib: __ZNSt3__113basic_ostreamIcNS_11char_traitsIcEEE3putEc
__ libc++.1.dylib: __ZNSt3__113basic_ostreamIcNS_11char_traitsIcEEE5flushEv
__ libc++.1.dylib: __ZNSt3__113basic_ostreamIcNS_11char_traitsIcEEE5writeEPKcl
__ libc++.1.dylib: __ZNSt3__113basic_ostreamIcNS_11char_traitsIcEEE6sentryC1ERS3_
__ libc++.1.dylib: __ZNSt3__113basic_ostreamIcNS_11char_traitsIcEEE6sentryD1Ev
__ libc++.1.dylib: __ZNSt3__113basic_ostreamIcNS_11char_traitsIcEEED0Ev
__ libc++.1.dylib: __ZNSt3__113basic_ostreamIcNS_11char_traitsIcEEED1Ev
__ libc++.1.dylib: __ZNSt3__113basic_ostreamIcNS_11char_traitsIcEEED2Ev
__ libc++.1.dylib: __ZNSt3__113basic_ostreamIcNS_11char_traitsIcEEElsEb
__ libc++.1.dylib: __ZNSt3__113basic_ostreamIcNS_11char_traitsIcEEElsEd
__ libc++.1.dylib: __ZNSt3__113basic_ostreamIcNS_11char_traitsIcEEElsEi
__ libc++.1.dylib: __ZNSt3__113basic_ostreamIcNS_11char_traitsIcEEElsEj
__ libc++.1.dylib: __ZNSt3__113basic_ostreamIcNS_11char_traitsIcEEElsEl
__ libc++.1.dylib: __ZNSt3__113basic_ostreamIcNS_11char_traitsIcEEElsEm
__ libc++.1.dylib: __ZNSt3__113basic_ostreamIcNS_11char_traitsIcEEElsEy
__ libc++.1.dylib: __ZNSt3__114basic_iostreamIcNS_11char_traitsIcEEED0Ev
__ libc++.1.dylib: __ZNSt3__114basic_iostreamIcNS_11char_traitsIcEEED1Ev
__ libc++.1.dylib: __ZNSt3__114basic_iostreamIcNS_11char_traitsIcEEED2Ev
__ libc++.1.dylib: __ZNSt3__115__get_classnameEPKcb
__ libc++.1.dylib: __ZNSt3__115basic_streambufIcNS_11char_traitsIcEEE4syncEv
__ libc++.1.dylib: __ZNSt3__115basic_streambufIcNS_11char_traitsIcEEE5imbueERKNS_6localeE
__ libc++.1.dylib: __ZNSt3__115basic_streambufIcNS_11char_traitsIcEEE5uflowEv
__ libc++.1.dylib: __ZNSt3__115basic_streambufIcNS_11char_traitsIcEEE6setbufEPcl
__ libc++.1.dylib: __ZNSt3__115basic_streambufIcNS_11char_traitsIcEEE6xsgetnEPcl
__ libc++.1.dylib: __ZNSt3__115basic_streambufIcNS_11char_traitsIcEEE6xsputnEPKcl
__ libc++.1.dylib: __ZNSt3__115basic_streambufIcNS_11char_traitsIcEEE9showmanycEv
__ libc++.1.dylib: __ZNSt3__115basic_streambufIcNS_11char_traitsIcEEEC2Ev
__ libc++.1.dylib: __ZNSt3__115basic_streambufIcNS_11char_traitsIcEEED2Ev
__ libc++.1.dylib: __ZNSt3__119__shared_weak_count14__release_weakEv
__ libc++.1.dylib: __ZNSt3__119__shared_weak_count4lockEv
__ libc++.1.dylib: __ZNSt3__119__shared_weak_countD2Ev
__ libc++.1.dylib: __ZNSt3__120__get_collation_nameEPKc
__ libc++.1.dylib: __ZNSt3__14stoiERKNS_12basic_stringIcNS_11char_traitsIcEENS_9allocatorIcEEEEPmi
__ libc++.1.dylib: __ZNSt3__15ctypeIcE2idE
__ libc++.1.dylib: __ZNSt3__16localeC1ERKS0_
__ libc++.1.dylib: __ZNSt3__16localeC1Ev
__ libc++.1.dylib: __ZNSt3__16localeD1Ev
__ libc++.1.dylib: __ZNSt3__17codecvtIcc11__mbstate_tE2idE
__ libc++.1.dylib: __ZNSt3__17collateIcE2idE
__ libc++.1.dylib: __ZNSt3__18ios_base33__set_badbit_and_consider_rethrowEv
__ libc++.1.dylib: __ZNSt3__18ios_base4initEPv
__ libc++.1.dylib: __ZNSt3__18ios_base5clearEj
__ libc++.1.dylib: __ZNSt3__19basic_iosIcNS_11char_traitsIcEEED2Ev
__ libc++.1.dylib: __ZNSt3__19to_stringEi
__ libc++.1.dylib: __ZNSt3__19to_stringEj
__ libc++.1.dylib: __ZNSt3__19to_stringEm
__ libc++.1.dylib: __ZNSt3__1plIcNS_11char_traitsIcEENS_9allocatorIcEEEENS_12basic_stringIT_T0_T1_EEPKS6_RKS9_
__ libc++.1.dylib: __ZNSt8bad_castC1Ev
__ libc++.1.dylib: __ZNSt8bad_castD1Ev
__ libc++.1.dylib: __ZNSt9exceptionD2Ev
__ libc++.1.dylib: __ZSt9terminatev
__ libc++.1.dylib: __ZTINSt3__111regex_errorE
__ libc++.1.dylib: __ZTINSt3__112bad_weak_ptrE
__ libc++.1.dylib: __ZTINSt3__113basic_istreamIcNS_11char_traitsIcEEEE
__ libc++.1.dylib: __ZTINSt3__113basic_ostreamIcNS_11char_traitsIcEEEE
__ libc++.1.dylib: __ZTINSt3__114basic_iostreamIcNS_11char_traitsIcEEEE
__ libc++.1.dylib: __ZTINSt3__115basic_streambufIcNS_11char_traitsIcEEEE
__ libc++.1.dylib: __ZTINSt3__119__shared_weak_countE
__ libc++.1.dylib: __ZTISt12length_error
__ libc++.1.dylib: __ZTISt13runtime_error
__ libc++.1.dylib: __ZTISt8bad_cast
__ libc++.1.dylib: __ZTISt9exception
__ libc++.1.dylib: __ZTVN10__cxxabiv117__class_type_infoE
__ libc++.1.dylib: __ZTVN10__cxxabiv119__pointer_type_infoE
__ libc++.1.dylib: __ZTVN10__cxxabiv120__function_type_infoE
__ libc++.1.dylib: __ZTVN10__cxxabiv120__si_class_type_infoE
__ libc++.1.dylib: __ZTVN10__cxxabiv121__vmi_class_type_infoE
__ libc++.1.dylib: __ZTVNSt3__112bad_weak_ptrE
__ libc++.1.dylib: __ZTVSt12length_error
__ libc++.1.dylib: __ZThn16_NSt3__114basic_iostreamIcNS_11char_traitsIcEEED0Ev
__ libc++.1.dylib: __ZThn16_NSt3__114basic_iostreamIcNS_11char_traitsIcEEED1Ev
__ libc++.1.dylib: __ZTv0_n24_NSt3__113basic_istreamIcNS_11char_traitsIcEEED0Ev
__ libc++.1.dylib: __ZTv0_n24_NSt3__113basic_istreamIcNS_11char_traitsIcEEED1Ev
__ libc++.1.dylib: __ZTv0_n24_NSt3__113basic_ostreamIcNS_11char_traitsIcEEED0Ev
__ libc++.1.dylib: __ZTv0_n24_NSt3__113basic_ostreamIcNS_11char_traitsIcEEED1Ev
__ libc++.1.dylib: __ZTv0_n24_NSt3__114basic_iostreamIcNS_11char_traitsIcEEED0Ev
__ libc++.1.dylib: __ZTv0_n24_NSt3__114basic_iostreamIcNS_11char_traitsIcEEED1Ev
__ libc++.1.dylib: __ZdaPv
__ libc++.1.dylib: __ZdlPv
__ libc++.1.dylib: __Znam
__ libc++.1.dylib: __Znwm
__ libc++.1.dylib: ___cxa_allocate_exception
__ libc++.1.dylib: ___cxa_begin_catch
__ libc++.1.dylib: ___cxa_end_catch
__ libc++.1.dylib: ___cxa_free_exception
__ libc++.1.dylib: ___cxa_guard_abort
__ libc++.1.dylib: ___cxa_guard_acquire
__ libc++.1.dylib: ___cxa_guard_release
__ libc++.1.dylib: ___cxa_pure_virtual
__ libc++.1.dylib: ___cxa_rethrow
__ libc++.1.dylib: ___cxa_throw
__ libc++.1.dylib: ___gxx_personality_v0
__ libmav_ipc_router_dynamic.dylib: __ZN10mav_router6device10controller6engageEv
__ libmav_ipc_router_dynamic.dylib: __ZN12mav_router_t6createEP24mav_router_context_tag_t23mav_router_parameters_t
__ libmav_ipc_router_dynamic.dylib: __ZNK12mav_router_t23get_channel_for_serviceERKNSt3__112basic_stringIcNS0_11char_traitsIcEENS0_9allocatorIcEEEE
__ libmav_ipc_router_dynamic.dylib: _mav_router_channel_get_name_as_cstr
__ libobjc.A.dylib: _OBJC_CLASS_$_NSObject
__ libobjc.A.dylib: _OBJC_METACLASS_$_NSObject
__ libobjc.A.dylib: __objc_empty_cache
__ libobjc.A.dylib: _objc_alloc
__ libobjc.A.dylib: _objc_alloc_init
__ libobjc.A.dylib: _objc_enumerationMutation
__ libobjc.A.dylib: _objc_msgSend
__ libobjc.A.dylib: _objc_msgSendSuper2
__ libobjc.A.dylib: _objc_release
__ libobjc.A.dylib: _objc_retain
__ libobjc.A.dylib: _objc_retainAutorelease
__ libobjc.A.dylib: _objc_retainAutoreleasedReturnValue
__ libprotobuf-lite.dylib: __ZN20wireless_diagnostics6google8protobuf11MessageLiteD2Ev
__ libprotobuf-lite.dylib: __ZN20wireless_diagnostics6google8protobuf2io16CodedInputStream15ReadTagFallbackEv
__ libprotobuf-lite.dylib: __ZN20wireless_diagnostics6google8protobuf2io16CodedInputStream20ReadVarint32FallbackEPj
__ libprotobuf-lite.dylib: __ZN20wireless_diagnostics6google8protobuf2io16CodedInputStream20ReadVarint64FallbackEPy
__ libprotobuf-lite.dylib: __ZN20wireless_diagnostics6google8protobuf2io16CodedInputStream8PopLimitEi
__ libprotobuf-lite.dylib: __ZN20wireless_diagnostics6google8protobuf2io16CodedInputStream9PushLimitEi
__ libprotobuf-lite.dylib: __ZN20wireless_diagnostics6google8protobuf2io17CodedOutputStream12VarintSize64Ey
__ libprotobuf-lite.dylib: __ZN20wireless_diagnostics6google8protobuf2io17CodedOutputStream20VarintSize32FallbackEj
__ libprotobuf-lite.dylib: __ZN20wireless_diagnostics6google8protobuf8internal10LogMessageC1ENS1_8LogLevelEPKci
__ libprotobuf-lite.dylib: __ZN20wireless_diagnostics6google8protobuf8internal10LogMessageD1Ev
__ libprotobuf-lite.dylib: __ZN20wireless_diagnostics6google8protobuf8internal10LogMessagelsEPKc
__ libprotobuf-lite.dylib: __ZN20wireless_diagnostics6google8protobuf8internal10OnShutdownEPFvvE
__ libprotobuf-lite.dylib: __ZN20wireless_diagnostics6google8protobuf8internal11LogFinisheraSERNS2_10LogMessageE
__ libprotobuf-lite.dylib: __ZN20wireless_diagnostics6google8protobuf8internal12kEmptyStringE
__ libprotobuf-lite.dylib: __ZN20wireless_diagnostics6google8protobuf8internal13VerifyVersionEiiPKc
__ libprotobuf-lite.dylib: __ZN20wireless_diagnostics6google8protobuf8internal14WireFormatLite10ReadStringEPNS1_2io16CodedInputStreamEPNSt3__112basic_stringIcNS7_11char_traitsIcEENS7_9allocatorIcEEEE
__ libprotobuf-lite.dylib: __ZN20wireless_diagnostics6google8protobuf8internal14WireFormatLite11WriteStringEiRKNSt3__112basic_stringIcNS4_11char_traitsIcEENS4_9allocatorIcEEEEPNS1_2io17CodedOutputStreamE
__ libprotobuf-lite.dylib: __ZN20wireless_diagnostics6google8protobuf8internal14WireFormatLite11WriteUInt32EijPNS1_2io17CodedOutputStreamE
__ libprotobuf-lite.dylib: __ZN20wireless_diagnostics6google8protobuf8internal14WireFormatLite11WriteUInt64EiyPNS1_2io17CodedOutputStreamE
__ libprotobuf-lite.dylib: __ZN20wireless_diagnostics6google8protobuf8internal14WireFormatLite12WriteMessageEiRKNS1_11MessageLiteEPNS1_2io17CodedOutputStreamE
__ libprotobuf-lite.dylib: __ZN20wireless_diagnostics6google8protobuf8internal14WireFormatLite9SkipFieldEPNS1_2io16CodedInputStreamEj
__ libprotobuf-lite.dylib: __ZN20wireless_diagnostics6google8protobuf8internal14WireFormatLite9WriteBoolEibPNS1_2io17CodedOutputStreamE
__ libprotobuf-lite.dylib: __ZN20wireless_diagnostics6google8protobuf8internal20RepeatedPtrFieldBase4SwapEPS3_
__ libprotobuf-lite.dylib: __ZN20wireless_diagnostics6google8protobuf8internal20RepeatedPtrFieldBase7ReserveEi
__ libprotobuf-lite.dylib: __ZNK20wireless_diagnostics6google8protobuf11MessageLite25InitializationErrorStringEv
__ libprotobuf-lite.dylib: __ZNK20wireless_diagnostics6google8protobuf11MessageLite31SerializeWithCachedSizesToArrayEPh
__ libprotobuf-lite.dylib: __ZTIN20wireless_diagnostics6google8protobuf11MessageLiteE
ABMTapToRadar : NSObject /usr/lib/libprotobuf-lite.dylib
  // class methods
  +[ABMTapToRadar sharedInstance]

  // instance methods
  -[ABMTapToRadar init]
  -[ABMTapToRadar .cxx_destruct]
  -[ABMTapToRadar setMode:]
  -[ABMTapToRadar .cxx_construct]
  -[ABMTapToRadar findLogFiles_sync::]
  -[ABMTapToRadar checkTraces_sync::]
  -[ABMTapToRadar checkAudioTraces_sync]
  -[ABMTapToRadar getMode]
  -[ABMTapToRadar checkNotificationCriteria:::]
  -[ABMTapToRadar showNotification:::::]


CMHandDetectionDelegate : NSObject /usr/lib/libprotobuf-lite.dylib <CMCallHandednessDelegate>
 @property  unsigned long hash
 @property  Class superclass
 @property  NSString *description
 @property  NSString *debugDescription

  // instance methods
  -[CMHandDetectionDelegate .cxx_destruct]
  -[CMHandDetectionDelegate .cxx_construct]
  -[CMHandDetectionDelegate callHandednessManager:didUpdateState:]
  -[CMHandDetectionDelegate registerHandler:]


01 00 0900 /System/Library/Frameworks/CoreMotion.framework/CoreMotion: CMCallHandednessManager 
01 00 0900 /System/Library/Frameworks/CoreMotion.framework/CoreMotion: CMOnBodyStatusManager 
01 00 0140 /System/Library/PrivateFrameworks/CPMS.framework/CPMS: CPMSAgent 
01 00 0140 /System/Library/PrivateFrameworks/CPMS.framework/CPMS: CPMSClientDescription 
01 00 2340 /System/Library/Frameworks/HealthKit.framework/HealthKit: HKHealthStore 
01 00 0500 /System/Library/Frameworks/NetworkExtension.framework/NetworkExtension: NEPolicy 
01 00 0500 /System/Library/Frameworks/NetworkExtension.framework/NetworkExtension: NEPolicyCondition 
01 00 0500 /System/Library/Frameworks/NetworkExtension.framework/NetworkExtension: NEPolicyResult 
01 00 0500 /System/Library/Frameworks/NetworkExtension.framework/NetworkExtension: NEPolicyRouteRule 
01 00 0500 /System/Library/Frameworks/NetworkExtension.framework/NetworkExtension: NEPolicySession 
01 00 1a00 /System/Library/Frameworks/CoreFoundation.framework/CoreFoundation: NSArray 
01 00 0e00 /System/Library/Frameworks/Foundation.framework/Foundation: NSBundle 
01 00 1a00 /System/Library/Frameworks/CoreFoundation.framework/CoreFoundation: NSMutableArray 
01 00 1a00 /System/Library/Frameworks/CoreFoundation.framework/CoreFoundation: NSMutableDictionary 
01 00 0e00 /System/Library/Frameworks/Foundation.framework/Foundation: NSNumber 
01 00 2600 /usr/lib/libobjc.A.dylib: NSObject 
01 00 0e00 /System/Library/Frameworks/Foundation.framework/Foundation: NSString 
01 00 0e00 /System/Library/Frameworks/Foundation.framework/Foundation: NSUUID 
01 00 0640 /usr/lib/libPPM.dylib: PPMClient 
