|| __DATA_CONST.__const __ZTI12IOACIPCClass
|| __DATA_CONST.__const __ZTI19IOACIPCControlClass
|| __DATA_CONST.__const __ZTV12IOACIPCClass
|| __DATA_CONST.__const __ZTV19IOACIPCControlClass
|| __TEXT.__const __ZTS12IOACIPCClass
|| __TEXT.__const __ZTS19IOACIPCControlClass
|| __TEXT.__text __Z23getACIPCDirectionString14acipcDirection
|| __TEXT.__text __Z23getACIPCErrorTypeStringj
|| __TEXT.__text __Z23getACIPCLinkStateStringj
|| __TEXT.__text __Z26getACIPCAERErrorTypeStringj
|| __TEXT.__text __ZN12IOACIPCClass10apiAdapterEj
|| __TEXT.__text __ZN12IOACIPCClass11unmapMemoryEt
|| __TEXT.__text __ZN12IOACIPCClass12notifyMemoryEtPKvj
|| __TEXT.__text __ZN12IOACIPCClass12readRegisterEjPvPj
|| __TEXT.__text __ZN12IOACIPCClass12updateMemoryEtjh
|| __TEXT.__text __ZN12IOACIPCClass13generateNonceEv
|| __TEXT.__text __ZN12IOACIPCClass13writeRegisterEjPvj
|| __TEXT.__text __ZN12IOACIPCClass14clearIteratorsEv
|| __TEXT.__text __ZN12IOACIPCClass14mapMemoryAsyncEtPKvjjhS1_jPFvPviES2_
|| __TEXT.__text __ZN12IOACIPCClass14sendImageAsyncEPKvjPFvPviS2_S2_ES2_j
|| __TEXT.__text __ZN12IOACIPCClass16getIOMMUPageSizeEPj
|| __TEXT.__text __ZN12IOACIPCClass16interfaceMatchedEPvj
|| __TEXT.__text __ZN12IOACIPCClass16unmapMemoryAsyncEtPFvPviES0_
|| __TEXT.__text __ZN12IOACIPCClass17abortTransferRingEj
|| __TEXT.__text __ZN12IOACIPCClass17notifyMemoryAsyncEtPKvjPFvPviES2_
|| __TEXT.__text __ZN12IOACIPCClass17updateMemoryAsyncEtjhPFvPviES0_
|| __TEXT.__text __ZN12IOACIPCClass19getTransferRingInfoEj
|| __TEXT.__text __ZN12IOACIPCClass19queryTransferCreditEjPj
|| __TEXT.__text __ZN12IOACIPCClass19setNotificationPortEv
|| __TEXT.__text __ZN12IOACIPCClass20notificationCallbackEPvjjS0_
|| __TEXT.__text __ZN12IOACIPCClass21clearNotificationPortEv
|| __TEXT.__text __ZN12IOACIPCClass21getCompletionRingInfoEj
|| __TEXT.__text __ZN12IOACIPCClass22abortTransferRingAsyncEjPFvPviES0_
|| __TEXT.__text __ZN12IOACIPCClass22notificationDispatcherEjPv
|| __TEXT.__text __ZN12IOACIPCClass25setUpNotificationCallbackEj
|| __TEXT.__text __ZN12IOACIPCClass27cleanUpNotificationCallbackEv
|| __TEXT.__text __ZN12IOACIPCClass2ioEjPvPj14acipcDirection
|| __TEXT.__text __ZN12IOACIPCClass4lockEv
|| __TEXT.__text __ZN12IOACIPCClass4openEj
|| __TEXT.__text __ZN12IOACIPCClass4stopEP16dispatch_group_s
|| __TEXT.__text __ZN12IOACIPCClass5closeEv
|| __TEXT.__text __ZN12IOACIPCClass5startEPK14__CFDictionaryP11__CFRunLoopU13block_pointerFvjES6_U13block_pointerFvjjiE
|| __TEXT.__text __ZN12IOACIPCClass5startEPK14__CFDictionaryP16dispatch_queue_sU13block_pointerFvjES6_U13block_pointerFvjjiE
|| __TEXT.__text __ZN12IOACIPCClass6unlockEv
|| __TEXT.__text __ZN12IOACIPCClass7ioAsyncEjPvjS0_jPFvS0_iS0_ES0_
|| __TEXT.__text __ZN12IOACIPCClass7open_nlEj
|| __TEXT.__text __ZN12IOACIPCClass8close_nlEv
|| __TEXT.__text __ZN12IOACIPCClass8start_nlEPK14__CFDictionaryP11__CFRunLoopP16dispatch_queue_sU13block_pointerFvjES8_U13block_pointerFvjjiE
|| __TEXT.__text __ZN12IOACIPCClass9mapMemoryEtPKvjjhS1_j
|| __TEXT.__text __ZN12IOACIPCClass9sendImageEPKvjPjj
|| __TEXT.__text __ZN12IOACIPCClassC1Ev
|| __TEXT.__text __ZN12IOACIPCClassC2Ev
|| __TEXT.__text __ZN12IOACIPCClassD0Ev
|| __TEXT.__text __ZN12IOACIPCClassD1Ev
|| __TEXT.__text __ZN12IOACIPCClassD2Ev
|| __TEXT.__text __ZN19IOACIPCControlClass10loggerTuneEjjPvS0_
|| __TEXT.__text __ZN19IOACIPCControlClass11triggerTrapEv
|| __TEXT.__text __ZN19IOACIPCControlClass13readLogsAsyncEPvjbPFvS0_iS0_ES0_
|| __TEXT.__text __ZN19IOACIPCControlClass19setNotificationPortEv
|| __TEXT.__text __ZN19IOACIPCControlClass20collectSnapshotAsyncEPvjPFvS0_iS0_ES0_
|| __TEXT.__text __ZN19IOACIPCControlClass21clearNotificationPortEv
|| __TEXT.__text __ZN19IOACIPCControlClass21getLastKnownBootStageEPj
|| __TEXT.__text __ZN19IOACIPCControlClass23generalInterestCallbackEPvjjS0_
|| __TEXT.__text __ZN19IOACIPCControlClass24getLogInternalBufferSizeEPj
|| __TEXT.__text __ZN19IOACIPCControlClass24setEventNotificationPortEv
|| __TEXT.__text __ZN19IOACIPCControlClass25registerEventNotificationEP11__CFRunLoopU13block_pointerFvjPvS2_E
|| __TEXT.__text __ZN19IOACIPCControlClass25registerEventNotificationEP16dispatch_queue_sU13block_pointerFvjPvS2_E
|| __TEXT.__text __ZN19IOACIPCControlClass26clearEventNotificationPortEv
|| __TEXT.__text __ZN19IOACIPCControlClass27deregisterEventNotificationEP16dispatch_group_s
|| __TEXT.__text __ZN19IOACIPCControlClass28registerEventNotification_nlEP11__CFRunLoopP16dispatch_queue_sU13block_pointerFvjPvS4_E
|| __TEXT.__text __ZN19IOACIPCControlClass30deregisterEventNotification_nlEP16dispatch_group_s
|| __TEXT.__text __ZN19IOACIPCControlClass4lockEv
|| __TEXT.__text __ZN19IOACIPCControlClass4openEP11__CFRunLoop
|| __TEXT.__text __ZN19IOACIPCControlClass4openEP16dispatch_queue_s
|| __TEXT.__text __ZN19IOACIPCControlClass4stopEv
|| __TEXT.__text __ZN19IOACIPCControlClass5closeEv
|| __TEXT.__text __ZN19IOACIPCControlClass5startEPK14__CFDictionary
|| __TEXT.__text __ZN19IOACIPCControlClass6unlockEv
|| __TEXT.__text __ZN19IOACIPCControlClass7open_nlEP11__CFRunLoopP16dispatch_queue_s
|| __TEXT.__text __ZN19IOACIPCControlClass8close_nlEv
|| __TEXT.__text __ZN19IOACIPCControlClassC1Ev
|| __TEXT.__text __ZN19IOACIPCControlClassC2Ev
|| __TEXT.__text __ZN19IOACIPCControlClassD0Ev
|| __TEXT.__text __ZN19IOACIPCControlClassD1Ev
|| __TEXT.__text __ZN19IOACIPCControlClassD2Ev
__ CoreFoundation: _CFArrayGetTypeID
__ CoreFoundation: _CFGetTypeID
__ CoreFoundation: _CFNumberGetValue
__ CoreFoundation: _CFRelease
__ CoreFoundation: _CFRetain
__ CoreFoundation: _CFRunLoopAddSource
__ CoreFoundation: _CFRunLoopGetCurrent
__ CoreFoundation: _CFRunLoopPerformBlock
__ CoreFoundation: _CFRunLoopRemoveSource
__ CoreFoundation: _CFRunLoopWakeUp
__ CoreFoundation: ___CFConstantStringClassReference
__ CoreFoundation: _kCFAllocatorDefault
__ CoreFoundation: _kCFRunLoopDefaultMode
__ IOKit: _IOConnectCallAsyncScalarMethod
__ IOKit: _IOConnectCallMethod
__ IOKit: _IOConnectCallScalarMethod
__ IOKit: _IOIteratorNext
__ IOKit: _IONotificationPortCreate
__ IOKit: _IONotificationPortDestroy
__ IOKit: _IONotificationPortGetMachPort
__ IOKit: _IONotificationPortGetRunLoopSource
__ IOKit: _IONotificationPortSetDispatchQueue
__ IOKit: _IOObjectRelease
__ IOKit: _IOObjectRetain
__ IOKit: _IORegistryEntryCreateCFProperty
__ IOKit: _IOServiceAddInterestNotification
__ IOKit: _IOServiceAddMatchingNotification
__ IOKit: _IOServiceClose
__ IOKit: _IOServiceGetMatchingService
__ IOKit: _IOServiceOpen
__ IOKit: _kIOMainPortDefault
__ libSystem.B.dylib: __Block_copy
__ libSystem.B.dylib: __Block_release
__ libSystem.B.dylib: __NSConcreteStackBlock
__ libSystem.B.dylib: ___assert_rtn
__ libSystem.B.dylib: ___stack_chk_fail
__ libSystem.B.dylib: ___stack_chk_guard
__ libSystem.B.dylib: __os_log_default
__ libSystem.B.dylib: __os_log_impl
__ libSystem.B.dylib: _dispatch_async
__ libSystem.B.dylib: _dispatch_group_create
__ libSystem.B.dylib: _dispatch_group_enter
__ libSystem.B.dylib: _dispatch_group_leave
__ libSystem.B.dylib: _dispatch_group_wait
__ libSystem.B.dylib: _dispatch_release
__ libSystem.B.dylib: _dispatch_retain
__ libSystem.B.dylib: _mach_task_self_
__ libSystem.B.dylib: _os_log_type_enabled
__ libSystem.B.dylib: _pthread_mutex_destroy
__ libSystem.B.dylib: _pthread_mutex_init
__ libSystem.B.dylib: _pthread_mutex_lock
__ libSystem.B.dylib: _pthread_mutex_unlock
__ libSystem.B.dylib: _pthread_mutexattr_init
__ libSystem.B.dylib: _pthread_mutexattr_settype
__ libc++.1.dylib: __ZSt9terminatev
__ libc++.1.dylib: __ZTVN10__cxxabiv117__class_type_infoE
__ libc++.1.dylib: __ZdlPv
__ libc++.1.dylib: ___cxa_begin_catch
__ libc++.1.dylib: ___gxx_personality_v0
__ libobjc.A.dylib: _objc_msgSend
