|| __DATA_CONST.__const __ZTI14IOACIPCBBClass
|| __DATA_CONST.__const __ZTV14IOACIPCBBClass
|| __TEXT.__const __ZTS14IOACIPCBBClass
|| __TEXT.__text __ZN14IOACIPCBBClass13mapUserMemoryEPvjPy
|| __TEXT.__text __ZN14IOACIPCBBClass13timesyncAsyncEjjPvjPFvS0_iS0_ES0_
|| __TEXT.__text __ZN14IOACIPCBBClass14mapIndexArraysEPvj
|| __TEXT.__text __ZN14IOACIPCBBClass15readIndexArraysEv
|| __TEXT.__text __ZN14IOACIPCBBClass15unmapUserMemoryEPv
|| __TEXT.__text __ZN14IOACIPCBBClass16enableRingEventsEU13block_pointerFvvE
|| __TEXT.__text __ZN14IOACIPCBBClass16unmapIndexArraysEv
|| __TEXT.__text __ZN14IOACIPCBBClass17registerTimeEventEjPFvPviPS0_jES0_
|| __TEXT.__text __ZN14IOACIPCBBClass17updateIndexArraysEPK30AppleConvergedIPCBBIndexArrays
|| __TEXT.__text __ZN14IOACIPCBBClass19deregisterTimeEventEjPFvPviES0_
|| __TEXT.__text __ZN14IOACIPCBBClass22notificationDispatcherEjPv
|| __TEXT.__text __ZN14IOACIPCBBClass8openRingEj27AppleConvergedIPCBBRingTypeP26AppleConvergedIPCBBRTIRing
|| __TEXT.__text __ZN14IOACIPCBBClass9closeRingEj27AppleConvergedIPCBBRingType
|| __TEXT.__text __ZN14IOACIPCBBClassD0Ev
|| __TEXT.__text __ZN14IOACIPCBBClassD1Ev
|| __TEXT.__text __ZN14IOACIPCBBClassD2Ev
|| __TEXT.__text __ZN21IOACIPCBBControlClass18hostSleepEntryExitEb
__ IOKit: _IOConnectCallAsyncScalarMethod
__ IOKit: _IOConnectCallScalarMethod
__ IOKit: _IOConnectCallStructMethod
__ IOKit: _IONotificationPortGetMachPort
__ libIOACIPC.dylib: __ZN12IOACIPCClass10apiAdapterEj
__ libIOACIPC.dylib: __ZN12IOACIPCClass11unmapMemoryEt
__ libIOACIPC.dylib: __ZN12IOACIPCClass12notifyMemoryEtPKvj
__ libIOACIPC.dylib: __ZN12IOACIPCClass12readRegisterEjPvPj
__ libIOACIPC.dylib: __ZN12IOACIPCClass12updateMemoryEtjh
__ libIOACIPC.dylib: __ZN12IOACIPCClass13generateNonceEv
__ libIOACIPC.dylib: __ZN12IOACIPCClass13writeRegisterEjPvj
__ libIOACIPC.dylib: __ZN12IOACIPCClass14mapMemoryAsyncEtPKvjjhS1_jPFvPviES2_
__ libIOACIPC.dylib: __ZN12IOACIPCClass14sendImageAsyncEPKvjPFvPviS2_S2_ES2_j
__ libIOACIPC.dylib: __ZN12IOACIPCClass16getIOMMUPageSizeEPj
__ libIOACIPC.dylib: __ZN12IOACIPCClass16unmapMemoryAsyncEtPFvPviES0_
__ libIOACIPC.dylib: __ZN12IOACIPCClass17abortTransferRingEj
__ libIOACIPC.dylib: __ZN12IOACIPCClass17notifyMemoryAsyncEtPKvjPFvPviES2_
__ libIOACIPC.dylib: __ZN12IOACIPCClass17updateMemoryAsyncEtjhPFvPviES0_
__ libIOACIPC.dylib: __ZN12IOACIPCClass19getTransferRingInfoEj
__ libIOACIPC.dylib: __ZN12IOACIPCClass19queryTransferCreditEjPj
__ libIOACIPC.dylib: __ZN12IOACIPCClass21getCompletionRingInfoEj
__ libIOACIPC.dylib: __ZN12IOACIPCClass22abortTransferRingAsyncEjPFvPviES0_
__ libIOACIPC.dylib: __ZN12IOACIPCClass22notificationDispatcherEjPv
__ libIOACIPC.dylib: __ZN12IOACIPCClass2ioEjPvPj14acipcDirection
__ libIOACIPC.dylib: __ZN12IOACIPCClass4lockEv
__ libIOACIPC.dylib: __ZN12IOACIPCClass4openEj
__ libIOACIPC.dylib: __ZN12IOACIPCClass4stopEP16dispatch_group_s
__ libIOACIPC.dylib: __ZN12IOACIPCClass5closeEv
__ libIOACIPC.dylib: __ZN12IOACIPCClass5startEPK14__CFDictionaryP11__CFRunLoopU13block_pointerFvjES6_U13block_pointerFvjjiE
__ libIOACIPC.dylib: __ZN12IOACIPCClass5startEPK14__CFDictionaryP16dispatch_queue_sU13block_pointerFvjES6_U13block_pointerFvjjiE
__ libIOACIPC.dylib: __ZN12IOACIPCClass6unlockEv
__ libIOACIPC.dylib: __ZN12IOACIPCClass7ioAsyncEjPvjS0_jPFvS0_iS0_ES0_
__ libIOACIPC.dylib: __ZN12IOACIPCClass9mapMemoryEtPKvjjhS1_j
__ libIOACIPC.dylib: __ZN12IOACIPCClass9sendImageEPKvjPjj
__ libIOACIPC.dylib: __ZN12IOACIPCClassD2Ev
__ libIOACIPC.dylib: __ZN19IOACIPCControlClass4lockEv
__ libIOACIPC.dylib: __ZN19IOACIPCControlClass6unlockEv
__ libIOACIPC.dylib: __ZTI12IOACIPCClass
__ libSystem.B.dylib: __Block_copy
__ libSystem.B.dylib: __Block_release
__ libSystem.B.dylib: ___stack_chk_fail
__ libSystem.B.dylib: ___stack_chk_guard
__ libc++.1.dylib: __ZSt9terminatev
__ libc++.1.dylib: __ZTVN10__cxxabiv120__si_class_type_infoE
__ libc++.1.dylib: __ZdlPv
__ libc++.1.dylib: ___cxa_begin_catch
__ libc++.1.dylib: ___gxx_personality_v0
