|| __DATA_CONST.__const __ZTIN3icu10AppendableE
|| __DATA_CONST.__const __ZTIN3icu10CECalendarE
|| __DATA_CONST.__const __ZTIN3icu10DateFormatE
|| __DATA_CONST.__const __ZTIN3icu10GenderInfoE
|| __DATA_CONST.__const __ZTIN3icu10NormalizerE
|| __DATA_CONST.__const __ZTIN3icu10UStringSetE
|| __DATA_CONST.__const __ZTIN3icu10UnicodeSetE
|| __DATA_CONST.__const __ZTIN3icu11FormattableE
|| __DATA_CONST.__const __ZTIN3icu11MeasureUnitE
|| __DATA_CONST.__const __ZTIN3icu11Normalizer2E
|| __DATA_CONST.__const __ZTIN3icu11PluralRulesE
|| __DATA_CONST.__const __ZTIN3icu11ReplaceableE
|| __DATA_CONST.__const __ZTIN3icu11SymbolTableE
|| __DATA_CONST.__const __ZTIN3icu11TextTrieMapE
|| __DATA_CONST.__const __ZTIN3icu12CacheKeyBaseE
|| __DATA_CONST.__const __ZTIN3icu12ChoiceFormatE
|| __DATA_CONST.__const __ZTIN3icu12CollationKeyE
|| __DATA_CONST.__const __ZTIN3icu12CurrencyUnitE
|| __DATA_CONST.__const __ZTIN3icu12DateIntervalE
|| __DATA_CONST.__const __ZTIN3icu12DateTimeRuleE
|| __DATA_CONST.__const __ZTIN3icu12FixedDecimalE
|| __DATA_CONST.__const __ZTIN3icu12NumberFormatE
|| __DATA_CONST.__const __ZTIN3icu12PluralFormat14PluralSelectorE
|| __DATA_CONST.__const __ZTIN3icu12PluralFormat21PluralSelectorAdapterE
|| __DATA_CONST.__const __ZTIN3icu12PluralFormatE
|| __DATA_CONST.__const __ZTIN3icu12RegexCompileE
|| __DATA_CONST.__const __ZTIN3icu12RegexMatcherE
|| __DATA_CONST.__const __ZTIN3icu12RegexPatternE
|| __DATA_CONST.__const __ZTIN3icu12ResourceSinkE
|| __DATA_CONST.__const __ZTIN3icu12SelectFormatE
|| __DATA_CONST.__const __ZTIN3icu12SharedObjectE
|| __DATA_CONST.__const __ZTIN3icu12StringSearchE
|| __DATA_CONST.__const __ZTIN3icu12TimeZoneRuleE
|| __DATA_CONST.__const __ZTIN3icu12UnifiedCacheE
|| __DATA_CONST.__const __ZTIN3icu13BasicTimeZoneE
|| __DATA_CONST.__const __ZTIN3icu13BreakIteratorE
|| __DATA_CONST.__const __ZTIN3icu13CollationKeys13LevelCallbackE
|| __DATA_CONST.__const __ZTIN3icu13DecimalFormatE
|| __DATA_CONST.__const __ZTIN3icu13FieldPositionE
|| __DATA_CONST.__const __ZTIN3icu13FormattedListE
|| __DATA_CONST.__const __ZTIN3icu13IFixedDecimalE
|| __DATA_CONST.__const __ZTIN3icu13ListFormatter16ListPatternsSinkE
|| __DATA_CONST.__const __ZTIN3icu13ListFormatterE
|| __DATA_CONST.__const __ZTIN3icu13LocaleBuilderE
|| __DATA_CONST.__const __ZTIN3icu13MeasureFormatE
|| __DATA_CONST.__const __ZTIN3icu13MessageFormat11DummyFormatE
|| __DATA_CONST.__const __ZTIN3icu13MessageFormat22PluralSelectorProviderE
|| __DATA_CONST.__const __ZTIN3icu13MessageFormatE
|| __DATA_CONST.__const __ZTIN3icu13OlsonTimeZoneE
|| __DATA_CONST.__const __ZTIN3icu13ParsePositionE
|| __DATA_CONST.__const __ZTIN3icu13ResourceValueE
|| __DATA_CONST.__const __ZTIN3icu13TimeZoneNames19MatchInfoCollectionE
|| __DATA_CONST.__const __ZTIN3icu13TimeZoneNamesE
|| __DATA_CONST.__const __ZTIN3icu13UnicodeFilterE
|| __DATA_CONST.__const __ZTIN3icu13UnicodeStringE
|| __DATA_CONST.__const __ZTIN3icu14CurrencyAmountE
|| __DATA_CONST.__const __ZTIN3icu14FormattedValueE
|| __DATA_CONST.__const __ZTIN3icu14HebrewCalendarE
|| __DATA_CONST.__const __ZTIN3icu14IndianCalendarE
|| __DATA_CONST.__const __ZTIN3icu14MessagePatternE
|| __DATA_CONST.__const __ZTIN3icu14ResourceBundleE
|| __DATA_CONST.__const __ZTIN3icu14SearchIteratorE
|| __DATA_CONST.__const __ZTIN3icu14SharedCalendarE
|| __DATA_CONST.__const __ZTIN3icu14SimpleTimeZoneE
|| __DATA_CONST.__const __ZTIN3icu14TimeUnitAmountE
|| __DATA_CONST.__const __ZTIN3icu14TimeUnitFormatE
|| __DATA_CONST.__const __ZTIN3icu14TimeZoneFormatE
|| __DATA_CONST.__const __ZTIN3icu14TransliteratorE
|| __DATA_CONST.__const __ZTIN3icu14UnicodeFunctorE
|| __DATA_CONST.__const __ZTIN3icu14UnicodeMatcherE
|| __DATA_CONST.__const __ZTIN3icu15AlphabeticIndex14ImmutableIndexE
|| __DATA_CONST.__const __ZTIN3icu15AlphabeticIndex6BucketE
|| __DATA_CONST.__const __ZTIN3icu15AlphabeticIndexE
|| __DATA_CONST.__const __ZTIN3icu15ChineseCalendarE
|| __DATA_CONST.__const __ZTIN3icu15IslamicCalendarE
|| __DATA_CONST.__const __ZTIN3icu15Normalizer2ImplE
|| __DATA_CONST.__const __ZTIN3icu15NumberingSystemE
|| __DATA_CONST.__const __ZTIN3icu15UnicodeReplacerE
|| __DATA_CONST.__const __ZTIN3icu16BytesTrieBuilder17BTLinearMatchNodeE
|| __DATA_CONST.__const __ZTIN3icu16BytesTrieBuilderE
|| __DATA_CONST.__const __ZTIN3icu16CollationBuilderE
|| __DATA_CONST.__const __ZTIN3icu16DateIntervalInfo16DateIntervalSinkE
|| __DATA_CONST.__const __ZTIN3icu16DateIntervalInfoE
|| __DATA_CONST.__const __ZTIN3icu16SimpleDateFormatE
|| __DATA_CONST.__const __ZTIN3icu16UnifiedCacheBaseE
|| __DATA_CONST.__const __ZTIN3icu17CanonicalIteratorE
|| __DATA_CONST.__const __ZTIN3icu17CharacterIteratorE
|| __DATA_CONST.__const __ZTIN3icu17CollationIteratorE
|| __DATA_CONST.__const __ZTIN3icu17CollationSettingsE
|| __DATA_CONST.__const __ZTIN3icu17DateFormatSymbolsE
|| __DATA_CONST.__const __ZTIN3icu17DictionaryMatcherE
|| __DATA_CONST.__const __ZTIN3icu17GregorianCalendarE
|| __DATA_CONST.__const __ZTIN3icu17RuleBasedCollatorE
|| __DATA_CONST.__const __ZTIN3icu17RuleBasedTimeZoneE
|| __DATA_CONST.__const __ZTIN3icu17SharedPluralRulesE
|| __DATA_CONST.__const __ZTIN3icu17StringEnumerationE
|| __DATA_CONST.__const __ZTIN3icu17StringTrieBuilder14BranchHeadNodeE
|| __DATA_CONST.__const __ZTIN3icu17StringTrieBuilder14FinalValueNodeE
|| __DATA_CONST.__const __ZTIN3icu17StringTrieBuilder14ListBranchNodeE
|| __DATA_CONST.__const __ZTIN3icu17StringTrieBuilder15LinearMatchNodeE
|| __DATA_CONST.__const __ZTIN3icu17StringTrieBuilder15SplitBranchNodeE
|| __DATA_CONST.__const __ZTIN3icu17StringTrieBuilder21IntermediateValueNodeE
|| __DATA_CONST.__const __ZTIN3icu17StringTrieBuilder4NodeE
|| __DATA_CONST.__const __ZTIN3icu17StringTrieBuilder9ValueNodeE
|| __DATA_CONST.__const __ZTIN3icu17StringTrieBuilderE
|| __DATA_CONST.__const __ZTIN3icu17UCharsTrieBuilder18UCTLinearMatchNodeE
|| __DATA_CONST.__const __ZTIN3icu17UCharsTrieBuilderE
|| __DATA_CONST.__const __ZTIN3icu18AnnualTimeZoneRuleE
|| __DATA_CONST.__const __ZTIN3icu18CalendarAstronomer9AngleFuncE
|| __DATA_CONST.__const __ZTIN3icu18CalendarAstronomer9CoordFuncE
|| __DATA_CONST.__const __ZTIN3icu18CollationTailoringE
|| __DATA_CONST.__const __ZTIN3icu18CurrencyPluralInfoE
|| __DATA_CONST.__const __ZTIN3icu18DateFmtBestPatternE
|| __DATA_CONST.__const __ZTIN3icu18DateIntervalFormatE
|| __DATA_CONST.__const __ZTIN3icu18LocaleDisplayNamesE
|| __DATA_CONST.__const __ZTIN3icu18RuleBasedTokenizerE
|| __DATA_CONST.__const __ZTIN3icu18SharedNumberFormatE
|| __DATA_CONST.__const __ZTIN3icu18TimeZoneTransitionE
|| __DATA_CONST.__const __ZTIN3icu18UStringEnumerationE
|| __DATA_CONST.__const __ZTIN3icu18UnicodeSetIteratorE
|| __DATA_CONST.__const __ZTIN3icu19CollationRuleParser4SinkE
|| __DATA_CONST.__const __ZTIN3icu19CollationRuleParser8ImporterE
|| __DATA_CONST.__const __ZTIN3icu19FilteredNormalizer2E
|| __DATA_CONST.__const __ZTIN3icu19InitialTimeZoneRuleE
|| __DATA_CONST.__const __ZTIN3icu19SharedBreakIteratorE
|| __DATA_CONST.__const __ZTIN3icu20CheckedArrayByteSinkE
|| __DATA_CONST.__const __ZTIN3icu20CollationDataBuilder10CEModifierE
|| __DATA_CONST.__const __ZTIN3icu20CollationDataBuilderE
|| __DATA_CONST.__const __ZTIN3icu20CompactDecimalFormatE
|| __DATA_CONST.__const __ZTIN3icu20DecimalFormatSymbolsE
|| __DATA_CONST.__const __ZTIN3icu20FieldPositionHandlerE
|| __DATA_CONST.__const __ZTIN3icu20TimeZoneGenericNamesE
|| __DATA_CONST.__const __ZTIN3icu21DateFmtBestPatternKeyE
|| __DATA_CONST.__const __ZTIN3icu21FieldPositionIteratorE
|| __DATA_CONST.__const __ZTIN3icu21FormattedDateIntervalE
|| __DATA_CONST.__const __ZTIN3icu21RuleBasedNumberFormatE
|| __DATA_CONST.__const __ZTIN3icu21TimeArrayTimeZoneRuleE
|| __DATA_CONST.__const __ZTIN3icu21UTF8CollationIteratorE
|| __DATA_CONST.__const __ZTIN3icu22BytesDictionaryMatcherE
|| __DATA_CONST.__const __ZTIN3icu22CompoundTransliteratorE
|| __DATA_CONST.__const __ZTIN3icu22RuleBasedBreakIterator10BreakCacheE
|| __DATA_CONST.__const __ZTIN3icu22RuleBasedBreakIteratorE
|| __DATA_CONST.__const __ZTIN3icu22UCharCharacterIteratorE
|| __DATA_CONST.__const __ZTIN3icu22UIterCollationIteratorE
|| __DATA_CONST.__const __ZTIN3icu22UTF16CollationIteratorE
|| __DATA_CONST.__const __ZTIN3icu23SharedDateFormatSymbolsE
|| __DATA_CONST.__const __ZTIN3icu23StringCharacterIteratorE
|| __DATA_CONST.__const __ZTIN3icu23UCharsDictionaryMatcherE
|| __DATA_CONST.__const __ZTIN3icu23UnicodeStringAppendableE
|| __DATA_CONST.__const __ZTIN3icu24CollationElementIteratorE
|| __DATA_CONST.__const __ZTIN3icu24DateTimePatternGenerator19AppendItemNamesSinkE
|| __DATA_CONST.__const __ZTIN3icu24DateTimePatternGenerator20AvailableFormatsSinkE
|| __DATA_CONST.__const __ZTIN3icu24DateTimePatternGenerator21AppendItemFormatsSinkE
|| __DATA_CONST.__const __ZTIN3icu24DateTimePatternGeneratorE
|| __DATA_CONST.__const __ZTIN3icu24FCDUTF8CollationIteratorE
|| __DATA_CONST.__const __ZTIN3icu24ForwardCharacterIteratorE
|| __DATA_CONST.__const __ZTIN3icu24RuleBasedBreakIterator57E
|| __DATA_CONST.__const __ZTIN3icu25CollationFastLatinBuilderE
|| __DATA_CONST.__const __ZTIN3icu25FCDUIterCollationIteratorE
|| __DATA_CONST.__const __ZTIN3icu25FCDUTF16CollationIteratorE
|| __DATA_CONST.__const __ZTIN3icu25FormattedRelativeDateTimeE
|| __DATA_CONST.__const __ZTIN3icu25RelativeDateTimeFormatterE
|| __DATA_CONST.__const __ZTIN3icu25ScientificNumberFormatter11MarkupStyleE
|| __DATA_CONST.__const __ZTIN3icu25ScientificNumberFormatter16SuperscriptStyleE
|| __DATA_CONST.__const __ZTIN3icu25ScientificNumberFormatterE
|| __DATA_CONST.__const __ZTIN3icu28FilteredBreakIteratorBuilderE
|| __DATA_CONST.__const __ZTIN3icu33PluralAvailableLocalesEnumerationE
|| __DATA_CONST.__const __ZTIN3icu34SimpleFilteredBreakIteratorBuilderE
|| __DATA_CONST.__const __ZTIN3icu4IDNAE
|| __DATA_CONST.__const __ZTIN3icu6FormatE
|| __DATA_CONST.__const __ZTIN3icu6LocaleE
|| __DATA_CONST.__const __ZTIN3icu6NoUnitE
|| __DATA_CONST.__const __ZTIN3icu6RegionE
|| __DATA_CONST.__const __ZTIN3icu6UStackE
|| __DATA_CONST.__const __ZTIN3icu6number15FormattedNumberE
|| __DATA_CONST.__const __ZTIN3icu6number20FormattedNumberRangeE
|| __DATA_CONST.__const __ZTIN3icu6number4impl13ModifierStoreE
|| __DATA_CONST.__const __ZTIN3icu6number4impl14SimpleModifierE
|| __DATA_CONST.__const __ZTIN3icu6number4impl14SymbolProviderE
|| __DATA_CONST.__const __ZTIN3icu6number4impl15DecimalQuantityE
|| __DATA_CONST.__const __ZTIN3icu6number4impl17ParsedPatternInfoE
|| __DATA_CONST.__const __ZTIN3icu6number4impl18ScientificModifierE
|| __DATA_CONST.__const __ZTIN3icu6number4impl19MicroPropsGeneratorE
|| __DATA_CONST.__const __ZTIN3icu6number4impl20AffixPatternProviderE
|| __DATA_CONST.__const __ZTIN3icu6number4impl21AdoptingModifierStoreE
|| __DATA_CONST.__const __ZTIN3icu6number4impl21ConstantAffixModifierE
|| __DATA_CONST.__const __ZTIN3icu6number4impl22MutablePatternModifierE
|| __DATA_CONST.__const __ZTIN3icu6number4impl23MultiplierFormatHandlerE
|| __DATA_CONST.__const __ZTIN3icu6number4impl24ImmutablePatternModifierE
|| __DATA_CONST.__const __ZTIN3icu6number4impl26ConstantMultiFieldModifierE
|| __DATA_CONST.__const __ZTIN3icu6number4impl30CurrencySpacingEnabledModifierE
|| __DATA_CONST.__const __ZTIN3icu6number4impl32LocalizedNumberFormatterAsFormatE
|| __DATA_CONST.__const __ZTIN3icu6number4impl8ModifierE
|| __DATA_CONST.__const __ZTIN3icu7MeasureE
|| __DATA_CONST.__const __ZTIN3icu7UObjectE
|| __DATA_CONST.__const __ZTIN3icu7UVectorE
|| __DATA_CONST.__const __ZTIN3icu8ByteSinkE
|| __DATA_CONST.__const __ZTIN3icu8CalendarE
|| __DATA_CONST.__const __ZTIN3icu8CollatorE
|| __DATA_CONST.__const __ZTIN3icu8TimeUnitE
|| __DATA_CONST.__const __ZTIN3icu8TimeZoneE
|| __DATA_CONST.__const __ZTIN3icu8numparse4impl13SeriesMatcherE
|| __DATA_CONST.__const __ZTIN3icu8numparse4impl13SymbolMatcherE
|| __DATA_CONST.__const __ZTIN3icu8numparse4impl14PercentMatcherE
|| __DATA_CONST.__const __ZTIN3icu8numparse4impl15PermilleMatcherE
|| __DATA_CONST.__const __ZTIN3icu8numparse4impl15PlusSignMatcherE
|| __DATA_CONST.__const __ZTIN3icu8numparse4impl16MinusSignMatcherE
|| __DATA_CONST.__const __ZTIN3icu8numparse4impl16NumberParserImplE
|| __DATA_CONST.__const __ZTIN3icu8numparse4impl17IgnorablesMatcherE
|| __DATA_CONST.__const __ZTIN3icu8numparse4impl18ArraySeriesMatcherE
|| __DATA_CONST.__const __ZTIN3icu8numparse4impl18NumberParseMatcherE
|| __DATA_CONST.__const __ZTIN3icu8numparse4impl23CombinedCurrencyMatcherE
|| __DATA_CONST.__const __ZTIN3icu9ErrorCodeE
|| __DATA_CONST.__const __ZTIN3icu9UVector32E
|| __DATA_CONST.__const __ZTIN3icu9UVector64E
|| __DATA_CONST.__const __ZTIN3icu9VTimeZoneE
|| __DATA_CONST.__const __ZTVN3icu10AppendableE
|| __DATA_CONST.__const __ZTVN3icu10CECalendarE
|| __DATA_CONST.__const __ZTVN3icu10DateFormatE
|| __DATA_CONST.__const __ZTVN3icu10GenderInfoE
|| __DATA_CONST.__const __ZTVN3icu10NormalizerE
|| __DATA_CONST.__const __ZTVN3icu10UStringSetE
|| __DATA_CONST.__const __ZTVN3icu10UnicodeSetE
|| __DATA_CONST.__const __ZTVN3icu11FormattableE
|| __DATA_CONST.__const __ZTVN3icu11MeasureUnitE
|| __DATA_CONST.__const __ZTVN3icu11Normalizer2E
|| __DATA_CONST.__const __ZTVN3icu11PluralRulesE
|| __DATA_CONST.__const __ZTVN3icu11ReplaceableE
|| __DATA_CONST.__const __ZTVN3icu11SymbolTableE
|| __DATA_CONST.__const __ZTVN3icu11TextTrieMapE
|| __DATA_CONST.__const __ZTVN3icu12CacheKeyBaseE
|| __DATA_CONST.__const __ZTVN3icu12ChoiceFormatE
|| __DATA_CONST.__const __ZTVN3icu12CollationKeyE
|| __DATA_CONST.__const __ZTVN3icu12CurrencyUnitE
|| __DATA_CONST.__const __ZTVN3icu12DateIntervalE
|| __DATA_CONST.__const __ZTVN3icu12DateTimeRuleE
|| __DATA_CONST.__const __ZTVN3icu12FixedDecimalE
|| __DATA_CONST.__const __ZTVN3icu12NumberFormatE
|| __DATA_CONST.__const __ZTVN3icu12PluralFormat14PluralSelectorE
|| __DATA_CONST.__const __ZTVN3icu12PluralFormat21PluralSelectorAdapterE
|| __DATA_CONST.__const __ZTVN3icu12PluralFormatE
|| __DATA_CONST.__const __ZTVN3icu12RegexCompileE
|| __DATA_CONST.__const __ZTVN3icu12RegexMatcherE
|| __DATA_CONST.__const __ZTVN3icu12RegexPatternE
|| __DATA_CONST.__const __ZTVN3icu12ResourceSinkE
|| __DATA_CONST.__const __ZTVN3icu12SelectFormatE
|| __DATA_CONST.__const __ZTVN3icu12SharedObjectE
|| __DATA_CONST.__const __ZTVN3icu12StringSearchE
|| __DATA_CONST.__const __ZTVN3icu12TimeZoneRuleE
|| __DATA_CONST.__const __ZTVN3icu12UnifiedCacheE
|| __DATA_CONST.__const __ZTVN3icu13BasicTimeZoneE
|| __DATA_CONST.__const __ZTVN3icu13BreakIteratorE
|| __DATA_CONST.__const __ZTVN3icu13CollationKeys13LevelCallbackE
|| __DATA_CONST.__const __ZTVN3icu13DecimalFormatE
|| __DATA_CONST.__const __ZTVN3icu13FieldPositionE
|| __DATA_CONST.__const __ZTVN3icu13FormattedListE
|| __DATA_CONST.__const __ZTVN3icu13IFixedDecimalE
|| __DATA_CONST.__const __ZTVN3icu13ListFormatter16ListPatternsSinkE
|| __DATA_CONST.__const __ZTVN3icu13ListFormatterE
|| __DATA_CONST.__const __ZTVN3icu13LocaleBuilderE
|| __DATA_CONST.__const __ZTVN3icu13MeasureFormatE
|| __DATA_CONST.__const __ZTVN3icu13MessageFormat11DummyFormatE
|| __DATA_CONST.__const __ZTVN3icu13MessageFormat22PluralSelectorProviderE
|| __DATA_CONST.__const __ZTVN3icu13MessageFormatE
|| __DATA_CONST.__const __ZTVN3icu13OlsonTimeZoneE
|| __DATA_CONST.__const __ZTVN3icu13ParsePositionE
|| __DATA_CONST.__const __ZTVN3icu13ResourceValueE
|| __DATA_CONST.__const __ZTVN3icu13TimeZoneNames19MatchInfoCollectionE
|| __DATA_CONST.__const __ZTVN3icu13TimeZoneNamesE
|| __DATA_CONST.__const __ZTVN3icu13UnicodeFilterE
|| __DATA_CONST.__const __ZTVN3icu13UnicodeStringE
|| __DATA_CONST.__const __ZTVN3icu14CurrencyAmountE
|| __DATA_CONST.__const __ZTVN3icu14FormattedValueE
|| __DATA_CONST.__const __ZTVN3icu14HebrewCalendarE
|| __DATA_CONST.__const __ZTVN3icu14IndianCalendarE
|| __DATA_CONST.__const __ZTVN3icu14MessagePatternE
|| __DATA_CONST.__const __ZTVN3icu14ResourceBundleE
|| __DATA_CONST.__const __ZTVN3icu14SearchIteratorE
|| __DATA_CONST.__const __ZTVN3icu14SharedCalendarE
|| __DATA_CONST.__const __ZTVN3icu14SimpleTimeZoneE
|| __DATA_CONST.__const __ZTVN3icu14TimeUnitAmountE
|| __DATA_CONST.__const __ZTVN3icu14TimeUnitFormatE
|| __DATA_CONST.__const __ZTVN3icu14TimeZoneFormatE
|| __DATA_CONST.__const __ZTVN3icu14TransliteratorE
|| __DATA_CONST.__const __ZTVN3icu14UnicodeFunctorE
|| __DATA_CONST.__const __ZTVN3icu14UnicodeMatcherE
|| __DATA_CONST.__const __ZTVN3icu15AlphabeticIndex14ImmutableIndexE
|| __DATA_CONST.__const __ZTVN3icu15AlphabeticIndex6BucketE
|| __DATA_CONST.__const __ZTVN3icu15AlphabeticIndexE
|| __DATA_CONST.__const __ZTVN3icu15ChineseCalendarE
|| __DATA_CONST.__const __ZTVN3icu15IslamicCalendarE
|| __DATA_CONST.__const __ZTVN3icu15Normalizer2ImplE
|| __DATA_CONST.__const __ZTVN3icu15NumberingSystemE
|| __DATA_CONST.__const __ZTVN3icu15UnicodeReplacerE
|| __DATA_CONST.__const __ZTVN3icu16BytesTrieBuilder17BTLinearMatchNodeE
|| __DATA_CONST.__const __ZTVN3icu16BytesTrieBuilderE
|| __DATA_CONST.__const __ZTVN3icu16CollationBuilderE
|| __DATA_CONST.__const __ZTVN3icu16DateIntervalInfo16DateIntervalSinkE
|| __DATA_CONST.__const __ZTVN3icu16DateIntervalInfoE
|| __DATA_CONST.__const __ZTVN3icu16SimpleDateFormatE
|| __DATA_CONST.__const __ZTVN3icu16UnifiedCacheBaseE
|| __DATA_CONST.__const __ZTVN3icu17CanonicalIteratorE
|| __DATA_CONST.__const __ZTVN3icu17CharacterIteratorE
|| __DATA_CONST.__const __ZTVN3icu17CollationIteratorE
|| __DATA_CONST.__const __ZTVN3icu17CollationSettingsE
|| __DATA_CONST.__const __ZTVN3icu17DateFormatSymbolsE
|| __DATA_CONST.__const __ZTVN3icu17DictionaryMatcherE
|| __DATA_CONST.__const __ZTVN3icu17GregorianCalendarE
|| __DATA_CONST.__const __ZTVN3icu17RuleBasedCollatorE
|| __DATA_CONST.__const __ZTVN3icu17RuleBasedTimeZoneE
|| __DATA_CONST.__const __ZTVN3icu17SharedPluralRulesE
|| __DATA_CONST.__const __ZTVN3icu17StringEnumerationE
|| __DATA_CONST.__const __ZTVN3icu17StringTrieBuilder14BranchHeadNodeE
|| __DATA_CONST.__const __ZTVN3icu17StringTrieBuilder14FinalValueNodeE
|| __DATA_CONST.__const __ZTVN3icu17StringTrieBuilder14ListBranchNodeE
|| __DATA_CONST.__const __ZTVN3icu17StringTrieBuilder15LinearMatchNodeE
|| __DATA_CONST.__const __ZTVN3icu17StringTrieBuilder15SplitBranchNodeE
|| __DATA_CONST.__const __ZTVN3icu17StringTrieBuilder21IntermediateValueNodeE
|| __DATA_CONST.__const __ZTVN3icu17StringTrieBuilder4NodeE
|| __DATA_CONST.__const __ZTVN3icu17StringTrieBuilder9ValueNodeE
|| __DATA_CONST.__const __ZTVN3icu17StringTrieBuilderE
|| __DATA_CONST.__const __ZTVN3icu17UCharsTrieBuilder18UCTLinearMatchNodeE
|| __DATA_CONST.__const __ZTVN3icu17UCharsTrieBuilderE
|| __DATA_CONST.__const __ZTVN3icu18AnnualTimeZoneRuleE
|| __DATA_CONST.__const __ZTVN3icu18CalendarAstronomer9AngleFuncE
|| __DATA_CONST.__const __ZTVN3icu18CalendarAstronomer9CoordFuncE
|| __DATA_CONST.__const __ZTVN3icu18CollationTailoringE
|| __DATA_CONST.__const __ZTVN3icu18CurrencyPluralInfoE
|| __DATA_CONST.__const __ZTVN3icu18DateFmtBestPatternE
|| __DATA_CONST.__const __ZTVN3icu18DateIntervalFormatE
|| __DATA_CONST.__const __ZTVN3icu18LocaleDisplayNamesE
|| __DATA_CONST.__const __ZTVN3icu18RuleBasedTokenizerE
|| __DATA_CONST.__const __ZTVN3icu18SharedNumberFormatE
|| __DATA_CONST.__const __ZTVN3icu18TimeZoneTransitionE
|| __DATA_CONST.__const __ZTVN3icu18UStringEnumerationE
|| __DATA_CONST.__const __ZTVN3icu18UnicodeSetIteratorE
|| __DATA_CONST.__const __ZTVN3icu19CollationRuleParser4SinkE
|| __DATA_CONST.__const __ZTVN3icu19CollationRuleParser8ImporterE
|| __DATA_CONST.__const __ZTVN3icu19FilteredNormalizer2E
|| __DATA_CONST.__const __ZTVN3icu19InitialTimeZoneRuleE
|| __DATA_CONST.__const __ZTVN3icu19SharedBreakIteratorE
|| __DATA_CONST.__const __ZTVN3icu20CheckedArrayByteSinkE
|| __DATA_CONST.__const __ZTVN3icu20CollationDataBuilder10CEModifierE
|| __DATA_CONST.__const __ZTVN3icu20CollationDataBuilderE
|| __DATA_CONST.__const __ZTVN3icu20CompactDecimalFormatE
|| __DATA_CONST.__const __ZTVN3icu20DecimalFormatSymbolsE
|| __DATA_CONST.__const __ZTVN3icu20FieldPositionHandlerE
|| __DATA_CONST.__const __ZTVN3icu20TimeZoneGenericNamesE
|| __DATA_CONST.__const __ZTVN3icu21DateFmtBestPatternKeyE
|| __DATA_CONST.__const __ZTVN3icu21FieldPositionIteratorE
|| __DATA_CONST.__const __ZTVN3icu21FormattedDateIntervalE
|| __DATA_CONST.__const __ZTVN3icu21RuleBasedNumberFormatE
|| __DATA_CONST.__const __ZTVN3icu21TimeArrayTimeZoneRuleE
|| __DATA_CONST.__const __ZTVN3icu21UTF8CollationIteratorE
|| __DATA_CONST.__const __ZTVN3icu22BytesDictionaryMatcherE
|| __DATA_CONST.__const __ZTVN3icu22CompoundTransliteratorE
|| __DATA_CONST.__const __ZTVN3icu22RuleBasedBreakIterator10BreakCacheE
|| __DATA_CONST.__const __ZTVN3icu22RuleBasedBreakIteratorE
|| __DATA_CONST.__const __ZTVN3icu22UCharCharacterIteratorE
|| __DATA_CONST.__const __ZTVN3icu22UIterCollationIteratorE
|| __DATA_CONST.__const __ZTVN3icu22UTF16CollationIteratorE
|| __DATA_CONST.__const __ZTVN3icu23SharedDateFormatSymbolsE
|| __DATA_CONST.__const __ZTVN3icu23StringCharacterIteratorE
|| __DATA_CONST.__const __ZTVN3icu23UCharsDictionaryMatcherE
|| __DATA_CONST.__const __ZTVN3icu23UnicodeStringAppendableE
|| __DATA_CONST.__const __ZTVN3icu24CollationElementIteratorE
|| __DATA_CONST.__const __ZTVN3icu24DateTimePatternGenerator19AppendItemNamesSinkE
|| __DATA_CONST.__const __ZTVN3icu24DateTimePatternGenerator20AvailableFormatsSinkE
|| __DATA_CONST.__const __ZTVN3icu24DateTimePatternGenerator21AppendItemFormatsSinkE
|| __DATA_CONST.__const __ZTVN3icu24DateTimePatternGeneratorE
|| __DATA_CONST.__const __ZTVN3icu24FCDUTF8CollationIteratorE
|| __DATA_CONST.__const __ZTVN3icu24ForwardCharacterIteratorE
|| __DATA_CONST.__const __ZTVN3icu24RuleBasedBreakIterator57E
|| __DATA_CONST.__const __ZTVN3icu25CollationFastLatinBuilderE
|| __DATA_CONST.__const __ZTVN3icu25FCDUIterCollationIteratorE
|| __DATA_CONST.__const __ZTVN3icu25FCDUTF16CollationIteratorE
|| __DATA_CONST.__const __ZTVN3icu25FormattedRelativeDateTimeE
|| __DATA_CONST.__const __ZTVN3icu25RelativeDateTimeFormatterE
|| __DATA_CONST.__const __ZTVN3icu25ScientificNumberFormatter11MarkupStyleE
|| __DATA_CONST.__const __ZTVN3icu25ScientificNumberFormatter16SuperscriptStyleE
|| __DATA_CONST.__const __ZTVN3icu25ScientificNumberFormatterE
|| __DATA_CONST.__const __ZTVN3icu28FilteredBreakIteratorBuilderE
|| __DATA_CONST.__const __ZTVN3icu33PluralAvailableLocalesEnumerationE
|| __DATA_CONST.__const __ZTVN3icu34SimpleFilteredBreakIteratorBuilderE
|| __DATA_CONST.__const __ZTVN3icu4IDNAE
|| __DATA_CONST.__const __ZTVN3icu6FormatE
|| __DATA_CONST.__const __ZTVN3icu6LocaleE
|| __DATA_CONST.__const __ZTVN3icu6NoUnitE
|| __DATA_CONST.__const __ZTVN3icu6RegionE
|| __DATA_CONST.__const __ZTVN3icu6UStackE
|| __DATA_CONST.__const __ZTVN3icu6number15FormattedNumberE
|| __DATA_CONST.__const __ZTVN3icu6number20FormattedNumberRangeE
|| __DATA_CONST.__const __ZTVN3icu6number4impl13ModifierStoreE
|| __DATA_CONST.__const __ZTVN3icu6number4impl14SimpleModifierE
|| __DATA_CONST.__const __ZTVN3icu6number4impl14SymbolProviderE
|| __DATA_CONST.__const __ZTVN3icu6number4impl15DecimalQuantityE
|| __DATA_CONST.__const __ZTVN3icu6number4impl17ParsedPatternInfoE
|| __DATA_CONST.__const __ZTVN3icu6number4impl18ScientificModifierE
|| __DATA_CONST.__const __ZTVN3icu6number4impl19MicroPropsGeneratorE
|| __DATA_CONST.__const __ZTVN3icu6number4impl20AffixPatternProviderE
|| __DATA_CONST.__const __ZTVN3icu6number4impl21AdoptingModifierStoreE
|| __DATA_CONST.__const __ZTVN3icu6number4impl21ConstantAffixModifierE
|| __DATA_CONST.__const __ZTVN3icu6number4impl22MutablePatternModifierE
|| __DATA_CONST.__const __ZTVN3icu6number4impl23MultiplierFormatHandlerE
|| __DATA_CONST.__const __ZTVN3icu6number4impl24ImmutablePatternModifierE
|| __DATA_CONST.__const __ZTVN3icu6number4impl26ConstantMultiFieldModifierE
|| __DATA_CONST.__const __ZTVN3icu6number4impl30CurrencySpacingEnabledModifierE
|| __DATA_CONST.__const __ZTVN3icu6number4impl32LocalizedNumberFormatterAsFormatE
|| __DATA_CONST.__const __ZTVN3icu6number4impl8ModifierE
|| __DATA_CONST.__const __ZTVN3icu7MeasureE
|| __DATA_CONST.__const __ZTVN3icu7UObjectE
|| __DATA_CONST.__const __ZTVN3icu7UVectorE
|| __DATA_CONST.__const __ZTVN3icu8ByteSinkE
|| __DATA_CONST.__const __ZTVN3icu8CalendarE
|| __DATA_CONST.__const __ZTVN3icu8CollatorE
|| __DATA_CONST.__const __ZTVN3icu8TimeUnitE
|| __DATA_CONST.__const __ZTVN3icu8TimeZoneE
|| __DATA_CONST.__const __ZTVN3icu8numparse4impl13SeriesMatcherE
|| __DATA_CONST.__const __ZTVN3icu8numparse4impl13SymbolMatcherE
|| __DATA_CONST.__const __ZTVN3icu8numparse4impl14PercentMatcherE
|| __DATA_CONST.__const __ZTVN3icu8numparse4impl15PermilleMatcherE
|| __DATA_CONST.__const __ZTVN3icu8numparse4impl15PlusSignMatcherE
|| __DATA_CONST.__const __ZTVN3icu8numparse4impl16MinusSignMatcherE
|| __DATA_CONST.__const __ZTVN3icu8numparse4impl16NumberParserImplE
|| __DATA_CONST.__const __ZTVN3icu8numparse4impl17IgnorablesMatcherE
|| __DATA_CONST.__const __ZTVN3icu8numparse4impl18ArraySeriesMatcherE
|| __DATA_CONST.__const __ZTVN3icu8numparse4impl18NumberParseMatcherE
|| __DATA_CONST.__const __ZTVN3icu8numparse4impl23CombinedCurrencyMatcherE
|| __DATA_CONST.__const __ZTVN3icu9ErrorCodeE
|| __DATA_CONST.__const __ZTVN3icu9UVector32E
|| __DATA_CONST.__const __ZTVN3icu9UVector64E
|| __DATA_CONST.__const __ZTVN3icu9VTimeZoneE
|| __TEXT.__const __ZN3icu11StringPiece4nposE
|| __TEXT.__const __ZN3icu12CollationFCD8lcccBitsE
|| __TEXT.__const __ZN3icu12CollationFCD8tcccBitsE
|| __TEXT.__const __ZN3icu12CollationFCD9lcccIndexE
|| __TEXT.__const __ZN3icu12CollationFCD9tcccIndexE
|| __TEXT.__const __ZN3icu12NumberFormat24gDefaultMaxIntegerDigitsE
|| __TEXT.__const __ZN3icu12NumberFormat24gDefaultMinIntegerDigitsE
|| __TEXT.__const __ZN3icu14DictionaryData14TRANSFORM_NONEE
|| __TEXT.__const __ZN3icu14DictionaryData14TRIE_TYPE_MASKE
|| __TEXT.__const __ZN3icu14DictionaryData15TRIE_HAS_VALUESE
|| __TEXT.__const __ZN3icu14DictionaryData15TRIE_TYPE_BYTESE
|| __TEXT.__const __ZN3icu14DictionaryData16TRIE_TYPE_UCHARSE
|| __TEXT.__const __ZN3icu14DictionaryData19TRANSFORM_TYPE_MASKE
|| __TEXT.__const __ZN3icu14DictionaryData21TRANSFORM_OFFSET_MASKE
|| __TEXT.__const __ZN3icu14DictionaryData21TRANSFORM_TYPE_OFFSETE
|| __TEXT.__const __ZN3icu14SimpleTimeZone17STATICMONTHLENGTHE
|| __TEXT.__const __ZN3icu15ChineseCalendar23CHINESE_DATE_PRECEDENCEE
|| __TEXT.__const __ZN3icu16CollationBuilder11HAS_BEFORE2E
|| __TEXT.__const __ZN3icu16CollationBuilder11HAS_BEFORE3E
|| __TEXT.__const __ZN3icu16SimpleDateFormat22fgCalendarFieldToLevelE
|| __TEXT.__const __ZN3icu16SimpleDateFormat29fgPatternIndexToCalendarFieldE
|| __TEXT.__const __ZN3icu16SimpleDateFormat31fgPatternIndexToDateFormatFieldE
|| __TEXT.__const __ZN3icu18AnnualTimeZoneRule8MAX_YEARE
|| __TEXT.__const __ZN3icu18CalendarAstronomer13SYNODIC_MONTHE
|| __TEXT.__const __ZN3icu18CalendarAstronomer2PIE
|| __TEXT.__const __ZN3icu18DateIntervalFormat30fgCalendarFieldToPatternLetterE
|| __TEXT.__const __ZN3icu22CompoundTransliterator11PASS_STRINGE
|| __TEXT.__const __ZN3icu8Calendar14kDOWPrecedenceE
|| __TEXT.__const __ZN3icu8Calendar15kDatePrecedenceE
|| __TEXT.__const __ZN3icu8Calendar15kYearPrecedenceE
|| __TEXT.__const __ZN3icu9Collation18ONLY_TERTIARY_MASKE
|| __TEXT.__const __ZN3icu9Collation20LEVEL_SEPARATOR_BYTEE
|| __TEXT.__const __ZN3icu9Collation20MERGE_SEPARATOR_BYTEE
|| __TEXT.__const __ZN3icu9Collation22CASE_AND_TERTIARY_MASKE
|| __TEXT.__const __ZTSN3icu10AppendableE
|| __TEXT.__const __ZTSN3icu10CECalendarE
|| __TEXT.__const __ZTSN3icu10DateFormatE
|| __TEXT.__const __ZTSN3icu10GenderInfoE
|| __TEXT.__const __ZTSN3icu10NormalizerE
|| __TEXT.__const __ZTSN3icu10UStringSetE
|| __TEXT.__const __ZTSN3icu10UnicodeSetE
|| __TEXT.__const __ZTSN3icu11FormattableE
|| __TEXT.__const __ZTSN3icu11MeasureUnitE
|| __TEXT.__const __ZTSN3icu11Normalizer2E
|| __TEXT.__const __ZTSN3icu11PluralRulesE
|| __TEXT.__const __ZTSN3icu11ReplaceableE
|| __TEXT.__const __ZTSN3icu11SymbolTableE
|| __TEXT.__const __ZTSN3icu11TextTrieMapE
|| __TEXT.__const __ZTSN3icu12CacheKeyBaseE
|| __TEXT.__const __ZTSN3icu12ChoiceFormatE
|| __TEXT.__const __ZTSN3icu12CollationKeyE
|| __TEXT.__const __ZTSN3icu12CurrencyUnitE
|| __TEXT.__const __ZTSN3icu12DateIntervalE
|| __TEXT.__const __ZTSN3icu12DateTimeRuleE
|| __TEXT.__const __ZTSN3icu12FixedDecimalE
|| __TEXT.__const __ZTSN3icu12NumberFormatE
|| __TEXT.__const __ZTSN3icu12PluralFormat14PluralSelectorE
|| __TEXT.__const __ZTSN3icu12PluralFormat21PluralSelectorAdapterE
|| __TEXT.__const __ZTSN3icu12PluralFormatE
|| __TEXT.__const __ZTSN3icu12RegexCompileE
|| __TEXT.__const __ZTSN3icu12RegexMatcherE
|| __TEXT.__const __ZTSN3icu12RegexPatternE
|| __TEXT.__const __ZTSN3icu12ResourceSinkE
|| __TEXT.__const __ZTSN3icu12SelectFormatE
|| __TEXT.__const __ZTSN3icu12SharedObjectE
|| __TEXT.__const __ZTSN3icu12StringSearchE
|| __TEXT.__const __ZTSN3icu12TimeZoneRuleE
|| __TEXT.__const __ZTSN3icu12UnifiedCacheE
|| __TEXT.__const __ZTSN3icu13BasicTimeZoneE
|| __TEXT.__const __ZTSN3icu13BreakIteratorE
|| __TEXT.__const __ZTSN3icu13CollationKeys13LevelCallbackE
|| __TEXT.__const __ZTSN3icu13DecimalFormatE
|| __TEXT.__const __ZTSN3icu13FieldPositionE
|| __TEXT.__const __ZTSN3icu13FormattedListE
|| __TEXT.__const __ZTSN3icu13IFixedDecimalE
|| __TEXT.__const __ZTSN3icu13ListFormatter16ListPatternsSinkE
|| __TEXT.__const __ZTSN3icu13ListFormatterE
|| __TEXT.__const __ZTSN3icu13LocaleBuilderE
|| __TEXT.__const __ZTSN3icu13MeasureFormatE
|| __TEXT.__const __ZTSN3icu13MessageFormat11DummyFormatE
|| __TEXT.__const __ZTSN3icu13MessageFormat22PluralSelectorProviderE
|| __TEXT.__const __ZTSN3icu13MessageFormatE
|| __TEXT.__const __ZTSN3icu13OlsonTimeZoneE
|| __TEXT.__const __ZTSN3icu13ParsePositionE
|| __TEXT.__const __ZTSN3icu13ResourceValueE
|| __TEXT.__const __ZTSN3icu13TimeZoneNames19MatchInfoCollectionE
|| __TEXT.__const __ZTSN3icu13TimeZoneNamesE
|| __TEXT.__const __ZTSN3icu13UnicodeFilterE
|| __TEXT.__const __ZTSN3icu13UnicodeStringE
|| __TEXT.__const __ZTSN3icu14CurrencyAmountE
|| __TEXT.__const __ZTSN3icu14FormattedValueE
|| __TEXT.__const __ZTSN3icu14HebrewCalendarE
|| __TEXT.__const __ZTSN3icu14IndianCalendarE
|| __TEXT.__const __ZTSN3icu14MessagePatternE
|| __TEXT.__const __ZTSN3icu14ResourceBundleE
|| __TEXT.__const __ZTSN3icu14SearchIteratorE
|| __TEXT.__const __ZTSN3icu14SharedCalendarE
|| __TEXT.__const __ZTSN3icu14SimpleTimeZoneE
|| __TEXT.__const __ZTSN3icu14TimeUnitAmountE
|| __TEXT.__const __ZTSN3icu14TimeUnitFormatE
|| __TEXT.__const __ZTSN3icu14TimeZoneFormatE
|| __TEXT.__const __ZTSN3icu14TransliteratorE
|| __TEXT.__const __ZTSN3icu14UnicodeFunctorE
|| __TEXT.__const __ZTSN3icu14UnicodeMatcherE
|| __TEXT.__const __ZTSN3icu15AlphabeticIndex14ImmutableIndexE
|| __TEXT.__const __ZTSN3icu15AlphabeticIndex6BucketE
|| __TEXT.__const __ZTSN3icu15AlphabeticIndexE
|| __TEXT.__const __ZTSN3icu15ChineseCalendarE
|| __TEXT.__const __ZTSN3icu15IslamicCalendarE
|| __TEXT.__const __ZTSN3icu15Normalizer2ImplE
|| __TEXT.__const __ZTSN3icu15NumberingSystemE
|| __TEXT.__const __ZTSN3icu15UnicodeReplacerE
|| __TEXT.__const __ZTSN3icu16BytesTrieBuilder17BTLinearMatchNodeE
|| __TEXT.__const __ZTSN3icu16BytesTrieBuilderE
|| __TEXT.__const __ZTSN3icu16CollationBuilderE
|| __TEXT.__const __ZTSN3icu16DateIntervalInfo16DateIntervalSinkE
|| __TEXT.__const __ZTSN3icu16DateIntervalInfoE
|| __TEXT.__const __ZTSN3icu16SimpleDateFormatE
|| __TEXT.__const __ZTSN3icu16UnifiedCacheBaseE
|| __TEXT.__const __ZTSN3icu17CanonicalIteratorE
|| __TEXT.__const __ZTSN3icu17CharacterIteratorE
|| __TEXT.__const __ZTSN3icu17CollationIteratorE
|| __TEXT.__const __ZTSN3icu17CollationSettingsE
|| __TEXT.__const __ZTSN3icu17DateFormatSymbolsE
|| __TEXT.__const __ZTSN3icu17DictionaryMatcherE
|| __TEXT.__const __ZTSN3icu17GregorianCalendarE
|| __TEXT.__const __ZTSN3icu17RuleBasedCollatorE
|| __TEXT.__const __ZTSN3icu17RuleBasedTimeZoneE
|| __TEXT.__const __ZTSN3icu17SharedPluralRulesE
|| __TEXT.__const __ZTSN3icu17StringEnumerationE
|| __TEXT.__const __ZTSN3icu17StringTrieBuilder14BranchHeadNodeE
|| __TEXT.__const __ZTSN3icu17StringTrieBuilder14FinalValueNodeE
|| __TEXT.__const __ZTSN3icu17StringTrieBuilder14ListBranchNodeE
|| __TEXT.__const __ZTSN3icu17StringTrieBuilder15LinearMatchNodeE
|| __TEXT.__const __ZTSN3icu17StringTrieBuilder15SplitBranchNodeE
|| __TEXT.__const __ZTSN3icu17StringTrieBuilder21IntermediateValueNodeE
|| __TEXT.__const __ZTSN3icu17StringTrieBuilder4NodeE
|| __TEXT.__const __ZTSN3icu17StringTrieBuilder9ValueNodeE
|| __TEXT.__const __ZTSN3icu17StringTrieBuilderE
|| __TEXT.__const __ZTSN3icu17UCharsTrieBuilder18UCTLinearMatchNodeE
|| __TEXT.__const __ZTSN3icu17UCharsTrieBuilderE
|| __TEXT.__const __ZTSN3icu18AnnualTimeZoneRuleE
|| __TEXT.__const __ZTSN3icu18CalendarAstronomer9AngleFuncE
|| __TEXT.__const __ZTSN3icu18CalendarAstronomer9CoordFuncE
|| __TEXT.__const __ZTSN3icu18CollationTailoringE
|| __TEXT.__const __ZTSN3icu18CurrencyPluralInfoE
|| __TEXT.__const __ZTSN3icu18DateFmtBestPatternE
|| __TEXT.__const __ZTSN3icu18DateIntervalFormatE
|| __TEXT.__const __ZTSN3icu18LocaleDisplayNamesE
|| __TEXT.__const __ZTSN3icu18RuleBasedTokenizerE
|| __TEXT.__const __ZTSN3icu18SharedNumberFormatE
|| __TEXT.__const __ZTSN3icu18TimeZoneTransitionE
|| __TEXT.__const __ZTSN3icu18UStringEnumerationE
|| __TEXT.__const __ZTSN3icu18UnicodeSetIteratorE
|| __TEXT.__const __ZTSN3icu19CollationRuleParser4SinkE
|| __TEXT.__const __ZTSN3icu19CollationRuleParser8ImporterE
|| __TEXT.__const __ZTSN3icu19FilteredNormalizer2E
|| __TEXT.__const __ZTSN3icu19InitialTimeZoneRuleE
|| __TEXT.__const __ZTSN3icu19SharedBreakIteratorE
|| __TEXT.__const __ZTSN3icu20CheckedArrayByteSinkE
|| __TEXT.__const __ZTSN3icu20CollationDataBuilder10CEModifierE
|| __TEXT.__const __ZTSN3icu20CollationDataBuilderE
|| __TEXT.__const __ZTSN3icu20CompactDecimalFormatE
|| __TEXT.__const __ZTSN3icu20DecimalFormatSymbolsE
|| __TEXT.__const __ZTSN3icu20FieldPositionHandlerE
|| __TEXT.__const __ZTSN3icu20TimeZoneGenericNamesE
|| __TEXT.__const __ZTSN3icu21DateFmtBestPatternKeyE
|| __TEXT.__const __ZTSN3icu21FieldPositionIteratorE
|| __TEXT.__const __ZTSN3icu21FormattedDateIntervalE
|| __TEXT.__const __ZTSN3icu21RuleBasedNumberFormatE
|| __TEXT.__const __ZTSN3icu21TimeArrayTimeZoneRuleE
|| __TEXT.__const __ZTSN3icu21UTF8CollationIteratorE
|| __TEXT.__const __ZTSN3icu22BytesDictionaryMatcherE
|| __TEXT.__const __ZTSN3icu22CompoundTransliteratorE
|| __TEXT.__const __ZTSN3icu22RuleBasedBreakIterator10BreakCacheE
|| __TEXT.__const __ZTSN3icu22RuleBasedBreakIteratorE
|| __TEXT.__const __ZTSN3icu22UCharCharacterIteratorE
|| __TEXT.__const __ZTSN3icu22UIterCollationIteratorE
|| __TEXT.__const __ZTSN3icu22UTF16CollationIteratorE
|| __TEXT.__const __ZTSN3icu23SharedDateFormatSymbolsE
|| __TEXT.__const __ZTSN3icu23StringCharacterIteratorE
|| __TEXT.__const __ZTSN3icu23UCharsDictionaryMatcherE
|| __TEXT.__const __ZTSN3icu23UnicodeStringAppendableE
|| __TEXT.__const __ZTSN3icu24CollationElementIteratorE
|| __TEXT.__const __ZTSN3icu24DateTimePatternGenerator19AppendItemNamesSinkE
|| __TEXT.__const __ZTSN3icu24DateTimePatternGenerator20AvailableFormatsSinkE
|| __TEXT.__const __ZTSN3icu24DateTimePatternGenerator21AppendItemFormatsSinkE
|| __TEXT.__const __ZTSN3icu24DateTimePatternGeneratorE
|| __TEXT.__const __ZTSN3icu24FCDUTF8CollationIteratorE
|| __TEXT.__const __ZTSN3icu24ForwardCharacterIteratorE
|| __TEXT.__const __ZTSN3icu24RuleBasedBreakIterator57E
|| __TEXT.__const __ZTSN3icu25CollationFastLatinBuilderE
|| __TEXT.__const __ZTSN3icu25FCDUIterCollationIteratorE
|| __TEXT.__const __ZTSN3icu25FCDUTF16CollationIteratorE
|| __TEXT.__const __ZTSN3icu25FormattedRelativeDateTimeE
|| __TEXT.__const __ZTSN3icu25RelativeDateTimeFormatterE
|| __TEXT.__const __ZTSN3icu25ScientificNumberFormatter11MarkupStyleE
|| __TEXT.__const __ZTSN3icu25ScientificNumberFormatter16SuperscriptStyleE
|| __TEXT.__const __ZTSN3icu25ScientificNumberFormatterE
|| __TEXT.__const __ZTSN3icu28FilteredBreakIteratorBuilderE
|| __TEXT.__const __ZTSN3icu33PluralAvailableLocalesEnumerationE
|| __TEXT.__const __ZTSN3icu34SimpleFilteredBreakIteratorBuilderE
|| __TEXT.__const __ZTSN3icu4IDNAE
|| __TEXT.__const __ZTSN3icu6FormatE
|| __TEXT.__const __ZTSN3icu6LocaleE
|| __TEXT.__const __ZTSN3icu6NoUnitE
|| __TEXT.__const __ZTSN3icu6RegionE
|| __TEXT.__const __ZTSN3icu6UStackE
|| __TEXT.__const __ZTSN3icu6number15FormattedNumberE
|| __TEXT.__const __ZTSN3icu6number20FormattedNumberRangeE
|| __TEXT.__const __ZTSN3icu6number4impl13ModifierStoreE
|| __TEXT.__const __ZTSN3icu6number4impl14SimpleModifierE
|| __TEXT.__const __ZTSN3icu6number4impl14SymbolProviderE
|| __TEXT.__const __ZTSN3icu6number4impl15DecimalQuantityE
|| __TEXT.__const __ZTSN3icu6number4impl17ParsedPatternInfoE
|| __TEXT.__const __ZTSN3icu6number4impl18ScientificModifierE
|| __TEXT.__const __ZTSN3icu6number4impl19MicroPropsGeneratorE
|| __TEXT.__const __ZTSN3icu6number4impl20AffixPatternProviderE
|| __TEXT.__const __ZTSN3icu6number4impl21AdoptingModifierStoreE
|| __TEXT.__const __ZTSN3icu6number4impl21ConstantAffixModifierE
|| __TEXT.__const __ZTSN3icu6number4impl22MutablePatternModifierE
|| __TEXT.__const __ZTSN3icu6number4impl23MultiplierFormatHandlerE
|| __TEXT.__const __ZTSN3icu6number4impl24ImmutablePatternModifierE
|| __TEXT.__const __ZTSN3icu6number4impl26ConstantMultiFieldModifierE
|| __TEXT.__const __ZTSN3icu6number4impl30CurrencySpacingEnabledModifierE
|| __TEXT.__const __ZTSN3icu6number4impl32LocalizedNumberFormatterAsFormatE
|| __TEXT.__const __ZTSN3icu6number4impl8ModifierE
|| __TEXT.__const __ZTSN3icu7MeasureE
|| __TEXT.__const __ZTSN3icu7UObjectE
|| __TEXT.__const __ZTSN3icu7UVectorE
|| __TEXT.__const __ZTSN3icu8ByteSinkE
|| __TEXT.__const __ZTSN3icu8CalendarE
|| __TEXT.__const __ZTSN3icu8CollatorE
|| __TEXT.__const __ZTSN3icu8TimeUnitE
|| __TEXT.__const __ZTSN3icu8TimeZoneE
|| __TEXT.__const __ZTSN3icu8numparse4impl13SeriesMatcherE
|| __TEXT.__const __ZTSN3icu8numparse4impl13SymbolMatcherE
|| __TEXT.__const __ZTSN3icu8numparse4impl14PercentMatcherE
|| __TEXT.__const __ZTSN3icu8numparse4impl15PermilleMatcherE
|| __TEXT.__const __ZTSN3icu8numparse4impl15PlusSignMatcherE
|| __TEXT.__const __ZTSN3icu8numparse4impl16MinusSignMatcherE
|| __TEXT.__const __ZTSN3icu8numparse4impl16NumberParserImplE
|| __TEXT.__const __ZTSN3icu8numparse4impl17IgnorablesMatcherE
|| __TEXT.__const __ZTSN3icu8numparse4impl18ArraySeriesMatcherE
|| __TEXT.__const __ZTSN3icu8numparse4impl18NumberParseMatcherE
|| __TEXT.__const __ZTSN3icu8numparse4impl23CombinedCurrencyMatcherE
|| __TEXT.__const __ZTSN3icu9ErrorCodeE
|| __TEXT.__const __ZTSN3icu9UVector32E
|| __TEXT.__const __ZTSN3icu9UVector64E
|| __TEXT.__const __ZTSN3icu9VTimeZoneE
|| __TEXT.__const _icudt64_dat
|| __TEXT.__const _utf8_countTrailBytes
|| __TEXT.__text _T_CString_int64ToString
|| __TEXT.__text _T_CString_integerToString
|| __TEXT.__text _T_CString_stringToInteger
|| __TEXT.__text _T_CString_toLowerCase
|| __TEXT.__text _T_CString_toUpperCase
|| __TEXT.__text _UCNV_FROM_U_CALLBACK_ESCAPE
|| __TEXT.__text _UCNV_FROM_U_CALLBACK_SKIP
|| __TEXT.__text _UCNV_FROM_U_CALLBACK_STOP
|| __TEXT.__text _UCNV_FROM_U_CALLBACK_SUBSTITUTE
|| __TEXT.__text _UCNV_TO_U_CALLBACK_ESCAPE
|| __TEXT.__text _UCNV_TO_U_CALLBACK_SKIP
|| __TEXT.__text _UCNV_TO_U_CALLBACK_STOP
|| __TEXT.__text _UCNV_TO_U_CALLBACK_SUBSTITUTE
|| __TEXT.__text __Z30uscript_getSampleUnicodeString11UScriptCode
|| __TEXT.__text __Z31uspoof_getSkeletonUnicodeStringPK13USpoofCheckerjRKN3icu13UnicodeStringERS3_P10UErrorCode
|| __TEXT.__text __ZN3icu10Appendable12appendStringEPKDsi
|| __TEXT.__text __ZN3icu10Appendable15appendCodePointEi
|| __TEXT.__text __ZN3icu10Appendable15getAppendBufferEiiPDsiPi
|| __TEXT.__text __ZN3icu10Appendable21reserveAppendCapacityEi
|| __TEXT.__text __ZN3icu10AppendableD0Ev
|| __TEXT.__text __ZN3icu10AppendableD1Ev
|| __TEXT.__text __ZN3icu10AppendableD2Ev
|| __TEXT.__text __ZN3icu10CECalendar6ceToJDEiiii
|| __TEXT.__text __ZN3icu10CECalendar6jdToCEEiiRiS1_S1_
|| __TEXT.__text __ZN3icu10CECalendarC2ERKNS_6LocaleER10UErrorCode
|| __TEXT.__text __ZN3icu10CECalendarC2ERKS0_
|| __TEXT.__text __ZN3icu10CECalendarD0Ev
|| __TEXT.__text __ZN3icu10CECalendarD1Ev
|| __TEXT.__text __ZN3icu10CECalendarD2Ev
|| __TEXT.__text __ZN3icu10CECalendaraSERKS0_
|| __TEXT.__text __ZN3icu10CharString14appendPathPartENS_11StringPieceER10UErrorCode
|| __TEXT.__text __ZN3icu10CharString14ensureCapacityEiiR10UErrorCode
|| __TEXT.__text __ZN3icu10CharString15getAppendBufferEiiRiR10UErrorCode
|| __TEXT.__text __ZN3icu10CharString20appendInvariantCharsEPKDsiR10UErrorCode
|| __TEXT.__text __ZN3icu10CharString20appendInvariantCharsERKNS_13UnicodeStringER10UErrorCode
|| __TEXT.__text __ZN3icu10CharString27ensureEndsWithFileSeparatorER10UErrorCode
|| __TEXT.__text __ZN3icu10CharString6appendEPKciR10UErrorCode
|| __TEXT.__text __ZN3icu10CharString6appendEcR10UErrorCode
|| __TEXT.__text __ZN3icu10CharString8copyFromERKS0_R10UErrorCode
|| __TEXT.__text __ZN3icu10CharString8truncateEi
|| __TEXT.__text __ZN3icu10CharStringC1EOS0_
|| __TEXT.__text __ZN3icu10CharStringC2EOS0_
|| __TEXT.__text __ZN3icu10CharStringaSEOS0_
|| __TEXT.__text __ZN3icu10DateFormat10setContextE15UDisplayContextR10UErrorCode
|| __TEXT.__text __ZN3icu10DateFormat10setLenientEa
|| __TEXT.__text __ZN3icu10DateFormat11setCalendarERKNS_8CalendarE
|| __TEXT.__text __ZN3icu10DateFormat11setTimeZoneERKNS_8TimeZoneE
|| __TEXT.__text __ZN3icu10DateFormat13adoptCalendarEPNS_8CalendarE
|| __TEXT.__text __ZN3icu10DateFormat13adoptTimeZoneEPNS_8TimeZoneE
|| __TEXT.__text __ZN3icu10DateFormat14createInstanceEv
|| __TEXT.__text __ZN3icu10DateFormat14getBestPatternERKNS_6LocaleERKNS_13UnicodeStringER10UErrorCode
|| __TEXT.__text __ZN3icu10DateFormat15setNumberFormatERKNS_12NumberFormatE
|| __TEXT.__text __ZN3icu10DateFormat17adoptNumberFormatEPNS_12NumberFormatE
|| __TEXT.__text __ZN3icu10DateFormat18createDateInstanceENS0_6EStyleERKNS_6LocaleE
|| __TEXT.__text __ZN3icu10DateFormat18createTimeInstanceENS0_6EStyleERKNS_6LocaleE
|| __TEXT.__text __ZN3icu10DateFormat18setCalendarLenientEa
|| __TEXT.__text __ZN3icu10DateFormat19getAvailableLocalesERi
|| __TEXT.__text __ZN3icu10DateFormat19setBooleanAttributeE27UDateFormatBooleanAttributeaR10UErrorCode
|| __TEXT.__text __ZN3icu10DateFormat22createDateTimeInstanceENS0_6EStyleES1_RKNS_6LocaleE
|| __TEXT.__text __ZN3icu10DateFormat25createInstanceForSkeletonEPNS_8CalendarERKNS_13UnicodeStringERKNS_6LocaleER10UErrorCode
|| __TEXT.__text __ZN3icu10DateFormat25createInstanceForSkeletonERKNS_13UnicodeStringER10UErrorCode
|| __TEXT.__text __ZN3icu10DateFormat25createInstanceForSkeletonERKNS_13UnicodeStringERKNS_6LocaleER10UErrorCode
|| __TEXT.__text __ZN3icu10DateFormat6createENS0_6EStyleES1_RKNS_6LocaleE
|| __TEXT.__text __ZN3icu10DateFormatC2ERKS0_
|| __TEXT.__text __ZN3icu10DateFormatC2Ev
|| __TEXT.__text __ZN3icu10DateFormatD0Ev
|| __TEXT.__text __ZN3icu10DateFormatD1Ev
|| __TEXT.__text __ZN3icu10DateFormatD2Ev
|| __TEXT.__text __ZN3icu10DateFormataSERKS0_
|| __TEXT.__text __ZN3icu10GenderInfo11getInstanceERKNS_6LocaleER10UErrorCode
|| __TEXT.__text __ZN3icu10GenderInfo12loadInstanceERKNS_6LocaleER10UErrorCode
|| __TEXT.__text __ZN3icu10GenderInfo18getNeutralInstanceEv
|| __TEXT.__text __ZN3icu10GenderInfo21getMaleTaintsInstanceEv
|| __TEXT.__text __ZN3icu10GenderInfo23getMixedNeutralInstanceEv
|| __TEXT.__text __ZN3icu10GenderInfoC1Ev
|| __TEXT.__text __ZN3icu10GenderInfoC2Ev
|| __TEXT.__text __ZN3icu10GenderInfoD0Ev
|| __TEXT.__text __ZN3icu10GenderInfoD1Ev
|| __TEXT.__text __ZN3icu10GenderInfoD2Ev
|| __TEXT.__text __ZN3icu10Normalizer10quickCheckERKNS_13UnicodeStringE18UNormalizationModeiR10UErrorCode
|| __TEXT.__text __ZN3icu10Normalizer11clearBufferEv
|| __TEXT.__text __ZN3icu10Normalizer11concatenateERKNS_13UnicodeStringES3_RS1_18UNormalizationModeiR10UErrorCode
|| __TEXT.__text __ZN3icu10Normalizer12isNormalizedERKNS_13UnicodeStringE18UNormalizationModeiR10UErrorCode
|| __TEXT.__text __ZN3icu10Normalizer12setIndexOnlyEi
|| __TEXT.__text __ZN3icu10Normalizer13nextNormalizeEv
|| __TEXT.__text __ZN3icu10Normalizer16getStaticClassIDEv
|| __TEXT.__text __ZN3icu10Normalizer17previousNormalizeEv
|| __TEXT.__text __ZN3icu10Normalizer4initEv
|| __TEXT.__text __ZN3icu10Normalizer4lastEv
|| __TEXT.__text __ZN3icu10Normalizer4nextEv
|| __TEXT.__text __ZN3icu10Normalizer5firstEv
|| __TEXT.__text __ZN3icu10Normalizer5resetEv
|| __TEXT.__text __ZN3icu10Normalizer7composeERKNS_13UnicodeStringEaiRS1_R10UErrorCode
|| __TEXT.__text __ZN3icu10Normalizer7currentEv
|| __TEXT.__text __ZN3icu10Normalizer7getTextERNS_13UnicodeStringE
|| __TEXT.__text __ZN3icu10Normalizer7setModeE18UNormalizationMode
|| __TEXT.__text __ZN3icu10Normalizer7setTextENS_14ConstChar16PtrEiR10UErrorCode
|| __TEXT.__text __ZN3icu10Normalizer7setTextERKNS_13UnicodeStringER10UErrorCode
|| __TEXT.__text __ZN3icu10Normalizer7setTextERKNS_17CharacterIteratorER10UErrorCode
|| __TEXT.__text __ZN3icu10Normalizer8previousEv
|| __TEXT.__text __ZN3icu10Normalizer9decomposeERKNS_13UnicodeStringEaiRS1_R10UErrorCode
|| __TEXT.__text __ZN3icu10Normalizer9normalizeERKNS_13UnicodeStringE18UNormalizationModeiRS1_R10UErrorCode
|| __TEXT.__text __ZN3icu10Normalizer9setOptionEia
|| __TEXT.__text __ZN3icu10NormalizerC1ENS_14ConstChar16PtrEi18UNormalizationMode
|| __TEXT.__text __ZN3icu10NormalizerC1ERKNS_13UnicodeStringE18UNormalizationMode
|| __TEXT.__text __ZN3icu10NormalizerC1ERKNS_17CharacterIteratorE18UNormalizationMode
|| __TEXT.__text __ZN3icu10NormalizerC1ERKS0_
|| __TEXT.__text __ZN3icu10NormalizerC2ENS_14ConstChar16PtrEi18UNormalizationMode
|| __TEXT.__text __ZN3icu10NormalizerC2ERKNS_13UnicodeStringE18UNormalizationMode
|| __TEXT.__text __ZN3icu10NormalizerC2ERKNS_17CharacterIteratorE18UNormalizationMode
|| __TEXT.__text __ZN3icu10NormalizerC2ERKS0_
|| __TEXT.__text __ZN3icu10NormalizerD0Ev
|| __TEXT.__text __ZN3icu10NormalizerD1Ev
|| __TEXT.__text __ZN3icu10NormalizerD2Ev
|| __TEXT.__text __ZN3icu10UCharsTrie10branchNextEPKDsii
|| __TEXT.__text __ZN3icu10UCharsTrie15findUniqueValueEPKDsaRi
|| __TEXT.__text __ZN3icu10UCharsTrie16nextForCodePointEi
|| __TEXT.__text __ZN3icu10UCharsTrie17firstForCodePointEi
|| __TEXT.__text __ZN3icu10UCharsTrie19getNextBranchUCharsEPKDsiRNS_10AppendableE
|| __TEXT.__text __ZN3icu10UCharsTrie25findUniqueValueFromBranchEPKDsiaRi
|| __TEXT.__text __ZN3icu10UCharsTrie4nextENS_14ConstChar16PtrEi
|| __TEXT.__text __ZN3icu10UCharsTrie4nextEi
|| __TEXT.__text __ZN3icu10UCharsTrie8Iterator10branchNextEPKDsiR10UErrorCode
|| __TEXT.__text __ZN3icu10UCharsTrie8Iterator4nextER10UErrorCode
|| __TEXT.__text __ZN3icu10UCharsTrie8Iterator5resetEv
|| __TEXT.__text __ZN3icu10UCharsTrie8IteratorC1ENS_14ConstChar16PtrEiR10UErrorCode
|| __TEXT.__text __ZN3icu10UCharsTrie8IteratorC1ERKS0_iR10UErrorCode
|| __TEXT.__text __ZN3icu10UCharsTrie8IteratorC2ENS_14ConstChar16PtrEiR10UErrorCode
|| __TEXT.__text __ZN3icu10UCharsTrie8IteratorC2ERKS0_iR10UErrorCode
|| __TEXT.__text __ZN3icu10UCharsTrie8IteratorD1Ev
|| __TEXT.__text __ZN3icu10UCharsTrie8IteratorD2Ev
|| __TEXT.__text __ZN3icu10UCharsTrie8nextImplEPKDsi
|| __TEXT.__text __ZN3icu10UCharsTrieD1Ev
|| __TEXT.__text __ZN3icu10UCharsTrieD2Ev
|| __TEXT.__text __ZN3icu10UStringSetD0Ev
|| __TEXT.__text __ZN3icu10UStringSetD1Ev
|| __TEXT.__text __ZN3icu10UStringSetD2Ev
|| __TEXT.__text __ZN3icu10UnicodeSet10complementERKNS_13UnicodeStringE
|| __TEXT.__text __ZN3icu10UnicodeSet10complementEi
|| __TEXT.__text __ZN3icu10UnicodeSet10complementEii
|| __TEXT.__text __ZN3icu10UnicodeSet10complementEv
|| __TEXT.__text __ZN3icu10UnicodeSet10createFromERKNS_13UnicodeStringE
|| __TEXT.__text __ZN3icu10UnicodeSet10setPatternEPKDsi
|| __TEXT.__text __ZN3icu10UnicodeSet10setToBogusEv
|| __TEXT.__text __ZN3icu10UnicodeSet11applyFilterEPFaiPvES1_PKS0_R10UErrorCode
|| __TEXT.__text __ZN3icu10UnicodeSet11exclusiveOrEPKiia
|| __TEXT.__text __ZN3icu10UnicodeSet11getSingleCPERKNS_13UnicodeStringE
|| __TEXT.__text __ZN3icu10UnicodeSet11swapBuffersEv
|| __TEXT.__text __ZN3icu10UnicodeSet12_appendToPatERNS_13UnicodeStringERKS1_a
|| __TEXT.__text __ZN3icu10UnicodeSet12_appendToPatERNS_13UnicodeStringEia
|| __TEXT.__text __ZN3icu10UnicodeSet12applyPatternERKNS_13UnicodeStringER10UErrorCode
|| __TEXT.__text __ZN3icu10UnicodeSet12applyPatternERKNS_13UnicodeStringERNS_13ParsePositionEjPKNS_11SymbolTableER10UErrorCode
|| __TEXT.__text __ZN3icu10UnicodeSet12applyPatternERKNS_13UnicodeStringEjPKNS_11SymbolTableER10UErrorCode
|| __TEXT.__text __ZN3icu10UnicodeSet12applyPatternERNS_21RuleCharacterIteratorEPKNS_11SymbolTableERNS_13UnicodeStringEjMS0_FRS0_iEiR10UErrorCode
|| __TEXT.__text __ZN3icu10UnicodeSet12nextCapacityEi
|| __TEXT.__text __ZN3icu10UnicodeSet13complementAllERKNS_13UnicodeStringE
|| __TEXT.__text __ZN3icu10UnicodeSet13complementAllERKS0_
|| __TEXT.__text __ZN3icu10UnicodeSet13createFromAllERKNS_13UnicodeStringE
|| __TEXT.__text __ZN3icu10UnicodeSet14ensureCapacityEi
|| __TEXT.__text __ZN3icu10UnicodeSet14releasePatternEv
|| __TEXT.__text __ZN3icu10UnicodeSet15allocateStringsER10UErrorCode
|| __TEXT.__text __ZN3icu10UnicodeSet16getStaticClassIDEv
|| __TEXT.__text __ZN3icu10UnicodeSet16removeAllStringsEv
|| __TEXT.__text __ZN3icu10UnicodeSet16resemblesPatternERKNS_13UnicodeStringEi
|| __TEXT.__text __ZN3icu10UnicodeSet18applyPropertyAliasERKNS_13UnicodeStringES3_R10UErrorCode
|| __TEXT.__text __ZN3icu10UnicodeSet20applyPropertyPatternERKNS_13UnicodeStringERNS_13ParsePositionER10UErrorCode
|| __TEXT.__text __ZN3icu10UnicodeSet20applyPropertyPatternERNS_21RuleCharacterIteratorERNS_13UnicodeStringER10UErrorCode
|| __TEXT.__text __ZN3icu10UnicodeSet20ensureBufferCapacityEi
|| __TEXT.__text __ZN3icu10UnicodeSet21applyIntPropertyValueE9UPropertyiR10UErrorCode
|| __TEXT.__text __ZN3icu10UnicodeSet23applyPatternIgnoreSpaceERKNS_13UnicodeStringERNS_13ParsePositionEPKNS_11SymbolTableER10UErrorCode
|| __TEXT.__text __ZN3icu10UnicodeSet24resemblesPropertyPatternERKNS_13UnicodeStringEi
|| __TEXT.__text __ZN3icu10UnicodeSet24resemblesPropertyPatternERNS_21RuleCharacterIteratorEi
|| __TEXT.__text __ZN3icu10UnicodeSet3addEPKiia
|| __TEXT.__text __ZN3icu10UnicodeSet3addERKNS_13UnicodeStringE
|| __TEXT.__text __ZN3icu10UnicodeSet3addEi
|| __TEXT.__text __ZN3icu10UnicodeSet3addEii
|| __TEXT.__text __ZN3icu10UnicodeSet3setEii
|| __TEXT.__text __ZN3icu10UnicodeSet4_addERKNS_13UnicodeStringE
|| __TEXT.__text __ZN3icu10UnicodeSet5clearEv
|| __TEXT.__text __ZN3icu10UnicodeSet6addAllERKNS_13UnicodeStringE
|| __TEXT.__text __ZN3icu10UnicodeSet6addAllERKS0_
|| __TEXT.__text __ZN3icu10UnicodeSet6freezeEv
|| __TEXT.__text __ZN3icu10UnicodeSet6removeERKNS_13UnicodeStringE
|| __TEXT.__text __ZN3icu10UnicodeSet6removeEi
|| __TEXT.__text __ZN3icu10UnicodeSet6removeEii
|| __TEXT.__text __ZN3icu10UnicodeSet6retainEPKiia
|| __TEXT.__text __ZN3icu10UnicodeSet6retainEi
|| __TEXT.__text __ZN3icu10UnicodeSet6retainEii
|| __TEXT.__text __ZN3icu10UnicodeSet7compactEv
|| __TEXT.__text __ZN3icu10UnicodeSet7matchesERKNS_11ReplaceableERiia
|| __TEXT.__text __ZN3icu10UnicodeSet8copyFromERKS0_a
|| __TEXT.__text __ZN3icu10UnicodeSet9closeOverEi
|| __TEXT.__text __ZN3icu10UnicodeSet9matchRestERKNS_11ReplaceableEiiRKNS_13UnicodeStringE
|| __TEXT.__text __ZN3icu10UnicodeSet9removeAllERKNS_13UnicodeStringE
|| __TEXT.__text __ZN3icu10UnicodeSet9removeAllERKS0_
|| __TEXT.__text __ZN3icu10UnicodeSet9retainAllERKNS_13UnicodeStringE
|| __TEXT.__text __ZN3icu10UnicodeSet9retainAllERKS0_
|| __TEXT.__text __ZN3icu10UnicodeSetC1EPKtiNS0_14ESerializationER10UErrorCode
|| __TEXT.__text __ZN3icu10UnicodeSetC1ERKNS_13UnicodeStringER10UErrorCode
|| __TEXT.__text __ZN3icu10UnicodeSetC1ERKNS_13UnicodeStringERNS_13ParsePositionEjPKNS_11SymbolTableER10UErrorCode
|| __TEXT.__text __ZN3icu10UnicodeSetC1ERKNS_13UnicodeStringEjPKNS_11SymbolTableER10UErrorCode
|| __TEXT.__text __ZN3icu10UnicodeSetC1ERKS0_
|| __TEXT.__text __ZN3icu10UnicodeSetC1ERKS0_a
|| __TEXT.__text __ZN3icu10UnicodeSetC1Eii
|| __TEXT.__text __ZN3icu10UnicodeSetC1Ev
|| __TEXT.__text __ZN3icu10UnicodeSetC2EPKtiNS0_14ESerializationER10UErrorCode
|| __TEXT.__text __ZN3icu10UnicodeSetC2ERKNS_13UnicodeStringER10UErrorCode
|| __TEXT.__text __ZN3icu10UnicodeSetC2ERKNS_13UnicodeStringERNS_13ParsePositionEjPKNS_11SymbolTableER10UErrorCode
|| __TEXT.__text __ZN3icu10UnicodeSetC2ERKNS_13UnicodeStringEjPKNS_11SymbolTableER10UErrorCode
|| __TEXT.__text __ZN3icu10UnicodeSetC2ERKS0_
|| __TEXT.__text __ZN3icu10UnicodeSetC2ERKS0_a
|| __TEXT.__text __ZN3icu10UnicodeSetC2Eii
|| __TEXT.__text __ZN3icu10UnicodeSetC2Ev
|| __TEXT.__text __ZN3icu10UnicodeSetD0Ev
|| __TEXT.__text __ZN3icu10UnicodeSetD1Ev
|| __TEXT.__text __ZN3icu10UnicodeSetD2Ev
|| __TEXT.__text __ZN3icu10UnicodeSetaSERKS0_
|| __TEXT.__text __ZN3icu11Formattable10adoptArrayEPS0_i
|| __TEXT.__text __ZN3icu11Formattable11adoptObjectEPNS_7UObjectE
|| __TEXT.__text __ZN3icu11Formattable11adoptStringEPNS_13UnicodeStringE
|| __TEXT.__text __ZN3icu11Formattable16getDecimalNumberER10UErrorCode
|| __TEXT.__text __ZN3icu11Formattable16getStaticClassIDEv
|| __TEXT.__text __ZN3icu11Formattable16setDecimalNumberENS_11StringPieceER10UErrorCode
|| __TEXT.__text __ZN3icu11Formattable20adoptDecimalQuantityEPNS_6number4impl15DecimalQuantityE
|| __TEXT.__text __ZN3icu11Formattable21internalGetCharStringER10UErrorCode
|| __TEXT.__text __ZN3icu11Formattable4initEv
|| __TEXT.__text __ZN3icu11Formattable7disposeEv
|| __TEXT.__text __ZN3icu11Formattable7setDateEd
|| __TEXT.__text __ZN3icu11Formattable7setLongEi
|| __TEXT.__text __ZN3icu11Formattable8setArrayEPKS0_i
|| __TEXT.__text __ZN3icu11Formattable8setInt64Ex
|| __TEXT.__text __ZN3icu11Formattable9getStringER10UErrorCode
|| __TEXT.__text __ZN3icu11Formattable9setDoubleEd
|| __TEXT.__text __ZN3icu11Formattable9setStringERKNS_13UnicodeStringE
|| __TEXT.__text __ZN3icu11FormattableC1ENS_11StringPieceER10UErrorCode
|| __TEXT.__text __ZN3icu11FormattableC1EPKS0_i
|| __TEXT.__text __ZN3icu11FormattableC1EPKc
|| __TEXT.__text __ZN3icu11FormattableC1EPNS_13UnicodeStringE
|| __TEXT.__text __ZN3icu11FormattableC1EPNS_7UObjectE
|| __TEXT.__text __ZN3icu11FormattableC1ERKNS_13UnicodeStringE
|| __TEXT.__text __ZN3icu11FormattableC1ERKS0_
|| __TEXT.__text __ZN3icu11FormattableC1Ed
|| __TEXT.__text __ZN3icu11FormattableC1EdNS0_6ISDATEE
|| __TEXT.__text __ZN3icu11FormattableC1Ei
|| __TEXT.__text __ZN3icu11FormattableC1Ev
|| __TEXT.__text __ZN3icu11FormattableC1Ex
|| __TEXT.__text __ZN3icu11FormattableC2ENS_11StringPieceER10UErrorCode
|| __TEXT.__text __ZN3icu11FormattableC2EPKS0_i
|| __TEXT.__text __ZN3icu11FormattableC2EPKc
|| __TEXT.__text __ZN3icu11FormattableC2EPNS_13UnicodeStringE
|| __TEXT.__text __ZN3icu11FormattableC2EPNS_7UObjectE
|| __TEXT.__text __ZN3icu11FormattableC2ERKNS_13UnicodeStringE
|| __TEXT.__text __ZN3icu11FormattableC2ERKS0_
|| __TEXT.__text __ZN3icu11FormattableC2Ed
|| __TEXT.__text __ZN3icu11FormattableC2EdNS0_6ISDATEE
|| __TEXT.__text __ZN3icu11FormattableC2Ei
|| __TEXT.__text __ZN3icu11FormattableC2Ev
|| __TEXT.__text __ZN3icu11FormattableC2Ex
|| __TEXT.__text __ZN3icu11FormattableD0Ev
|| __TEXT.__text __ZN3icu11FormattableD1Ev
|| __TEXT.__text __ZN3icu11FormattableD2Ev
|| __TEXT.__text __ZN3icu11FormattableaSERKS0_
|| __TEXT.__text __ZN3icu11ICU_Utility11parseNumberERKNS_13UnicodeStringERia
|| __TEXT.__text __ZN3icu11ICU_Utility12appendNumberERNS_13UnicodeStringEiii
|| __TEXT.__text __ZN3icu11ICU_Utility12appendToRuleERNS_13UnicodeStringEPKNS_14UnicodeMatcherEaS2_
|| __TEXT.__text __ZN3icu11ICU_Utility12appendToRuleERNS_13UnicodeStringERKS1_aaS2_
|| __TEXT.__text __ZN3icu11ICU_Utility12appendToRuleERNS_13UnicodeStringEiaaS2_
|| __TEXT.__text __ZN3icu11ICU_Utility12parseIntegerERKNS_13UnicodeStringERii
|| __TEXT.__text __ZN3icu11ICU_Utility12parsePatternERKNS_13UnicodeStringERKNS_11ReplaceableEii
|| __TEXT.__text __ZN3icu11ICU_Utility12parsePatternERKNS_13UnicodeStringEiiS3_Pi
|| __TEXT.__text __ZN3icu11ICU_Utility13isUnprintableEi
|| __TEXT.__text __ZN3icu11ICU_Utility14skipWhitespaceERKNS_13UnicodeStringERia
|| __TEXT.__text __ZN3icu11ICU_Utility17escapeUnprintableERNS_13UnicodeStringEi
|| __TEXT.__text __ZN3icu11ICU_Utility22parseUnicodeIdentifierERKNS_13UnicodeStringERi
|| __TEXT.__text __ZN3icu11ICU_Utility9parseCharERKNS_13UnicodeStringERiDs
|| __TEXT.__text __ZN3icu11LocaleBased12setLocaleIDsEPKcS2_
|| __TEXT.__text __ZN3icu11LocaleBased12setLocaleIDsERKNS_6LocaleES3_
|| __TEXT.__text __ZN3icu11MeasureUnit10createAcreER10UErrorCode
|| __TEXT.__text __ZN3icu11MeasureUnit10createByteER10UErrorCode
|| __TEXT.__text __ZN3icu11MeasureUnit10createFootER10UErrorCode
|| __TEXT.__text __ZN3icu11MeasureUnit10createGramER10UErrorCode
|| __TEXT.__text __ZN3icu11MeasureUnit10createHourER10UErrorCode
|| __TEXT.__text __ZN3icu11MeasureUnit10createInchER10UErrorCode
|| __TEXT.__text __ZN3icu11MeasureUnit10createKnotER10UErrorCode
|| __TEXT.__text __ZN3icu11MeasureUnit10createMileER10UErrorCode
|| __TEXT.__text __ZN3icu11MeasureUnit10createMoleER10UErrorCode
|| __TEXT.__text __ZN3icu11MeasureUnit10createPintER10UErrorCode
|| __TEXT.__text __ZN3icu11MeasureUnit10createVoltER10UErrorCode
|| __TEXT.__text __ZN3icu11MeasureUnit10createWattER10UErrorCode
|| __TEXT.__text __ZN3icu11MeasureUnit10createWeekER10UErrorCode
|| __TEXT.__text __ZN3icu11MeasureUnit10createYardER10UErrorCode
|| __TEXT.__text __ZN3icu11MeasureUnit10createYearER10UErrorCode
|| __TEXT.__text __ZN3icu11MeasureUnit10getCalorieEv
|| __TEXT.__text __ZN3icu11MeasureUnit10getCelsiusEv
|| __TEXT.__text __ZN3icu11MeasureUnit10getCenturyEv
|| __TEXT.__text __ZN3icu11MeasureUnit10getFurlongEv
|| __TEXT.__text __ZN3icu11MeasureUnit10getGigabitEv
|| __TEXT.__text __ZN3icu11MeasureUnit10getHectareEv
|| __TEXT.__text __ZN3icu11MeasureUnit10getKilobitEv
|| __TEXT.__text __ZN3icu11MeasureUnit10getMegabitEv
|| __TEXT.__text __ZN3icu11MeasureUnit10getPercentEv
|| __TEXT.__text __ZN3icu11MeasureUnit10getTerabitEv
|| __TEXT.__text __ZN3icu11MeasureUnit10initNoUnitEPKc
|| __TEXT.__text __ZN3icu11MeasureUnit11createCaratER10UErrorCode
|| __TEXT.__text __ZN3icu11MeasureUnit11createDunamER10UErrorCode
|| __TEXT.__text __ZN3icu11MeasureUnit11createHertzER10UErrorCode
|| __TEXT.__text __ZN3icu11MeasureUnit11createJouleER10UErrorCode
|| __TEXT.__text __ZN3icu11MeasureUnit11createKaratER10UErrorCode
|| __TEXT.__text __ZN3icu11MeasureUnit11createLiterER10UErrorCode
|| __TEXT.__text __ZN3icu11MeasureUnit11createMeterER10UErrorCode
|| __TEXT.__text __ZN3icu11MeasureUnit11createMonthER10UErrorCode
|| __TEXT.__text __ZN3icu11MeasureUnit11createOunceER10UErrorCode
|| __TEXT.__text __ZN3icu11MeasureUnit11createPointER10UErrorCode
|| __TEXT.__text __ZN3icu11MeasureUnit11createPoundER10UErrorCode
|| __TEXT.__text __ZN3icu11MeasureUnit11createQuartER10UErrorCode
|| __TEXT.__text __ZN3icu11MeasureUnit11createStoneER10UErrorCode
|| __TEXT.__text __ZN3icu11MeasureUnit11getAcreFootEv
|| __TEXT.__text __ZN3icu11MeasureUnit11getGigabyteEv
|| __TEXT.__text __ZN3icu11MeasureUnit11getGigawattEv
|| __TEXT.__text __ZN3icu11MeasureUnit11getKilobyteEv
|| __TEXT.__text __ZN3icu11MeasureUnit11getKilogramEv
|| __TEXT.__text __ZN3icu11MeasureUnit11getKilowattEv
|| __TEXT.__text __ZN3icu11MeasureUnit11getMegabyteEv
|| __TEXT.__text __ZN3icu11MeasureUnit11getMegawattEv
|| __TEXT.__text __ZN3icu11MeasureUnit11getMillibarEv
|| __TEXT.__text __ZN3icu11MeasureUnit11getPermilleEv
|| __TEXT.__text __ZN3icu11MeasureUnit11getPetabyteEv
|| __TEXT.__text __ZN3icu11MeasureUnit11getTeaspoonEv
|| __TEXT.__text __ZN3icu11MeasureUnit11getTerabyteEv
|| __TEXT.__text __ZN3icu11MeasureUnit12createAmpereER10UErrorCode
|| __TEXT.__text __ZN3icu11MeasureUnit12createBarrelER10UErrorCode
|| __TEXT.__text __ZN3icu11MeasureUnit12createBushelER10UErrorCode
|| __TEXT.__text __ZN3icu11MeasureUnit12createDaltonER10UErrorCode
|| __TEXT.__text __ZN3icu11MeasureUnit12createDegreeER10UErrorCode
|| __TEXT.__text __ZN3icu11MeasureUnit12createFathomER10UErrorCode
|| __TEXT.__text __ZN3icu11MeasureUnit12createGForceER10UErrorCode
|| __TEXT.__text __ZN3icu11MeasureUnit12createGallonER10UErrorCode
|| __TEXT.__text __ZN3icu11MeasureUnit12createInchHgER10UErrorCode
|| __TEXT.__text __ZN3icu11MeasureUnit12createKelvinER10UErrorCode
|| __TEXT.__text __ZN3icu11MeasureUnit12createMinuteER10UErrorCode
|| __TEXT.__text __ZN3icu11MeasureUnit12createNewtonER10UErrorCode
|| __TEXT.__text __ZN3icu11MeasureUnit12createParsecER10UErrorCode
|| __TEXT.__text __ZN3icu11MeasureUnit12createRadianER10UErrorCode
|| __TEXT.__text __ZN3icu11MeasureUnit12createSecondER10UErrorCode
|| __TEXT.__text __ZN3icu11MeasureUnit12getArcMinuteEv
|| __TEXT.__text __ZN3icu11MeasureUnit12getArcSecondEv
|| __TEXT.__text __ZN3icu11MeasureUnit12getAvailableEPKcPS0_iR10UErrorCode
|| __TEXT.__text __ZN3icu11MeasureUnit12getAvailableEPS0_iR10UErrorCode
|| __TEXT.__text __ZN3icu11MeasureUnit12getCubicFootEv
|| __TEXT.__text __ZN3icu11MeasureUnit12getCubicInchEv
|| __TEXT.__text __ZN3icu11MeasureUnit12getCubicMileEv
|| __TEXT.__text __ZN3icu11MeasureUnit12getCubicYardEv
|| __TEXT.__text __ZN3icu11MeasureUnit12getCupMetricEv
|| __TEXT.__text __ZN3icu11MeasureUnit12getDayPersonEv
|| __TEXT.__text __ZN3icu11MeasureUnit12getDeciliterEv
|| __TEXT.__text __ZN3icu11MeasureUnit12getDecimeterEv
|| __TEXT.__text __ZN3icu11MeasureUnit12getEarthMassEv
|| __TEXT.__text __ZN3icu11MeasureUnit12getGigahertzEv
|| __TEXT.__text __ZN3icu11MeasureUnit12getKilohertzEv
|| __TEXT.__text __ZN3icu11MeasureUnit12getKilojouleEv
|| __TEXT.__text __ZN3icu11MeasureUnit12getKilometerEv
|| __TEXT.__text __ZN3icu11MeasureUnit12getLightYearEv
|| __TEXT.__text __ZN3icu11MeasureUnit12getMegahertzEv
|| __TEXT.__text __ZN3icu11MeasureUnit12getMegaliterEv
|| __TEXT.__text __ZN3icu11MeasureUnit12getMetricTonEv
|| __TEXT.__text __ZN3icu11MeasureUnit12getMicrogramEv
|| __TEXT.__text __ZN3icu11MeasureUnit12getMilligramEv
|| __TEXT.__text __ZN3icu11MeasureUnit12getMilliwattEv
|| __TEXT.__text __ZN3icu11MeasureUnit12getNanometerEv
|| __TEXT.__text __ZN3icu11MeasureUnit12getOunceTroyEv
|| __TEXT.__text __ZN3icu11MeasureUnit12getPermyriadEv
|| __TEXT.__text __ZN3icu11MeasureUnit12getPicometerEv
|| __TEXT.__text __ZN3icu11MeasureUnit12getPoundFootEv
|| __TEXT.__text __ZN3icu11MeasureUnit12getSolarMassEv
|| __TEXT.__text __ZN3icu11MeasureUnit12initCurrencyEPKc
|| __TEXT.__text __ZN3icu11MeasureUnit13createCalorieER10UErrorCode
|| __TEXT.__text __ZN3icu11MeasureUnit13createCelsiusER10UErrorCode
|| __TEXT.__text __ZN3icu11MeasureUnit13createCenturyER10UErrorCode
|| __TEXT.__text __ZN3icu11MeasureUnit13createFurlongER10UErrorCode
|| __TEXT.__text __ZN3icu11MeasureUnit13createGigabitER10UErrorCode
|| __TEXT.__text __ZN3icu11MeasureUnit13createHectareER10UErrorCode
|| __TEXT.__text __ZN3icu11MeasureUnit13createKilobitER10UErrorCode
|| __TEXT.__text __ZN3icu11MeasureUnit13createMegabitER10UErrorCode
|| __TEXT.__text __ZN3icu11MeasureUnit13createPercentER10UErrorCode
|| __TEXT.__text __ZN3icu11MeasureUnit13createTerabitER10UErrorCode
|| __TEXT.__text __ZN3icu11MeasureUnit13getAtmosphereEv
|| __TEXT.__text __ZN3icu11MeasureUnit13getCentiliterEv
|| __TEXT.__text __ZN3icu11MeasureUnit13getCentimeterEv
|| __TEXT.__text __ZN3icu11MeasureUnit13getCubicMeterEv
|| __TEXT.__text __ZN3icu11MeasureUnit13getFahrenheitEv
|| __TEXT.__text __ZN3icu11MeasureUnit13getFluidOunceEv
|| __TEXT.__text __ZN3icu11MeasureUnit13getHectoliterEv
|| __TEXT.__text __ZN3icu11MeasureUnit13getHorsepowerEv
|| __TEXT.__text __ZN3icu11MeasureUnit13getIndexCountEv
|| __TEXT.__text __ZN3icu11MeasureUnit13getKilopascalEv
|| __TEXT.__text __ZN3icu11MeasureUnit13getMegapascalEv
|| __TEXT.__text __ZN3icu11MeasureUnit13getMicrometerEv
|| __TEXT.__text __ZN3icu11MeasureUnit13getMilliliterEv
|| __TEXT.__text __ZN3icu11MeasureUnit13getMillimeterEv
|| __TEXT.__text __ZN3icu11MeasureUnit13getNanosecondEv
|| __TEXT.__text __ZN3icu11MeasureUnit13getPintMetricEv
|| __TEXT.__text __ZN3icu11MeasureUnit13getPoundForceEv
|| __TEXT.__text __ZN3icu11MeasureUnit13getSquareFootEv
|| __TEXT.__text __ZN3icu11MeasureUnit13getSquareInchEv
|| __TEXT.__text __ZN3icu11MeasureUnit13getSquareMileEv
|| __TEXT.__text __ZN3icu11MeasureUnit13getSquareYardEv
|| __TEXT.__text __ZN3icu11MeasureUnit13getTablespoonEv
|| __TEXT.__text __ZN3icu11MeasureUnit13getWeekPersonEv
|| __TEXT.__text __ZN3icu11MeasureUnit13getYearPersonEv
|| __TEXT.__text __ZN3icu11MeasureUnit14createAcreFootER10UErrorCode
|| __TEXT.__text __ZN3icu11MeasureUnit14createGigabyteER10UErrorCode
|| __TEXT.__text __ZN3icu11MeasureUnit14createGigawattER10UErrorCode
|| __TEXT.__text __ZN3icu11MeasureUnit14createKilobyteER10UErrorCode
|| __TEXT.__text __ZN3icu11MeasureUnit14createKilogramER10UErrorCode
|| __TEXT.__text __ZN3icu11MeasureUnit14createKilowattER10UErrorCode
|| __TEXT.__text __ZN3icu11MeasureUnit14createMegabyteER10UErrorCode
|| __TEXT.__text __ZN3icu11MeasureUnit14createMegawattER10UErrorCode
|| __TEXT.__text __ZN3icu11MeasureUnit14createMillibarER10UErrorCode
|| __TEXT.__text __ZN3icu11MeasureUnit14createPermilleER10UErrorCode
|| __TEXT.__text __ZN3icu11MeasureUnit14createPetabyteER10UErrorCode
|| __TEXT.__text __ZN3icu11MeasureUnit14createTeaspoonER10UErrorCode
|| __TEXT.__text __ZN3icu11MeasureUnit14createTerabyteER10UErrorCode
|| __TEXT.__text __ZN3icu11MeasureUnit14getFoodcalorieEv
|| __TEXT.__text __ZN3icu11MeasureUnit14getHectopascalEv
|| __TEXT.__text __ZN3icu11MeasureUnit14getKilocalorieEv
|| __TEXT.__text __ZN3icu11MeasureUnit14getMicrosecondEv
|| __TEXT.__text __ZN3icu11MeasureUnit14getMilePerHourEv
|| __TEXT.__text __ZN3icu11MeasureUnit14getMilliampereEv
|| __TEXT.__text __ZN3icu11MeasureUnit14getMillisecondEv
|| __TEXT.__text __ZN3icu11MeasureUnit14getMonthPersonEv
|| __TEXT.__text __ZN3icu11MeasureUnit14getNewtonMeterEv
|| __TEXT.__text __ZN3icu11MeasureUnit14getSolarRadiusEv
|| __TEXT.__text __ZN3icu11MeasureUnit14getSquareMeterEv
|| __TEXT.__text __ZN3icu11MeasureUnit15createArcMinuteER10UErrorCode
|| __TEXT.__text __ZN3icu11MeasureUnit15createArcSecondER10UErrorCode
|| __TEXT.__text __ZN3icu11MeasureUnit15createCubicFootER10UErrorCode
|| __TEXT.__text __ZN3icu11MeasureUnit15createCubicInchER10UErrorCode
|| __TEXT.__text __ZN3icu11MeasureUnit15createCubicMileER10UErrorCode
|| __TEXT.__text __ZN3icu11MeasureUnit15createCubicYardER10UErrorCode
|| __TEXT.__text __ZN3icu11MeasureUnit15createCupMetricER10UErrorCode
|| __TEXT.__text __ZN3icu11MeasureUnit15createDayPersonER10UErrorCode
|| __TEXT.__text __ZN3icu11MeasureUnit15createDeciliterER10UErrorCode
|| __TEXT.__text __ZN3icu11MeasureUnit15createDecimeterER10UErrorCode
|| __TEXT.__text __ZN3icu11MeasureUnit15createEarthMassER10UErrorCode
|| __TEXT.__text __ZN3icu11MeasureUnit15createGigahertzER10UErrorCode
|| __TEXT.__text __ZN3icu11MeasureUnit15createKilohertzER10UErrorCode
|| __TEXT.__text __ZN3icu11MeasureUnit15createKilojouleER10UErrorCode
|| __TEXT.__text __ZN3icu11MeasureUnit15createKilometerER10UErrorCode
|| __TEXT.__text __ZN3icu11MeasureUnit15createLightYearER10UErrorCode
|| __TEXT.__text __ZN3icu11MeasureUnit15createMegahertzER10UErrorCode
|| __TEXT.__text __ZN3icu11MeasureUnit15createMegaliterER10UErrorCode
|| __TEXT.__text __ZN3icu11MeasureUnit15createMetricTonER10UErrorCode
|| __TEXT.__text __ZN3icu11MeasureUnit15createMicrogramER10UErrorCode
|| __TEXT.__text __ZN3icu11MeasureUnit15createMilligramER10UErrorCode
|| __TEXT.__text __ZN3icu11MeasureUnit15createMilliwattER10UErrorCode
|| __TEXT.__text __ZN3icu11MeasureUnit15createNanometerER10UErrorCode
|| __TEXT.__text __ZN3icu11MeasureUnit15createOunceTroyER10UErrorCode
|| __TEXT.__text __ZN3icu11MeasureUnit15createPermyriadER10UErrorCode
|| __TEXT.__text __ZN3icu11MeasureUnit15createPicometerER10UErrorCode
|| __TEXT.__text __ZN3icu11MeasureUnit15createPoundFootER10UErrorCode
|| __TEXT.__text __ZN3icu11MeasureUnit15createSolarMassER10UErrorCode
|| __TEXT.__text __ZN3icu11MeasureUnit15getElectronvoltEv
|| __TEXT.__text __ZN3icu11MeasureUnit15getKilowattHourEv
|| __TEXT.__text __ZN3icu11MeasureUnit15getNauticalMileEv
|| __TEXT.__text __ZN3icu11MeasureUnit16createAtmosphereER10UErrorCode
|| __TEXT.__text __ZN3icu11MeasureUnit16createCentiliterER10UErrorCode
|| __TEXT.__text __ZN3icu11MeasureUnit16createCentimeterER10UErrorCode
|| __TEXT.__text __ZN3icu11MeasureUnit16createCubicMeterER10UErrorCode
|| __TEXT.__text __ZN3icu11MeasureUnit16createFahrenheitER10UErrorCode
|| __TEXT.__text __ZN3icu11MeasureUnit16createFluidOunceER10UErrorCode
|| __TEXT.__text __ZN3icu11MeasureUnit16createHectoliterER10UErrorCode
|| __TEXT.__text __ZN3icu11MeasureUnit16createHorsepowerER10UErrorCode
|| __TEXT.__text __ZN3icu11MeasureUnit16createKilopascalER10UErrorCode
|| __TEXT.__text __ZN3icu11MeasureUnit16createMegapascalER10UErrorCode
|| __TEXT.__text __ZN3icu11MeasureUnit16createMicrometerER10UErrorCode
|| __TEXT.__text __ZN3icu11MeasureUnit16createMilliliterER10UErrorCode
|| __TEXT.__text __ZN3icu11MeasureUnit16createMillimeterER10UErrorCode
|| __TEXT.__text __ZN3icu11MeasureUnit16createNanosecondER10UErrorCode
|| __TEXT.__text __ZN3icu11MeasureUnit16createPintMetricER10UErrorCode
|| __TEXT.__text __ZN3icu11MeasureUnit16createPoundForceER10UErrorCode
|| __TEXT.__text __ZN3icu11MeasureUnit16createSquareFootER10UErrorCode
|| __TEXT.__text __ZN3icu11MeasureUnit16createSquareInchER10UErrorCode
|| __TEXT.__text __ZN3icu11MeasureUnit16createSquareMileER10UErrorCode
|| __TEXT.__text __ZN3icu11MeasureUnit16createSquareYardER10UErrorCode
|| __TEXT.__text __ZN3icu11MeasureUnit16createTablespoonER10UErrorCode
|| __TEXT.__text __ZN3icu11MeasureUnit16createWeekPersonER10UErrorCode
|| __TEXT.__text __ZN3icu11MeasureUnit16createYearPersonER10UErrorCode
|| __TEXT.__text __ZN3icu11MeasureUnit16getMilePerGallonEv
|| __TEXT.__text __ZN3icu11MeasureUnit16getStaticClassIDEv
|| __TEXT.__text __ZN3icu11MeasureUnit17createFoodcalorieER10UErrorCode
|| __TEXT.__text __ZN3icu11MeasureUnit17createHectopascalER10UErrorCode
|| __TEXT.__text __ZN3icu11MeasureUnit17createKilocalorieER10UErrorCode
|| __TEXT.__text __ZN3icu11MeasureUnit17createMicrosecondER10UErrorCode
|| __TEXT.__text __ZN3icu11MeasureUnit17createMilePerHourER10UErrorCode
|| __TEXT.__text __ZN3icu11MeasureUnit17createMilliampereER10UErrorCode
|| __TEXT.__text __ZN3icu11MeasureUnit17createMillisecondER10UErrorCode
|| __TEXT.__text __ZN3icu11MeasureUnit17createMonthPersonER10UErrorCode
|| __TEXT.__text __ZN3icu11MeasureUnit17createNewtonMeterER10UErrorCode
|| __TEXT.__text __ZN3icu11MeasureUnit17createSolarRadiusER10UErrorCode
|| __TEXT.__text __ZN3icu11MeasureUnit17createSquareMeterER10UErrorCode
|| __TEXT.__text __ZN3icu11MeasureUnit17getAvailableTypesER10UErrorCode
|| __TEXT.__text __ZN3icu11MeasureUnit17getCubicKilometerEv
|| __TEXT.__text __ZN3icu11MeasureUnit17getGallonImperialEv
|| __TEXT.__text __ZN3icu11MeasureUnit17getMeterPerSecondEv
|| __TEXT.__text __ZN3icu11MeasureUnit17getPartPerMillionEv
|| __TEXT.__text __ZN3icu11MeasureUnit18createElectronvoltER10UErrorCode
|| __TEXT.__text __ZN3icu11MeasureUnit18createKilowattHourER10UErrorCode
|| __TEXT.__text __ZN3icu11MeasureUnit18createNauticalMileER10UErrorCode
|| __TEXT.__text __ZN3icu11MeasureUnit18getCubicCentimeterEv
|| __TEXT.__text __ZN3icu11MeasureUnit18getRevolutionAngleEv
|| __TEXT.__text __ZN3icu11MeasureUnit18getSolarLuminosityEv
|| __TEXT.__text __ZN3icu11MeasureUnit18getSquareKilometerEv
|| __TEXT.__text __ZN3icu11MeasureUnit18resolveUnitPerUnitERKS0_S2_Pb
|| __TEXT.__text __ZN3icu11MeasureUnit19createMilePerGallonER10UErrorCode
|| __TEXT.__text __ZN3icu11MeasureUnit19getAstronomicalUnitEv
|| __TEXT.__text __ZN3icu11MeasureUnit19getKilometerPerHourEv
|| __TEXT.__text __ZN3icu11MeasureUnit19getMileScandinavianEv
|| __TEXT.__text __ZN3icu11MeasureUnit19getSquareCentimeterEv
|| __TEXT.__text __ZN3icu11MeasureUnit20createCubicKilometerER10UErrorCode
|| __TEXT.__text __ZN3icu11MeasureUnit20createGallonImperialER10UErrorCode
|| __TEXT.__text __ZN3icu11MeasureUnit20createMeterPerSecondER10UErrorCode
|| __TEXT.__text __ZN3icu11MeasureUnit20createPartPerMillionER10UErrorCode
|| __TEXT.__text __ZN3icu11MeasureUnit20getLiterPerKilometerEv
|| __TEXT.__text __ZN3icu11MeasureUnit20getMillimolePerLiterEv
|| __TEXT.__text __ZN3icu11MeasureUnit21createCubicCentimeterER10UErrorCode
|| __TEXT.__text __ZN3icu11MeasureUnit21createRevolutionAngleER10UErrorCode
|| __TEXT.__text __ZN3icu11MeasureUnit21createSolarLuminosityER10UErrorCode
|| __TEXT.__text __ZN3icu11MeasureUnit21createSquareKilometerER10UErrorCode
|| __TEXT.__text __ZN3icu11MeasureUnit21getBritishThermalUnitEv
|| __TEXT.__text __ZN3icu11MeasureUnit21getFluidOunceImperialEv
|| __TEXT.__text __ZN3icu11MeasureUnit21getGenericTemperatureEv
|| __TEXT.__text __ZN3icu11MeasureUnit21getPoundPerSquareInchEv
|| __TEXT.__text __ZN3icu11MeasureUnit22createAstronomicalUnitER10UErrorCode
|| __TEXT.__text __ZN3icu11MeasureUnit22createKilometerPerHourER10UErrorCode
|| __TEXT.__text __ZN3icu11MeasureUnit22createMileScandinavianER10UErrorCode
|| __TEXT.__text __ZN3icu11MeasureUnit22createSquareCentimeterER10UErrorCode
|| __TEXT.__text __ZN3icu11MeasureUnit22getMillimeterOfMercuryEv
|| __TEXT.__text __ZN3icu11MeasureUnit23createLiterPerKilometerER10UErrorCode
|| __TEXT.__text __ZN3icu11MeasureUnit23createMillimolePerLiterER10UErrorCode
|| __TEXT.__text __ZN3icu11MeasureUnit24createBritishThermalUnitER10UErrorCode
|| __TEXT.__text __ZN3icu11MeasureUnit24createFluidOunceImperialER10UErrorCode
|| __TEXT.__text __ZN3icu11MeasureUnit24createGenericTemperatureER10UErrorCode
|| __TEXT.__text __ZN3icu11MeasureUnit24createPoundPerSquareInchER10UErrorCode
|| __TEXT.__text __ZN3icu11MeasureUnit24getLiterPer100KilometersEv
|| __TEXT.__text __ZN3icu11MeasureUnit24getMeterPerSecondSquaredEv
|| __TEXT.__text __ZN3icu11MeasureUnit24getMilePerGallonImperialEv
|| __TEXT.__text __ZN3icu11MeasureUnit24getMilligramPerDeciliterEv
|| __TEXT.__text __ZN3icu11MeasureUnit25createMillimeterOfMercuryER10UErrorCode
|| __TEXT.__text __ZN3icu11MeasureUnit27createLiterPer100KilometersER10UErrorCode
|| __TEXT.__text __ZN3icu11MeasureUnit27createMeterPerSecondSquaredER10UErrorCode
|| __TEXT.__text __ZN3icu11MeasureUnit27createMilePerGallonImperialER10UErrorCode
|| __TEXT.__text __ZN3icu11MeasureUnit27createMilligramPerDeciliterER10UErrorCode
|| __TEXT.__text __ZN3icu11MeasureUnit33internalGetIndexForTypeAndSubtypeEPKcS2_
|| __TEXT.__text __ZN3icu11MeasureUnit5setToEii
|| __TEXT.__text __ZN3icu11MeasureUnit6createEiiR10UErrorCode
|| __TEXT.__text __ZN3icu11MeasureUnit6getBitEv
|| __TEXT.__text __ZN3icu11MeasureUnit6getCupEv
|| __TEXT.__text __ZN3icu11MeasureUnit6getDayEv
|| __TEXT.__text __ZN3icu11MeasureUnit6getLuxEv
|| __TEXT.__text __ZN3icu11MeasureUnit6getOhmEv
|| __TEXT.__text __ZN3icu11MeasureUnit6getTonEv
|| __TEXT.__text __ZN3icu11MeasureUnit7getAcreEv
|| __TEXT.__text __ZN3icu11MeasureUnit7getByteEv
|| __TEXT.__text __ZN3icu11MeasureUnit7getFootEv
|| __TEXT.__text __ZN3icu11MeasureUnit7getGramEv
|| __TEXT.__text __ZN3icu11MeasureUnit7getHourEv
|| __TEXT.__text __ZN3icu11MeasureUnit7getInchEv
|| __TEXT.__text __ZN3icu11MeasureUnit7getKnotEv
|| __TEXT.__text __ZN3icu11MeasureUnit7getMileEv
|| __TEXT.__text __ZN3icu11MeasureUnit7getMoleEv
|| __TEXT.__text __ZN3icu11MeasureUnit7getPintEv
|| __TEXT.__text __ZN3icu11MeasureUnit7getVoltEv
|| __TEXT.__text __ZN3icu11MeasureUnit7getWattEv
|| __TEXT.__text __ZN3icu11MeasureUnit7getWeekEv
|| __TEXT.__text __ZN3icu11MeasureUnit7getYardEv
|| __TEXT.__text __ZN3icu11MeasureUnit7getYearEv
|| __TEXT.__text __ZN3icu11MeasureUnit8getCaratEv
|| __TEXT.__text __ZN3icu11MeasureUnit8getDunamEv
|| __TEXT.__text __ZN3icu11MeasureUnit8getHertzEv
|| __TEXT.__text __ZN3icu11MeasureUnit8getJouleEv
|| __TEXT.__text __ZN3icu11MeasureUnit8getKaratEv
|| __TEXT.__text __ZN3icu11MeasureUnit8getLiterEv
|| __TEXT.__text __ZN3icu11MeasureUnit8getMeterEv
|| __TEXT.__text __ZN3icu11MeasureUnit8getMonthEv
|| __TEXT.__text __ZN3icu11MeasureUnit8getOunceEv
|| __TEXT.__text __ZN3icu11MeasureUnit8getPointEv
|| __TEXT.__text __ZN3icu11MeasureUnit8getPoundEv
|| __TEXT.__text __ZN3icu11MeasureUnit8getQuartEv
|| __TEXT.__text __ZN3icu11MeasureUnit8getStoneEv
|| __TEXT.__text __ZN3icu11MeasureUnit8initTimeEPKc
|| __TEXT.__text __ZN3icu11MeasureUnit9createBitER10UErrorCode
|| __TEXT.__text __ZN3icu11MeasureUnit9createCupER10UErrorCode
|| __TEXT.__text __ZN3icu11MeasureUnit9createDayER10UErrorCode
|| __TEXT.__text __ZN3icu11MeasureUnit9createLuxER10UErrorCode
|| __TEXT.__text __ZN3icu11MeasureUnit9createOhmER10UErrorCode
|| __TEXT.__text __ZN3icu11MeasureUnit9createTonER10UErrorCode
|| __TEXT.__text __ZN3icu11MeasureUnit9getAmpereEv
|| __TEXT.__text __ZN3icu11MeasureUnit9getBarrelEv
|| __TEXT.__text __ZN3icu11MeasureUnit9getBushelEv
|| __TEXT.__text __ZN3icu11MeasureUnit9getDaltonEv
|| __TEXT.__text __ZN3icu11MeasureUnit9getDegreeEv
|| __TEXT.__text __ZN3icu11MeasureUnit9getFathomEv
|| __TEXT.__text __ZN3icu11MeasureUnit9getGForceEv
|| __TEXT.__text __ZN3icu11MeasureUnit9getGallonEv
|| __TEXT.__text __ZN3icu11MeasureUnit9getInchHgEv
|| __TEXT.__text __ZN3icu11MeasureUnit9getKelvinEv
|| __TEXT.__text __ZN3icu11MeasureUnit9getMinuteEv
|| __TEXT.__text __ZN3icu11MeasureUnit9getNewtonEv
|| __TEXT.__text __ZN3icu11MeasureUnit9getParsecEv
|| __TEXT.__text __ZN3icu11MeasureUnit9getRadianEv
|| __TEXT.__text __ZN3icu11MeasureUnit9getSecondEv
|| __TEXT.__text __ZN3icu11MeasureUnitC1ERKS0_
|| __TEXT.__text __ZN3icu11MeasureUnitC1Ev
|| __TEXT.__text __ZN3icu11MeasureUnitC2ERKS0_
|| __TEXT.__text __ZN3icu11MeasureUnitC2Ev
|| __TEXT.__text __ZN3icu11MeasureUnitD0Ev
|| __TEXT.__text __ZN3icu11MeasureUnitD1Ev
|| __TEXT.__text __ZN3icu11MeasureUnitD2Ev
|| __TEXT.__text __ZN3icu11MeasureUnitaSERKS0_
|| __TEXT.__text __ZN3icu11MessageImpl24appendReducedApostrophesERKNS_13UnicodeStringEiiRS1_
|| __TEXT.__text __ZN3icu11MessageImpl33appendSubMessageWithoutSkipSyntaxERKNS_14MessagePatternEiRNS_13UnicodeStringE
|| __TEXT.__text __ZN3icu11Normalizer211getInstanceEPKcS2_19UNormalization2ModeR10UErrorCode
|| __TEXT.__text __ZN3icu11Normalizer214getNFCInstanceER10UErrorCode
|| __TEXT.__text __ZN3icu11Normalizer214getNFDInstanceER10UErrorCode
|| __TEXT.__text __ZN3icu11Normalizer215getNFKCInstanceER10UErrorCode
|| __TEXT.__text __ZN3icu11Normalizer215getNFKDInstanceER10UErrorCode
|| __TEXT.__text __ZN3icu11Normalizer223getNFKCCasefoldInstanceER10UErrorCode
|| __TEXT.__text __ZN3icu11Normalizer2D0Ev
|| __TEXT.__text __ZN3icu11Normalizer2D1Ev
|| __TEXT.__text __ZN3icu11Normalizer2D2Ev
|| __TEXT.__text __ZN3icu11PluralRules10getSamplesERKNS_13UnicodeStringEPdiR10UErrorCode
|| __TEXT.__text __ZN3icu11PluralRules11createRulesERKNS_13UnicodeStringER10UErrorCode
|| __TEXT.__text __ZN3icu11PluralRules16getStaticClassIDEv
|| __TEXT.__text __ZN3icu11PluralRules17internalForLocaleERKNS_6LocaleE11UPluralTypeR10UErrorCode
|| __TEXT.__text __ZN3icu11PluralRules18createDefaultRulesER10UErrorCode
|| __TEXT.__text __ZN3icu11PluralRules19getAllKeywordValuesERKNS_13UnicodeStringEPdiR10UErrorCode
|| __TEXT.__text __ZN3icu11PluralRules19getAvailableLocalesER10UErrorCode
|| __TEXT.__text __ZN3icu11PluralRules19getRuleFromResourceERKNS_6LocaleE11UPluralTypeR10UErrorCode
|| __TEXT.__text __ZN3icu11PluralRules20createSharedInstanceERKNS_6LocaleE11UPluralTypeR10UErrorCode
|| __TEXT.__text __ZN3icu11PluralRules21getUniqueKeywordValueERKNS_13UnicodeStringE
|| __TEXT.__text __ZN3icu11PluralRules9forLocaleERKNS_6LocaleE11UPluralTypeR10UErrorCode
|| __TEXT.__text __ZN3icu11PluralRules9forLocaleERKNS_6LocaleER10UErrorCode
|| __TEXT.__text __ZN3icu11PluralRulesC1ER10UErrorCode
|| __TEXT.__text __ZN3icu11PluralRulesC1ERKS0_
|| __TEXT.__text __ZN3icu11PluralRulesC2ER10UErrorCode
|| __TEXT.__text __ZN3icu11PluralRulesC2ERKS0_
|| __TEXT.__text __ZN3icu11PluralRulesD0Ev
|| __TEXT.__text __ZN3icu11PluralRulesD1Ev
|| __TEXT.__text __ZN3icu11PluralRulesD2Ev
|| __TEXT.__text __ZN3icu11PluralRulesaSERKS0_
|| __TEXT.__text __ZN3icu11ReplaceableD0Ev
|| __TEXT.__text __ZN3icu11ReplaceableD1Ev
|| __TEXT.__text __ZN3icu11ReplaceableD2Ev
|| __TEXT.__text __ZN3icu11StringPiece3setEPKc
|| __TEXT.__text __ZN3icu11StringPieceC1EPKc
|| __TEXT.__text __ZN3icu11StringPieceC1ERKS0_i
|| __TEXT.__text __ZN3icu11StringPieceC1ERKS0_ii
|| __TEXT.__text __ZN3icu11StringPieceC2EPKc
|| __TEXT.__text __ZN3icu11StringPieceC2ERKS0_i
|| __TEXT.__text __ZN3icu11StringPieceC2ERKS0_ii
|| __TEXT.__text __ZN3icu11SymbolTableD0Ev
|| __TEXT.__text __ZN3icu11SymbolTableD1Ev
|| __TEXT.__text __ZN3icu11SymbolTableD2Ev
|| __TEXT.__text __ZN3icu11TextTrieMap12addChildNodeEPNS_13CharacterNodeEDsR10UErrorCode
|| __TEXT.__text __ZN3icu11TextTrieMap3putEPKDsPvR10UErrorCode
|| __TEXT.__text __ZN3icu11TextTrieMap3putERKNS_13UnicodeStringEPvRNS_12ZNStringPoolER10UErrorCode
|| __TEXT.__text __ZN3icu11TextTrieMap7putImplERKNS_13UnicodeStringEPvR10UErrorCode
|| __TEXT.__text __ZN3icu11TextTrieMap9buildTrieER10UErrorCode
|| __TEXT.__text __ZN3icu11TextTrieMap9growNodesEv
|| __TEXT.__text __ZN3icu11TextTrieMapC1EaPFvPvE
|| __TEXT.__text __ZN3icu11TextTrieMapC2EaPFvPvE
|| __TEXT.__text __ZN3icu11TextTrieMapD0Ev
|| __TEXT.__text __ZN3icu11TextTrieMapD1Ev
|| __TEXT.__text __ZN3icu11TextTrieMapD2Ev
|| __TEXT.__text __ZN3icu12ByteSinkUtil12appendChangeEPKhS2_PKDsiRNS_8ByteSinkEPNS_5EditsER10UErrorCode
|| __TEXT.__text __ZN3icu12ByteSinkUtil12appendChangeEiPKDsiRNS_8ByteSinkEPNS_5EditsER10UErrorCode
|| __TEXT.__text __ZN3icu12ByteSinkUtil14appendTwoBytesEiRNS_8ByteSinkE
|| __TEXT.__text __ZN3icu12ByteSinkUtil15appendCodePointEiiRNS_8ByteSinkEPNS_5EditsE
|| __TEXT.__text __ZN3icu12ByteSinkUtil15appendUnchangedEPKhS2_RNS_8ByteSinkEjPNS_5EditsER10UErrorCode
|| __TEXT.__text __ZN3icu12ByteSinkUtil23appendNonEmptyUnchangedEPKhiRNS_8ByteSinkEjPNS_5EditsE
|| __TEXT.__text __ZN3icu12CacheKeyBaseD0Ev
|| __TEXT.__text __ZN3icu12CacheKeyBaseD1Ev
|| __TEXT.__text __ZN3icu12CacheKeyBaseD2Ev
|| __TEXT.__text __ZN3icu12ChoiceFormat10setChoicesEPKdPKNS_13UnicodeStringEi
|| __TEXT.__text __ZN3icu12ChoiceFormat10setChoicesEPKdPKaPKNS_13UnicodeStringEi
|| __TEXT.__text __ZN3icu12ChoiceFormat10setChoicesEPKdPKaPKNS_13UnicodeStringEiR10UErrorCode
|| __TEXT.__text __ZN3icu12ChoiceFormat12applyPatternERKNS_13UnicodeStringER10UErrorCode
|| __TEXT.__text __ZN3icu12ChoiceFormat12applyPatternERKNS_13UnicodeStringER11UParseErrorR10UErrorCode
|| __TEXT.__text __ZN3icu12ChoiceFormat13parseArgumentERKNS_14MessagePatternEiRKNS_13UnicodeStringERNS_13ParsePositionE
|| __TEXT.__text __ZN3icu12ChoiceFormat14findSubMessageERKNS_14MessagePatternEid
|| __TEXT.__text __ZN3icu12ChoiceFormat16getStaticClassIDEv
|| __TEXT.__text __ZN3icu12ChoiceFormat25matchStringUntilLimitPartERKNS_14MessagePatternEiiRKNS_13UnicodeStringEi
|| __TEXT.__text __ZN3icu12ChoiceFormat4dtosEdRNS_13UnicodeStringE
|| __TEXT.__text __ZN3icu12ChoiceFormatC1EPKdPKNS_13UnicodeStringEi
|| __TEXT.__text __ZN3icu12ChoiceFormatC1EPKdPKaPKNS_13UnicodeStringEi
|| __TEXT.__text __ZN3icu12ChoiceFormatC1ERKNS_13UnicodeStringER10UErrorCode
|| __TEXT.__text __ZN3icu12ChoiceFormatC1ERKNS_13UnicodeStringER11UParseErrorR10UErrorCode
|| __TEXT.__text __ZN3icu12ChoiceFormatC1ERKS0_
|| __TEXT.__text __ZN3icu12ChoiceFormatC2EPKdPKNS_13UnicodeStringEi
|| __TEXT.__text __ZN3icu12ChoiceFormatC2EPKdPKaPKNS_13UnicodeStringEi
|| __TEXT.__text __ZN3icu12ChoiceFormatC2ERKNS_13UnicodeStringER10UErrorCode
|| __TEXT.__text __ZN3icu12ChoiceFormatC2ERKNS_13UnicodeStringER11UParseErrorR10UErrorCode
|| __TEXT.__text __ZN3icu12ChoiceFormatC2ERKS0_
|| __TEXT.__text __ZN3icu12ChoiceFormatD0Ev
|| __TEXT.__text __ZN3icu12ChoiceFormatD1Ev
|| __TEXT.__text __ZN3icu12ChoiceFormatD2Ev
|| __TEXT.__text __ZN3icu12ChoiceFormataSERKS0_
|| __TEXT.__text __ZN3icu12CollationKey10reallocateEii
|| __TEXT.__text __ZN3icu12CollationKey10setToBogusEv
|| __TEXT.__text __ZN3icu12CollationKey16getStaticClassIDEv
|| __TEXT.__text __ZN3icu12CollationKey5resetEv
|| __TEXT.__text __ZN3icu12CollationKey9setLengthEi
|| __TEXT.__text __ZN3icu12CollationKeyC1EPKhi
|| __TEXT.__text __ZN3icu12CollationKeyC1ERKS0_
|| __TEXT.__text __ZN3icu12CollationKeyC1Ev
|| __TEXT.__text __ZN3icu12CollationKeyC2EPKhi
|| __TEXT.__text __ZN3icu12CollationKeyC2ERKS0_
|| __TEXT.__text __ZN3icu12CollationKeyC2Ev
|| __TEXT.__text __ZN3icu12CollationKeyD0Ev
|| __TEXT.__text __ZN3icu12CollationKeyD1Ev
|| __TEXT.__text __ZN3icu12CollationKeyD2Ev
|| __TEXT.__text __ZN3icu12CollationKeyaSERKS0_
|| __TEXT.__text __ZN3icu12CurrencyUnit16getStaticClassIDEv
|| __TEXT.__text __ZN3icu12CurrencyUnitC1ENS_11StringPieceER10UErrorCode
|| __TEXT.__text __ZN3icu12CurrencyUnitC1ENS_14ConstChar16PtrER10UErrorCode
|| __TEXT.__text __ZN3icu12CurrencyUnitC1ERKNS_11MeasureUnitER10UErrorCode
|| __TEXT.__text __ZN3icu12CurrencyUnitC1ERKS0_
|| __TEXT.__text __ZN3icu12CurrencyUnitC1Ev
|| __TEXT.__text __ZN3icu12CurrencyUnitC2ENS_11StringPieceER10UErrorCode
|| __TEXT.__text __ZN3icu12CurrencyUnitC2ENS_14ConstChar16PtrER10UErrorCode
|| __TEXT.__text __ZN3icu12CurrencyUnitC2ERKNS_11MeasureUnitER10UErrorCode
|| __TEXT.__text __ZN3icu12CurrencyUnitC2ERKS0_
|| __TEXT.__text __ZN3icu12CurrencyUnitC2Ev
|| __TEXT.__text __ZN3icu12CurrencyUnitD0Ev
|| __TEXT.__text __ZN3icu12CurrencyUnitD1Ev
|| __TEXT.__text __ZN3icu12CurrencyUnitD2Ev
|| __TEXT.__text __ZN3icu12CurrencyUnitaSERKS0_
|| __TEXT.__text __ZN3icu12DateInterval16getStaticClassIDEv
|| __TEXT.__text __ZN3icu12DateIntervalC1ERKS0_
|| __TEXT.__text __ZN3icu12DateIntervalC1Edd
|| __TEXT.__text __ZN3icu12DateIntervalC2ERKS0_
|| __TEXT.__text __ZN3icu12DateIntervalC2Edd
|| __TEXT.__text __ZN3icu12DateIntervalD0Ev
|| __TEXT.__text __ZN3icu12DateIntervalD1Ev
|| __TEXT.__text __ZN3icu12DateIntervalD2Ev
|| __TEXT.__text __ZN3icu12DateIntervalaSERKS0_
|| __TEXT.__text __ZN3icu12DateTimeRule16getStaticClassIDEv
|| __TEXT.__text __ZN3icu12DateTimeRuleC1ERKS0_
|| __TEXT.__text __ZN3icu12DateTimeRuleC1EiiiNS0_12TimeRuleTypeE
|| __TEXT.__text __ZN3icu12DateTimeRuleC1EiiiaiNS0_12TimeRuleTypeE
|| __TEXT.__text __ZN3icu12DateTimeRuleC1EiiiiNS0_12TimeRuleTypeE
|| __TEXT.__text __ZN3icu12DateTimeRuleC2ERKS0_
|| __TEXT.__text __ZN3icu12DateTimeRuleC2EiiiNS0_12TimeRuleTypeE
|| __TEXT.__text __ZN3icu12DateTimeRuleC2EiiiaiNS0_12TimeRuleTypeE
|| __TEXT.__text __ZN3icu12DateTimeRuleC2EiiiiNS0_12TimeRuleTypeE
|| __TEXT.__text __ZN3icu12DateTimeRuleD0Ev
|| __TEXT.__text __ZN3icu12DateTimeRuleD1Ev
|| __TEXT.__text __ZN3icu12DateTimeRuleD2Ev
|| __TEXT.__text __ZN3icu12DateTimeRuleaSERKS0_
|| __TEXT.__text __ZN3icu12FixedDecimal19getFractionalDigitsEdi
|| __TEXT.__text __ZN3icu12FixedDecimal26adjustForMinFractionDigitsEi
|| __TEXT.__text __ZN3icu12FixedDecimal4initEd
|| __TEXT.__text __ZN3icu12FixedDecimal4initEdix
|| __TEXT.__text __ZN3icu12FixedDecimal8decimalsEd
|| __TEXT.__text __ZN3icu12FixedDecimal9quickInitEd
|| __TEXT.__text __ZN3icu12FixedDecimalC1ERKNS_13UnicodeStringER10UErrorCode
|| __TEXT.__text __ZN3icu12FixedDecimalC1ERKS0_
|| __TEXT.__text __ZN3icu12FixedDecimalC1Ed
|| __TEXT.__text __ZN3icu12FixedDecimalC1Edi
|| __TEXT.__text __ZN3icu12FixedDecimalC1Edix
|| __TEXT.__text __ZN3icu12FixedDecimalC1Ev
|| __TEXT.__text __ZN3icu12FixedDecimalC2ERKNS_13UnicodeStringER10UErrorCode
|| __TEXT.__text __ZN3icu12FixedDecimalC2ERKS0_
|| __TEXT.__text __ZN3icu12FixedDecimalC2Ed
|| __TEXT.__text __ZN3icu12FixedDecimalC2Edi
|| __TEXT.__text __ZN3icu12FixedDecimalC2Edix
|| __TEXT.__text __ZN3icu12FixedDecimalC2Ev
|| __TEXT.__text __ZN3icu12FixedDecimalD0Ev
|| __TEXT.__text __ZN3icu12FixedDecimalD1Ev
|| __TEXT.__text __ZN3icu12FixedDecimalD2Ev
|| __TEXT.__text __ZN3icu12NumberFormat10setContextE15UDisplayContextR10UErrorCode
|| __TEXT.__text __ZN3icu12NumberFormat10setLenientEa
|| __TEXT.__text __ZN3icu12NumberFormat11setCurrencyEPKDsR10UErrorCode
|| __TEXT.__text __ZN3icu12NumberFormat12makeInstanceERKNS_6LocaleE18UNumberFormatStyleR10UErrorCode
|| __TEXT.__text __ZN3icu12NumberFormat12makeInstanceERKNS_6LocaleE18UNumberFormatStyleaR10UErrorCode
|| __TEXT.__text __ZN3icu12NumberFormat14createInstanceER10UErrorCode
|| __TEXT.__text __ZN3icu12NumberFormat14createInstanceERKNS_6LocaleE18UNumberFormatStyleR10UErrorCode
|| __TEXT.__text __ZN3icu12NumberFormat14createInstanceERKNS_6LocaleER10UErrorCode
|| __TEXT.__text __ZN3icu12NumberFormat15setDateSettingsEv
|| __TEXT.__text __ZN3icu12NumberFormat15setGroupingUsedEa
|| __TEXT.__text __ZN3icu12NumberFormat15setRoundingModeENS0_13ERoundingModeE
|| __TEXT.__text __ZN3icu12NumberFormat16getStaticClassIDEv
|| __TEXT.__text __ZN3icu12NumberFormat16isStyleSupportedE18UNumberFormatStyle
|| __TEXT.__text __ZN3icu12NumberFormat19getAvailableLocalesERi
|| __TEXT.__text __ZN3icu12NumberFormat19setParseIntegerOnlyEa
|| __TEXT.__text __ZN3icu12NumberFormat20createSharedInstanceERKNS_6LocaleE18UNumberFormatStyleR10UErrorCode
|| __TEXT.__text __ZN3icu12NumberFormat21createPercentInstanceER10UErrorCode
|| __TEXT.__text __ZN3icu12NumberFormat21createPercentInstanceERKNS_6LocaleER10UErrorCode
|| __TEXT.__text __ZN3icu12NumberFormat22createCurrencyInstanceER10UErrorCode
|| __TEXT.__text __ZN3icu12NumberFormat22createCurrencyInstanceERKNS_6LocaleER10UErrorCode
|| __TEXT.__text __ZN3icu12NumberFormat22internalCreateInstanceERKNS_6LocaleE18UNumberFormatStyleR10UErrorCode
|| __TEXT.__text __ZN3icu12NumberFormat23setMaximumIntegerDigitsEi
|| __TEXT.__text __ZN3icu12NumberFormat23setMinimumIntegerDigitsEi
|| __TEXT.__text __ZN3icu12NumberFormat24createScientificInstanceER10UErrorCode
|| __TEXT.__text __ZN3icu12NumberFormat24createScientificInstanceERKNS_6LocaleER10UErrorCode
|| __TEXT.__text __ZN3icu12NumberFormat24setMaximumFractionDigitsEi
|| __TEXT.__text __ZN3icu12NumberFormat24setMinimumFractionDigitsEi
|| __TEXT.__text __ZN3icu12NumberFormatC2ERKS0_
|| __TEXT.__text __ZN3icu12NumberFormatC2Ev
|| __TEXT.__text __ZN3icu12NumberFormatD0Ev
|| __TEXT.__text __ZN3icu12NumberFormatD1Ev
|| __TEXT.__text __ZN3icu12NumberFormatD2Ev
|| __TEXT.__text __ZN3icu12NumberFormataSERKS0_
|| __TEXT.__text __ZN3icu12PatternProps12isIdentifierEPKDsi
|| __TEXT.__text __ZN3icu12PatternProps12isWhiteSpaceEi
|| __TEXT.__text __ZN3icu12PatternProps14skipIdentifierEPKDsi
|| __TEXT.__text __ZN3icu12PatternProps14skipWhiteSpaceEPKDsi
|| __TEXT.__text __ZN3icu12PatternProps14skipWhiteSpaceERKNS_13UnicodeStringEi
|| __TEXT.__text __ZN3icu12PatternProps14trimWhiteSpaceEPKDsRi
|| __TEXT.__text __ZN3icu12PatternProps20isSyntaxOrWhiteSpaceEi
|| __TEXT.__text __ZN3icu12PatternProps8isSyntaxEi
|| __TEXT.__text __ZN3icu12PluralFormat11copyObjectsERKS0_
|| __TEXT.__text __ZN3icu12PluralFormat12applyPatternERKNS_13UnicodeStringER10UErrorCode
|| __TEXT.__text __ZN3icu12PluralFormat14PluralSelectorD0Ev
|| __TEXT.__text __ZN3icu12PluralFormat14PluralSelectorD1Ev
|| __TEXT.__text __ZN3icu12PluralFormat14PluralSelectorD2Ev
|| __TEXT.__text __ZN3icu12PluralFormat14findSubMessageERKNS_14MessagePatternEiRKNS0_14PluralSelectorEPvdR10UErrorCode
|| __TEXT.__text __ZN3icu12PluralFormat15setNumberFormatEPKNS_12NumberFormatER10UErrorCode
|| __TEXT.__text __ZN3icu12PluralFormat16getStaticClassIDEv
|| __TEXT.__text __ZN3icu12PluralFormat21PluralSelectorAdapter5resetEv
|| __TEXT.__text __ZN3icu12PluralFormat21PluralSelectorAdapterD0Ev
|| __TEXT.__text __ZN3icu12PluralFormat21PluralSelectorAdapterD1Ev
|| __TEXT.__text __ZN3icu12PluralFormat21PluralSelectorAdapterD2Ev
|| __TEXT.__text __ZN3icu12PluralFormat4initEPKNS_11PluralRulesE11UPluralTypeR10UErrorCode
|| __TEXT.__text __ZN3icu12PluralFormat9setLocaleERKNS_6LocaleER10UErrorCode
|| __TEXT.__text __ZN3icu12PluralFormat9toPatternERNS_13UnicodeStringE
|| __TEXT.__text __ZN3icu12PluralFormatC1ER10UErrorCode
|| __TEXT.__text __ZN3icu12PluralFormatC1ERKNS_11PluralRulesER10UErrorCode
|| __TEXT.__text __ZN3icu12PluralFormatC1ERKNS_11PluralRulesERKNS_13UnicodeStringER10UErrorCode
|| __TEXT.__text __ZN3icu12PluralFormatC1ERKNS_13UnicodeStringER10UErrorCode
|| __TEXT.__text __ZN3icu12PluralFormatC1ERKNS_6LocaleE11UPluralTypeR10UErrorCode
|| __TEXT.__text __ZN3icu12PluralFormatC1ERKNS_6LocaleE11UPluralTypeRKNS_13UnicodeStringER10UErrorCode
|| __TEXT.__text __ZN3icu12PluralFormatC1ERKNS_6LocaleER10UErrorCode
|| __TEXT.__text __ZN3icu12PluralFormatC1ERKNS_6LocaleERKNS_11PluralRulesER10UErrorCode
|| __TEXT.__text __ZN3icu12PluralFormatC1ERKNS_6LocaleERKNS_11PluralRulesERKNS_13UnicodeStringER10UErrorCode
|| __TEXT.__text __ZN3icu12PluralFormatC1ERKNS_6LocaleERKNS_13UnicodeStringER10UErrorCode
|| __TEXT.__text __ZN3icu12PluralFormatC1ERKS0_
|| __TEXT.__text __ZN3icu12PluralFormatC2ER10UErrorCode
|| __TEXT.__text __ZN3icu12PluralFormatC2ERKNS_11PluralRulesER10UErrorCode
|| __TEXT.__text __ZN3icu12PluralFormatC2ERKNS_11PluralRulesERKNS_13UnicodeStringER10UErrorCode
|| __TEXT.__text __ZN3icu12PluralFormatC2ERKNS_13UnicodeStringER10UErrorCode
|| __TEXT.__text __ZN3icu12PluralFormatC2ERKNS_6LocaleE11UPluralTypeR10UErrorCode
|| __TEXT.__text __ZN3icu12PluralFormatC2ERKNS_6LocaleE11UPluralTypeRKNS_13UnicodeStringER10UErrorCode
|| __TEXT.__text __ZN3icu12PluralFormatC2ERKNS_6LocaleER10UErrorCode
|| __TEXT.__text __ZN3icu12PluralFormatC2ERKNS_6LocaleERKNS_11PluralRulesER10UErrorCode
|| __TEXT.__text __ZN3icu12PluralFormatC2ERKNS_6LocaleERKNS_11PluralRulesERKNS_13UnicodeStringER10UErrorCode
|| __TEXT.__text __ZN3icu12PluralFormatC2ERKNS_6LocaleERKNS_13UnicodeStringER10UErrorCode
|| __TEXT.__text __ZN3icu12PluralFormatC2ERKS0_
|| __TEXT.__text __ZN3icu12PluralFormatD0Ev
|| __TEXT.__text __ZN3icu12PluralFormatD1Ev
|| __TEXT.__text __ZN3icu12PluralFormatD2Ev
|| __TEXT.__text __ZN3icu12PluralFormataSERKS0_
|| __TEXT.__text __ZN3icu12RegexCompile10compileSetEPNS_10UnicodeSetE
|| __TEXT.__text __ZN3icu12RegexCompile10nextCharLLEv
|| __TEXT.__text __ZN3icu12RegexCompile10peekCharLLEv
|| __TEXT.__text __ZN3icu12RegexCompile11blockTopLocEa
|| __TEXT.__text __ZN3icu12RegexCompile11fixLiteralsEa
|| __TEXT.__text __ZN3icu12RegexCompile11literalCharEi
|| __TEXT.__text __ZN3icu12RegexCompile12allocateDataEi
|| __TEXT.__text __ZN3icu12RegexCompile13scanNamedCharEv
|| __TEXT.__text __ZN3icu12RegexCompile13scanPosixPropEv
|| __TEXT.__text __ZN3icu12RegexCompile14doParseActionsEi
|| __TEXT.__text __ZN3icu12RegexCompile14matchStartTypeEv
|| __TEXT.__text __ZN3icu12RegexCompile14maxMatchLengthEii
|| __TEXT.__text __ZN3icu12RegexCompile14minMatchLengthEii
|| __TEXT.__text __ZN3icu12RegexCompile15compileIntervalEii
|| __TEXT.__text __ZN3icu12RegexCompile16handleCloseParenEv
|| __TEXT.__text __ZN3icu12RegexCompile17allocateStackDataEi
|| __TEXT.__text __ZN3icu12RegexCompile20createSetForPropertyERKNS_13UnicodeStringEa
|| __TEXT.__text __ZN3icu12RegexCompile21compileInlineIntervalEv
|| __TEXT.__text __ZN3icu12RegexCompile27findCaseInsensitiveStartersEiPNS_10UnicodeSetE
|| __TEXT.__text __ZN3icu12RegexCompile5errorE10UErrorCode
|| __TEXT.__text __ZN3icu12RegexCompile7buildOpEii
|| __TEXT.__text __ZN3icu12RegexCompile7compileEP5UTextR11UParseErrorR10UErrorCode
|| __TEXT.__text __ZN3icu12RegexCompile7compileERKNS_13UnicodeStringER11UParseErrorR10UErrorCode
|| __TEXT.__text __ZN3icu12RegexCompile7setEvalEi
|| __TEXT.__text __ZN3icu12RegexCompile8appendOpEi
|| __TEXT.__text __ZN3icu12RegexCompile8appendOpEii
|| __TEXT.__text __ZN3icu12RegexCompile8insertOpEi
|| __TEXT.__text __ZN3icu12RegexCompile8nextCharERNS0_16RegexPatternCharE
|| __TEXT.__text __ZN3icu12RegexCompile8scanPropEv
|| __TEXT.__text __ZN3icu12RegexCompile9setPushOpEi
|| __TEXT.__text __ZN3icu12RegexCompile9stripNOPsEv
|| __TEXT.__text __ZN3icu12RegexCompileC1EPNS_12RegexPatternER10UErrorCode
|| __TEXT.__text __ZN3icu12RegexCompileC2EPNS_12RegexPatternER10UErrorCode
|| __TEXT.__text __ZN3icu12RegexCompileD0Ev
|| __TEXT.__text __ZN3icu12RegexCompileD1Ev
|| __TEXT.__text __ZN3icu12RegexCompileD2Ev
|| __TEXT.__text __ZN3icu12RegexMatcher10appendTailEP5UTextR10UErrorCode
|| __TEXT.__text __ZN3icu12RegexMatcher10appendTailERNS_13UnicodeStringE
|| __TEXT.__text __ZN3icu12RegexMatcher10replaceAllEP5UTextS2_R10UErrorCode
|| __TEXT.__text __ZN3icu12RegexMatcher10replaceAllERKNS_13UnicodeStringER10UErrorCode
|| __TEXT.__text __ZN3icu12RegexMatcher10resetStackEv
|| __TEXT.__text __ZN3icu12RegexMatcher12MatchChunkAtEiaR10UErrorCode
|| __TEXT.__text __ZN3icu12RegexMatcher12replaceFirstEP5UTextS2_R10UErrorCode
|| __TEXT.__text __ZN3icu12RegexMatcher12replaceFirstERKNS_13UnicodeStringER10UErrorCode
|| __TEXT.__text __ZN3icu12RegexMatcher12setTimeLimitEiR10UErrorCode
|| __TEXT.__text __ZN3icu12RegexMatcher13IncrementTimeER10UErrorCode
|| __TEXT.__text __ZN3icu12RegexMatcher13setStackLimitEiR10UErrorCode
|| __TEXT.__text __ZN3icu12RegexMatcher14findUsingChunkER10UErrorCode
|| __TEXT.__text __ZN3icu12RegexMatcher14isWordBoundaryEx
|| __TEXT.__text __ZN3icu12RegexMatcher15isUWordBoundaryEx
|| __TEXT.__text __ZN3icu12RegexMatcher16getMatchCallbackERPFaPKviERS2_R10UErrorCode
|| __TEXT.__text __ZN3icu12RegexMatcher16getStaticClassIDEv
|| __TEXT.__text __ZN3icu12RegexMatcher16refreshInputTextEP5UTextR10UErrorCode
|| __TEXT.__text __ZN3icu12RegexMatcher16setMatchCallbackEPFaPKviES2_R10UErrorCode
|| __TEXT.__text __ZN3icu12RegexMatcher17appendReplacementEP5UTextS2_R10UErrorCode
|| __TEXT.__text __ZN3icu12RegexMatcher17appendReplacementERNS_13UnicodeStringERKS1_R10UErrorCode
|| __TEXT.__text __ZN3icu12RegexMatcher18useAnchoringBoundsEa
|| __TEXT.__text __ZN3icu12RegexMatcher19isChunkWordBoundaryEi
|| __TEXT.__text __ZN3icu12RegexMatcher19resetPreserveRegionEv
|| __TEXT.__text __ZN3icu12RegexMatcher20useTransparentBoundsEa
|| __TEXT.__text __ZN3icu12RegexMatcher23getFindProgressCallbackERPFaPKvxERS2_R10UErrorCode
|| __TEXT.__text __ZN3icu12RegexMatcher23setFindProgressCallbackEPFaPKvxES2_R10UErrorCode
|| __TEXT.__text __ZN3icu12RegexMatcher4findER10UErrorCode
|| __TEXT.__text __ZN3icu12RegexMatcher4findEv
|| __TEXT.__text __ZN3icu12RegexMatcher4findExR10UErrorCode
|| __TEXT.__text __ZN3icu12RegexMatcher4initER10UErrorCode
|| __TEXT.__text __ZN3icu12RegexMatcher5init2EP5UTextR10UErrorCode
|| __TEXT.__text __ZN3icu12RegexMatcher5resetEP5UText
|| __TEXT.__text __ZN3icu12RegexMatcher5resetERKNS_13UnicodeStringE
|| __TEXT.__text __ZN3icu12RegexMatcher5resetEv
|| __TEXT.__text __ZN3icu12RegexMatcher5resetExR10UErrorCode
|| __TEXT.__text __ZN3icu12RegexMatcher5splitEP5UTextPS2_iR10UErrorCode
|| __TEXT.__text __ZN3icu12RegexMatcher5splitERKNS_13UnicodeStringEPS1_iR10UErrorCode
|| __TEXT.__text __ZN3icu12RegexMatcher6regionExxR10UErrorCode
|| __TEXT.__text __ZN3icu12RegexMatcher6regionExxxR10UErrorCode
|| __TEXT.__text __ZN3icu12RegexMatcher7MatchAtExaR10UErrorCode
|| __TEXT.__text __ZN3icu12RegexMatcher7matchesER10UErrorCode
|| __TEXT.__text __ZN3icu12RegexMatcher7matchesExR10UErrorCode
|| __TEXT.__text __ZN3icu12RegexMatcher8setTraceEa
|| __TEXT.__text __ZN3icu12RegexMatcher9lookingAtER10UErrorCode
|| __TEXT.__text __ZN3icu12RegexMatcher9lookingAtExR10UErrorCode
|| __TEXT.__text __ZN3icu12RegexMatcherC1EP5UTextS2_jR10UErrorCode
|| __TEXT.__text __ZN3icu12RegexMatcherC1EP5UTextjR10UErrorCode
|| __TEXT.__text __ZN3icu12RegexMatcherC1EPKNS_12RegexPatternE
|| __TEXT.__text __ZN3icu12RegexMatcherC1ERKNS_13UnicodeStringES3_jR10UErrorCode
|| __TEXT.__text __ZN3icu12RegexMatcherC1ERKNS_13UnicodeStringEjR10UErrorCode
|| __TEXT.__text __ZN3icu12RegexMatcherC2EP5UTextS2_jR10UErrorCode
|| __TEXT.__text __ZN3icu12RegexMatcherC2EP5UTextjR10UErrorCode
|| __TEXT.__text __ZN3icu12RegexMatcherC2EPKNS_12RegexPatternE
|| __TEXT.__text __ZN3icu12RegexMatcherC2ERKNS_13UnicodeStringES3_jR10UErrorCode
|| __TEXT.__text __ZN3icu12RegexMatcherC2ERKNS_13UnicodeStringEjR10UErrorCode
|| __TEXT.__text __ZN3icu12RegexMatcherD0Ev
|| __TEXT.__text __ZN3icu12RegexMatcherD1Ev
|| __TEXT.__text __ZN3icu12RegexMatcherD2Ev
|| __TEXT.__text __ZN3icu12RegexPattern16getStaticClassIDEv
|| __TEXT.__text __ZN3icu12RegexPattern3zapEv
|| __TEXT.__text __ZN3icu12RegexPattern4initEv
|| __TEXT.__text __ZN3icu12RegexPattern7compileEP5UTextR11UParseErrorR10UErrorCode
|| __TEXT.__text __ZN3icu12RegexPattern7compileEP5UTextjR10UErrorCode
|| __TEXT.__text __ZN3icu12RegexPattern7compileEP5UTextjR11UParseErrorR10UErrorCode
|| __TEXT.__text __ZN3icu12RegexPattern7compileERKNS_13UnicodeStringER11UParseErrorR10UErrorCode
|| __TEXT.__text __ZN3icu12RegexPattern7compileERKNS_13UnicodeStringEjR10UErrorCode
|| __TEXT.__text __ZN3icu12RegexPattern7compileERKNS_13UnicodeStringEjR11UParseErrorR10UErrorCode
|| __TEXT.__text __ZN3icu12RegexPattern7matchesEP5UTextS2_R11UParseErrorR10UErrorCode
|| __TEXT.__text __ZN3icu12RegexPattern7matchesERKNS_13UnicodeStringES3_R11UParseErrorR10UErrorCode
|| __TEXT.__text __ZN3icu12RegexPatternC1ERKS0_
|| __TEXT.__text __ZN3icu12RegexPatternC1Ev
|| __TEXT.__text __ZN3icu12RegexPatternC2ERKS0_
|| __TEXT.__text __ZN3icu12RegexPatternC2Ev
|| __TEXT.__text __ZN3icu12RegexPatternD0Ev
|| __TEXT.__text __ZN3icu12RegexPatternD1Ev
|| __TEXT.__text __ZN3icu12RegexPatternD2Ev
|| __TEXT.__text __ZN3icu12RegexPatternaSERKS0_
|| __TEXT.__text __ZN3icu12ResourceSinkD0Ev
|| __TEXT.__text __ZN3icu12ResourceSinkD1Ev
|| __TEXT.__text __ZN3icu12ResourceSinkD2Ev
|| __TEXT.__text __ZN3icu12SelectFormat12applyPatternERKNS_13UnicodeStringER10UErrorCode
|| __TEXT.__text __ZN3icu12SelectFormat14findSubMessageERKNS_14MessagePatternEiRKNS_13UnicodeStringER10UErrorCode
|| __TEXT.__text __ZN3icu12SelectFormat16getStaticClassIDEv
|| __TEXT.__text __ZN3icu12SelectFormat9toPatternERNS_13UnicodeStringE
|| __TEXT.__text __ZN3icu12SelectFormatC1ERKNS_13UnicodeStringER10UErrorCode
|| __TEXT.__text __ZN3icu12SelectFormatC1ERKS0_
|| __TEXT.__text __ZN3icu12SelectFormatC2ERKNS_13UnicodeStringER10UErrorCode
|| __TEXT.__text __ZN3icu12SelectFormatC2ERKS0_
|| __TEXT.__text __ZN3icu12SelectFormatD0Ev
|| __TEXT.__text __ZN3icu12SelectFormatD1Ev
|| __TEXT.__text __ZN3icu12SelectFormatD2Ev
|| __TEXT.__text __ZN3icu12SelectFormataSERKS0_
|| __TEXT.__text __ZN3icu12SharedObjectD0Ev
|| __TEXT.__text __ZN3icu12SharedObjectD1Ev
|| __TEXT.__text __ZN3icu12SharedObjectD2Ev
|| __TEXT.__text __ZN3icu12StringSearch10handleNextEiR10UErrorCode
|| __TEXT.__text __ZN3icu12StringSearch10handlePrevEiR10UErrorCode
|| __TEXT.__text __ZN3icu12StringSearch10setPatternERKNS_13UnicodeStringER10UErrorCode
|| __TEXT.__text __ZN3icu12StringSearch11setCollatorEPNS_17RuleBasedCollatorER10UErrorCode
|| __TEXT.__text __ZN3icu12StringSearch16getStaticClassIDEv
|| __TEXT.__text __ZN3icu12StringSearch5resetEv
|| __TEXT.__text __ZN3icu12StringSearch7setTextERKNS_13UnicodeStringER10UErrorCode
|| __TEXT.__text __ZN3icu12StringSearch7setTextERNS_17CharacterIteratorER10UErrorCode
|| __TEXT.__text __ZN3icu12StringSearch9setOffsetEiR10UErrorCode
|| __TEXT.__text __ZN3icu12StringSearchC1ERKNS_13UnicodeStringERNS_17CharacterIteratorEPNS_17RuleBasedCollatorEPNS_13BreakIteratorER10UErrorCode
|| __TEXT.__text __ZN3icu12StringSearchC1ERKNS_13UnicodeStringERNS_17CharacterIteratorERKNS_6LocaleEPNS_13BreakIteratorER10UErrorCode
|| __TEXT.__text __ZN3icu12StringSearchC1ERKNS_13UnicodeStringES3_PNS_17RuleBasedCollatorEPNS_13BreakIteratorER10UErrorCode
|| __TEXT.__text __ZN3icu12StringSearchC1ERKNS_13UnicodeStringES3_RKNS_6LocaleEPNS_13BreakIteratorER10UErrorCode
|| __TEXT.__text __ZN3icu12StringSearchC1ERKS0_
|| __TEXT.__text __ZN3icu12StringSearchC2ERKNS_13UnicodeStringERNS_17CharacterIteratorEPNS_17RuleBasedCollatorEPNS_13BreakIteratorER10UErrorCode
|| __TEXT.__text __ZN3icu12StringSearchC2ERKNS_13UnicodeStringERNS_17CharacterIteratorERKNS_6LocaleEPNS_13BreakIteratorER10UErrorCode
|| __TEXT.__text __ZN3icu12StringSearchC2ERKNS_13UnicodeStringES3_PNS_17RuleBasedCollatorEPNS_13BreakIteratorER10UErrorCode
|| __TEXT.__text __ZN3icu12StringSearchC2ERKNS_13UnicodeStringES3_RKNS_6LocaleEPNS_13BreakIteratorER10UErrorCode
|| __TEXT.__text __ZN3icu12StringSearchC2ERKS0_
|| __TEXT.__text __ZN3icu12StringSearchD0Ev
|| __TEXT.__text __ZN3icu12StringSearchD1Ev
|| __TEXT.__text __ZN3icu12StringSearchD2Ev
|| __TEXT.__text __ZN3icu12StringSearchaSERKS0_
|| __TEXT.__text __ZN3icu12TimeZoneRuleC2ERKNS_13UnicodeStringEii
|| __TEXT.__text __ZN3icu12TimeZoneRuleC2ERKS0_
|| __TEXT.__text __ZN3icu12TimeZoneRuleD0Ev
|| __TEXT.__text __ZN3icu12TimeZoneRuleD1Ev
|| __TEXT.__text __ZN3icu12TimeZoneRuleD2Ev
|| __TEXT.__text __ZN3icu12TimeZoneRuleaSERKS0_
|| __TEXT.__text __ZN3icu12UnifiedCache11getInstanceER10UErrorCode
|| __TEXT.__text __ZN3icu12UnifiedCache17setEvictionPolicyEiiR10UErrorCode
|| __TEXT.__text __ZN3icu12UnifiedCacheC1ER10UErrorCode
|| __TEXT.__text __ZN3icu12UnifiedCacheC2ER10UErrorCode
|| __TEXT.__text __ZN3icu12UnifiedCacheD0Ev
|| __TEXT.__text __ZN3icu12UnifiedCacheD1Ev
|| __TEXT.__text __ZN3icu12UnifiedCacheD2Ev
|| __TEXT.__text __ZN3icu12ZNStringPool3getEPKDsR10UErrorCode
|| __TEXT.__text __ZN3icu12ZNStringPool3getERKNS_13UnicodeStringER10UErrorCode
|| __TEXT.__text __ZN3icu12ZNStringPool5adoptEPKDsR10UErrorCode
|| __TEXT.__text __ZN3icu12ZNStringPool6freezeEv
|| __TEXT.__text __ZN3icu12ZNStringPoolC1ER10UErrorCode
|| __TEXT.__text __ZN3icu12ZNStringPoolC2ER10UErrorCode
|| __TEXT.__text __ZN3icu12ZNStringPoolD1Ev
|| __TEXT.__text __ZN3icu12ZNStringPoolD2Ev
|| __TEXT.__text __ZN3icu13BasicTimeZoneC2ERKNS_13UnicodeStringE
|| __TEXT.__text __ZN3icu13BasicTimeZoneC2ERKS0_
|| __TEXT.__text __ZN3icu13BasicTimeZoneC2Ev
|| __TEXT.__text __ZN3icu13BasicTimeZoneD0Ev
|| __TEXT.__text __ZN3icu13BasicTimeZoneD1Ev
|| __TEXT.__text __ZN3icu13BasicTimeZoneD2Ev
|| __TEXT.__text __ZN3icu13BreakIterator12makeInstanceERKNS_6LocaleEiR10UErrorCode
|| __TEXT.__text __ZN3icu13BreakIterator13buildInstanceERKNS_6LocaleEPKcR10UErrorCode
|| __TEXT.__text __ZN3icu13BreakIterator14createInstanceERKNS_6LocaleEiR10UErrorCode
|| __TEXT.__text __ZN3icu13BreakIterator14getDisplayNameERKNS_6LocaleERNS_13UnicodeStringE
|| __TEXT.__text __ZN3icu13BreakIterator14getDisplayNameERKNS_6LocaleES3_RNS_13UnicodeStringE
|| __TEXT.__text __ZN3icu13BreakIterator16getRuleStatusVecEPiiR10UErrorCode
|| __TEXT.__text __ZN3icu13BreakIterator18createLineInstanceERKNS_6LocaleER10UErrorCode
|| __TEXT.__text __ZN3icu13BreakIterator18createWordInstanceERKNS_6LocaleER10UErrorCode
|| __TEXT.__text __ZN3icu13BreakIterator19createTitleInstanceERKNS_6LocaleER10UErrorCode
|| __TEXT.__text __ZN3icu13BreakIterator19getAvailableLocalesERi
|| __TEXT.__text __ZN3icu13BreakIterator22createSentenceInstanceERKNS_6LocaleER10UErrorCode
|| __TEXT.__text __ZN3icu13BreakIterator23createCharacterInstanceERKNS_6LocaleER10UErrorCode
|| __TEXT.__text __ZN3icu13BreakIteratorC2ERKNS_6LocaleES3_
|| __TEXT.__text __ZN3icu13BreakIteratorC2ERKS0_
|| __TEXT.__text __ZN3icu13BreakIteratorC2Ev
|| __TEXT.__text __ZN3icu13BreakIteratorD0Ev
|| __TEXT.__text __ZN3icu13BreakIteratorD1Ev
|| __TEXT.__text __ZN3icu13BreakIteratorD2Ev
|| __TEXT.__text __ZN3icu13BreakIteratoraSERKS0_
|| __TEXT.__text __ZN3icu13CollationKeys13LevelCallback11needToWriteENS_9Collation5LevelE
|| __TEXT.__text __ZN3icu13CollationKeys13LevelCallbackD0Ev
|| __TEXT.__text __ZN3icu13CollationKeys13LevelCallbackD1Ev
|| __TEXT.__text __ZN3icu13CollationKeys13LevelCallbackD2Ev
|| __TEXT.__text __ZN3icu13CollationKeys26writeSortKeyUpToQuaternaryERNS_17CollationIteratorEPKaRKNS_17CollationSettingsERNS_15SortKeyByteSinkENS_9Collation5LevelERNS0_13LevelCallbackEaR10UErrorCode
|| __TEXT.__text __ZN3icu13CollationRoot11getSettingsER10UErrorCode
|| __TEXT.__text __ZN3icu13CollationRoot17getRootCacheEntryER10UErrorCode
|| __TEXT.__text __ZN3icu13CollationRoot4loadER10UErrorCode
|| __TEXT.__text __ZN3icu13CollationRoot7getDataER10UErrorCode
|| __TEXT.__text __ZN3icu13CollationRoot7getRootER10UErrorCode
|| __TEXT.__text __ZN3icu13DangiCalendar16getStaticClassIDEv
|| __TEXT.__text __ZN3icu13DecimalFormat10setLenientEa
|| __TEXT.__text __ZN3icu13DecimalFormat11setCurrencyEPKDs
|| __TEXT.__text __ZN3icu13DecimalFormat11setCurrencyEPKDsR10UErrorCode
|| __TEXT.__text __ZN3icu13DecimalFormat12applyPatternERKNS_13UnicodeStringER10UErrorCode
|| __TEXT.__text __ZN3icu13DecimalFormat12applyPatternERKNS_13UnicodeStringER11UParseErrorR10UErrorCode
|| __TEXT.__text __ZN3icu13DecimalFormat12setAttributeE22UNumberFormatAttributeiR10UErrorCode
|| __TEXT.__text __ZN3icu13DecimalFormat12touchNoErrorEv
|| __TEXT.__text __ZN3icu13DecimalFormat13setMultiplierEi
|| __TEXT.__text __ZN3icu13DecimalFormat14setFormatWidthEi
|| __TEXT.__text __ZN3icu13DecimalFormat14setPadPositionENS0_12EPadPositionE
|| __TEXT.__text __ZN3icu13DecimalFormat15setDateSettingsEv
|| __TEXT.__text __ZN3icu13DecimalFormat15setGroupingSizeEi
|| __TEXT.__text __ZN3icu13DecimalFormat15setGroupingUsedEa
|| __TEXT.__text __ZN3icu13DecimalFormat15setPadCharacterERKNS_13UnicodeStringE
|| __TEXT.__text __ZN3icu13DecimalFormat15setRoundingModeENS_12NumberFormat13ERoundingModeE
|| __TEXT.__text __ZN3icu13DecimalFormat15setupFastFormatEv
|| __TEXT.__text __ZN3icu13DecimalFormat16getStaticClassIDEv
|| __TEXT.__text __ZN3icu13DecimalFormat16setCurrencyUsageE14UCurrencyUsageP10UErrorCode
|| __TEXT.__text __ZN3icu13DecimalFormat16setParseAllInputE27UNumberFormatAttributeValue
|| __TEXT.__text __ZN3icu13DecimalFormat17setDFSShallowCopyEa
|| __TEXT.__text __ZN3icu13DecimalFormat17setNegativePrefixERKNS_13UnicodeStringE
|| __TEXT.__text __ZN3icu13DecimalFormat17setNegativeSuffixERKNS_13UnicodeStringE
|| __TEXT.__text __ZN3icu13DecimalFormat17setPositivePrefixERKNS_13UnicodeStringE
|| __TEXT.__text __ZN3icu13DecimalFormat17setPositiveSuffixERKNS_13UnicodeStringE
|| __TEXT.__text __ZN3icu13DecimalFormat18setMultiplierScaleEi
|| __TEXT.__text __ZN3icu13DecimalFormat18setParseNoExponentEa
|| __TEXT.__text __ZN3icu13DecimalFormat18setSignAlwaysShownEa
|| __TEXT.__text __ZN3icu13DecimalFormat19fieldPositionHelperERKNS_6number15FormattedNumberERNS_13FieldPositionEiR10UErrorCode
|| __TEXT.__text __ZN3icu13DecimalFormat19setParseIntegerOnlyEa
|| __TEXT.__text __ZN3icu13DecimalFormat20setRoundingIncrementEd
|| __TEXT.__text __ZN3icu13DecimalFormat21applyLocalizedPatternERKNS_13UnicodeStringER10UErrorCode
|| __TEXT.__text __ZN3icu13DecimalFormat21applyLocalizedPatternERKNS_13UnicodeStringER11UParseErrorR10UErrorCode
|| __TEXT.__text __ZN3icu13DecimalFormat21setCurrencyPluralInfoERKNS_18CurrencyPluralInfoE
|| __TEXT.__text __ZN3icu13DecimalFormat21setParseCaseSensitiveEa
|| __TEXT.__text __ZN3icu13DecimalFormat21setScientificNotationEa
|| __TEXT.__text __ZN3icu13DecimalFormat23adoptCurrencyPluralInfoEPNS_18CurrencyPluralInfoE
|| __TEXT.__text __ZN3icu13DecimalFormat23setDecimalFormatSymbolsERKNS_20DecimalFormatSymbolsE
|| __TEXT.__text __ZN3icu13DecimalFormat23setMaximumIntegerDigitsEi
|| __TEXT.__text __ZN3icu13DecimalFormat23setMinimumIntegerDigitsEi
|| __TEXT.__text __ZN3icu13DecimalFormat24setMaximumFractionDigitsEi
|| __TEXT.__text __ZN3icu13DecimalFormat24setMinimumExponentDigitsEa
|| __TEXT.__text __ZN3icu13DecimalFormat24setMinimumFractionDigitsEi
|| __TEXT.__text __ZN3icu13DecimalFormat24setMinimumGroupingDigitsEi
|| __TEXT.__text __ZN3icu13DecimalFormat24setPropertiesFromPatternERKNS_13UnicodeStringEiR10UErrorCode
|| __TEXT.__text __ZN3icu13DecimalFormat24setSecondaryGroupingSizeEi
|| __TEXT.__text __ZN3icu13DecimalFormat24setSignificantDigitsUsedEa
|| __TEXT.__text __ZN3icu13DecimalFormat25adoptDecimalFormatSymbolsEPNS_20DecimalFormatSymbolsE
|| __TEXT.__text __ZN3icu13DecimalFormat26setExponentSignAlwaysShownEa
|| __TEXT.__text __ZN3icu13DecimalFormat27fieldPositionIteratorHelperERKNS_6number15FormattedNumberEPNS_21FieldPositionIteratorEiR10UErrorCode
|| __TEXT.__text __ZN3icu13DecimalFormat27setMaximumSignificantDigitsEi
|| __TEXT.__text __ZN3icu13DecimalFormat27setMinimumSignificantDigitsEi
|| __TEXT.__text __ZN3icu13DecimalFormat30setDecimalPatternMatchRequiredEa
|| __TEXT.__text __ZN3icu13DecimalFormat30setDecimalSeparatorAlwaysShownEa
|| __TEXT.__text __ZN3icu13DecimalFormat32setFormatFailIfMoreThanMaxDigitsEa
|| __TEXT.__text __ZN3icu13DecimalFormat5touchER10UErrorCode
|| __TEXT.__text __ZN3icu13DecimalFormatC1EPKNS_20DecimalFormatSymbolsER10UErrorCode
|| __TEXT.__text __ZN3icu13DecimalFormatC1ER10UErrorCode
|| __TEXT.__text __ZN3icu13DecimalFormatC1ERKNS_13UnicodeStringEPNS_20DecimalFormatSymbolsE18UNumberFormatStyleR10UErrorCode
|| __TEXT.__text __ZN3icu13DecimalFormatC1ERKNS_13UnicodeStringEPNS_20DecimalFormatSymbolsER10UErrorCode
|| __TEXT.__text __ZN3icu13DecimalFormatC1ERKNS_13UnicodeStringEPNS_20DecimalFormatSymbolsER11UParseErrorR10UErrorCode
|| __TEXT.__text __ZN3icu13DecimalFormatC1ERKNS_13UnicodeStringER10UErrorCode
|| __TEXT.__text __ZN3icu13DecimalFormatC1ERKNS_13UnicodeStringERKNS_20DecimalFormatSymbolsER10UErrorCode
|| __TEXT.__text __ZN3icu13DecimalFormatC1ERKS0_
|| __TEXT.__text __ZN3icu13DecimalFormatC2EPKNS_20DecimalFormatSymbolsER10UErrorCode
|| __TEXT.__text __ZN3icu13DecimalFormatC2ER10UErrorCode
|| __TEXT.__text __ZN3icu13DecimalFormatC2ERKNS_13UnicodeStringEPNS_20DecimalFormatSymbolsE18UNumberFormatStyleR10UErrorCode
|| __TEXT.__text __ZN3icu13DecimalFormatC2ERKNS_13UnicodeStringEPNS_20DecimalFormatSymbolsER10UErrorCode
|| __TEXT.__text __ZN3icu13DecimalFormatC2ERKNS_13UnicodeStringEPNS_20DecimalFormatSymbolsER11UParseErrorR10UErrorCode
|| __TEXT.__text __ZN3icu13DecimalFormatC2ERKNS_13UnicodeStringER10UErrorCode
|| __TEXT.__text __ZN3icu13DecimalFormatC2ERKNS_13UnicodeStringERKNS_20DecimalFormatSymbolsER10UErrorCode
|| __TEXT.__text __ZN3icu13DecimalFormatC2ERKS0_
|| __TEXT.__text __ZN3icu13DecimalFormatD0Ev
|| __TEXT.__text __ZN3icu13DecimalFormatD1Ev
|| __TEXT.__text __ZN3icu13DecimalFormatD2Ev
|| __TEXT.__text __ZN3icu13DecimalFormataSERKS0_
|| __TEXT.__text __ZN3icu13FieldPosition16getStaticClassIDEv
|| __TEXT.__text __ZN3icu13FieldPositionD0Ev
|| __TEXT.__text __ZN3icu13FieldPositionD1Ev
|| __TEXT.__text __ZN3icu13FieldPositionD2Ev
|| __TEXT.__text __ZN3icu13FormattedListC1EOS0_
|| __TEXT.__text __ZN3icu13FormattedListC2EOS0_
|| __TEXT.__text __ZN3icu13FormattedListD0Ev
|| __TEXT.__text __ZN3icu13FormattedListD1Ev
|| __TEXT.__text __ZN3icu13FormattedListD2Ev
|| __TEXT.__text __ZN3icu13FormattedListaSEOS0_
|| __TEXT.__text __ZN3icu13IFixedDecimalD0Ev
|| __TEXT.__text __ZN3icu13IFixedDecimalD1Ev
|| __TEXT.__text __ZN3icu13IFixedDecimalD2Ev
|| __TEXT.__text __ZN3icu13ListFormatter14createInstanceER10UErrorCode
|| __TEXT.__text __ZN3icu13ListFormatter14createInstanceERKNS_6LocaleEPKcR10UErrorCode
|| __TEXT.__text __ZN3icu13ListFormatter14createInstanceERKNS_6LocaleER10UErrorCode
|| __TEXT.__text __ZN3icu13ListFormatter14initializeHashER10UErrorCode
|| __TEXT.__text __ZN3icu13ListFormatter16ListPatternsSinkD0Ev
|| __TEXT.__text __ZN3icu13ListFormatter16ListPatternsSinkD1Ev
|| __TEXT.__text __ZN3icu13ListFormatter16ListPatternsSinkD2Ev
|| __TEXT.__text __ZN3icu13ListFormatter21getListFormatInternalERKNS_6LocaleEPKcR10UErrorCode
|| __TEXT.__text __ZN3icu13ListFormatter22loadListFormatInternalERKNS_6LocaleEPKcR10UErrorCode
|| __TEXT.__text __ZN3icu13ListFormatterC1EPKNS_18ListFormatInternalE
|| __TEXT.__text __ZN3icu13ListFormatterC1ERKNS_14ListFormatDataER10UErrorCode
|| __TEXT.__text __ZN3icu13ListFormatterC1ERKS0_
|| __TEXT.__text __ZN3icu13ListFormatterC2EPKNS_18ListFormatInternalE
|| __TEXT.__text __ZN3icu13ListFormatterC2ERKNS_14ListFormatDataER10UErrorCode
|| __TEXT.__text __ZN3icu13ListFormatterC2ERKS0_
|| __TEXT.__text __ZN3icu13ListFormatterD0Ev
|| __TEXT.__text __ZN3icu13ListFormatterD1Ev
|| __TEXT.__text __ZN3icu13ListFormatterD2Ev
|| __TEXT.__text __ZN3icu13ListFormatteraSERKS0_
|| __TEXT.__text __ZN3icu13LocaleBuilder10setVariantENS_11StringPieceE
|| __TEXT.__text __ZN3icu13LocaleBuilder11setLanguageENS_11StringPieceE
|| __TEXT.__text __ZN3icu13LocaleBuilder12setExtensionEcNS_11StringPieceE
|| __TEXT.__text __ZN3icu13LocaleBuilder14setLanguageTagENS_11StringPieceE
|| __TEXT.__text __ZN3icu13LocaleBuilder15clearExtensionsEv
|| __TEXT.__text __ZN3icu13LocaleBuilder23setUnicodeLocaleKeywordENS_11StringPieceES1_
|| __TEXT.__text __ZN3icu13LocaleBuilder25addUnicodeLocaleAttributeENS_11StringPieceE
|| __TEXT.__text __ZN3icu13LocaleBuilder28removeUnicodeLocaleAttributeENS_11StringPieceE
|| __TEXT.__text __ZN3icu13LocaleBuilder5buildER10UErrorCode
|| __TEXT.__text __ZN3icu13LocaleBuilder5clearEv
|| __TEXT.__text __ZN3icu13LocaleBuilder9setLocaleERKNS_6LocaleE
|| __TEXT.__text __ZN3icu13LocaleBuilder9setRegionENS_11StringPieceE
|| __TEXT.__text __ZN3icu13LocaleBuilder9setScriptENS_11StringPieceE
|| __TEXT.__text __ZN3icu13LocaleBuilderC1Ev
|| __TEXT.__text __ZN3icu13LocaleBuilderC2Ev
|| __TEXT.__text __ZN3icu13LocaleBuilderD0Ev
|| __TEXT.__text __ZN3icu13LocaleBuilderD1Ev
|| __TEXT.__text __ZN3icu13LocaleBuilderD2Ev
|| __TEXT.__text __ZN3icu13LocaleUtility12isFallbackOfERKNS_13UnicodeStringES3_
|| __TEXT.__text __ZN3icu13LocaleUtility18initLocaleFromNameERKNS_13UnicodeStringERNS_6LocaleE
|| __TEXT.__text __ZN3icu13LocaleUtility18initNameFromLocaleERKNS_6LocaleERNS_13UnicodeStringE
|| __TEXT.__text __ZN3icu13LocaleUtility21canonicalLocaleStringEPKNS_13UnicodeStringERS1_
|| __TEXT.__text __ZN3icu13LocaleUtility23getAvailableLocaleNamesERKNS_13UnicodeStringE
|| __TEXT.__text __ZN3icu13MeasureFormat16getStaticClassIDEv
|| __TEXT.__text __ZN3icu13MeasureFormat17adoptNumberFormatEPNS_12NumberFormatER10UErrorCode
|| __TEXT.__text __ZN3icu13MeasureFormat17initMeasureFormatERKNS_6LocaleE19UMeasureFormatWidthPNS_12NumberFormatER10UErrorCode
|| __TEXT.__text __ZN3icu13MeasureFormat20createCurrencyFormatER10UErrorCode
|| __TEXT.__text __ZN3icu13MeasureFormat20createCurrencyFormatERKNS_6LocaleER10UErrorCode
|| __TEXT.__text __ZN3icu13MeasureFormat22setMeasureFormatLocaleERKNS_6LocaleER10UErrorCode
|| __TEXT.__text __ZN3icu13MeasureFormatC1ERKNS_6LocaleE19UMeasureFormatWidthPNS_12NumberFormatER10UErrorCode
|| __TEXT.__text __ZN3icu13MeasureFormatC1ERKNS_6LocaleE19UMeasureFormatWidthR10UErrorCode
|| __TEXT.__text __ZN3icu13MeasureFormatC1ERKS0_
|| __TEXT.__text __ZN3icu13MeasureFormatC1Ev
|| __TEXT.__text __ZN3icu13MeasureFormatC2ERKNS_6LocaleE19UMeasureFormatWidthPNS_12NumberFormatER10UErrorCode
|| __TEXT.__text __ZN3icu13MeasureFormatC2ERKNS_6LocaleE19UMeasureFormatWidthR10UErrorCode
|| __TEXT.__text __ZN3icu13MeasureFormatC2ERKS0_
|| __TEXT.__text __ZN3icu13MeasureFormatC2Ev
|| __TEXT.__text __ZN3icu13MeasureFormatD0Ev
|| __TEXT.__text __ZN3icu13MeasureFormatD1Ev
|| __TEXT.__text __ZN3icu13MeasureFormatD2Ev
|| __TEXT.__text __ZN3icu13MeasureFormataSERKS0_
|| __TEXT.__text __ZN3icu13MessageFormat10getArgNameEi
|| __TEXT.__text __ZN3icu13MessageFormat10setFormatsEPPKNS_6FormatEi
|| __TEXT.__text __ZN3icu13MessageFormat11adoptFormatERKNS_13UnicodeStringEPNS_6FormatER10UErrorCode
|| __TEXT.__text __ZN3icu13MessageFormat11adoptFormatEiPNS_6FormatE
|| __TEXT.__text __ZN3icu13MessageFormat11copyObjectsERKS0_R10UErrorCode
|| __TEXT.__text __ZN3icu13MessageFormat11findKeywordERKNS_13UnicodeStringEPKPKDs
|| __TEXT.__text __ZN3icu13MessageFormat12adoptFormatsEPPNS_6FormatEi
|| __TEXT.__text __ZN3icu13MessageFormat12applyPatternERKNS_13UnicodeStringE29UMessagePatternApostropheModeP11UParseErrorR10UErrorCode
|| __TEXT.__text __ZN3icu13MessageFormat12applyPatternERKNS_13UnicodeStringER10UErrorCode
|| __TEXT.__text __ZN3icu13MessageFormat12applyPatternERKNS_13UnicodeStringER11UParseErrorR10UErrorCode
|| __TEXT.__text __ZN3icu13MessageFormat12equalFormatsEPKvS2_
|| __TEXT.__text __ZN3icu13MessageFormat12resetPatternEv
|| __TEXT.__text __ZN3icu13MessageFormat14argNameMatchesEiRKNS_13UnicodeStringEi
|| __TEXT.__text __ZN3icu13MessageFormat14getFormatNamesER10UErrorCode
|| __TEXT.__text __ZN3icu13MessageFormat16allocateArgTypesEiR10UErrorCode
|| __TEXT.__text __ZN3icu13MessageFormat16getStaticClassIDEv
|| __TEXT.__text __ZN3icu13MessageFormat17setArgStartFormatEiPNS_6FormatER10UErrorCode
|| __TEXT.__text __ZN3icu13MessageFormat19autoQuoteApostropheERKNS_13UnicodeStringER10UErrorCode
|| __TEXT.__text __ZN3icu13MessageFormat20cacheExplicitFormatsER10UErrorCode
|| __TEXT.__text __ZN3icu13MessageFormat22PluralSelectorProvider5resetEv
|| __TEXT.__text __ZN3icu13MessageFormat22PluralSelectorProviderC1ERKS0_11UPluralType
|| __TEXT.__text __ZN3icu13MessageFormat22PluralSelectorProviderC2ERKS0_11UPluralType
|| __TEXT.__text __ZN3icu13MessageFormat22PluralSelectorProviderD0Ev
|| __TEXT.__text __ZN3icu13MessageFormat22PluralSelectorProviderD1Ev
|| __TEXT.__text __ZN3icu13MessageFormat22PluralSelectorProviderD2Ev
|| __TEXT.__text __ZN3icu13MessageFormat23createAppropriateFormatERNS_13UnicodeStringES2_RNS_11Formattable4TypeER11UParseErrorR10UErrorCode
|| __TEXT.__text __ZN3icu13MessageFormat23setCustomArgStartFormatEiPNS_6FormatER10UErrorCode
|| __TEXT.__text __ZN3icu13MessageFormat6formatERKNS_13UnicodeStringEPKNS_11FormattableEiRS1_R10UErrorCode
|| __TEXT.__text __ZN3icu13MessageFormat9getFormatERKNS_13UnicodeStringER10UErrorCode
|| __TEXT.__text __ZN3icu13MessageFormat9setFormatERKNS_13UnicodeStringERKNS_6FormatER10UErrorCode
|| __TEXT.__text __ZN3icu13MessageFormat9setFormatEiRKNS_6FormatE
|| __TEXT.__text __ZN3icu13MessageFormat9setLocaleERKNS_6LocaleE
|| __TEXT.__text __ZN3icu13MessageFormatC1ERKNS_13UnicodeStringER10UErrorCode
|| __TEXT.__text __ZN3icu13MessageFormatC1ERKNS_13UnicodeStringERKNS_6LocaleER10UErrorCode
|| __TEXT.__text __ZN3icu13MessageFormatC1ERKNS_13UnicodeStringERKNS_6LocaleER11UParseErrorR10UErrorCode
|| __TEXT.__text __ZN3icu13MessageFormatC1ERKS0_
|| __TEXT.__text __ZN3icu13MessageFormatC2ERKNS_13UnicodeStringER10UErrorCode
|| __TEXT.__text __ZN3icu13MessageFormatC2ERKNS_13UnicodeStringERKNS_6LocaleER10UErrorCode
|| __TEXT.__text __ZN3icu13MessageFormatC2ERKNS_13UnicodeStringERKNS_6LocaleER11UParseErrorR10UErrorCode
|| __TEXT.__text __ZN3icu13MessageFormatC2ERKS0_
|| __TEXT.__text __ZN3icu13MessageFormatD0Ev
|| __TEXT.__text __ZN3icu13MessageFormatD1Ev
|| __TEXT.__text __ZN3icu13MessageFormatD2Ev
|| __TEXT.__text __ZN3icu13MessageFormataSERKS0_
|| __TEXT.__text __ZN3icu13OlsonTimeZone12setRawOffsetEi
|| __TEXT.__text __ZN3icu13OlsonTimeZone14constructEmptyEv
|| __TEXT.__text __ZN3icu13OlsonTimeZone16getStaticClassIDEv
|| __TEXT.__text __ZN3icu13OlsonTimeZone19initTransitionRulesER10UErrorCode
|| __TEXT.__text __ZN3icu13OlsonTimeZone20clearTransitionRulesEv
|| __TEXT.__text __ZN3icu13OlsonTimeZone21deleteTransitionRulesEv
|| __TEXT.__text __ZN3icu13OlsonTimeZoneC1EPK15UResourceBundleS3_RKNS_13UnicodeStringER10UErrorCode
|| __TEXT.__text __ZN3icu13OlsonTimeZoneC1ERKS0_
|| __TEXT.__text __ZN3icu13OlsonTimeZoneC2EPK15UResourceBundleS3_RKNS_13UnicodeStringER10UErrorCode
|| __TEXT.__text __ZN3icu13OlsonTimeZoneC2ERKS0_
|| __TEXT.__text __ZN3icu13OlsonTimeZoneD0Ev
|| __TEXT.__text __ZN3icu13OlsonTimeZoneD1Ev
|| __TEXT.__text __ZN3icu13OlsonTimeZoneD2Ev
|| __TEXT.__text __ZN3icu13OlsonTimeZoneaSERKS0_
|| __TEXT.__text __ZN3icu13ParsePosition16getStaticClassIDEv
|| __TEXT.__text __ZN3icu13ParsePositionD0Ev
|| __TEXT.__text __ZN3icu13ParsePositionD1Ev
|| __TEXT.__text __ZN3icu13ParsePositionD2Ev
|| __TEXT.__text __ZN3icu13PluralMapBase10toCategoryEPKc
|| __TEXT.__text __ZN3icu13PluralMapBase10toCategoryERKNS_13UnicodeStringE
|| __TEXT.__text __ZN3icu13PluralMapBase15getCategoryNameENS0_8CategoryE
|| __TEXT.__text __ZN3icu13ResourceValueD0Ev
|| __TEXT.__text __ZN3icu13ResourceValueD1Ev
|| __TEXT.__text __ZN3icu13ResourceValueD2Ev
|| __TEXT.__text __ZN3icu13TimeZoneNames14createInstanceERKNS_6LocaleER10UErrorCode
|| __TEXT.__text __ZN3icu13TimeZoneNames18createTZDBInstanceERKNS_6LocaleER10UErrorCode
|| __TEXT.__text __ZN3icu13TimeZoneNames19MatchInfoCollection11addMetaZoneE17UTimeZoneNameTypeiRKNS_13UnicodeStringER10UErrorCode
|| __TEXT.__text __ZN3icu13TimeZoneNames19MatchInfoCollection7addZoneE17UTimeZoneNameTypeiRKNS_13UnicodeStringER10UErrorCode
|| __TEXT.__text __ZN3icu13TimeZoneNames19MatchInfoCollection7matchesER10UErrorCode
|| __TEXT.__text __ZN3icu13TimeZoneNames19MatchInfoCollectionC1Ev
|| __TEXT.__text __ZN3icu13TimeZoneNames19MatchInfoCollectionC2Ev
|| __TEXT.__text __ZN3icu13TimeZoneNames19MatchInfoCollectionD0Ev
|| __TEXT.__text __ZN3icu13TimeZoneNames19MatchInfoCollectionD1Ev
|| __TEXT.__text __ZN3icu13TimeZoneNames19MatchInfoCollectionD2Ev
|| __TEXT.__text __ZN3icu13TimeZoneNames19loadAllDisplayNamesER10UErrorCode
|| __TEXT.__text __ZN3icu13TimeZoneNamesD0Ev
|| __TEXT.__text __ZN3icu13TimeZoneNamesD1Ev
|| __TEXT.__text __ZN3icu13TimeZoneNamesD2Ev
|| __TEXT.__text __ZN3icu13UnicodeFilter16getStaticClassIDEv
|| __TEXT.__text __ZN3icu13UnicodeFilter7matchesERKNS_11ReplaceableERiia
|| __TEXT.__text __ZN3icu13UnicodeFilter7setDataEPKNS_23TransliterationRuleDataE
|| __TEXT.__text __ZN3icu13UnicodeFilterD0Ev
|| __TEXT.__text __ZN3icu13UnicodeFilterD1Ev
|| __TEXT.__text __ZN3icu13UnicodeFilterD2Ev
|| __TEXT.__text __ZN3icu13UnicodeString10padLeadingEiDs
|| __TEXT.__text __ZN3icu13UnicodeString10setToBogusEv
|| __TEXT.__text __ZN3icu13UnicodeString11padTrailingEiDs
|| __TEXT.__text __ZN3icu13UnicodeString12fastCopyFromERKS0_
|| __TEXT.__text __ZN3icu13UnicodeString12releaseArrayEv
|| __TEXT.__text __ZN3icu13UnicodeString13releaseBufferEi
|| __TEXT.__text __ZN3icu13UnicodeString14copyFieldsFromERS0_a
|| __TEXT.__text __ZN3icu13UnicodeString14findAndReplaceEiiRKS0_iiS2_ii
|| __TEXT.__text __ZN3icu13UnicodeString16doCodepageCreateEPKciP10UConverterR10UErrorCode
|| __TEXT.__text __ZN3icu13UnicodeString16doCodepageCreateEPKciS2_
|| __TEXT.__text __ZN3icu13UnicodeString16getStaticClassIDEv
|| __TEXT.__text __ZN3icu13UnicodeString18cloneArrayIfNeededEiiaPPia
|| __TEXT.__text __ZN3icu13UnicodeString19getTerminatedBufferEv
|| __TEXT.__text __ZN3icu13UnicodeString20handleReplaceBetweenEiiRKS0_
|| __TEXT.__text __ZN3icu13UnicodeString4copyEiii
|| __TEXT.__text __ZN3icu13UnicodeString4swapERS0_
|| __TEXT.__text __ZN3icu13UnicodeString4trimEv
|| __TEXT.__text __ZN3icu13UnicodeString5setToEPDsii
|| __TEXT.__text __ZN3icu13UnicodeString5setToEaNS_14ConstChar16PtrEi
|| __TEXT.__text __ZN3icu13UnicodeString6addRefEv
|| __TEXT.__text __ZN3icu13UnicodeString6appendEi
|| __TEXT.__text __ZN3icu13UnicodeString7caseMapEijPNS_13BreakIteratorEPFiijS2_PDsiPKDsiPNS_5EditsER10UErrorCodeE
|| __TEXT.__text __ZN3icu13UnicodeString7replaceEiii
|| __TEXT.__text __ZN3icu13UnicodeString7toLowerERKNS_6LocaleE
|| __TEXT.__text __ZN3icu13UnicodeString7toLowerEv
|| __TEXT.__text __ZN3icu13UnicodeString7toTitleEPNS_13BreakIteratorE
|| __TEXT.__text __ZN3icu13UnicodeString7toTitleEPNS_13BreakIteratorERKNS_6LocaleE
|| __TEXT.__text __ZN3icu13UnicodeString7toTitleEPNS_13BreakIteratorERKNS_6LocaleEj
|| __TEXT.__text __ZN3icu13UnicodeString7toUpperERKNS_6LocaleE
|| __TEXT.__text __ZN3icu13UnicodeString7toUpperEv
|| __TEXT.__text __ZN3icu13UnicodeString7unBogusEv
|| __TEXT.__text __ZN3icu13UnicodeString8allocateEi
|| __TEXT.__text __ZN3icu13UnicodeString8copyFromERKS0_a
|| __TEXT.__text __ZN3icu13UnicodeString8doAppendEPKDsii
|| __TEXT.__text __ZN3icu13UnicodeString8doAppendERKS0_ii
|| __TEXT.__text __ZN3icu13UnicodeString8foldCaseEj
|| __TEXT.__text __ZN3icu13UnicodeString8fromUTF8ENS_11StringPieceE
|| __TEXT.__text __ZN3icu13UnicodeString9doReplaceEiiPKDsii
|| __TEXT.__text __ZN3icu13UnicodeString9doReplaceEiiRKS0_ii
|| __TEXT.__text __ZN3icu13UnicodeString9doReverseEii
|| __TEXT.__text __ZN3icu13UnicodeString9fromUTF32EPKii
|| __TEXT.__text __ZN3icu13UnicodeString9getBufferEi
|| __TEXT.__text __ZN3icu13UnicodeString9removeRefEv
|| __TEXT.__text __ZN3icu13UnicodeString9setCharAtEiDs
|| __TEXT.__text __ZN3icu13UnicodeString9setToUTF8ENS_11StringPieceE
|| __TEXT.__text __ZN3icu13UnicodeStringC1EDs
|| __TEXT.__text __ZN3icu13UnicodeStringC1EOS0_
|| __TEXT.__text __ZN3icu13UnicodeStringC1EPDsii
|| __TEXT.__text __ZN3icu13UnicodeStringC1EPKDs
|| __TEXT.__text __ZN3icu13UnicodeStringC1EPKDsi
|| __TEXT.__text __ZN3icu13UnicodeStringC1EPKc
|| __TEXT.__text __ZN3icu13UnicodeStringC1EPKcS2_
|| __TEXT.__text __ZN3icu13UnicodeStringC1EPKci
|| __TEXT.__text __ZN3icu13UnicodeStringC1EPKciNS0_10EInvariantE
|| __TEXT.__text __ZN3icu13UnicodeStringC1EPKciP10UConverterR10UErrorCode
|| __TEXT.__text __ZN3icu13UnicodeStringC1EPKciS2_
|| __TEXT.__text __ZN3icu13UnicodeStringC1ERKS0_
|| __TEXT.__text __ZN3icu13UnicodeStringC1ERKS0_i
|| __TEXT.__text __ZN3icu13UnicodeStringC1ERKS0_ii
|| __TEXT.__text __ZN3icu13UnicodeStringC1EaNS_14ConstChar16PtrEi
|| __TEXT.__text __ZN3icu13UnicodeStringC1Ei
|| __TEXT.__text __ZN3icu13UnicodeStringC1Eiii
|| __TEXT.__text __ZN3icu13UnicodeStringC2EDs
|| __TEXT.__text __ZN3icu13UnicodeStringC2EOS0_
|| __TEXT.__text __ZN3icu13UnicodeStringC2EPDsii
|| __TEXT.__text __ZN3icu13UnicodeStringC2EPKDs
|| __TEXT.__text __ZN3icu13UnicodeStringC2EPKDsi
|| __TEXT.__text __ZN3icu13UnicodeStringC2EPKc
|| __TEXT.__text __ZN3icu13UnicodeStringC2EPKcS2_
|| __TEXT.__text __ZN3icu13UnicodeStringC2EPKci
|| __TEXT.__text __ZN3icu13UnicodeStringC2EPKciNS0_10EInvariantE
|| __TEXT.__text __ZN3icu13UnicodeStringC2EPKciP10UConverterR10UErrorCode
|| __TEXT.__text __ZN3icu13UnicodeStringC2EPKciS2_
|| __TEXT.__text __ZN3icu13UnicodeStringC2ERKS0_
|| __TEXT.__text __ZN3icu13UnicodeStringC2ERKS0_i
|| __TEXT.__text __ZN3icu13UnicodeStringC2ERKS0_ii
|| __TEXT.__text __ZN3icu13UnicodeStringC2EaNS_14ConstChar16PtrEi
|| __TEXT.__text __ZN3icu13UnicodeStringC2Ei
|| __TEXT.__text __ZN3icu13UnicodeStringC2Eiii
|| __TEXT.__text __ZN3icu13UnicodeStringD0Ev
|| __TEXT.__text __ZN3icu13UnicodeStringD1Ev
|| __TEXT.__text __ZN3icu13UnicodeStringD2Ev
|| __TEXT.__text __ZN3icu13UnicodeStringaSEOS0_
|| __TEXT.__text __ZN3icu13UnicodeStringaSERKS0_
|| __TEXT.__text __ZN3icu14CopticCalendar16getStaticClassIDEv
|| __TEXT.__text __ZN3icu14CurrencyAmount16getStaticClassIDEv
|| __TEXT.__text __ZN3icu14CurrencyAmountC1ERKNS_11FormattableENS_14ConstChar16PtrER10UErrorCode
|| __TEXT.__text __ZN3icu14CurrencyAmountC1ERKS0_
|| __TEXT.__text __ZN3icu14CurrencyAmountC1EdNS_14ConstChar16PtrER10UErrorCode
|| __TEXT.__text __ZN3icu14CurrencyAmountC2ERKNS_11FormattableENS_14ConstChar16PtrER10UErrorCode
|| __TEXT.__text __ZN3icu14CurrencyAmountC2ERKS0_
|| __TEXT.__text __ZN3icu14CurrencyAmountC2EdNS_14ConstChar16PtrER10UErrorCode
|| __TEXT.__text __ZN3icu14CurrencyAmountD0Ev
|| __TEXT.__text __ZN3icu14CurrencyAmountD1Ev
|| __TEXT.__text __ZN3icu14CurrencyAmountD2Ev
|| __TEXT.__text __ZN3icu14CurrencyAmountaSERKS0_
|| __TEXT.__text __ZN3icu14FormattedValueD0Ev
|| __TEXT.__text __ZN3icu14FormattedValueD1Ev
|| __TEXT.__text __ZN3icu14FormattedValueD2Ev
|| __TEXT.__text __ZN3icu14HebrewCalendar10isLeapYearEi
|| __TEXT.__text __ZN3icu14HebrewCalendar11startOfYearEiR10UErrorCode
|| __TEXT.__text __ZN3icu14HebrewCalendar12monthsInYearEi
|| __TEXT.__text __ZN3icu14HebrewCalendar13validateFieldE19UCalendarDateFieldsR10UErrorCode
|| __TEXT.__text __ZN3icu14HebrewCalendar16getStaticClassIDEv
|| __TEXT.__text __ZN3icu14HebrewCalendar19handleComputeFieldsEiR10UErrorCode
|| __TEXT.__text __ZN3icu14HebrewCalendar21handleGetExtendedYearEv
|| __TEXT.__text __ZN3icu14HebrewCalendar22absoluteDayToDayOfWeekEi
|| __TEXT.__text __ZN3icu14HebrewCalendar3addE19UCalendarDateFieldsiR10UErrorCode
|| __TEXT.__text __ZN3icu14HebrewCalendar3addENS_8Calendar11EDateFieldsEiR10UErrorCode
|| __TEXT.__text __ZN3icu14HebrewCalendar4rollE19UCalendarDateFieldsiR10UErrorCode
|| __TEXT.__text __ZN3icu14HebrewCalendar4rollENS_8Calendar11EDateFieldsEiR10UErrorCode
|| __TEXT.__text __ZN3icu14HebrewCalendarC1ERKNS_6LocaleER10UErrorCode
|| __TEXT.__text __ZN3icu14HebrewCalendarC1ERKS0_
|| __TEXT.__text __ZN3icu14HebrewCalendarC2ERKNS_6LocaleER10UErrorCode
|| __TEXT.__text __ZN3icu14HebrewCalendarC2ERKS0_
|| __TEXT.__text __ZN3icu14HebrewCalendarD0Ev
|| __TEXT.__text __ZN3icu14HebrewCalendarD1Ev
|| __TEXT.__text __ZN3icu14HebrewCalendarD2Ev
|| __TEXT.__text __ZN3icu14IndianCalendar16getStaticClassIDEv
|| __TEXT.__text __ZN3icu14IndianCalendar19handleComputeFieldsEiR10UErrorCode
|| __TEXT.__text __ZN3icu14IndianCalendar21handleGetExtendedYearEv
|| __TEXT.__text __ZN3icu14IndianCalendarC1ERKNS_6LocaleER10UErrorCode
|| __TEXT.__text __ZN3icu14IndianCalendarC1ERKS0_
|| __TEXT.__text __ZN3icu14IndianCalendarC2ERKNS_6LocaleER10UErrorCode
|| __TEXT.__text __ZN3icu14IndianCalendarC2ERKS0_
|| __TEXT.__text __ZN3icu14IndianCalendarD0Ev
|| __TEXT.__text __ZN3icu14IndianCalendarD1Ev
|| __TEXT.__text __ZN3icu14IndianCalendarD2Ev
|| __TEXT.__text __ZN3icu14MessagePattern10skipDoubleEi
|| __TEXT.__text __ZN3icu14MessagePattern11copyStorageERKS0_R10UErrorCode
|| __TEXT.__text __ZN3icu14MessagePattern11parseDoubleEiiaP11UParseErrorR10UErrorCode
|| __TEXT.__text __ZN3icu14MessagePattern12addLimitPartEi23UMessagePatternPartTypeiiiR10UErrorCode
|| __TEXT.__text __ZN3icu14MessagePattern12parseMessageEiii22UMessagePatternArgTypeP11UParseErrorR10UErrorCode
|| __TEXT.__text __ZN3icu14MessagePattern13isArgTypeCharEi
|| __TEXT.__text __ZN3icu14MessagePattern13setParseErrorEP11UParseErrori
|| __TEXT.__text __ZN3icu14MessagePattern14parseArgNumberERKNS_13UnicodeStringEii
|| __TEXT.__text __ZN3icu14MessagePattern14skipIdentifierEi
|| __TEXT.__text __ZN3icu14MessagePattern14skipWhiteSpaceEi
|| __TEXT.__text __ZN3icu14MessagePattern16addArgDoublePartEdiiR10UErrorCode
|| __TEXT.__text __ZN3icu14MessagePattern16parseChoiceStyleERKNS_13UnicodeStringEP11UParseErrorR10UErrorCode
|| __TEXT.__text __ZN3icu14MessagePattern16parseChoiceStyleEiiP11UParseErrorR10UErrorCode
|| __TEXT.__text __ZN3icu14MessagePattern16parsePluralStyleERKNS_13UnicodeStringEP11UParseErrorR10UErrorCode
|| __TEXT.__text __ZN3icu14MessagePattern16parseSelectStyleERKNS_13UnicodeStringEP11UParseErrorR10UErrorCode
|| __TEXT.__text __ZN3icu14MessagePattern16parseSimpleStyleEiP11UParseErrorR10UErrorCode
|| __TEXT.__text __ZN3icu14MessagePattern20validateArgumentNameERKNS_13UnicodeStringE
|| __TEXT.__text __ZN3icu14MessagePattern22inMessageFormatPatternEi
|| __TEXT.__text __ZN3icu14MessagePattern23inTopLevelChoiceMessageEi22UMessagePatternArgType
|| __TEXT.__text __ZN3icu14MessagePattern24parsePluralOrSelectStyleE22UMessagePatternArgTypeiiP11UParseErrorR10UErrorCode
|| __TEXT.__text __ZN3icu14MessagePattern4initER10UErrorCode
|| __TEXT.__text __ZN3icu14MessagePattern5clearEv
|| __TEXT.__text __ZN3icu14MessagePattern5parseERKNS_13UnicodeStringEP11UParseErrorR10UErrorCode
|| __TEXT.__text __ZN3icu14MessagePattern7addPartE23UMessagePatternPartTypeiiiR10UErrorCode
|| __TEXT.__text __ZN3icu14MessagePattern8isChoiceEi
|| __TEXT.__text __ZN3icu14MessagePattern8isPluralEi
|| __TEXT.__text __ZN3icu14MessagePattern8isSelectEi
|| __TEXT.__text __ZN3icu14MessagePattern8parseArgEiiiP11UParseErrorR10UErrorCode
|| __TEXT.__text __ZN3icu14MessagePattern8preParseERKNS_13UnicodeStringEP11UParseErrorR10UErrorCode
|| __TEXT.__text __ZN3icu14MessagePattern9isOrdinalEi
|| __TEXT.__text __ZN3icu14MessagePattern9postParseEv
|| __TEXT.__text __ZN3icu14MessagePatternC1E29UMessagePatternApostropheModeR10UErrorCode
|| __TEXT.__text __ZN3icu14MessagePatternC1ER10UErrorCode
|| __TEXT.__text __ZN3icu14MessagePatternC1ERKNS_13UnicodeStringEP11UParseErrorR10UErrorCode
|| __TEXT.__text __ZN3icu14MessagePatternC1ERKS0_
|| __TEXT.__text __ZN3icu14MessagePatternC2E29UMessagePatternApostropheModeR10UErrorCode
|| __TEXT.__text __ZN3icu14MessagePatternC2ER10UErrorCode
|| __TEXT.__text __ZN3icu14MessagePatternC2ERKNS_13UnicodeStringEP11UParseErrorR10UErrorCode
|| __TEXT.__text __ZN3icu14MessagePatternC2ERKS0_
|| __TEXT.__text __ZN3icu14MessagePatternD0Ev
|| __TEXT.__text __ZN3icu14MessagePatternD1Ev
|| __TEXT.__text __ZN3icu14MessagePatternD2Ev
|| __TEXT.__text __ZN3icu14MessagePatternaSERKS0_
|| __TEXT.__text __ZN3icu14ResourceBundle13getNextStringEPPKcR10UErrorCode
|| __TEXT.__text __ZN3icu14ResourceBundle13getNextStringER10UErrorCode
|| __TEXT.__text __ZN3icu14ResourceBundle13resetIteratorEv
|| __TEXT.__text __ZN3icu14ResourceBundle15getWithFallbackEPKcR10UErrorCode
|| __TEXT.__text __ZN3icu14ResourceBundle16getStaticClassIDEv
|| __TEXT.__text __ZN3icu14ResourceBundle18constructForLocaleERKNS_13UnicodeStringERKNS_6LocaleER10UErrorCode
|| __TEXT.__text __ZN3icu14ResourceBundle7getNextER10UErrorCode
|| __TEXT.__text __ZN3icu14ResourceBundleC1EP15UResourceBundleR10UErrorCode
|| __TEXT.__text __ZN3icu14ResourceBundleC1EPKcRKNS_6LocaleER10UErrorCode
|| __TEXT.__text __ZN3icu14ResourceBundleC1ER10UErrorCode
|| __TEXT.__text __ZN3icu14ResourceBundleC1ERKNS_13UnicodeStringER10UErrorCode
|| __TEXT.__text __ZN3icu14ResourceBundleC1ERKNS_13UnicodeStringERKNS_6LocaleER10UErrorCode
|| __TEXT.__text __ZN3icu14ResourceBundleC1ERKS0_
|| __TEXT.__text __ZN3icu14ResourceBundleC2EP15UResourceBundleR10UErrorCode
|| __TEXT.__text __ZN3icu14ResourceBundleC2EPKcRKNS_6LocaleER10UErrorCode
|| __TEXT.__text __ZN3icu14ResourceBundleC2ER10UErrorCode
|| __TEXT.__text __ZN3icu14ResourceBundleC2ERKNS_13UnicodeStringER10UErrorCode
|| __TEXT.__text __ZN3icu14ResourceBundleC2ERKNS_13UnicodeStringERKNS_6LocaleER10UErrorCode
|| __TEXT.__text __ZN3icu14ResourceBundleC2ERKS0_
|| __TEXT.__text __ZN3icu14ResourceBundleD0Ev
|| __TEXT.__text __ZN3icu14ResourceBundleD1Ev
|| __TEXT.__text __ZN3icu14ResourceBundleD2Ev
|| __TEXT.__text __ZN3icu14ResourceBundleaSERKS0_
|| __TEXT.__text __ZN3icu14SearchIterator12setAttributeE16USearchAttribute21USearchAttributeValueR10UErrorCode
|| __TEXT.__text __ZN3icu14SearchIterator13setMatchStartEi
|| __TEXT.__text __ZN3icu14SearchIterator14setMatchLengthEi
|| __TEXT.__text __ZN3icu14SearchIterator16setBreakIteratorEPNS_13BreakIteratorER10UErrorCode
|| __TEXT.__text __ZN3icu14SearchIterator16setMatchNotFoundEv
|| __TEXT.__text __ZN3icu14SearchIterator4lastER10UErrorCode
|| __TEXT.__text __ZN3icu14SearchIterator4nextER10UErrorCode
|| __TEXT.__text __ZN3icu14SearchIterator5firstER10UErrorCode
|| __TEXT.__text __ZN3icu14SearchIterator5resetEv
|| __TEXT.__text __ZN3icu14SearchIterator7setTextERKNS_13UnicodeStringER10UErrorCode
|| __TEXT.__text __ZN3icu14SearchIterator7setTextERNS_17CharacterIteratorER10UErrorCode
|| __TEXT.__text __ZN3icu14SearchIterator8previousER10UErrorCode
|| __TEXT.__text __ZN3icu14SearchIterator9followingEiR10UErrorCode
|| __TEXT.__text __ZN3icu14SearchIterator9precedingEiR10UErrorCode
|| __TEXT.__text __ZN3icu14SearchIteratorC2ERKNS_13UnicodeStringEPNS_13BreakIteratorE
|| __TEXT.__text __ZN3icu14SearchIteratorC2ERKS0_
|| __TEXT.__text __ZN3icu14SearchIteratorC2ERNS_17CharacterIteratorEPNS_13BreakIteratorE
|| __TEXT.__text __ZN3icu14SearchIteratorC2Ev
|| __TEXT.__text __ZN3icu14SearchIteratorD0Ev
|| __TEXT.__text __ZN3icu14SearchIteratorD1Ev
|| __TEXT.__text __ZN3icu14SearchIteratorD2Ev
|| __TEXT.__text __ZN3icu14SearchIteratoraSERKS0_
|| __TEXT.__text __ZN3icu14SharedCalendarD0Ev
|| __TEXT.__text __ZN3icu14SharedCalendarD1Ev
|| __TEXT.__text __ZN3icu14SharedCalendarD2Ev
|| __TEXT.__text __ZN3icu14SimpleTimeZone10setEndRuleEiiiNS0_8TimeModeER10UErrorCode
|| __TEXT.__text __ZN3icu14SimpleTimeZone10setEndRuleEiiiiNS0_8TimeModeER10UErrorCode
|| __TEXT.__text __ZN3icu14SimpleTimeZone10setEndRuleEiiiiNS0_8TimeModeEaR10UErrorCode
|| __TEXT.__text __ZN3icu14SimpleTimeZone11decodeRulesER10UErrorCode
|| __TEXT.__text __ZN3icu14SimpleTimeZone12setRawOffsetEi
|| __TEXT.__text __ZN3icu14SimpleTimeZone12setStartRuleEiiiNS0_8TimeModeER10UErrorCode
|| __TEXT.__text __ZN3icu14SimpleTimeZone12setStartRuleEiiiiNS0_8TimeModeER10UErrorCode
|| __TEXT.__text __ZN3icu14SimpleTimeZone12setStartRuleEiiiiNS0_8TimeModeEaR10UErrorCode
|| __TEXT.__text __ZN3icu14SimpleTimeZone12setStartYearEi
|| __TEXT.__text __ZN3icu14SimpleTimeZone13compareToRuleEaaaaaiiNS0_5EModeEaaai
|| __TEXT.__text __ZN3icu14SimpleTimeZone13decodeEndRuleER10UErrorCode
|| __TEXT.__text __ZN3icu14SimpleTimeZone13setDSTSavingsEiR10UErrorCode
|| __TEXT.__text __ZN3icu14SimpleTimeZone15decodeStartRuleER10UErrorCode
|| __TEXT.__text __ZN3icu14SimpleTimeZone16getStaticClassIDEv
|| __TEXT.__text __ZN3icu14SimpleTimeZone19initTransitionRulesER10UErrorCode
|| __TEXT.__text __ZN3icu14SimpleTimeZone20clearTransitionRulesEv
|| __TEXT.__text __ZN3icu14SimpleTimeZone21deleteTransitionRulesEv
|| __TEXT.__text __ZN3icu14SimpleTimeZone9constructEiaaaiNS0_8TimeModeEaaaiS1_iR10UErrorCode
|| __TEXT.__text __ZN3icu14SimpleTimeZoneC1ERKS0_
|| __TEXT.__text __ZN3icu14SimpleTimeZoneC1EiRKNS_13UnicodeStringE
|| __TEXT.__text __ZN3icu14SimpleTimeZoneC1EiRKNS_13UnicodeStringEaaaiNS0_8TimeModeEaaaiS4_iR10UErrorCode
|| __TEXT.__text __ZN3icu14SimpleTimeZoneC1EiRKNS_13UnicodeStringEaaaiaaaiR10UErrorCode
|| __TEXT.__text __ZN3icu14SimpleTimeZoneC1EiRKNS_13UnicodeStringEaaaiaaaiiR10UErrorCode
|| __TEXT.__text __ZN3icu14SimpleTimeZoneC2ERKS0_
|| __TEXT.__text __ZN3icu14SimpleTimeZoneC2EiRKNS_13UnicodeStringE
|| __TEXT.__text __ZN3icu14SimpleTimeZoneC2EiRKNS_13UnicodeStringEaaaiNS0_8TimeModeEaaaiS4_iR10UErrorCode
|| __TEXT.__text __ZN3icu14SimpleTimeZoneC2EiRKNS_13UnicodeStringEaaaiaaaiR10UErrorCode
|| __TEXT.__text __ZN3icu14SimpleTimeZoneC2EiRKNS_13UnicodeStringEaaaiaaaiiR10UErrorCode
|| __TEXT.__text __ZN3icu14SimpleTimeZoneD0Ev
|| __TEXT.__text __ZN3icu14SimpleTimeZoneD1Ev
|| __TEXT.__text __ZN3icu14SimpleTimeZoneD2Ev
|| __TEXT.__text __ZN3icu14SimpleTimeZoneaSERKS0_
|| __TEXT.__text __ZN3icu14StandardPlural10getKeywordENS0_4FormE
|| __TEXT.__text __ZN3icu14StandardPlural15indexFromStringEPKcR10UErrorCode
|| __TEXT.__text __ZN3icu14StandardPlural15indexFromStringERKNS_13UnicodeStringER10UErrorCode
|| __TEXT.__text __ZN3icu14StandardPlural25indexOrNegativeFromStringEPKc
|| __TEXT.__text __ZN3icu14StandardPlural25indexOrNegativeFromStringERKNS_13UnicodeStringE
|| __TEXT.__text __ZN3icu14TaiwanCalendar16getStaticClassIDEv
|| __TEXT.__text __ZN3icu14TimeUnitAmount16getStaticClassIDEv
|| __TEXT.__text __ZN3icu14TimeUnitAmountC1ERKNS_11FormattableENS_8TimeUnit15UTimeUnitFieldsER10UErrorCode
|| __TEXT.__text __ZN3icu14TimeUnitAmountC1ERKS0_
|| __TEXT.__text __ZN3icu14TimeUnitAmountC1EdNS_8TimeUnit15UTimeUnitFieldsER10UErrorCode
|| __TEXT.__text __ZN3icu14TimeUnitAmountC2ERKNS_11FormattableENS_8TimeUnit15UTimeUnitFieldsER10UErrorCode
|| __TEXT.__text __ZN3icu14TimeUnitAmountC2ERKS0_
|| __TEXT.__text __ZN3icu14TimeUnitAmountC2EdNS_8TimeUnit15UTimeUnitFieldsER10UErrorCode
|| __TEXT.__text __ZN3icu14TimeUnitAmountD0Ev
|| __TEXT.__text __ZN3icu14TimeUnitAmountD1Ev
|| __TEXT.__text __ZN3icu14TimeUnitAmountD2Ev
|| __TEXT.__text __ZN3icu14TimeUnitAmountaSERKS0_
|| __TEXT.__text __ZN3icu14TimeUnitFormat10deleteHashEPNS_9HashtableE
|| __TEXT.__text __ZN3icu14TimeUnitFormat15getTimeUnitNameENS_8TimeUnit15UTimeUnitFieldsER10UErrorCode
|| __TEXT.__text __ZN3icu14TimeUnitFormat15initDataMembersER10UErrorCode
|| __TEXT.__text __ZN3icu14TimeUnitFormat15setNumberFormatERKNS_12NumberFormatER10UErrorCode
|| __TEXT.__text __ZN3icu14TimeUnitFormat16checkConsistencyE20UTimeUnitFormatStylePKcR10UErrorCode
|| __TEXT.__text __ZN3icu14TimeUnitFormat16getStaticClassIDEv
|| __TEXT.__text __ZN3icu14TimeUnitFormat19searchInLocaleChainE20UTimeUnitFormatStylePKcS3_NS_8TimeUnit15UTimeUnitFieldsERKNS_13UnicodeStringES3_PNS_9HashtableER10UErrorCode
|| __TEXT.__text __ZN3icu14TimeUnitFormat21readFromCurrentLocaleE20UTimeUnitFormatStylePKcRKNS_7UVectorER10UErrorCode
|| __TEXT.__text __ZN3icu14TimeUnitFormat5setupER10UErrorCode
|| __TEXT.__text __ZN3icu14TimeUnitFormat6createE20UTimeUnitFormatStyleR10UErrorCode
|| __TEXT.__text __ZN3icu14TimeUnitFormat8copyHashEPKNS_9HashtableEPS1_R10UErrorCode
|| __TEXT.__text __ZN3icu14TimeUnitFormat8initHashER10UErrorCode
|| __TEXT.__text __ZN3icu14TimeUnitFormat9setLocaleERKNS_6LocaleER10UErrorCode
|| __TEXT.__text __ZN3icu14TimeUnitFormatC1ER10UErrorCode
|| __TEXT.__text __ZN3icu14TimeUnitFormatC1ERKNS_6LocaleE20UTimeUnitFormatStyleR10UErrorCode
|| __TEXT.__text __ZN3icu14TimeUnitFormatC1ERKNS_6LocaleER10UErrorCode
|| __TEXT.__text __ZN3icu14TimeUnitFormatC1ERKS0_
|| __TEXT.__text __ZN3icu14TimeUnitFormatC2ER10UErrorCode
|| __TEXT.__text __ZN3icu14TimeUnitFormatC2ERKNS_6LocaleE20UTimeUnitFormatStyleR10UErrorCode
|| __TEXT.__text __ZN3icu14TimeUnitFormatC2ERKNS_6LocaleER10UErrorCode
|| __TEXT.__text __ZN3icu14TimeUnitFormatC2ERKS0_
|| __TEXT.__text __ZN3icu14TimeUnitFormatD0Ev
|| __TEXT.__text __ZN3icu14TimeUnitFormatD1Ev
|| __TEXT.__text __ZN3icu14TimeUnitFormatD2Ev
|| __TEXT.__text __ZN3icu14TimeUnitFormataSERKS0_
|| __TEXT.__text __ZN3icu14TimeZoneFormat11getTimeTypeE17UTimeZoneNameType
|| __TEXT.__text __ZN3icu14TimeZoneFormat12toCodePointsERKNS_13UnicodeStringEPii
|| __TEXT.__text __ZN3icu14TimeZoneFormat13setGMTPatternERKNS_13UnicodeStringER10UErrorCode
|| __TEXT.__text __ZN3icu14TimeZoneFormat14createInstanceERKNS_6LocaleER10UErrorCode
|| __TEXT.__text __ZN3icu14TimeZoneFormat14initGMTPatternERKNS_13UnicodeStringER10UErrorCode
|| __TEXT.__text __ZN3icu14TimeZoneFormat16getStaticClassIDEv
|| __TEXT.__text __ZN3icu14TimeZoneFormat16setGMTZeroFormatERKNS_13UnicodeStringER10UErrorCode
|| __TEXT.__text __ZN3icu14TimeZoneFormat16setTimeZoneNamesERKNS_13TimeZoneNamesE
|| __TEXT.__text __ZN3icu14TimeZoneFormat18adoptTimeZoneNamesEPNS_13TimeZoneNamesE
|| __TEXT.__text __ZN3icu14TimeZoneFormat18parseOffsetPatternERKNS_13UnicodeStringENS0_12OffsetFieldsER10UErrorCode
|| __TEXT.__text __ZN3icu14TimeZoneFormat18setGMTOffsetDigitsERKNS_13UnicodeStringER10UErrorCode
|| __TEXT.__text __ZN3icu14TimeZoneFormat19expandOffsetPatternERKNS_13UnicodeStringERS1_R10UErrorCode
|| __TEXT.__text __ZN3icu14TimeZoneFormat19setGMTOffsetPatternE35UTimeZoneFormatGMTOffsetPatternTypeRKNS_13UnicodeStringER10UErrorCode
|| __TEXT.__text __ZN3icu14TimeZoneFormat21initGMTOffsetPatternsER10UErrorCode
|| __TEXT.__text __ZN3icu14TimeZoneFormat21truncateOffsetPatternERKNS_13UnicodeStringERS1_R10UErrorCode
|| __TEXT.__text __ZN3icu14TimeZoneFormat22parseAsciiOffsetFieldsERKNS_13UnicodeStringERNS_13ParsePositionEDsNS0_12OffsetFieldsES6_
|| __TEXT.__text __ZN3icu14TimeZoneFormat22setDefaultParseOptionsEj
|| __TEXT.__text __ZN3icu14TimeZoneFormat27formatOffsetWithAsciiDigitsEiDsNS0_12OffsetFieldsES1_RNS_13UnicodeStringE
|| __TEXT.__text __ZN3icu14TimeZoneFormat28checkAbuttingHoursAndMinutesEv
|| __TEXT.__text __ZN3icu14TimeZoneFormat30parseAbuttingAsciiOffsetFieldsERKNS_13UnicodeStringERNS_13ParsePositionENS0_12OffsetFieldsES6_a
|| __TEXT.__text __ZN3icu14TimeZoneFormat7unquoteERKNS_13UnicodeStringERS1_
|| __TEXT.__text __ZN3icu14TimeZoneFormatC1ERKNS_6LocaleER10UErrorCode
|| __TEXT.__text __ZN3icu14TimeZoneFormatC1ERKS0_
|| __TEXT.__text __ZN3icu14TimeZoneFormatC2ERKNS_6LocaleER10UErrorCode
|| __TEXT.__text __ZN3icu14TimeZoneFormatC2ERKS0_
|| __TEXT.__text __ZN3icu14TimeZoneFormatD0Ev
|| __TEXT.__text __ZN3icu14TimeZoneFormatD1Ev
|| __TEXT.__text __ZN3icu14TimeZoneFormatD2Ev
|| __TEXT.__text __ZN3icu14TimeZoneFormataSERKS0_
|| __TEXT.__text __ZN3icu14Transliterator10unregisterERKNS_13UnicodeStringE
|| __TEXT.__text __ZN3icu14Transliterator11adoptFilterEPNS_13UnicodeFilterE
|| __TEXT.__text __ZN3icu14Transliterator12orphanFilterEv
|| __TEXT.__text __ZN3icu14Transliterator13registerAliasERKNS_13UnicodeStringES3_
|| __TEXT.__text __ZN3icu14Transliterator14_registerAliasERKNS_13UnicodeStringES3_
|| __TEXT.__text __ZN3icu14Transliterator14createInstanceERKNS_13UnicodeStringE15UTransDirectionR10UErrorCode
|| __TEXT.__text __ZN3icu14Transliterator14createInstanceERKNS_13UnicodeStringE15UTransDirectionR11UParseErrorR10UErrorCode
|| __TEXT.__text __ZN3icu14Transliterator14getAvailableIDEi
|| __TEXT.__text __ZN3icu14Transliterator14getDisplayNameERKNS_13UnicodeStringERKNS_6LocaleERS1_
|| __TEXT.__text __ZN3icu14Transliterator14getDisplayNameERKNS_13UnicodeStringERS1_
|| __TEXT.__text __ZN3icu14Transliterator15createFromRulesERKNS_13UnicodeStringES3_15UTransDirectionR11UParseErrorR10UErrorCode
|| __TEXT.__text __ZN3icu14Transliterator15getAvailableIDsER10UErrorCode
|| __TEXT.__text __ZN3icu14Transliterator15registerFactoryERKNS_13UnicodeStringEPFPS0_S3_NS0_5TokenEES5_
|| __TEXT.__text __ZN3icu14Transliterator16_registerFactoryERKNS_13UnicodeStringEPFPS0_S3_NS0_5TokenEES5_
|| __TEXT.__text __ZN3icu14Transliterator16getStaticClassIDEv
|| __TEXT.__text __ZN3icu14Transliterator16registerInstanceEPS0_
|| __TEXT.__text __ZN3icu14Transliterator17_registerInstanceEPS0_
|| __TEXT.__text __ZN3icu14Transliterator17countAvailableIDsEv
|| __TEXT.__text __ZN3icu14Transliterator18getAvailableSourceEiRNS_13UnicodeStringE
|| __TEXT.__text __ZN3icu14Transliterator18getAvailableTargetEiRKNS_13UnicodeStringERS1_
|| __TEXT.__text __ZN3icu14Transliterator18initializeRegistryER10UErrorCode
|| __TEXT.__text __ZN3icu14Transliterator19_getAvailableSourceEiRNS_13UnicodeStringE
|| __TEXT.__text __ZN3icu14Transliterator19_getAvailableTargetEiRKNS_13UnicodeStringERS1_
|| __TEXT.__text __ZN3icu14Transliterator19createBasicInstanceERKNS_13UnicodeStringEPS2_
|| __TEXT.__text __ZN3icu14Transliterator19getAvailableVariantEiRKNS_13UnicodeStringES3_RS1_
|| __TEXT.__text __ZN3icu14Transliterator20_getAvailableVariantEiRKNS_13UnicodeStringES3_RS1_
|| __TEXT.__text __ZN3icu14Transliterator21countAvailableSourcesEv
|| __TEXT.__text __ZN3icu14Transliterator21countAvailableTargetsERKNS_13UnicodeStringE
|| __TEXT.__text __ZN3icu14Transliterator22_countAvailableSourcesEv
|| __TEXT.__text __ZN3icu14Transliterator22_countAvailableTargetsERKNS_13UnicodeStringE
|| __TEXT.__text __ZN3icu14Transliterator22countAvailableVariantsERKNS_13UnicodeStringES3_
|| __TEXT.__text __ZN3icu14Transliterator23_countAvailableVariantsERKNS_13UnicodeStringES3_
|| __TEXT.__text __ZN3icu14Transliterator23_registerSpecialInverseERKNS_13UnicodeStringES3_a
|| __TEXT.__text __ZN3icu14Transliterator23setMaximumContextLengthEi
|| __TEXT.__text __ZN3icu14TransliteratorC2ERKNS_13UnicodeStringEPNS_13UnicodeFilterE
|| __TEXT.__text __ZN3icu14TransliteratorC2ERKS0_
|| __TEXT.__text __ZN3icu14TransliteratorD0Ev
|| __TEXT.__text __ZN3icu14TransliteratorD1Ev
|| __TEXT.__text __ZN3icu14TransliteratorD2Ev
|| __TEXT.__text __ZN3icu14TransliteratoraSERKS0_
|| __TEXT.__text __ZN3icu14UnicodeFunctor16getStaticClassIDEv
|| __TEXT.__text __ZN3icu14UnicodeFunctorD0Ev
|| __TEXT.__text __ZN3icu14UnicodeFunctorD1Ev
|| __TEXT.__text __ZN3icu14UnicodeFunctorD2Ev
|| __TEXT.__text __ZN3icu14UnicodeMatcherD0Ev
|| __TEXT.__text __ZN3icu14UnicodeMatcherD1Ev
|| __TEXT.__text __ZN3icu14UnicodeMatcherD2Ev
|| __TEXT.__text __ZN3icu15AlphabeticIndex10nextBucketER10UErrorCode
|| __TEXT.__text __ZN3icu15AlphabeticIndex10nextRecordER10UErrorCode
|| __TEXT.__text __ZN3icu15AlphabeticIndex11initBucketsER10UErrorCode
|| __TEXT.__text __ZN3icu15AlphabeticIndex12clearBucketsEv
|| __TEXT.__text __ZN3icu15AlphabeticIndex12clearRecordsER10UErrorCode
|| __TEXT.__text __ZN3icu15AlphabeticIndex14ImmutableIndexD0Ev
|| __TEXT.__text __ZN3icu15AlphabeticIndex14ImmutableIndexD1Ev
|| __TEXT.__text __ZN3icu15AlphabeticIndex14ImmutableIndexD2Ev
|| __TEXT.__text __ZN3icu15AlphabeticIndex14getBucketCountER10UErrorCode
|| __TEXT.__text __ZN3icu15AlphabeticIndex14getBucketIndexERKNS_13UnicodeStringER10UErrorCode
|| __TEXT.__text __ZN3icu15AlphabeticIndex14getRecordCountER10UErrorCode
|| __TEXT.__text __ZN3icu15AlphabeticIndex14setInflowLabelERKNS_13UnicodeStringER10UErrorCode
|| __TEXT.__text __ZN3icu15AlphabeticIndex16setMaxLabelCountEiR10UErrorCode
|| __TEXT.__text __ZN3icu15AlphabeticIndex16setOverflowLabelERKNS_13UnicodeStringER10UErrorCode
|| __TEXT.__text __ZN3icu15AlphabeticIndex17addIndexExemplarsERKNS_6LocaleER10UErrorCode
|| __TEXT.__text __ZN3icu15AlphabeticIndex17setUnderflowLabelERKNS_13UnicodeStringER10UErrorCode
|| __TEXT.__text __ZN3icu15AlphabeticIndex19buildImmutableIndexER10UErrorCode
|| __TEXT.__text __ZN3icu15AlphabeticIndex19resetBucketIteratorER10UErrorCode
|| __TEXT.__text __ZN3icu15AlphabeticIndex19resetRecordIteratorEv
|| __TEXT.__text __ZN3icu15AlphabeticIndex20firstStringsInScriptER10UErrorCode
|| __TEXT.__text __ZN3icu15AlphabeticIndex25addChineseIndexCharactersER10UErrorCode
|| __TEXT.__text __ZN3icu15AlphabeticIndex27internalResetBucketIteratorEv
|| __TEXT.__text __ZN3icu15AlphabeticIndex4initEPKNS_6LocaleER10UErrorCode
|| __TEXT.__text __ZN3icu15AlphabeticIndex6BucketC1ERKNS_13UnicodeStringES4_25UAlphabeticIndexLabelType
|| __TEXT.__text __ZN3icu15AlphabeticIndex6BucketC2ERKNS_13UnicodeStringES4_25UAlphabeticIndexLabelType
|| __TEXT.__text __ZN3icu15AlphabeticIndex6BucketD0Ev
|| __TEXT.__text __ZN3icu15AlphabeticIndex6BucketD1Ev
|| __TEXT.__text __ZN3icu15AlphabeticIndex6BucketD2Ev
|| __TEXT.__text __ZN3icu15AlphabeticIndex6RecordC1ERKNS_13UnicodeStringEPKv
|| __TEXT.__text __ZN3icu15AlphabeticIndex6RecordC2ERKNS_13UnicodeStringEPKv
|| __TEXT.__text __ZN3icu15AlphabeticIndex6RecordD1Ev
|| __TEXT.__text __ZN3icu15AlphabeticIndex6RecordD2Ev
|| __TEXT.__text __ZN3icu15AlphabeticIndex9addLabelsERKNS_10UnicodeSetER10UErrorCode
|| __TEXT.__text __ZN3icu15AlphabeticIndex9addLabelsERKNS_6LocaleER10UErrorCode
|| __TEXT.__text __ZN3icu15AlphabeticIndex9addRecordERKNS_13UnicodeStringEPKvR10UErrorCode
|| __TEXT.__text __ZN3icu15AlphabeticIndex9separatedERKNS_13UnicodeStringE
|| __TEXT.__text __ZN3icu15AlphabeticIndexC1EPNS_17RuleBasedCollatorER10UErrorCode
|| __TEXT.__text __ZN3icu15AlphabeticIndexC1ERKNS_6LocaleER10UErrorCode
|| __TEXT.__text __ZN3icu15AlphabeticIndexC2EPNS_17RuleBasedCollatorER10UErrorCode
|| __TEXT.__text __ZN3icu15AlphabeticIndexC2ERKNS_6LocaleER10UErrorCode
|| __TEXT.__text __ZN3icu15AlphabeticIndexD0Ev
|| __TEXT.__text __ZN3icu15AlphabeticIndexD1Ev
|| __TEXT.__text __ZN3icu15AlphabeticIndexD2Ev
|| __TEXT.__text __ZN3icu15ChineseCalendar11offsetMonthEiii
|| __TEXT.__text __ZN3icu15ChineseCalendar16getStaticClassIDEv
|| __TEXT.__text __ZN3icu15ChineseCalendar19handleComputeFieldsEiR10UErrorCode
|| __TEXT.__text __ZN3icu15ChineseCalendar20computeChineseFieldsEiiia
|| __TEXT.__text __ZN3icu15ChineseCalendar21handleGetExtendedYearEv
|| __TEXT.__text __ZN3icu15ChineseCalendar3addE19UCalendarDateFieldsiR10UErrorCode
|| __TEXT.__text __ZN3icu15ChineseCalendar3addENS_8Calendar11EDateFieldsEiR10UErrorCode
|| __TEXT.__text __ZN3icu15ChineseCalendar4rollE19UCalendarDateFieldsiR10UErrorCode
|| __TEXT.__text __ZN3icu15ChineseCalendar4rollENS_8Calendar11EDateFieldsEiR10UErrorCode
|| __TEXT.__text __ZN3icu15ChineseCalendarC1ERKNS_6LocaleER10UErrorCode
|| __TEXT.__text __ZN3icu15ChineseCalendarC1ERKNS_6LocaleEiPKNS_8TimeZoneER10UErrorCode
|| __TEXT.__text __ZN3icu15ChineseCalendarC1ERKS0_
|| __TEXT.__text __ZN3icu15ChineseCalendarC2ERKNS_6LocaleER10UErrorCode
|| __TEXT.__text __ZN3icu15ChineseCalendarC2ERKNS_6LocaleEiPKNS_8TimeZoneER10UErrorCode
|| __TEXT.__text __ZN3icu15ChineseCalendarC2ERKS0_
|| __TEXT.__text __ZN3icu15ChineseCalendarD0Ev
|| __TEXT.__text __ZN3icu15ChineseCalendarD1Ev
|| __TEXT.__text __ZN3icu15ChineseCalendarD2Ev
|| __TEXT.__text __ZN3icu15IslamicCalendar13civilLeapYearEi
|| __TEXT.__text __ZN3icu15IslamicCalendar16getStaticClassIDEv
|| __TEXT.__text __ZN3icu15IslamicCalendar18setCalculationTypeENS0_16ECalculationTypeER10UErrorCode
|| __TEXT.__text __ZN3icu15IslamicCalendar19handleComputeFieldsEiR10UErrorCode
|| __TEXT.__text __ZN3icu15IslamicCalendar21handleGetExtendedYearEv
|| __TEXT.__text __ZN3icu15IslamicCalendar30initializeSystemDefaultCenturyEv
|| __TEXT.__text __ZN3icu15IslamicCalendar7isCivilEv
|| __TEXT.__text __ZN3icu15IslamicCalendar7moonAgeEdR10UErrorCode
|| __TEXT.__text __ZN3icu15IslamicCalendarC1ERKNS_6LocaleER10UErrorCodeNS0_16ECalculationTypeE
|| __TEXT.__text __ZN3icu15IslamicCalendarC1ERKS0_
|| __TEXT.__text __ZN3icu15IslamicCalendarC2ERKNS_6LocaleER10UErrorCodeNS0_16ECalculationTypeE
|| __TEXT.__text __ZN3icu15IslamicCalendarC2ERKS0_
|| __TEXT.__text __ZN3icu15IslamicCalendarD0Ev
|| __TEXT.__text __ZN3icu15IslamicCalendarD1Ev
|| __TEXT.__text __ZN3icu15IslamicCalendarD2Ev
|| __TEXT.__text __ZN3icu15Normalizer2Impl4initEPKiPK7UCPTriePKtPKh
|| __TEXT.__text __ZN3icu15Normalizer2Impl7combineEPKti
|| __TEXT.__text __ZN3icu15Normalizer2ImplD0Ev
|| __TEXT.__text __ZN3icu15Normalizer2ImplD1Ev
|| __TEXT.__text __ZN3icu15Normalizer2ImplD2Ev
|| __TEXT.__text __ZN3icu15NumberingSystem14createInstanceER10UErrorCode
|| __TEXT.__text __ZN3icu15NumberingSystem14createInstanceERKNS_6LocaleER10UErrorCode
|| __TEXT.__text __ZN3icu15NumberingSystem14createInstanceEiaRKNS_13UnicodeStringER10UErrorCode
|| __TEXT.__text __ZN3icu15NumberingSystem14setAlgorithmicEa
|| __TEXT.__text __ZN3icu15NumberingSystem16getStaticClassIDEv
|| __TEXT.__text __ZN3icu15NumberingSystem17getAvailableNamesER10UErrorCode
|| __TEXT.__text __ZN3icu15NumberingSystem20createInstanceByNameEPKcR10UErrorCode
|| __TEXT.__text __ZN3icu15NumberingSystem7setDescERKNS_13UnicodeStringE
|| __TEXT.__text __ZN3icu15NumberingSystem7setNameEPKc
|| __TEXT.__text __ZN3icu15NumberingSystem8setRadixEi
|| __TEXT.__text __ZN3icu15NumberingSystemC1ERKS0_
|| __TEXT.__text __ZN3icu15NumberingSystemC1Ev
|| __TEXT.__text __ZN3icu15NumberingSystemC2ERKS0_
|| __TEXT.__text __ZN3icu15NumberingSystemC2Ev
|| __TEXT.__text __ZN3icu15NumberingSystemD0Ev
|| __TEXT.__text __ZN3icu15NumberingSystemD1Ev
|| __TEXT.__text __ZN3icu15NumberingSystemD2Ev
|| __TEXT.__text __ZN3icu15PersianCalendar16getStaticClassIDEv
|| __TEXT.__text __ZN3icu15SimpleFormatter22getTextWithNoArgumentsEPKDsiPii
|| __TEXT.__text __ZN3icu15SimpleFormatter27applyPatternMinMaxArgumentsERKNS_13UnicodeStringEiiR10UErrorCode
|| __TEXT.__text __ZN3icu15SimpleFormatter6formatEPKDsiPKPKNS_13UnicodeStringERS3_S5_aPiiR10UErrorCode
|| __TEXT.__text __ZN3icu15SimpleFormatterD1Ev
|| __TEXT.__text __ZN3icu15SimpleFormatterD2Ev
|| __TEXT.__text __ZN3icu15SimpleFormatteraSERKS0_
|| __TEXT.__text __ZN3icu15UnicodeReplacerD0Ev
|| __TEXT.__text __ZN3icu15UnicodeReplacerD1Ev
|| __TEXT.__text __ZN3icu15UnicodeReplacerD2Ev
|| __TEXT.__text __ZN3icu16BuddhistCalendar16getStaticClassIDEv
|| __TEXT.__text __ZN3icu16BytesTrieBuilder10buildBytesE22UStringTrieBuildOptionR10UErrorCode
|| __TEXT.__text __ZN3icu16BytesTrieBuilder12writeDeltaToEi
|| __TEXT.__text __ZN3icu16BytesTrieBuilder14ensureCapacityEi
|| __TEXT.__text __ZN3icu16BytesTrieBuilder16buildStringPieceE22UStringTrieBuildOptionR10UErrorCode
|| __TEXT.__text __ZN3icu16BytesTrieBuilder17BTLinearMatchNode5writeERNS_17StringTrieBuilderE
|| __TEXT.__text __ZN3icu16BytesTrieBuilder17BTLinearMatchNodeC1EPKciPNS_17StringTrieBuilder4NodeE
|| __TEXT.__text __ZN3icu16BytesTrieBuilder17BTLinearMatchNodeC2EPKciPNS_17StringTrieBuilder4NodeE
|| __TEXT.__text __ZN3icu16BytesTrieBuilder17writeElementUnitsEiii
|| __TEXT.__text __ZN3icu16BytesTrieBuilder17writeValueAndTypeEaii
|| __TEXT.__text __ZN3icu16BytesTrieBuilder18writeValueAndFinalEia
|| __TEXT.__text __ZN3icu16BytesTrieBuilder3addENS_11StringPieceEiR10UErrorCode
|| __TEXT.__text __ZN3icu16BytesTrieBuilder5buildE22UStringTrieBuildOptionR10UErrorCode
|| __TEXT.__text __ZN3icu16BytesTrieBuilder5clearEv
|| __TEXT.__text __ZN3icu16BytesTrieBuilder5writeEPKci
|| __TEXT.__text __ZN3icu16BytesTrieBuilder5writeEi
|| __TEXT.__text __ZN3icu16BytesTrieBuilderC1ER10UErrorCode
|| __TEXT.__text __ZN3icu16BytesTrieBuilderC2ER10UErrorCode
|| __TEXT.__text __ZN3icu16BytesTrieBuilderD0Ev
|| __TEXT.__text __ZN3icu16BytesTrieBuilderD1Ev
|| __TEXT.__text __ZN3icu16BytesTrieBuilderD2Ev
|| __TEXT.__text __ZN3icu16CollationBuilder10ceStrengthEx
|| __TEXT.__text __ZN3icu16CollationBuilder11addRelationEiRKNS_13UnicodeStringES3_S3_RPKcR10UErrorCode
|| __TEXT.__text __ZN3icu16CollationBuilder11finalizeCEsER10UErrorCode
|| __TEXT.__text __ZN3icu16CollationBuilder11setCaseBitsERKNS_13UnicodeStringERPKcR10UErrorCode
|| __TEXT.__text __ZN3icu16CollationBuilder13parseAndBuildERKNS_13UnicodeStringEPKhPNS_19CollationRuleParser8ImporterEP11UParseErrorR10UErrorCode
|| __TEXT.__text __ZN3icu16CollationBuilder14addIfDifferentERKNS_13UnicodeStringES3_PKxijR10UErrorCode
|| __TEXT.__text __ZN3icu16CollationBuilder14addOnlyClosureERKNS_13UnicodeStringES3_PKxijR10UErrorCode
|| __TEXT.__text __ZN3icu16CollationBuilder14addWithClosureERKNS_13UnicodeStringES3_PKxijR10UErrorCode
|| __TEXT.__text __ZN3icu16CollationBuilder15makeTailoredCEsER10UErrorCode
|| __TEXT.__text __ZN3icu16CollationBuilder17addTailCompositesERKNS_13UnicodeStringES3_R10UErrorCode
|| __TEXT.__text __ZN3icu16CollationBuilder17getWeight16BeforeEixi
|| __TEXT.__text __ZN3icu16CollationBuilder17insertNodeBetweenEiixR10UErrorCode
|| __TEXT.__text __ZN3icu16CollationBuilder18countTailoredNodesEPKxii
|| __TEXT.__text __ZN3icu16CollationBuilder19closeOverCompositesER10UErrorCode
|| __TEXT.__text __ZN3icu16CollationBuilder20findOrInsertWeakNodeEijiR10UErrorCode
|| __TEXT.__text __ZN3icu16CollationBuilder20suppressContractionsERKNS_10UnicodeSetERPKcR10UErrorCode
|| __TEXT.__text __ZN3icu16CollationBuilder22findOrInsertNodeForCEsEiRPKcR10UErrorCode
|| __TEXT.__text __ZN3icu16CollationBuilder23getSpecialResetPositionERKNS_13UnicodeStringERPKcR10UErrorCode
|| __TEXT.__text __ZN3icu16CollationBuilder23insertTailoredNodeAfterEiiR10UErrorCode
|| __TEXT.__text __ZN3icu16CollationBuilder25findOrInsertNodeForRootCEExiR10UErrorCode
|| __TEXT.__text __ZN3icu16CollationBuilder26findOrInsertNodeForPrimaryEjR10UErrorCode
|| __TEXT.__text __ZN3icu16CollationBuilder7sameCEsEPKxiS2_i
|| __TEXT.__text __ZN3icu16CollationBuilder8addResetEiRKNS_13UnicodeStringERPKcR10UErrorCode
|| __TEXT.__text __ZN3icu16CollationBuilder8optimizeERKNS_10UnicodeSetERPKcR10UErrorCode
|| __TEXT.__text __ZN3icu16CollationBuilderC1EPKNS_18CollationTailoringER10UErrorCode
|| __TEXT.__text __ZN3icu16CollationBuilderC2EPKNS_18CollationTailoringER10UErrorCode
|| __TEXT.__text __ZN3icu16CollationBuilderD0Ev
|| __TEXT.__text __ZN3icu16CollationBuilderD1Ev
|| __TEXT.__text __ZN3icu16CollationBuilderD2Ev
|| __TEXT.__text __ZN3icu16CollationCompare21compareUpToQuaternaryERNS_17CollationIteratorES2_RKNS_17CollationSettingsER10UErrorCode
|| __TEXT.__text __ZN3icu16CollationWeights10nextWeightEv
|| __TEXT.__text __ZN3icu16CollationWeights12allocWeightsEjji
|| __TEXT.__text __ZN3icu16CollationWeights14initForPrimaryEa
|| __TEXT.__text __ZN3icu16CollationWeights15getWeightRangesEjj
|| __TEXT.__text __ZN3icu16CollationWeights15initForTertiaryEv
|| __TEXT.__text __ZN3icu16CollationWeights16initForSecondaryEv
|| __TEXT.__text __ZN3icu16CollationWeights25allocWeightsInShortRangesEii
|| __TEXT.__text __ZN3icu16CollationWeights29allocWeightsInMinLengthRangesEii
|| __TEXT.__text __ZN3icu16CollationWeightsC1Ev
|| __TEXT.__text __ZN3icu16CollationWeightsC2Ev
|| __TEXT.__text __ZN3icu16DateIntervalInfo10deleteHashEPNS_9HashtableE
|| __TEXT.__text __ZN3icu16DateIntervalInfo13parseSkeletonERKNS_13UnicodeStringEPi
|| __TEXT.__text __ZN3icu16DateIntervalInfo13stringNumericEiic
|| __TEXT.__text __ZN3icu16DateIntervalInfo14initializeDataERKNS_6LocaleER10UErrorCode
|| __TEXT.__text __ZN3icu16DateIntervalInfo16DateIntervalSinkD0Ev
|| __TEXT.__text __ZN3icu16DateIntervalInfo16DateIntervalSinkD1Ev
|| __TEXT.__text __ZN3icu16DateIntervalInfo16DateIntervalSinkD2Ev
|| __TEXT.__text __ZN3icu16DateIntervalInfo16getStaticClassIDEv
|| __TEXT.__text __ZN3icu16DateIntervalInfo18setIntervalPatternERKNS_13UnicodeStringE19UCalendarDateFieldsS3_R10UErrorCode
|| __TEXT.__text __ZN3icu16DateIntervalInfo26setFallbackIntervalPatternERKNS_13UnicodeStringER10UErrorCode
|| __TEXT.__text __ZN3icu16DateIntervalInfo28calendarFieldToIntervalIndexE19UCalendarDateFieldsR10UErrorCode
|| __TEXT.__text __ZN3icu16DateIntervalInfo28setIntervalPatternInternallyERKNS_13UnicodeStringE19UCalendarDateFieldsS3_R10UErrorCode
|| __TEXT.__text __ZN3icu16DateIntervalInfo8copyHashEPKNS_9HashtableEPS1_R10UErrorCode
|| __TEXT.__text __ZN3icu16DateIntervalInfo8initHashER10UErrorCode
|| __TEXT.__text __ZN3icu16DateIntervalInfoC1ER10UErrorCode
|| __TEXT.__text __ZN3icu16DateIntervalInfoC1ERKNS_6LocaleER10UErrorCode
|| __TEXT.__text __ZN3icu16DateIntervalInfoC1ERKS0_
|| __TEXT.__text __ZN3icu16DateIntervalInfoC2ER10UErrorCode
|| __TEXT.__text __ZN3icu16DateIntervalInfoC2ERKNS_6LocaleER10UErrorCode
|| __TEXT.__text __ZN3icu16DateIntervalInfoC2ERKS0_
|| __TEXT.__text __ZN3icu16DateIntervalInfoD0Ev
|| __TEXT.__text __ZN3icu16DateIntervalInfoD1Ev
|| __TEXT.__text __ZN3icu16DateIntervalInfoD2Ev
|| __TEXT.__text __ZN3icu16DateIntervalInfoaSERKS0_
|| __TEXT.__text __ZN3icu16EthiopicCalendar16getStaticClassIDEv
|| __TEXT.__text __ZN3icu16JapaneseCalendar13getCurrentEraEv
|| __TEXT.__text __ZN3icu16JapaneseCalendar16getStaticClassIDEv
|| __TEXT.__text __ZN3icu16JapaneseCalendar18enableTentativeEraEv
|| __TEXT.__text __ZN3icu16ReorderingBuffer10previousCCEv
|| __TEXT.__text __ZN3icu16ReorderingBuffer12appendZeroCCEPKDsS2_R10UErrorCode
|| __TEXT.__text __ZN3icu16ReorderingBuffer12appendZeroCCEiR10UErrorCode
|| __TEXT.__text __ZN3icu16ReorderingBuffer12removeSuffixEi
|| __TEXT.__text __ZN3icu16ReorderingBuffer12skipPreviousEv
|| __TEXT.__text __ZN3icu16ReorderingBuffer19appendSupplementaryEihR10UErrorCode
|| __TEXT.__text __ZN3icu16ReorderingBuffer4initEiR10UErrorCode
|| __TEXT.__text __ZN3icu16ReorderingBuffer6appendEPKDsiahhR10UErrorCode
|| __TEXT.__text __ZN3icu16ReorderingBuffer6insertEih
|| __TEXT.__text __ZN3icu16ReorderingBuffer6removeEv
|| __TEXT.__text __ZN3icu16ReorderingBuffer6resizeEiR10UErrorCode
|| __TEXT.__text __ZN3icu16ReorderingBufferC1ERKNS_15Normalizer2ImplERNS_13UnicodeStringER10UErrorCode
|| __TEXT.__text __ZN3icu16ReorderingBufferC2ERKNS_15Normalizer2ImplERNS_13UnicodeStringER10UErrorCode
|| __TEXT.__text __ZN3icu16SimpleDateFormat10NSOverride4freeEv
|| __TEXT.__text __ZN3icu16SimpleDateFormat10NSOverrideD1Ev
|| __TEXT.__text __ZN3icu16SimpleDateFormat10NSOverrideD2Ev
|| __TEXT.__text __ZN3icu16SimpleDateFormat10initializeERKNS_6LocaleER10UErrorCode
|| __TEXT.__text __ZN3icu16SimpleDateFormat10setContextE15UDisplayContextR10UErrorCode
|| __TEXT.__text __ZN3icu16SimpleDateFormat12applyPatternERKNS_13UnicodeStringE
|| __TEXT.__text __ZN3icu16SimpleDateFormat12isSyntaxCharEDs
|| __TEXT.__text __ZN3icu16SimpleDateFormat12parsePatternEv
|| __TEXT.__text __ZN3icu16SimpleDateFormat13adoptCalendarEPNS_8CalendarE
|| __TEXT.__text __ZN3icu16SimpleDateFormat13matchLiteralsERKNS_13UnicodeStringERiS3_S4_aaa
|| __TEXT.__text __ZN3icu16SimpleDateFormat16getLevelFromCharEDs
|| __TEXT.__text __ZN3icu16SimpleDateFormat16getStaticClassIDEv
|| __TEXT.__text __ZN3icu16SimpleDateFormat16isAtNumericFieldERKNS_13UnicodeStringEi
|| __TEXT.__text __ZN3icu16SimpleDateFormat16translatePatternERKNS_13UnicodeStringERS1_S3_S3_R10UErrorCode
|| __TEXT.__text __ZN3icu16SimpleDateFormat17adoptNumberFormatEPNS_12NumberFormatE
|| __TEXT.__text __ZN3icu16SimpleDateFormat17adoptNumberFormatERKNS_13UnicodeStringEPNS_12NumberFormatER10UErrorCode
|| __TEXT.__text __ZN3icu16SimpleDateFormat17setTimeZoneFormatERKNS_14TimeZoneFormatE
|| __TEXT.__text __ZN3icu16SimpleDateFormat18initializeCalendarEPNS_8TimeZoneERKNS_6LocaleER10UErrorCode
|| __TEXT.__text __ZN3icu16SimpleDateFormat18isFieldUnitIgnoredERKNS_13UnicodeStringE19UCalendarDateFields
|| __TEXT.__text __ZN3icu16SimpleDateFormat18set2DigitYearStartEdR10UErrorCode
|| __TEXT.__text __ZN3icu16SimpleDateFormat19adoptTimeZoneFormatEPNS_14TimeZoneFormatE
|| __TEXT.__text __ZN3icu16SimpleDateFormat20initNumberFormattersERKNS_6LocaleER10UErrorCode
|| __TEXT.__text __ZN3icu16SimpleDateFormat20setDateFormatSymbolsERKNS_17DateFormatSymbolsE
|| __TEXT.__text __ZN3icu16SimpleDateFormat21applyLocalizedPatternERKNS_13UnicodeStringER10UErrorCode
|| __TEXT.__text __ZN3icu16SimpleDateFormat21processOverrideStringERKNS_6LocaleERKNS_13UnicodeStringEaR10UErrorCode
|| __TEXT.__text __ZN3icu16SimpleDateFormat22adoptDateFormatSymbolsEPNS_17DateFormatSymbolsE
|| __TEXT.__text __ZN3icu16SimpleDateFormat22isAfterNonNumericFieldERKNS_13UnicodeStringEi
|| __TEXT.__text __ZN3icu16SimpleDateFormat24freeFastNumberFormattersEv
|| __TEXT.__text __ZN3icu16SimpleDateFormat24initFastNumberFormattersER10UErrorCode
|| __TEXT.__text __ZN3icu16SimpleDateFormat24initializeDefaultCenturyEv
|| __TEXT.__text __ZN3icu16SimpleDateFormat26parseAmbiguousDatesAsAfterEdR10UErrorCode
|| __TEXT.__text __ZN3icu16SimpleDateFormat27initializeBooleanAttributesEv
|| __TEXT.__text __ZN3icu16SimpleDateFormat9constructENS_10DateFormat6EStyleES2_RKNS_6LocaleER10UErrorCode
|| __TEXT.__text __ZN3icu16SimpleDateFormat9isNumericEDsi
|| __TEXT.__text __ZN3icu16SimpleDateFormatC1ENS_10DateFormat6EStyleES2_RKNS_6LocaleER10UErrorCode
|| __TEXT.__text __ZN3icu16SimpleDateFormatC1ER10UErrorCode
|| __TEXT.__text __ZN3icu16SimpleDateFormatC1ERKNS_13UnicodeStringEPNS_17DateFormatSymbolsER10UErrorCode
|| __TEXT.__text __ZN3icu16SimpleDateFormatC1ERKNS_13UnicodeStringER10UErrorCode
|| __TEXT.__text __ZN3icu16SimpleDateFormatC1ERKNS_13UnicodeStringERKNS_17DateFormatSymbolsER10UErrorCode
|| __TEXT.__text __ZN3icu16SimpleDateFormatC1ERKNS_13UnicodeStringERKNS_6LocaleER10UErrorCode
|| __TEXT.__text __ZN3icu16SimpleDateFormatC1ERKNS_13UnicodeStringES3_R10UErrorCode
|| __TEXT.__text __ZN3icu16SimpleDateFormatC1ERKNS_13UnicodeStringES3_RKNS_6LocaleER10UErrorCode
|| __TEXT.__text __ZN3icu16SimpleDateFormatC1ERKNS_6LocaleER10UErrorCode
|| __TEXT.__text __ZN3icu16SimpleDateFormatC1ERKS0_
|| __TEXT.__text __ZN3icu16SimpleDateFormatC2ENS_10DateFormat6EStyleES2_RKNS_6LocaleER10UErrorCode
|| __TEXT.__text __ZN3icu16SimpleDateFormatC2ER10UErrorCode
|| __TEXT.__text __ZN3icu16SimpleDateFormatC2ERKNS_13UnicodeStringEPNS_17DateFormatSymbolsER10UErrorCode
|| __TEXT.__text __ZN3icu16SimpleDateFormatC2ERKNS_13UnicodeStringER10UErrorCode
|| __TEXT.__text __ZN3icu16SimpleDateFormatC2ERKNS_13UnicodeStringERKNS_17DateFormatSymbolsER10UErrorCode
|| __TEXT.__text __ZN3icu16SimpleDateFormatC2ERKNS_13UnicodeStringERKNS_6LocaleER10UErrorCode
|| __TEXT.__text __ZN3icu16SimpleDateFormatC2ERKNS_13UnicodeStringES3_R10UErrorCode
|| __TEXT.__text __ZN3icu16SimpleDateFormatC2ERKNS_13UnicodeStringES3_RKNS_6LocaleER10UErrorCode
|| __TEXT.__text __ZN3icu16SimpleDateFormatC2ERKNS_6LocaleER10UErrorCode
|| __TEXT.__text __ZN3icu16SimpleDateFormatC2ERKS0_
|| __TEXT.__text __ZN3icu16SimpleDateFormatD0Ev
|| __TEXT.__text __ZN3icu16SimpleDateFormatD1Ev
|| __TEXT.__text __ZN3icu16SimpleDateFormatD2Ev
|| __TEXT.__text __ZN3icu16SimpleDateFormataSERKS0_
|| __TEXT.__text __ZN3icu16UnifiedCacheBaseD0Ev
|| __TEXT.__text __ZN3icu16UnifiedCacheBaseD1Ev
|| __TEXT.__text __ZN3icu16UnifiedCacheBaseD2Ev
|| __TEXT.__text __ZN3icu17AnyTransliterator16getStaticClassIDEv
|| __TEXT.__text __ZN3icu17CanonicalIterator11cleanPiecesEv
|| __TEXT.__text __ZN3icu17CanonicalIterator14getEquivalentsERKNS_13UnicodeStringERiR10UErrorCode
|| __TEXT.__text __ZN3icu17CanonicalIterator15getEquivalents2EPNS_9HashtableEPKDsiR10UErrorCode
|| __TEXT.__text __ZN3icu17CanonicalIterator16getStaticClassIDEv
|| __TEXT.__text __ZN3icu17CanonicalIterator4nextEv
|| __TEXT.__text __ZN3icu17CanonicalIterator5resetEv
|| __TEXT.__text __ZN3icu17CanonicalIterator7extractEPNS_9HashtableEiPKDsiiR10UErrorCode
|| __TEXT.__text __ZN3icu17CanonicalIterator7permuteERNS_13UnicodeStringEaPNS_9HashtableER10UErrorCode
|| __TEXT.__text __ZN3icu17CanonicalIterator9getSourceEv
|| __TEXT.__text __ZN3icu17CanonicalIterator9setSourceERKNS_13UnicodeStringER10UErrorCode
|| __TEXT.__text __ZN3icu17CanonicalIteratorC1ERKNS_13UnicodeStringER10UErrorCode
|| __TEXT.__text __ZN3icu17CanonicalIteratorC2ERKNS_13UnicodeStringER10UErrorCode
|| __TEXT.__text __ZN3icu17CanonicalIteratorD0Ev
|| __TEXT.__text __ZN3icu17CanonicalIteratorD1Ev
|| __TEXT.__text __ZN3icu17CanonicalIteratorD2Ev
|| __TEXT.__text __ZN3icu17CharacterIterator12firstPostIncEv
|| __TEXT.__text __ZN3icu17CharacterIterator14first32PostIncEv
|| __TEXT.__text __ZN3icu17CharacterIteratorC2ERKS0_
|| __TEXT.__text __ZN3icu17CharacterIteratorC2Ei
|| __TEXT.__text __ZN3icu17CharacterIteratorC2Eii
|| __TEXT.__text __ZN3icu17CharacterIteratorC2Eiiii
|| __TEXT.__text __ZN3icu17CharacterIteratorC2Ev
|| __TEXT.__text __ZN3icu17CharacterIteratorD0Ev
|| __TEXT.__text __ZN3icu17CharacterIteratorD1Ev
|| __TEXT.__text __ZN3icu17CharacterIteratorD2Ev
|| __TEXT.__text __ZN3icu17CharacterIteratoraSERKS0_
|| __TEXT.__text __ZN3icu17CollationIterator10previousCEERNS_9UVector32ER10UErrorCode
|| __TEXT.__text __ZN3icu17CollationIterator14handleNextCE32ERiR10UErrorCode
|| __TEXT.__text __ZN3icu17CollationIterator14nextCEFromCE32EPKNS_13CollationDataEijR10UErrorCode
|| __TEXT.__text __ZN3icu17CollationIterator16appendNumericCEsEjaR10UErrorCode
|| __TEXT.__text __ZN3icu17CollationIterator16previousCEUnsafeEiRNS_9UVector32ER10UErrorCode
|| __TEXT.__text __ZN3icu17CollationIterator17appendCEsFromCE32EPKNS_13CollationDataEijaR10UErrorCode
|| __TEXT.__text __ZN3icu17CollationIterator17getCE32FromPrefixEPKNS_13CollationDataEjR10UErrorCode
|| __TEXT.__text __ZN3icu17CollationIterator18backwardNumSkippedEiR10UErrorCode
|| __TEXT.__text __ZN3icu17CollationIterator18foundNULTerminatorEv
|| __TEXT.__text __ZN3icu17CollationIterator20nextSkippedCodePointER10UErrorCode
|| __TEXT.__text __ZN3icu17CollationIterator22getCE32FromBuilderDataEjR10UErrorCode
|| __TEXT.__text __ZN3icu17CollationIterator23appendNumericSegmentCEsEPKciR10UErrorCode
|| __TEXT.__text __ZN3icu17CollationIterator23handleGetTrailSurrogateEv
|| __TEXT.__text __ZN3icu17CollationIterator23nextCE32FromContractionEPKNS_13CollationDataEjPKDsjiR10UErrorCode
|| __TEXT.__text __ZN3icu17CollationIterator36nextCE32FromDiscontiguousContractionEPKNS_13CollationDataERNS_10UCharsTrieEjiiR10UErrorCode
|| __TEXT.__text __ZN3icu17CollationIterator5resetEv
|| __TEXT.__text __ZN3icu17CollationIterator8CEBuffer20ensureAppendCapacityEiR10UErrorCode
|| __TEXT.__text __ZN3icu17CollationIterator8CEBufferD1Ev
|| __TEXT.__text __ZN3icu17CollationIterator8CEBufferD2Ev
|| __TEXT.__text __ZN3icu17CollationIterator8fetchCEsER10UErrorCode
|| __TEXT.__text __ZN3icu17CollationIteratorC2ERKS0_
|| __TEXT.__text __ZN3icu17CollationIteratorD0Ev
|| __TEXT.__text __ZN3icu17CollationIteratorD1Ev
|| __TEXT.__text __ZN3icu17CollationIteratorD2Ev
|| __TEXT.__text __ZN3icu17CollationSettings11setStrengthEiiR10UErrorCode
|| __TEXT.__text __ZN3icu17CollationSettings12setCaseFirstE18UColAttributeValueiR10UErrorCode
|| __TEXT.__text __ZN3icu17CollationSettings13setReorderingERKNS_13CollationDataEPKiiR10UErrorCode
|| __TEXT.__text __ZN3icu17CollationSettings14setMaxVariableEiiR10UErrorCode
|| __TEXT.__text __ZN3icu17CollationSettings15aliasReorderingERKNS_13CollationDataEPKiiPKjiPKhR10UErrorCode
|| __TEXT.__text __ZN3icu17CollationSettings15resetReorderingEv
|| __TEXT.__text __ZN3icu17CollationSettings16setReorderArraysEPKiiPKjiPKhR10UErrorCode
|| __TEXT.__text __ZN3icu17CollationSettings18copyReorderingFromERKS0_R10UErrorCode
|| __TEXT.__text __ZN3icu17CollationSettings20setAlternateHandlingE18UColAttributeValueiR10UErrorCode
|| __TEXT.__text __ZN3icu17CollationSettings25reorderTableHasSplitBytesEPKh
|| __TEXT.__text __ZN3icu17CollationSettings7setFlagEi18UColAttributeValueiR10UErrorCode
|| __TEXT.__text __ZN3icu17CollationSettingsC1ERKS0_
|| __TEXT.__text __ZN3icu17CollationSettingsC2ERKS0_
|| __TEXT.__text __ZN3icu17CollationSettingsD0Ev
|| __TEXT.__text __ZN3icu17CollationSettingsD1Ev
|| __TEXT.__text __ZN3icu17CollationSettingsD2Ev
|| __TEXT.__text __ZN3icu17DateFormatSymbols11assignArrayERPNS_13UnicodeStringERiPKS1_i
|| __TEXT.__text __ZN3icu17DateFormatSymbols11setEraNamesEPKNS_13UnicodeStringEi
|| __TEXT.__text __ZN3icu17DateFormatSymbols11setQuartersEPKNS_13UnicodeStringEiNS0_13DtContextTypeENS0_11DtWidthTypeE
|| __TEXT.__text __ZN3icu17DateFormatSymbols11setWeekdaysEPKNS_13UnicodeStringEi
|| __TEXT.__text __ZN3icu17DateFormatSymbols11setWeekdaysEPKNS_13UnicodeStringEiNS0_13DtContextTypeENS0_11DtWidthTypeE
|| __TEXT.__text __ZN3icu17DateFormatSymbols12arrayCompareEPKNS_13UnicodeStringES3_i
|| __TEXT.__text __ZN3icu17DateFormatSymbols12setYearNamesEPKNS_13UnicodeStringEiNS0_13DtContextTypeENS0_11DtWidthTypeE
|| __TEXT.__text __ZN3icu17DateFormatSymbols13setNarrowErasEPKNS_13UnicodeStringEi
|| __TEXT.__text __ZN3icu17DateFormatSymbols14initializeDataERKNS_6LocaleEPKcR10UErrorCodea
|| __TEXT.__text __ZN3icu17DateFormatSymbols14isNumericFieldE16UDateFormatFieldi
|| __TEXT.__text __ZN3icu17DateFormatSymbols14setAmPmStringsEPKNS_13UnicodeStringEi
|| __TEXT.__text __ZN3icu17DateFormatSymbols14setShortMonthsEPKNS_13UnicodeStringEi
|| __TEXT.__text __ZN3icu17DateFormatSymbols14setZodiacNamesEPKNS_13UnicodeStringEiNS0_13DtContextTypeENS0_11DtWidthTypeE
|| __TEXT.__text __ZN3icu17DateFormatSymbols14setZoneStringsEPKPKNS_13UnicodeStringEii
|| __TEXT.__text __ZN3icu17DateFormatSymbols15createForLocaleERKNS_6LocaleER10UErrorCode
|| __TEXT.__text __ZN3icu17DateFormatSymbols16getPatternUCharsEv
|| __TEXT.__text __ZN3icu17DateFormatSymbols16getStaticClassIDEv
|| __TEXT.__text __ZN3icu17DateFormatSymbols16setShortWeekdaysEPKNS_13UnicodeStringEi
|| __TEXT.__text __ZN3icu17DateFormatSymbols17createZoneStringsEPKPKNS_13UnicodeStringE
|| __TEXT.__text __ZN3icu17DateFormatSymbols18disposeZoneStringsEv
|| __TEXT.__text __ZN3icu17DateFormatSymbols19getPatternCharIndexEDs
|| __TEXT.__text __ZN3icu17DateFormatSymbols20initZoneStringsArrayEv
|| __TEXT.__text __ZN3icu17DateFormatSymbols20isNumericPatternCharEDsi
|| __TEXT.__text __ZN3icu17DateFormatSymbols20setLocalPatternCharsERKNS_13UnicodeStringE
|| __TEXT.__text __ZN3icu17DateFormatSymbols22setTimeSeparatorStringERKNS_13UnicodeStringE
|| __TEXT.__text __ZN3icu17DateFormatSymbols7disposeEv
|| __TEXT.__text __ZN3icu17DateFormatSymbols7setErasEPKNS_13UnicodeStringEi
|| __TEXT.__text __ZN3icu17DateFormatSymbols8copyDataERKS0_
|| __TEXT.__text __ZN3icu17DateFormatSymbols9setMonthsEPKNS_13UnicodeStringEi
|| __TEXT.__text __ZN3icu17DateFormatSymbols9setMonthsEPKNS_13UnicodeStringEiNS0_13DtContextTypeENS0_11DtWidthTypeE
|| __TEXT.__text __ZN3icu17DateFormatSymbolsC1EPKcR10UErrorCode
|| __TEXT.__text __ZN3icu17DateFormatSymbolsC1ER10UErrorCode
|| __TEXT.__text __ZN3icu17DateFormatSymbolsC1ERKNS_6LocaleEPKcR10UErrorCode
|| __TEXT.__text __ZN3icu17DateFormatSymbolsC1ERKNS_6LocaleER10UErrorCode
|| __TEXT.__text __ZN3icu17DateFormatSymbolsC1ERKS0_
|| __TEXT.__text __ZN3icu17DateFormatSymbolsC2EPKcR10UErrorCode
|| __TEXT.__text __ZN3icu17DateFormatSymbolsC2ER10UErrorCode
|| __TEXT.__text __ZN3icu17DateFormatSymbolsC2ERKNS_6LocaleEPKcR10UErrorCode
|| __TEXT.__text __ZN3icu17DateFormatSymbolsC2ERKNS_6LocaleER10UErrorCode
|| __TEXT.__text __ZN3icu17DateFormatSymbolsC2ERKS0_
|| __TEXT.__text __ZN3icu17DateFormatSymbolsD0Ev
|| __TEXT.__text __ZN3icu17DateFormatSymbolsD1Ev
|| __TEXT.__text __ZN3icu17DateFormatSymbolsD2Ev
|| __TEXT.__text __ZN3icu17DateFormatSymbolsaSERKS0_
|| __TEXT.__text __ZN3icu17DictionaryMatcherD0Ev
|| __TEXT.__text __ZN3icu17DictionaryMatcherD1Ev
|| __TEXT.__text __ZN3icu17DictionaryMatcherD2Ev
|| __TEXT.__text __ZN3icu17GregorianCalendar11getEpochDayER10UErrorCode
|| __TEXT.__text __ZN3icu17GregorianCalendar13pinDayOfMonthEv
|| __TEXT.__text __ZN3icu17GregorianCalendar14aggregateStampEii
|| __TEXT.__text __ZN3icu17GregorianCalendar16getStaticClassIDEv
|| __TEXT.__text __ZN3icu17GregorianCalendar17julianDayToMillisEd
|| __TEXT.__text __ZN3icu17GregorianCalendar17millisToJulianDayEd
|| __TEXT.__text __ZN3icu17GregorianCalendar18setGregorianChangeEdR10UErrorCode
|| __TEXT.__text __ZN3icu17GregorianCalendar19handleComputeFieldsEiR10UErrorCode
|| __TEXT.__text __ZN3icu17GregorianCalendar21handleGetExtendedYearEv
|| __TEXT.__text __ZN3icu17GregorianCalendar22computeJulianDayOfYearEaiRa
|| __TEXT.__text __ZN3icu17GregorianCalendar22handleComputeJulianDayE19UCalendarDateFields
|| __TEXT.__text __ZN3icu17GregorianCalendar35handleGetExtendedYearFromWeekFieldsEii
|| __TEXT.__text __ZN3icu17GregorianCalendar4rollE19UCalendarDateFieldsiR10UErrorCode
|| __TEXT.__text __ZN3icu17GregorianCalendar4rollENS_8Calendar11EDateFieldsEiR10UErrorCode
|| __TEXT.__text __ZN3icu17GregorianCalendarC1EPNS_8TimeZoneER10UErrorCode
|| __TEXT.__text __ZN3icu17GregorianCalendarC1EPNS_8TimeZoneERKNS_6LocaleER10UErrorCode
|| __TEXT.__text __ZN3icu17GregorianCalendarC1ER10UErrorCode
|| __TEXT.__text __ZN3icu17GregorianCalendarC1ERKNS_6LocaleER10UErrorCode
|| __TEXT.__text __ZN3icu17GregorianCalendarC1ERKNS_8TimeZoneER10UErrorCode
|| __TEXT.__text __ZN3icu17GregorianCalendarC1ERKNS_8TimeZoneERKNS_6LocaleER10UErrorCode
|| __TEXT.__text __ZN3icu17GregorianCalendarC1ERKS0_
|| __TEXT.__text __ZN3icu17GregorianCalendarC1EiiiR10UErrorCode
|| __TEXT.__text __ZN3icu17GregorianCalendarC1EiiiiiR10UErrorCode
|| __TEXT.__text __ZN3icu17GregorianCalendarC1EiiiiiiR10UErrorCode
|| __TEXT.__text __ZN3icu17GregorianCalendarC2EPNS_8TimeZoneER10UErrorCode
|| __TEXT.__text __ZN3icu17GregorianCalendarC2EPNS_8TimeZoneERKNS_6LocaleER10UErrorCode
|| __TEXT.__text __ZN3icu17GregorianCalendarC2ER10UErrorCode
|| __TEXT.__text __ZN3icu17GregorianCalendarC2ERKNS_6LocaleER10UErrorCode
|| __TEXT.__text __ZN3icu17GregorianCalendarC2ERKNS_8TimeZoneER10UErrorCode
|| __TEXT.__text __ZN3icu17GregorianCalendarC2ERKNS_8TimeZoneERKNS_6LocaleER10UErrorCode
|| __TEXT.__text __ZN3icu17GregorianCalendarC2ERKS0_
|| __TEXT.__text __ZN3icu17GregorianCalendarC2EiiiR10UErrorCode
|| __TEXT.__text __ZN3icu17GregorianCalendarC2EiiiiiR10UErrorCode
|| __TEXT.__text __ZN3icu17GregorianCalendarC2EiiiiiiR10UErrorCode
|| __TEXT.__text __ZN3icu17GregorianCalendarD0Ev
|| __TEXT.__text __ZN3icu17GregorianCalendarD1Ev
|| __TEXT.__text __ZN3icu17GregorianCalendarD2Ev
|| __TEXT.__text __ZN3icu17GregorianCalendaraSERKS0_
|| __TEXT.__text __ZN3icu17QuantityFormatter11addIfAbsentEPKcRKNS_13UnicodeStringER10UErrorCode
|| __TEXT.__text __ZN3icu17QuantityFormatter12selectPluralERKNS_11FormattableERKNS_12NumberFormatERKNS_11PluralRulesERNS_13UnicodeStringERNS_13FieldPositionER10UErrorCode
|| __TEXT.__text __ZN3icu17QuantityFormatter15formatAndSelectEdRKNS_12NumberFormatERKNS_11PluralRulesERNS_6number4impl19NumberStringBuilderERNS_14StandardPlural4FormER10UErrorCode
|| __TEXT.__text __ZN3icu17QuantityFormatter5resetEv
|| __TEXT.__text __ZN3icu17QuantityFormatter6formatERKNS_15SimpleFormatterERKNS_13UnicodeStringERS4_RNS_13FieldPositionER10UErrorCode
|| __TEXT.__text __ZN3icu17QuantityFormatterC1ERKS0_
|| __TEXT.__text __ZN3icu17QuantityFormatterC1Ev
|| __TEXT.__text __ZN3icu17QuantityFormatterC2ERKS0_
|| __TEXT.__text __ZN3icu17QuantityFormatterC2Ev
|| __TEXT.__text __ZN3icu17QuantityFormatterD1Ev
|| __TEXT.__text __ZN3icu17QuantityFormatterD2Ev
|| __TEXT.__text __ZN3icu17QuantityFormatteraSERKS0_
|| __TEXT.__text __ZN3icu17RuleBasedCollator10setLocalesERKNS_6LocaleES3_S3_
|| __TEXT.__text __ZN3icu17RuleBasedCollator12setAttributeE13UColAttribute18UColAttributeValueR10UErrorCode
|| __TEXT.__text __ZN3icu17RuleBasedCollator14adoptTailoringEPNS_18CollationTailoringER10UErrorCode
|| __TEXT.__text __ZN3icu17RuleBasedCollator14setMaxVariableE15UColReorderCodeR10UErrorCode
|| __TEXT.__text __ZN3icu17RuleBasedCollator14setVariableTopEPKDsiR10UErrorCode
|| __TEXT.__text __ZN3icu17RuleBasedCollator14setVariableTopERKNS_13UnicodeStringER10UErrorCode
|| __TEXT.__text __ZN3icu17RuleBasedCollator14setVariableTopEjR10UErrorCode
|| __TEXT.__text __ZN3icu17RuleBasedCollator15setReorderCodesEPKiiR10UErrorCode
|| __TEXT.__text __ZN3icu17RuleBasedCollator16getStaticClassIDEv
|| __TEXT.__text __ZN3icu17RuleBasedCollator20computeMaxExpansionsEPKNS_18CollationTailoringER10UErrorCode
|| __TEXT.__text __ZN3icu17RuleBasedCollator22internalBuildTailoringERKNS_13UnicodeStringEi18UColAttributeValueP11UParseErrorPS1_R10UErrorCode
|| __TEXT.__text __ZN3icu17RuleBasedCollatorC1EPKNS_19CollationCacheEntryE
|| __TEXT.__text __ZN3icu17RuleBasedCollatorC1EPKhiPKS0_R10UErrorCode
|| __TEXT.__text __ZN3icu17RuleBasedCollatorC1ERKNS_13UnicodeStringE18UColAttributeValueR10UErrorCode
|| __TEXT.__text __ZN3icu17RuleBasedCollatorC1ERKNS_13UnicodeStringENS_8Collator18ECollationStrengthE18UColAttributeValueR10UErrorCode
|| __TEXT.__text __ZN3icu17RuleBasedCollatorC1ERKNS_13UnicodeStringENS_8Collator18ECollationStrengthER10UErrorCode
|| __TEXT.__text __ZN3icu17RuleBasedCollatorC1ERKNS_13UnicodeStringER10UErrorCode
|| __TEXT.__text __ZN3icu17RuleBasedCollatorC1ERKNS_13UnicodeStringER11UParseErrorRS1_R10UErrorCode
|| __TEXT.__text __ZN3icu17RuleBasedCollatorC1ERKS0_
|| __TEXT.__text __ZN3icu17RuleBasedCollatorC1Ev
|| __TEXT.__text __ZN3icu17RuleBasedCollatorC2EPKNS_19CollationCacheEntryE
|| __TEXT.__text __ZN3icu17RuleBasedCollatorC2EPKhiPKS0_R10UErrorCode
|| __TEXT.__text __ZN3icu17RuleBasedCollatorC2ERKNS_13UnicodeStringE18UColAttributeValueR10UErrorCode
|| __TEXT.__text __ZN3icu17RuleBasedCollatorC2ERKNS_13UnicodeStringENS_8Collator18ECollationStrengthE18UColAttributeValueR10UErrorCode
|| __TEXT.__text __ZN3icu17RuleBasedCollatorC2ERKNS_13UnicodeStringENS_8Collator18ECollationStrengthER10UErrorCode
|| __TEXT.__text __ZN3icu17RuleBasedCollatorC2ERKNS_13UnicodeStringER10UErrorCode
|| __TEXT.__text __ZN3icu17RuleBasedCollatorC2ERKNS_13UnicodeStringER11UParseErrorRS1_R10UErrorCode
|| __TEXT.__text __ZN3icu17RuleBasedCollatorC2ERKS0_
|| __TEXT.__text __ZN3icu17RuleBasedCollatorC2Ev
|| __TEXT.__text __ZN3icu17RuleBasedCollatorD0Ev
|| __TEXT.__text __ZN3icu17RuleBasedCollatorD1Ev
|| __TEXT.__text __ZN3icu17RuleBasedCollatorD2Ev
|| __TEXT.__text __ZN3icu17RuleBasedCollatoraSERKS0_
|| __TEXT.__text __ZN3icu17RuleBasedTimeZone11deleteRulesEv
|| __TEXT.__text __ZN3icu17RuleBasedTimeZone12setRawOffsetEi
|| __TEXT.__text __ZN3icu17RuleBasedTimeZone16getStaticClassIDEv
|| __TEXT.__text __ZN3icu17RuleBasedTimeZone17addTransitionRuleEPNS_12TimeZoneRuleER10UErrorCode
|| __TEXT.__text __ZN3icu17RuleBasedTimeZone17deleteTransitionsEv
|| __TEXT.__text __ZN3icu17RuleBasedTimeZone8completeER10UErrorCode
|| __TEXT.__text __ZN3icu17RuleBasedTimeZone9copyRulesEPNS_7UVectorE
|| __TEXT.__text __ZN3icu17RuleBasedTimeZoneC1ERKNS_13UnicodeStringEPNS_19InitialTimeZoneRuleE
|| __TEXT.__text __ZN3icu17RuleBasedTimeZoneC1ERKS0_
|| __TEXT.__text __ZN3icu17RuleBasedTimeZoneC2ERKNS_13UnicodeStringEPNS_19InitialTimeZoneRuleE
|| __TEXT.__text __ZN3icu17RuleBasedTimeZoneC2ERKS0_
|| __TEXT.__text __ZN3icu17RuleBasedTimeZoneD0Ev
|| __TEXT.__text __ZN3icu17RuleBasedTimeZoneD1Ev
|| __TEXT.__text __ZN3icu17RuleBasedTimeZoneD2Ev
|| __TEXT.__text __ZN3icu17RuleBasedTimeZoneaSERKS0_
|| __TEXT.__text __ZN3icu17SharedPluralRulesD0Ev
|| __TEXT.__text __ZN3icu17SharedPluralRulesD1Ev
|| __TEXT.__text __ZN3icu17SharedPluralRulesD2Ev
|| __TEXT.__text __ZN3icu17StringEnumeration19ensureCharsCapacityEiR10UErrorCode
|| __TEXT.__text __ZN3icu17StringEnumeration4nextEPiR10UErrorCode
|| __TEXT.__text __ZN3icu17StringEnumeration5snextER10UErrorCode
|| __TEXT.__text __ZN3icu17StringEnumeration5unextEPiR10UErrorCode
|| __TEXT.__text __ZN3icu17StringEnumeration8setCharsEPKciR10UErrorCode
|| __TEXT.__text __ZN3icu17StringEnumerationC2Ev
|| __TEXT.__text __ZN3icu17StringEnumerationD0Ev
|| __TEXT.__text __ZN3icu17StringEnumerationD1Ev
|| __TEXT.__text __ZN3icu17StringEnumerationD2Ev
|| __TEXT.__text __ZN3icu17StringTrieBuilder10equalNodesEPKvS2_
|| __TEXT.__text __ZN3icu17StringTrieBuilder12registerNodeEPNS0_4NodeER10UErrorCode
|| __TEXT.__text __ZN3icu17StringTrieBuilder14BranchHeadNode19markRightEdgesFirstEi
|| __TEXT.__text __ZN3icu17StringTrieBuilder14BranchHeadNode5writeERS0_
|| __TEXT.__text __ZN3icu17StringTrieBuilder14FinalValueNode5writeERS0_
|| __TEXT.__text __ZN3icu17StringTrieBuilder14ListBranchNode19markRightEdgesFirstEi
|| __TEXT.__text __ZN3icu17StringTrieBuilder14ListBranchNode5writeERS0_
|| __TEXT.__text __ZN3icu17StringTrieBuilder15LinearMatchNode19markRightEdgesFirstEi
|| __TEXT.__text __ZN3icu17StringTrieBuilder15SplitBranchNode19markRightEdgesFirstEi
|| __TEXT.__text __ZN3icu17StringTrieBuilder15SplitBranchNode5writeERS0_
|| __TEXT.__text __ZN3icu17StringTrieBuilder17makeBranchSubNodeEiiiiR10UErrorCode
|| __TEXT.__text __ZN3icu17StringTrieBuilder18registerFinalValueEiR10UErrorCode
|| __TEXT.__text __ZN3icu17StringTrieBuilder18writeBranchSubNodeEiiii
|| __TEXT.__text __ZN3icu17StringTrieBuilder20createCompactBuilderEiR10UErrorCode
|| __TEXT.__text __ZN3icu17StringTrieBuilder20deleteCompactBuilderEv
|| __TEXT.__text __ZN3icu17StringTrieBuilder21IntermediateValueNode19markRightEdgesFirstEi
|| __TEXT.__text __ZN3icu17StringTrieBuilder21IntermediateValueNode5writeERS0_
|| __TEXT.__text __ZN3icu17StringTrieBuilder4Node19markRightEdgesFirstEi
|| __TEXT.__text __ZN3icu17StringTrieBuilder5buildE22UStringTrieBuildOptioniR10UErrorCode
|| __TEXT.__text __ZN3icu17StringTrieBuilder8hashNodeEPKv
|| __TEXT.__text __ZN3icu17StringTrieBuilder8makeNodeEiiiR10UErrorCode
|| __TEXT.__text __ZN3icu17StringTrieBuilder9writeNodeEiii
|| __TEXT.__text __ZN3icu17StringTrieBuilderC2Ev
|| __TEXT.__text __ZN3icu17StringTrieBuilderD0Ev
|| __TEXT.__text __ZN3icu17StringTrieBuilderD1Ev
|| __TEXT.__text __ZN3icu17StringTrieBuilderD2Ev
|| __TEXT.__text __ZN3icu17UCharsTrieBuilder11buildUCharsE22UStringTrieBuildOptionR10UErrorCode
|| __TEXT.__text __ZN3icu17UCharsTrieBuilder12writeDeltaToEi
|| __TEXT.__text __ZN3icu17UCharsTrieBuilder14ensureCapacityEi
|| __TEXT.__text __ZN3icu17UCharsTrieBuilder17writeElementUnitsEiii
|| __TEXT.__text __ZN3icu17UCharsTrieBuilder17writeValueAndTypeEaii
|| __TEXT.__text __ZN3icu17UCharsTrieBuilder18UCTLinearMatchNode5writeERNS_17StringTrieBuilderE
|| __TEXT.__text __ZN3icu17UCharsTrieBuilder18UCTLinearMatchNodeC1EPKDsiPNS_17StringTrieBuilder4NodeE
|| __TEXT.__text __ZN3icu17UCharsTrieBuilder18UCTLinearMatchNodeC2EPKDsiPNS_17StringTrieBuilder4NodeE
|| __TEXT.__text __ZN3icu17UCharsTrieBuilder18buildUnicodeStringE22UStringTrieBuildOptionRNS_13UnicodeStringER10UErrorCode
|| __TEXT.__text __ZN3icu17UCharsTrieBuilder18writeValueAndFinalEia
|| __TEXT.__text __ZN3icu17UCharsTrieBuilder3addERKNS_13UnicodeStringEiR10UErrorCode
|| __TEXT.__text __ZN3icu17UCharsTrieBuilder5buildE22UStringTrieBuildOptionR10UErrorCode
|| __TEXT.__text __ZN3icu17UCharsTrieBuilder5writeEPKDsi
|| __TEXT.__text __ZN3icu17UCharsTrieBuilder5writeEi
|| __TEXT.__text __ZN3icu17UCharsTrieBuilderC1ER10UErrorCode
|| __TEXT.__text __ZN3icu17UCharsTrieBuilderC2ER10UErrorCode
|| __TEXT.__text __ZN3icu17UCharsTrieBuilderD0Ev
|| __TEXT.__text __ZN3icu17UCharsTrieBuilderD1Ev
|| __TEXT.__text __ZN3icu17UCharsTrieBuilderD2Ev
|| __TEXT.__text __ZN3icu17double_conversion23DoubleToStringConverter13DoubleToAsciiEdNS1_8DtoaModeEiPciPbPiS5_
|| __TEXT.__text __ZN3icu18AnnualTimeZoneRule16getStaticClassIDEv
|| __TEXT.__text __ZN3icu18AnnualTimeZoneRuleC1ERKNS_13UnicodeStringEiiPNS_12DateTimeRuleEii
|| __TEXT.__text __ZN3icu18AnnualTimeZoneRuleC1ERKNS_13UnicodeStringEiiRKNS_12DateTimeRuleEii
|| __TEXT.__text __ZN3icu18AnnualTimeZoneRuleC1ERKS0_
|| __TEXT.__text __ZN3icu18AnnualTimeZoneRuleC2ERKNS_13UnicodeStringEiiPNS_12DateTimeRuleEii
|| __TEXT.__text __ZN3icu18AnnualTimeZoneRuleC2ERKNS_13UnicodeStringEiiRKNS_12DateTimeRuleEii
|| __TEXT.__text __ZN3icu18AnnualTimeZoneRuleC2ERKS0_
|| __TEXT.__text __ZN3icu18AnnualTimeZoneRuleD0Ev
|| __TEXT.__text __ZN3icu18AnnualTimeZoneRuleD1Ev
|| __TEXT.__text __ZN3icu18AnnualTimeZoneRuleD2Ev
|| __TEXT.__text __ZN3icu18AnnualTimeZoneRuleaSERKS0_
|| __TEXT.__text __ZN3icu18CalendarAstronomer10clearCacheEv
|| __TEXT.__text __ZN3icu18CalendarAstronomer10getMoonAgeEv
|| __TEXT.__text __ZN3icu18CalendarAstronomer10getSunTimeEda
|| __TEXT.__text __ZN3icu18CalendarAstronomer11getMoonTimeERKNS0_7MoonAgeEa
|| __TEXT.__text __ZN3icu18CalendarAstronomer11getMoonTimeEda
|| __TEXT.__text __ZN3icu18CalendarAstronomer11timeOfAngleERNS0_9AngleFuncEddda
|| __TEXT.__text __ZN3icu18CalendarAstronomer12getJulianDayEv
|| __TEXT.__text __ZN3icu18CalendarAstronomer12getMoonPhaseEv
|| __TEXT.__text __ZN3icu18CalendarAstronomer12setJulianDayEd
|| __TEXT.__text __ZN3icu18CalendarAstronomer13getSunRiseSetEa
|| __TEXT.__text __ZN3icu18CalendarAstronomer14getMoonRiseSetEa
|| __TEXT.__text __ZN3icu18CalendarAstronomer14getSunPositionERNS0_10EquatorialE
|| __TEXT.__text __ZN3icu18CalendarAstronomer15SUMMER_SOLSTICEEv
|| __TEXT.__text __ZN3icu18CalendarAstronomer15WINTER_SOLSTICEEv
|| __TEXT.__text __ZN3icu18CalendarAstronomer15getMoonPositionEv
|| __TEXT.__text __ZN3icu18CalendarAstronomer15getSunLongitudeEdRdS1_
|| __TEXT.__text __ZN3icu18CalendarAstronomer15getSunLongitudeEv
|| __TEXT.__text __ZN3icu18CalendarAstronomer16getJulianCenturyEv
|| __TEXT.__text __ZN3icu18CalendarAstronomer16getLocalSiderealEv
|| __TEXT.__text __ZN3icu18CalendarAstronomer17eclipticObliquityEv
|| __TEXT.__text __ZN3icu18CalendarAstronomer17eclipticToHorizonERNS0_7HorizonEd
|| __TEXT.__text __ZN3icu18CalendarAstronomer17getSiderealOffsetEv
|| __TEXT.__text __ZN3icu18CalendarAstronomer18adjustSunLongitudeERdd
|| __TEXT.__text __ZN3icu18CalendarAstronomer20eclipticToEquatorialERNS0_10EquatorialERKNS0_8EclipticE
|| __TEXT.__text __ZN3icu18CalendarAstronomer20eclipticToEquatorialERNS0_10EquatorialEd
|| __TEXT.__text __ZN3icu18CalendarAstronomer20eclipticToEquatorialERNS0_10EquatorialEdd
|| __TEXT.__text __ZN3icu18CalendarAstronomer20getGreenwichSiderealEv
|| __TEXT.__text __ZN3icu18CalendarAstronomer21getNewMoonTimeInRangeEda
|| __TEXT.__text __ZN3icu18CalendarAstronomer22getSunLongitudeForTimeEd
|| __TEXT.__text __ZN3icu18CalendarAstronomer7getTimeEv
|| __TEXT.__text __ZN3icu18CalendarAstronomer7lstToUTEd
|| __TEXT.__text __ZN3icu18CalendarAstronomer7setTimeEd
|| __TEXT.__text __ZN3icu18CalendarAstronomer8NEW_MOONEv
|| __TEXT.__text __ZN3icu18CalendarAstronomer9AngleFuncD0Ev
|| __TEXT.__text __ZN3icu18CalendarAstronomer9AngleFuncD1Ev
|| __TEXT.__text __ZN3icu18CalendarAstronomer9AngleFuncD2Ev
|| __TEXT.__text __ZN3icu18CalendarAstronomer9CoordFuncD0Ev
|| __TEXT.__text __ZN3icu18CalendarAstronomer9CoordFuncD1Ev
|| __TEXT.__text __ZN3icu18CalendarAstronomer9CoordFuncD2Ev
|| __TEXT.__text __ZN3icu18CalendarAstronomer9FULL_MOONEv
|| __TEXT.__text __ZN3icu18CalendarAstronomer9riseOrSetERNS0_9CoordFuncEaddd
|| __TEXT.__text __ZN3icu18CalendarAstronomerC1Ed
|| __TEXT.__text __ZN3icu18CalendarAstronomerC1Edd
|| __TEXT.__text __ZN3icu18CalendarAstronomerC1Ev
|| __TEXT.__text __ZN3icu18CalendarAstronomerC2Ed
|| __TEXT.__text __ZN3icu18CalendarAstronomerC2Edd
|| __TEXT.__text __ZN3icu18CalendarAstronomerC2Ev
|| __TEXT.__text __ZN3icu18CalendarAstronomerD1Ev
|| __TEXT.__text __ZN3icu18CalendarAstronomerD2Ev
|| __TEXT.__text __ZN3icu18CollationFastLatin10getOptionsEPKNS_13CollationDataERKNS_17CollationSettingsEPti
|| __TEXT.__text __ZN3icu18CollationFastLatin10lookupUTF8EPKtiPKhRii
|| __TEXT.__text __ZN3icu18CollationFastLatin11compareUTF8EPKtS2_iPKhiS4_i
|| __TEXT.__text __ZN3icu18CollationFastLatin12compareUTF16EPKtS2_iPKDsiS4_i
|| __TEXT.__text __ZN3icu18CollationFastLatin13getTertiariesEjaj
|| __TEXT.__text __ZN3icu18CollationFastLatin14getSecondariesEjj
|| __TEXT.__text __ZN3icu18CollationFastLatin15getQuaternariesEjj
|| __TEXT.__text __ZN3icu18CollationFastLatin16lookupUTF8UnsafeEPKtiPKhRi
|| __TEXT.__text __ZN3icu18CollationFastLatin6lookupEPKti
|| __TEXT.__text __ZN3icu18CollationFastLatin8getCasesEjaj
|| __TEXT.__text __ZN3icu18CollationFastLatin8nextPairEPKtijPKDsPKhRiS7_
|| __TEXT.__text __ZN3icu18CollationTailoring10setVersionEPKhS2_
|| __TEXT.__text __ZN3icu18CollationTailoring15ensureOwnedDataER10UErrorCode
|| __TEXT.__text __ZN3icu18CollationTailoring15makeBaseVersionEPKhPh
|| __TEXT.__text __ZN3icu18CollationTailoringC1EPKNS_17CollationSettingsE
|| __TEXT.__text __ZN3icu18CollationTailoringC2EPKNS_17CollationSettingsE
|| __TEXT.__text __ZN3icu18CollationTailoringD0Ev
|| __TEXT.__text __ZN3icu18CollationTailoringD1Ev
|| __TEXT.__text __ZN3icu18CollationTailoringD2Ev
|| __TEXT.__text __ZN3icu18CurrencyPluralInfo10deleteHashEPNS_9HashtableE
|| __TEXT.__text __ZN3icu18CurrencyPluralInfo10initializeERKNS_6LocaleER10UErrorCode
|| __TEXT.__text __ZN3icu18CurrencyPluralInfo14setPluralRulesERKNS_13UnicodeStringER10UErrorCode
|| __TEXT.__text __ZN3icu18CurrencyPluralInfo16getStaticClassIDEv
|| __TEXT.__text __ZN3icu18CurrencyPluralInfo24setCurrencyPluralPatternERKNS_13UnicodeStringES3_R10UErrorCode
|| __TEXT.__text __ZN3icu18CurrencyPluralInfo26setupCurrencyPluralPatternERKNS_6LocaleER10UErrorCode
|| __TEXT.__text __ZN3icu18CurrencyPluralInfo8copyHashEPKNS_9HashtableEPS1_R10UErrorCode
|| __TEXT.__text __ZN3icu18CurrencyPluralInfo8initHashER10UErrorCode
|| __TEXT.__text __ZN3icu18CurrencyPluralInfo9setLocaleERKNS_6LocaleER10UErrorCode
|| __TEXT.__text __ZN3icu18CurrencyPluralInfoC1ER10UErrorCode
|| __TEXT.__text __ZN3icu18CurrencyPluralInfoC1ERKNS_6LocaleER10UErrorCode
|| __TEXT.__text __ZN3icu18CurrencyPluralInfoC1ERKS0_
|| __TEXT.__text __ZN3icu18CurrencyPluralInfoC2ER10UErrorCode
|| __TEXT.__text __ZN3icu18CurrencyPluralInfoC2ERKNS_6LocaleER10UErrorCode
|| __TEXT.__text __ZN3icu18CurrencyPluralInfoC2ERKS0_
|| __TEXT.__text __ZN3icu18CurrencyPluralInfoD0Ev
|| __TEXT.__text __ZN3icu18CurrencyPluralInfoD1Ev
|| __TEXT.__text __ZN3icu18CurrencyPluralInfoD2Ev
|| __TEXT.__text __ZN3icu18CurrencyPluralInfoaSERKS0_
|| __TEXT.__text __ZN3icu18DateFmtBestPatternD0Ev
|| __TEXT.__text __ZN3icu18DateFmtBestPatternD1Ev
|| __TEXT.__text __ZN3icu18DateFmtBestPatternD2Ev
|| __TEXT.__text __ZN3icu18DateIntervalFormat10setContextE15UDisplayContextR10UErrorCode
|| __TEXT.__text __ZN3icu18DateIntervalFormat11setTimeZoneERKNS_8TimeZoneE
|| __TEXT.__text __ZN3icu18DateIntervalFormat12setAttributeE28UDateIntervalFormatAttribute33UDateIntervalFormatAttributeValueR10UErrorCode
|| __TEXT.__text __ZN3icu18DateIntervalFormat13adoptTimeZoneEPNS_8TimeZoneE
|| __TEXT.__text __ZN3icu18DateIntervalFormat14createInstanceERKNS_13UnicodeStringER10UErrorCode
|| __TEXT.__text __ZN3icu18DateIntervalFormat14createInstanceERKNS_13UnicodeStringERKNS_16DateIntervalInfoER10UErrorCode
|| __TEXT.__text __ZN3icu18DateIntervalFormat14createInstanceERKNS_13UnicodeStringERKNS_6LocaleER10UErrorCode
|| __TEXT.__text __ZN3icu18DateIntervalFormat14createInstanceERKNS_13UnicodeStringERKNS_6LocaleERKNS_16DateIntervalInfoER10UErrorCode
|| __TEXT.__text __ZN3icu18DateIntervalFormat14setPatternInfoE19UCalendarDateFieldsPKNS_13UnicodeStringES4_a
|| __TEXT.__text __ZN3icu18DateIntervalFormat16adjustFieldWidthERKNS_13UnicodeStringES3_S3_aRS1_
|| __TEXT.__text __ZN3icu18DateIntervalFormat16getStaticClassIDEv
|| __TEXT.__text __ZN3icu18DateIntervalFormat17initializePatternER10UErrorCode
|| __TEXT.__text __ZN3icu18DateIntervalFormat18setFallbackPatternE19UCalendarDateFieldsRKNS_13UnicodeStringER10UErrorCode
|| __TEXT.__text __ZN3icu18DateIntervalFormat18setIntervalPatternE19UCalendarDateFieldsPKNS_13UnicodeStringES4_aPS2_S5_
|| __TEXT.__text __ZN3icu18DateIntervalFormat18setIntervalPatternE19UCalendarDateFieldsRKNS_13UnicodeStringE
|| __TEXT.__text __ZN3icu18DateIntervalFormat18setIntervalPatternE19UCalendarDateFieldsRKNS_13UnicodeStringEa
|| __TEXT.__text __ZN3icu18DateIntervalFormat19getDateTimeSkeletonERKNS_13UnicodeStringERS1_S4_S4_S4_
|| __TEXT.__text __ZN3icu18DateIntervalFormat19setDateIntervalInfoERKNS_16DateIntervalInfoER10UErrorCode
|| __TEXT.__text __ZN3icu18DateIntervalFormat21fieldExistsInSkeletonE19UCalendarDateFieldsRKNS_13UnicodeStringE
|| __TEXT.__text __ZN3icu18DateIntervalFormat21splitPatternInto2PartERKNS_13UnicodeStringE
|| __TEXT.__text __ZN3icu18DateIntervalFormat22setSeparateDateTimePtnERKNS_13UnicodeStringES3_
|| __TEXT.__text __ZN3icu18DateIntervalFormat29concatSingleDate2TimeIntervalERNS_13UnicodeStringERKS1_19UCalendarDateFieldsR10UErrorCode
|| __TEXT.__text __ZN3icu18DateIntervalFormat6createERKNS_6LocaleEPNS_16DateIntervalInfoEPKNS_13UnicodeStringER10UErrorCode
|| __TEXT.__text __ZN3icu18DateIntervalFormatC1ERKNS_6LocaleEPNS_16DateIntervalInfoEPKNS_13UnicodeStringER10UErrorCode
|| __TEXT.__text __ZN3icu18DateIntervalFormatC1ERKS0_
|| __TEXT.__text __ZN3icu18DateIntervalFormatC1Ev
|| __TEXT.__text __ZN3icu18DateIntervalFormatC2ERKNS_6LocaleEPNS_16DateIntervalInfoEPKNS_13UnicodeStringER10UErrorCode
|| __TEXT.__text __ZN3icu18DateIntervalFormatC2ERKS0_
|| __TEXT.__text __ZN3icu18DateIntervalFormatC2Ev
|| __TEXT.__text __ZN3icu18DateIntervalFormatD0Ev
|| __TEXT.__text __ZN3icu18DateIntervalFormatD1Ev
|| __TEXT.__text __ZN3icu18DateIntervalFormatD2Ev
|| __TEXT.__text __ZN3icu18DateIntervalFormataSERKS0_
|| __TEXT.__text __ZN3icu18LocaleDisplayNames14createInstanceERKNS_6LocaleE16UDialectHandling
|| __TEXT.__text __ZN3icu18LocaleDisplayNames14createInstanceERKNS_6LocaleEP15UDisplayContexti
|| __TEXT.__text __ZN3icu18LocaleDisplayNamesD0Ev
|| __TEXT.__text __ZN3icu18LocaleDisplayNamesD1Ev
|| __TEXT.__text __ZN3icu18LocaleDisplayNamesD2Ev
|| __TEXT.__text __ZN3icu18Normalizer2Factory10getNFCImplER10UErrorCode
|| __TEXT.__text __ZN3icu18Normalizer2Factory11getInstanceE18UNormalizationModeR10UErrorCode
|| __TEXT.__text __ZN3icu18Normalizer2Factory11getNFKCImplER10UErrorCode
|| __TEXT.__text __ZN3icu18Normalizer2Factory14getFCCInstanceER10UErrorCode
|| __TEXT.__text __ZN3icu18Normalizer2Factory14getFCDInstanceER10UErrorCode
|| __TEXT.__text __ZN3icu18Normalizer2Factory14getNFKC_CFImplER10UErrorCode
|| __TEXT.__text __ZN3icu18Normalizer2Factory15getNoopInstanceER10UErrorCode
|| __TEXT.__text __ZN3icu18Normalizer2Factory7getImplEPKNS_11Normalizer2E
|| __TEXT.__text __ZN3icu18NullTransliterator16getStaticClassIDEv
|| __TEXT.__text __ZN3icu18RelativeDateFormat16getStaticClassIDEv
|| __TEXT.__text __ZN3icu18RuleBasedTokenizer4initEv
|| __TEXT.__text __ZN3icu18RuleBasedTokenizer8tokenizeEiP19RuleBasedTokenRangePm
|| __TEXT.__text __ZN3icu18RuleBasedTokenizerC1EPKhNS0_10EDontAdoptER10UErrorCode
|| __TEXT.__text __ZN3icu18RuleBasedTokenizerC1EPhR10UErrorCode
|| __TEXT.__text __ZN3icu18RuleBasedTokenizerC1ERKNS_13UnicodeStringER11UParseErrorR10UErrorCode
|| __TEXT.__text __ZN3icu18RuleBasedTokenizerC2EPKhNS0_10EDontAdoptER10UErrorCode
|| __TEXT.__text __ZN3icu18RuleBasedTokenizerC2EPhR10UErrorCode
|| __TEXT.__text __ZN3icu18RuleBasedTokenizerC2ERKNS_13UnicodeStringER11UParseErrorR10UErrorCode
|| __TEXT.__text __ZN3icu18RuleBasedTokenizerD0Ev
|| __TEXT.__text __ZN3icu18RuleBasedTokenizerD1Ev
|| __TEXT.__text __ZN3icu18RuleBasedTokenizerD2Ev
|| __TEXT.__text __ZN3icu18SharedNumberFormatD0Ev
|| __TEXT.__text __ZN3icu18SharedNumberFormatD1Ev
|| __TEXT.__text __ZN3icu18SharedNumberFormatD2Ev
|| __TEXT.__text __ZN3icu18TimeZoneTransition16getStaticClassIDEv
|| __TEXT.__text __ZN3icu18TimeZoneTransition5setToERKNS_12TimeZoneRuleE
|| __TEXT.__text __ZN3icu18TimeZoneTransition7adoptToEPNS_12TimeZoneRuleE
|| __TEXT.__text __ZN3icu18TimeZoneTransition7setFromERKNS_12TimeZoneRuleE
|| __TEXT.__text __ZN3icu18TimeZoneTransition7setTimeEd
|| __TEXT.__text __ZN3icu18TimeZoneTransition9adoptFromEPNS_12TimeZoneRuleE
|| __TEXT.__text __ZN3icu18TimeZoneTransitionC1ERKS0_
|| __TEXT.__text __ZN3icu18TimeZoneTransitionC1EdRKNS_12TimeZoneRuleES3_
|| __TEXT.__text __ZN3icu18TimeZoneTransitionC1Ev
|| __TEXT.__text __ZN3icu18TimeZoneTransitionC2ERKS0_
|| __TEXT.__text __ZN3icu18TimeZoneTransitionC2EdRKNS_12TimeZoneRuleES3_
|| __TEXT.__text __ZN3icu18TimeZoneTransitionC2Ev
|| __TEXT.__text __ZN3icu18TimeZoneTransitionD0Ev
|| __TEXT.__text __ZN3icu18TimeZoneTransitionD1Ev
|| __TEXT.__text __ZN3icu18TimeZoneTransitionD2Ev
|| __TEXT.__text __ZN3icu18TimeZoneTransitionaSERKS0_
|| __TEXT.__text __ZN3icu18UStringEnumeration16fromUEnumerationEP12UEnumerationR10UErrorCode
|| __TEXT.__text __ZN3icu18UStringEnumeration16getStaticClassIDEv
|| __TEXT.__text __ZN3icu18UStringEnumeration4nextEPiR10UErrorCode
|| __TEXT.__text __ZN3icu18UStringEnumeration5resetER10UErrorCode
|| __TEXT.__text __ZN3icu18UStringEnumeration5snextER10UErrorCode
|| __TEXT.__text __ZN3icu18UStringEnumerationC1EP12UEnumeration
|| __TEXT.__text __ZN3icu18UStringEnumerationC2EP12UEnumeration
|| __TEXT.__text __ZN3icu18UStringEnumerationD0Ev
|| __TEXT.__text __ZN3icu18UStringEnumerationD1Ev
|| __TEXT.__text __ZN3icu18UStringEnumerationD2Ev
|| __TEXT.__text __ZN3icu18UnicodeSetIterator16getStaticClassIDEv
|| __TEXT.__text __ZN3icu18UnicodeSetIterator4nextEv
|| __TEXT.__text __ZN3icu18UnicodeSetIterator5resetERKNS_10UnicodeSetE
|| __TEXT.__text __ZN3icu18UnicodeSetIterator5resetEv
|| __TEXT.__text __ZN3icu18UnicodeSetIterator9getStringEv
|| __TEXT.__text __ZN3icu18UnicodeSetIterator9loadRangeEi
|| __TEXT.__text __ZN3icu18UnicodeSetIterator9nextRangeEv
|| __TEXT.__text __ZN3icu18UnicodeSetIteratorC1ERKNS_10UnicodeSetE
|| __TEXT.__text __ZN3icu18UnicodeSetIteratorC1Ev
|| __TEXT.__text __ZN3icu18UnicodeSetIteratorC2ERKNS_10UnicodeSetE
|| __TEXT.__text __ZN3icu18UnicodeSetIteratorC2Ev
|| __TEXT.__text __ZN3icu18UnicodeSetIteratorD0Ev
|| __TEXT.__text __ZN3icu18UnicodeSetIteratorD1Ev
|| __TEXT.__text __ZN3icu18UnicodeSetIteratorD2Ev
|| __TEXT.__text __ZN3icu19BreakTransliterator16getStaticClassIDEv
|| __TEXT.__text __ZN3icu19CollationDataReader12isAcceptableEPvPKcS3_PK9UDataInfo
|| __TEXT.__text __ZN3icu19CollationDataReader4readEPKNS_18CollationTailoringEPKhiRS1_R10UErrorCode
|| __TEXT.__text __ZN3icu19CollationDataWriter14writeTailoringERKNS_18CollationTailoringERKNS_17CollationSettingsEPiPhiR10UErrorCode
|| __TEXT.__text __ZN3icu19CollationDataWriter5writeEaPKhRKNS_13CollationDataERKNS_17CollationSettingsEPKviPiPhiR10UErrorCode
|| __TEXT.__text __ZN3icu19CollationDataWriter8copyDataEPKiiPKvPh
|| __TEXT.__text __ZN3icu19CollationDataWriter9writeBaseERKNS_13CollationDataERKNS_17CollationSettingsEPKviPiPhiR10UErrorCode
|| __TEXT.__text __ZN3icu19CollationRuleParser11parseStringEiRNS_13UnicodeStringER10UErrorCode
|| __TEXT.__text __ZN3icu19CollationRuleParser12isSyntaxCharEi
|| __TEXT.__text __ZN3icu19CollationRuleParser12parseSettingER10UErrorCode
|| __TEXT.__text __ZN3icu19CollationRuleParser13getOnOffValueERKNS_13UnicodeStringE
|| __TEXT.__text __ZN3icu19CollationRuleParser13setParseErrorEPKcR10UErrorCode
|| __TEXT.__text __ZN3icu19CollationRuleParser14getReorderCodeEPKc
|| __TEXT.__text __ZN3icu19CollationRuleParser14parseRuleChainER10UErrorCode
|| __TEXT.__text __ZN3icu19CollationRuleParser15parseReorderingERKNS_13UnicodeStringER10UErrorCode
|| __TEXT.__text __ZN3icu19CollationRuleParser15parseUnicodeSetEiRNS_10UnicodeSetER10UErrorCode
|| __TEXT.__text __ZN3icu19CollationRuleParser15setErrorContextEv
|| __TEXT.__text __ZN3icu19CollationRuleParser20parseRelationStringsEiiR10UErrorCode
|| __TEXT.__text __ZN3icu19CollationRuleParser20parseSpecialPositionEiRNS_13UnicodeStringER10UErrorCode
|| __TEXT.__text __ZN3icu19CollationRuleParser20parseTailoringStringEiRNS_13UnicodeStringER10UErrorCode
|| __TEXT.__text __ZN3icu19CollationRuleParser21parseRelationOperatorER10UErrorCode
|| __TEXT.__text __ZN3icu19CollationRuleParser21parseResetAndPositionER10UErrorCode
|| __TEXT.__text __ZN3icu19CollationRuleParser22parseStarredCharactersEiiR10UErrorCode
|| __TEXT.__text __ZN3icu19CollationRuleParser4Sink20suppressContractionsERKNS_10UnicodeSetERPKcR10UErrorCode
|| __TEXT.__text __ZN3icu19CollationRuleParser4Sink8optimizeERKNS_10UnicodeSetERPKcR10UErrorCode
|| __TEXT.__text __ZN3icu19CollationRuleParser4SinkD0Ev
|| __TEXT.__text __ZN3icu19CollationRuleParser4SinkD1Ev
|| __TEXT.__text __ZN3icu19CollationRuleParser4SinkD2Ev
|| __TEXT.__text __ZN3icu19CollationRuleParser5parseERKNS_13UnicodeStringER10UErrorCode
|| __TEXT.__text __ZN3icu19CollationRuleParser5parseERKNS_13UnicodeStringERNS_17CollationSettingsEP11UParseErrorR10UErrorCode
|| __TEXT.__text __ZN3icu19CollationRuleParser8ImporterD0Ev
|| __TEXT.__text __ZN3icu19CollationRuleParser8ImporterD1Ev
|| __TEXT.__text __ZN3icu19CollationRuleParser8ImporterD2Ev
|| __TEXT.__text __ZN3icu19CollationRuleParserC1EPKNS_13CollationDataER10UErrorCode
|| __TEXT.__text __ZN3icu19CollationRuleParserC2EPKNS_13CollationDataER10UErrorCode
|| __TEXT.__text __ZN3icu19CollationRuleParserD1Ev
|| __TEXT.__text __ZN3icu19CollationRuleParserD2Ev
|| __TEXT.__text __ZN3icu19FilteredNormalizer2D0Ev
|| __TEXT.__text __ZN3icu19FilteredNormalizer2D1Ev
|| __TEXT.__text __ZN3icu19FilteredNormalizer2D2Ev
|| __TEXT.__text __ZN3icu19InitialTimeZoneRule16getStaticClassIDEv
|| __TEXT.__text __ZN3icu19InitialTimeZoneRuleC1ERKNS_13UnicodeStringEii
|| __TEXT.__text __ZN3icu19InitialTimeZoneRuleC1ERKS0_
|| __TEXT.__text __ZN3icu19InitialTimeZoneRuleC2ERKNS_13UnicodeStringEii
|| __TEXT.__text __ZN3icu19InitialTimeZoneRuleC2ERKS0_
|| __TEXT.__text __ZN3icu19InitialTimeZoneRuleD0Ev
|| __TEXT.__text __ZN3icu19InitialTimeZoneRuleD1Ev
|| __TEXT.__text __ZN3icu19InitialTimeZoneRuleD2Ev
|| __TEXT.__text __ZN3icu19InitialTimeZoneRuleaSERKS0_
|| __TEXT.__text __ZN3icu19SharedBreakIteratorC1EPNS_13BreakIteratorE
|| __TEXT.__text __ZN3icu19SharedBreakIteratorC2EPNS_13BreakIteratorE
|| __TEXT.__text __ZN3icu19SharedBreakIteratorD0Ev
|| __TEXT.__text __ZN3icu19SharedBreakIteratorD1Ev
|| __TEXT.__text __ZN3icu19SharedBreakIteratorD2Ev
|| __TEXT.__text __ZN3icu20CheckedArrayByteSink15GetAppendBufferEiiPciPi
|| __TEXT.__text __ZN3icu20CheckedArrayByteSink5ResetEv
|| __TEXT.__text __ZN3icu20CheckedArrayByteSink6AppendEPKci
|| __TEXT.__text __ZN3icu20CheckedArrayByteSinkC1EPci
|| __TEXT.__text __ZN3icu20CheckedArrayByteSinkC2EPci
|| __TEXT.__text __ZN3icu20CheckedArrayByteSinkD0Ev
|| __TEXT.__text __ZN3icu20CheckedArrayByteSinkD1Ev
|| __TEXT.__text __ZN3icu20CheckedArrayByteSinkD2Ev
|| __TEXT.__text __ZN3icu20CollationDataBuilder10CEModifierD0Ev
|| __TEXT.__text __ZN3icu20CollationDataBuilder10CEModifierD1Ev
|| __TEXT.__text __ZN3icu20CollationDataBuilder10CEModifierD2Ev
|| __TEXT.__text __ZN3icu20CollationDataBuilder11encodeOneCEExR10UErrorCode
|| __TEXT.__text __ZN3icu20CollationDataBuilder12buildContextEPNS_15ConditionalCE32ER10UErrorCode
|| __TEXT.__text __ZN3icu20CollationDataBuilder12getJamoCE32sEPjR10UErrorCode
|| __TEXT.__text __ZN3icu20CollationDataBuilder12setDigitTagsER10UErrorCode
|| __TEXT.__text __ZN3icu20CollationDataBuilder13buildContextsER10UErrorCode
|| __TEXT.__text __ZN3icu20CollationDataBuilder13buildMappingsERNS_13CollationDataER10UErrorCode
|| __TEXT.__text __ZN3icu20CollationDataBuilder13clearContextsEv
|| __TEXT.__text __ZN3icu20CollationDataBuilder14addContextTrieEjRNS_17UCharsTrieBuilderER10UErrorCode
|| __TEXT.__text __ZN3icu20CollationDataBuilder15encodeExpansionEPKxiR10UErrorCode
|| __TEXT.__text __ZN3icu20CollationDataBuilder16copyFromBaseCE32EijaR10UErrorCode
|| __TEXT.__text __ZN3icu20CollationDataBuilder16initForTailoringEPKNS_13CollationDataER10UErrorCode
|| __TEXT.__text __ZN3icu20CollationDataBuilder17encodeExpansion32EPKiiR10UErrorCode
|| __TEXT.__text __ZN3icu20CollationDataBuilder17encodeOneCEAsCE32Ex
|| __TEXT.__text __ZN3icu20CollationDataBuilder17setLeadSurrogatesER10UErrorCode
|| __TEXT.__text __ZN3icu20CollationDataBuilder18addConditionalCE32ERKNS_13UnicodeStringEjR10UErrorCode
|| __TEXT.__text __ZN3icu20CollationDataBuilder19buildFastLatinTableERNS_13CollationDataER10UErrorCode
|| __TEXT.__text __ZN3icu20CollationDataBuilder20maybeSetPrimaryRangeEiijiR10UErrorCode
|| __TEXT.__text __ZN3icu20CollationDataBuilder20suppressContractionsERKNS_10UnicodeSetER10UErrorCode
|| __TEXT.__text __ZN3icu20CollationDataBuilder28copyContractionsFromBaseCE32ERNS_13UnicodeStringEijPNS_15ConditionalCE32ER10UErrorCode
|| __TEXT.__text __ZN3icu20CollationDataBuilder28setPrimaryRangeAndReturnNextEiijiR10UErrorCode
|| __TEXT.__text __ZN3icu20CollationDataBuilder3addERKNS_13UnicodeStringES3_PKxiR10UErrorCode
|| __TEXT.__text __ZN3icu20CollationDataBuilder5addCEExR10UErrorCode
|| __TEXT.__text __ZN3icu20CollationDataBuilder5buildERNS_13CollationDataER10UErrorCode
|| __TEXT.__text __ZN3icu20CollationDataBuilder6getCEsERKNS_13UnicodeStringEPxi
|| __TEXT.__text __ZN3icu20CollationDataBuilder6getCEsERKNS_13UnicodeStringES3_Pxi
|| __TEXT.__text __ZN3icu20CollationDataBuilder6getCEsERKNS_13UnicodeStringEiPxi
|| __TEXT.__text __ZN3icu20CollationDataBuilder7addCE32ERKNS_13UnicodeStringES3_jR10UErrorCode
|| __TEXT.__text __ZN3icu20CollationDataBuilder7addCE32EjR10UErrorCode
|| __TEXT.__text __ZN3icu20CollationDataBuilder8copyFromERKS0_RKNS0_10CEModifierER10UErrorCode
|| __TEXT.__text __ZN3icu20CollationDataBuilder8optimizeERKNS_10UnicodeSetER10UErrorCode
|| __TEXT.__text __ZN3icu20CollationDataBuilder9encodeCEsEPKxiR10UErrorCode
|| __TEXT.__text __ZN3icu20CollationDataBuilderC1ER10UErrorCode
|| __TEXT.__text __ZN3icu20CollationDataBuilderC2ER10UErrorCode
|| __TEXT.__text __ZN3icu20CollationDataBuilderD0Ev
|| __TEXT.__text __ZN3icu20CollationDataBuilderD1Ev
|| __TEXT.__text __ZN3icu20CollationDataBuilderD2Ev
|| __TEXT.__text __ZN3icu20CompactDecimalFormat14createInstanceERKNS_6LocaleE19UNumberCompactStyleR10UErrorCode
|| __TEXT.__text __ZN3icu20CompactDecimalFormat16getStaticClassIDEv
|| __TEXT.__text __ZN3icu20CompactDecimalFormatC1ERKNS_6LocaleE19UNumberCompactStyleR10UErrorCode
|| __TEXT.__text __ZN3icu20CompactDecimalFormatC1ERKS0_
|| __TEXT.__text __ZN3icu20CompactDecimalFormatC2ERKNS_6LocaleE19UNumberCompactStyleR10UErrorCode
|| __TEXT.__text __ZN3icu20CompactDecimalFormatC2ERKS0_
|| __TEXT.__text __ZN3icu20CompactDecimalFormatD0Ev
|| __TEXT.__text __ZN3icu20CompactDecimalFormatD1Ev
|| __TEXT.__text __ZN3icu20CompactDecimalFormatD2Ev
|| __TEXT.__text __ZN3icu20CompactDecimalFormataSERKS0_
|| __TEXT.__text __ZN3icu20DecimalFormatSymbols10initializeERKNS_6LocaleER10UErrorCodeaPKNS_15NumberingSystemE
|| __TEXT.__text __ZN3icu20DecimalFormatSymbols10initializeEv
|| __TEXT.__text __ZN3icu20DecimalFormatSymbols16getStaticClassIDEv
|| __TEXT.__text __ZN3icu20DecimalFormatSymbols24createWithLastResortDataER10UErrorCode
|| __TEXT.__text __ZN3icu20DecimalFormatSymbols28setPatternForCurrencySpacingE16UCurrencySpacingaRKNS_13UnicodeStringE
|| __TEXT.__text __ZN3icu20DecimalFormatSymbolsC1ER10UErrorCode
|| __TEXT.__text __ZN3icu20DecimalFormatSymbolsC1ERKNS_6LocaleER10UErrorCode
|| __TEXT.__text __ZN3icu20DecimalFormatSymbolsC1ERKNS_6LocaleERKNS_15NumberingSystemER10UErrorCode
|| __TEXT.__text __ZN3icu20DecimalFormatSymbolsC1ERKS0_
|| __TEXT.__text __ZN3icu20DecimalFormatSymbolsC1Ev
|| __TEXT.__text __ZN3icu20DecimalFormatSymbolsC2ER10UErrorCode
|| __TEXT.__text __ZN3icu20DecimalFormatSymbolsC2ERKNS_6LocaleER10UErrorCode
|| __TEXT.__text __ZN3icu20DecimalFormatSymbolsC2ERKNS_6LocaleERKNS_15NumberingSystemER10UErrorCode
|| __TEXT.__text __ZN3icu20DecimalFormatSymbolsC2ERKS0_
|| __TEXT.__text __ZN3icu20DecimalFormatSymbolsC2Ev
|| __TEXT.__text __ZN3icu20DecimalFormatSymbolsD0Ev
|| __TEXT.__text __ZN3icu20DecimalFormatSymbolsD1Ev
|| __TEXT.__text __ZN3icu20DecimalFormatSymbolsD2Ev
|| __TEXT.__text __ZN3icu20DecimalFormatSymbolsaSERKS0_
|| __TEXT.__text __ZN3icu20EscapeTransliterator16getStaticClassIDEv
|| __TEXT.__text __ZN3icu20FieldPositionHandler8setShiftEi
|| __TEXT.__text __ZN3icu20FieldPositionHandlerD0Ev
|| __TEXT.__text __ZN3icu20FieldPositionHandlerD1Ev
|| __TEXT.__text __ZN3icu20FieldPositionHandlerD2Ev
|| __TEXT.__text __ZN3icu20RemoveTransliterator16getStaticClassIDEv
|| __TEXT.__text __ZN3icu20StackUResourceBundleC1Ev
|| __TEXT.__text __ZN3icu20StackUResourceBundleC2Ev
|| __TEXT.__text __ZN3icu20StackUResourceBundleD1Ev
|| __TEXT.__text __ZN3icu20StackUResourceBundleD2Ev
|| __TEXT.__text __ZN3icu20TimeZoneGenericNames14createInstanceERKNS_6LocaleER10UErrorCode
|| __TEXT.__text __ZN3icu20TimeZoneGenericNamesC1Ev
|| __TEXT.__text __ZN3icu20TimeZoneGenericNamesC2Ev
|| __TEXT.__text __ZN3icu20TimeZoneGenericNamesD0Ev
|| __TEXT.__text __ZN3icu20TimeZoneGenericNamesD1Ev
|| __TEXT.__text __ZN3icu20TimeZoneGenericNamesD2Ev
|| __TEXT.__text __ZN3icu20umtx_initImplPreInitERNS_9UInitOnceE
|| __TEXT.__text __ZN3icu21CaseMapTransliterator16getStaticClassIDEv
|| __TEXT.__text __ZN3icu21DateFmtBestPatternKeyD0Ev
|| __TEXT.__text __ZN3icu21DateFmtBestPatternKeyD1Ev
|| __TEXT.__text __ZN3icu21DateFmtBestPatternKeyD2Ev
|| __TEXT.__text __ZN3icu21FieldPositionIterator4nextERNS_13FieldPositionE
|| __TEXT.__text __ZN3icu21FieldPositionIterator7setDataEPNS_9UVector32ER10UErrorCode
|| __TEXT.__text __ZN3icu21FieldPositionIteratorC1ERKS0_
|| __TEXT.__text __ZN3icu21FieldPositionIteratorC1Ev
|| __TEXT.__text __ZN3icu21FieldPositionIteratorC2ERKS0_
|| __TEXT.__text __ZN3icu21FieldPositionIteratorC2Ev
|| __TEXT.__text __ZN3icu21FieldPositionIteratorD0Ev
|| __TEXT.__text __ZN3icu21FieldPositionIteratorD1Ev
|| __TEXT.__text __ZN3icu21FieldPositionIteratorD2Ev
|| __TEXT.__text __ZN3icu21FormattedDateIntervalC1EOS0_
|| __TEXT.__text __ZN3icu21FormattedDateIntervalC2EOS0_
|| __TEXT.__text __ZN3icu21FormattedDateIntervalD0Ev
|| __TEXT.__text __ZN3icu21FormattedDateIntervalD1Ev
|| __TEXT.__text __ZN3icu21FormattedDateIntervalD2Ev
|| __TEXT.__text __ZN3icu21FormattedDateIntervalaSEOS0_
|| __TEXT.__text __ZN3icu21RuleBasedNumberFormat10setContextE15UDisplayContextR10UErrorCode
|| __TEXT.__text __ZN3icu21RuleBasedNumberFormat10setLenientEa
|| __TEXT.__text __ZN3icu21RuleBasedNumberFormat15setRoundingModeENS_12NumberFormat13ERoundingModeE
|| __TEXT.__text __ZN3icu21RuleBasedNumberFormat15stripWhitespaceERNS_13UnicodeStringE
|| __TEXT.__text __ZN3icu21RuleBasedNumberFormat16getStaticClassIDEv
|| __TEXT.__text __ZN3icu21RuleBasedNumberFormat17setDefaultRuleSetERKNS_13UnicodeStringER10UErrorCode
|| __TEXT.__text __ZN3icu21RuleBasedNumberFormat18initDefaultRuleSetEv
|| __TEXT.__text __ZN3icu21RuleBasedNumberFormat21getRuleSetDisplayNameERKNS_13UnicodeStringERKNS_6LocaleE
|| __TEXT.__text __ZN3icu21RuleBasedNumberFormat21getRuleSetDisplayNameEiRKNS_6LocaleE
|| __TEXT.__text __ZN3icu21RuleBasedNumberFormat23setDecimalFormatSymbolsERKNS_20DecimalFormatSymbolsE
|| __TEXT.__text __ZN3icu21RuleBasedNumberFormat24initializeDefaultNaNRuleER10UErrorCode
|| __TEXT.__text __ZN3icu21RuleBasedNumberFormat25adoptDecimalFormatSymbolsEPNS_20DecimalFormatSymbolsE
|| __TEXT.__text __ZN3icu21RuleBasedNumberFormat29initCapitalizationContextInfoERKNS_6LocaleE
|| __TEXT.__text __ZN3icu21RuleBasedNumberFormat29initializeDefaultInfinityRuleER10UErrorCode
|| __TEXT.__text __ZN3icu21RuleBasedNumberFormat30initializeDecimalFormatSymbolsER10UErrorCode
|| __TEXT.__text __ZN3icu21RuleBasedNumberFormat4initERKNS_13UnicodeStringEPNS_16LocalizationInfoER11UParseErrorR10UErrorCode
|| __TEXT.__text __ZN3icu21RuleBasedNumberFormat7disposeEv
|| __TEXT.__text __ZN3icu21RuleBasedNumberFormatC1ENS_15URBNFRuleSetTagERKNS_6LocaleER10UErrorCode
|| __TEXT.__text __ZN3icu21RuleBasedNumberFormatC1ERKNS_13UnicodeStringEPNS_16LocalizationInfoERKNS_6LocaleER11UParseErrorR10UErrorCode
|| __TEXT.__text __ZN3icu21RuleBasedNumberFormatC1ERKNS_13UnicodeStringER11UParseErrorR10UErrorCode
|| __TEXT.__text __ZN3icu21RuleBasedNumberFormatC1ERKNS_13UnicodeStringERKNS_6LocaleER11UParseErrorR10UErrorCode
|| __TEXT.__text __ZN3icu21RuleBasedNumberFormatC1ERKNS_13UnicodeStringES3_R11UParseErrorR10UErrorCode
|| __TEXT.__text __ZN3icu21RuleBasedNumberFormatC1ERKNS_13UnicodeStringES3_RKNS_6LocaleER11UParseErrorR10UErrorCode
|| __TEXT.__text __ZN3icu21RuleBasedNumberFormatC1ERKS0_
|| __TEXT.__text __ZN3icu21RuleBasedNumberFormatC2ENS_15URBNFRuleSetTagERKNS_6LocaleER10UErrorCode
|| __TEXT.__text __ZN3icu21RuleBasedNumberFormatC2ERKNS_13UnicodeStringEPNS_16LocalizationInfoERKNS_6LocaleER11UParseErrorR10UErrorCode
|| __TEXT.__text __ZN3icu21RuleBasedNumberFormatC2ERKNS_13UnicodeStringER11UParseErrorR10UErrorCode
|| __TEXT.__text __ZN3icu21RuleBasedNumberFormatC2ERKNS_13UnicodeStringERKNS_6LocaleER11UParseErrorR10UErrorCode
|| __TEXT.__text __ZN3icu21RuleBasedNumberFormatC2ERKNS_13UnicodeStringES3_R11UParseErrorR10UErrorCode
|| __TEXT.__text __ZN3icu21RuleBasedNumberFormatC2ERKNS_13UnicodeStringES3_RKNS_6LocaleER11UParseErrorR10UErrorCode
|| __TEXT.__text __ZN3icu21RuleBasedNumberFormatC2ERKS0_
|| __TEXT.__text __ZN3icu21RuleBasedNumberFormatD0Ev
|| __TEXT.__text __ZN3icu21RuleBasedNumberFormatD1Ev
|| __TEXT.__text __ZN3icu21RuleBasedNumberFormatD2Ev
|| __TEXT.__text __ZN3icu21RuleBasedNumberFormataSERKS0_
|| __TEXT.__text __ZN3icu21TimeArrayTimeZoneRule14initStartTimesEPKdiR10UErrorCode
|| __TEXT.__text __ZN3icu21TimeArrayTimeZoneRule16getStaticClassIDEv
|| __TEXT.__text __ZN3icu21TimeArrayTimeZoneRuleC1ERKNS_13UnicodeStringEiiPKdiNS_12DateTimeRule12TimeRuleTypeE
|| __TEXT.__text __ZN3icu21TimeArrayTimeZoneRuleC1ERKS0_
|| __TEXT.__text __ZN3icu21TimeArrayTimeZoneRuleC2ERKNS_13UnicodeStringEiiPKdiNS_12DateTimeRule12TimeRuleTypeE
|| __TEXT.__text __ZN3icu21TimeArrayTimeZoneRuleC2ERKS0_
|| __TEXT.__text __ZN3icu21TimeArrayTimeZoneRuleD0Ev
|| __TEXT.__text __ZN3icu21TimeArrayTimeZoneRuleD1Ev
|| __TEXT.__text __ZN3icu21TimeArrayTimeZoneRuleD2Ev
|| __TEXT.__text __ZN3icu21TimeArrayTimeZoneRuleaSERKS0_
|| __TEXT.__text __ZN3icu21UTF8CollationIterator13nextCodePointER10UErrorCode
|| __TEXT.__text __ZN3icu21UTF8CollationIterator13resetToOffsetEi
|| __TEXT.__text __ZN3icu21UTF8CollationIterator14handleNextCE32ERiR10UErrorCode
|| __TEXT.__text __ZN3icu21UTF8CollationIterator17previousCodePointER10UErrorCode
|| __TEXT.__text __ZN3icu21UTF8CollationIterator18foundNULTerminatorEv
|| __TEXT.__text __ZN3icu21UTF8CollationIterator20forwardNumCodePointsEiR10UErrorCode
|| __TEXT.__text __ZN3icu21UTF8CollationIterator21backwardNumCodePointsEiR10UErrorCode
|| __TEXT.__text __ZN3icu21UTF8CollationIteratorD0Ev
|| __TEXT.__text __ZN3icu21UTF8CollationIteratorD1Ev
|| __TEXT.__text __ZN3icu21UTF8CollationIteratorD2Ev
|| __TEXT.__text __ZN3icu21umtx_initImplPostInitERNS_9UInitOnceE
|| __TEXT.__text __ZN3icu22BytesDictionaryMatcherD0Ev
|| __TEXT.__text __ZN3icu22BytesDictionaryMatcherD1Ev
|| __TEXT.__text __ZN3icu22BytesDictionaryMatcherD2Ev
|| __TEXT.__text __ZN3icu22CompoundTransliterator16getStaticClassIDEv
|| __TEXT.__text __ZN3icu22CompoundTransliterator18setTransliteratorsEPKPNS_14TransliteratorEi
|| __TEXT.__text __ZN3icu22CompoundTransliterator19freeTransliteratorsEv
|| __TEXT.__text __ZN3icu22CompoundTransliterator20adoptTransliteratorsEPPNS_14TransliteratorEi
|| __TEXT.__text __ZN3icu22CompoundTransliterator27computeMaximumContextLengthEv
|| __TEXT.__text __ZN3icu22CompoundTransliterator4initERKNS_13UnicodeStringE15UTransDirectionaR10UErrorCode
|| __TEXT.__text __ZN3icu22CompoundTransliterator4initERNS_7UVectorE15UTransDirectionaR10UErrorCode
|| __TEXT.__text __ZN3icu22CompoundTransliterator7joinIDsEPKPNS_14TransliteratorEi
|| __TEXT.__text __ZN3icu22CompoundTransliteratorC1EPKPNS_14TransliteratorEiPNS_13UnicodeFilterE
|| __TEXT.__text __ZN3icu22CompoundTransliteratorC1ERKNS_13UnicodeStringE15UTransDirectionPNS_13UnicodeFilterER11UParseErrorR10UErrorCode
|| __TEXT.__text __ZN3icu22CompoundTransliteratorC1ERKNS_13UnicodeStringER11UParseErrorR10UErrorCode
|| __TEXT.__text __ZN3icu22CompoundTransliteratorC1ERKNS_13UnicodeStringERNS_7UVectorEPNS_13UnicodeFilterEiR11UParseErrorR10UErrorCode
|| __TEXT.__text __ZN3icu22CompoundTransliteratorC1ERKS0_
|| __TEXT.__text __ZN3icu22CompoundTransliteratorC1ERNS_7UVectorER11UParseErrorR10UErrorCode
|| __TEXT.__text __ZN3icu22CompoundTransliteratorC1ERNS_7UVectorEiR11UParseErrorR10UErrorCode
|| __TEXT.__text __ZN3icu22CompoundTransliteratorC2EPKPNS_14TransliteratorEiPNS_13UnicodeFilterE
|| __TEXT.__text __ZN3icu22CompoundTransliteratorC2ERKNS_13UnicodeStringE15UTransDirectionPNS_13UnicodeFilterER11UParseErrorR10UErrorCode
|| __TEXT.__text __ZN3icu22CompoundTransliteratorC2ERKNS_13UnicodeStringER11UParseErrorR10UErrorCode
|| __TEXT.__text __ZN3icu22CompoundTransliteratorC2ERKNS_13UnicodeStringERNS_7UVectorEPNS_13UnicodeFilterEiR11UParseErrorR10UErrorCode
|| __TEXT.__text __ZN3icu22CompoundTransliteratorC2ERKS0_
|| __TEXT.__text __ZN3icu22CompoundTransliteratorC2ERNS_7UVectorER11UParseErrorR10UErrorCode
|| __TEXT.__text __ZN3icu22CompoundTransliteratorC2ERNS_7UVectorEiR11UParseErrorR10UErrorCode
|| __TEXT.__text __ZN3icu22CompoundTransliteratorD0Ev
|| __TEXT.__text __ZN3icu22CompoundTransliteratorD1Ev
|| __TEXT.__text __ZN3icu22CompoundTransliteratorD2Ev
|| __TEXT.__text __ZN3icu22CompoundTransliteratoraSERKS0_
|| __TEXT.__text __ZN3icu22RuleBasedBreakIterator10BreakCache12addFollowingEiiNS1_20UpdatePositionValuesE
|| __TEXT.__text __ZN3icu22RuleBasedBreakIterator10BreakCache12addPrecedingEiiNS1_20UpdatePositionValuesE
|| __TEXT.__text __ZN3icu22RuleBasedBreakIterator10BreakCache12populateNearEiR10UErrorCode
|| __TEXT.__text __ZN3icu22RuleBasedBreakIterator10BreakCache17populateFollowingEv
|| __TEXT.__text __ZN3icu22RuleBasedBreakIterator10BreakCache17populatePrecedingER10UErrorCode
|| __TEXT.__text __ZN3icu22RuleBasedBreakIterator10BreakCache4seekEi
|| __TEXT.__text __ZN3icu22RuleBasedBreakIterator10BreakCache5resetEii
|| __TEXT.__text __ZN3icu22RuleBasedBreakIterator10BreakCache6nextOLEv
|| __TEXT.__text __ZN3icu22RuleBasedBreakIterator10BreakCache7currentEv
|| __TEXT.__text __ZN3icu22RuleBasedBreakIterator10BreakCache8previousER10UErrorCode
|| __TEXT.__text __ZN3icu22RuleBasedBreakIterator10BreakCache9dumpCacheEv
|| __TEXT.__text __ZN3icu22RuleBasedBreakIterator10BreakCache9followingEiR10UErrorCode
|| __TEXT.__text __ZN3icu22RuleBasedBreakIterator10BreakCache9precedingEiR10UErrorCode
|| __TEXT.__text __ZN3icu22RuleBasedBreakIterator10BreakCacheC1EPS0_R10UErrorCode
|| __TEXT.__text __ZN3icu22RuleBasedBreakIterator10BreakCacheC2EPS0_R10UErrorCode
|| __TEXT.__text __ZN3icu22RuleBasedBreakIterator10BreakCacheD0Ev
|| __TEXT.__text __ZN3icu22RuleBasedBreakIterator10BreakCacheD1Ev
|| __TEXT.__text __ZN3icu22RuleBasedBreakIterator10BreakCacheD2Ev
|| __TEXT.__text __ZN3icu22RuleBasedBreakIterator10dumpTablesEv
|| __TEXT.__text __ZN3icu22RuleBasedBreakIterator10handleNextEv
|| __TEXT.__text __ZN3icu22RuleBasedBreakIterator10isBoundaryEi
|| __TEXT.__text __ZN3icu22RuleBasedBreakIterator13initLatin1CatEv
|| __TEXT.__text __ZN3icu22RuleBasedBreakIterator14getBinaryRulesERj
|| __TEXT.__text __ZN3icu22RuleBasedBreakIterator15DictionaryCache18populateDictionaryEiiii
|| __TEXT.__text __ZN3icu22RuleBasedBreakIterator15DictionaryCache5resetEv
|| __TEXT.__text __ZN3icu22RuleBasedBreakIterator15DictionaryCache9followingEiPiS2_
|| __TEXT.__text __ZN3icu22RuleBasedBreakIterator15DictionaryCache9precedingEiPiS2_
|| __TEXT.__text __ZN3icu22RuleBasedBreakIterator15DictionaryCacheC1EPS0_R10UErrorCode
|| __TEXT.__text __ZN3icu22RuleBasedBreakIterator15DictionaryCacheC2EPS0_R10UErrorCode
|| __TEXT.__text __ZN3icu22RuleBasedBreakIterator15DictionaryCacheD1Ev
|| __TEXT.__text __ZN3icu22RuleBasedBreakIterator15DictionaryCacheD2Ev
|| __TEXT.__text __ZN3icu22RuleBasedBreakIterator16getRuleStatusVecEPiiR10UErrorCode
|| __TEXT.__text __ZN3icu22RuleBasedBreakIterator16getStaticClassIDEv
|| __TEXT.__text __ZN3icu22RuleBasedBreakIterator16refreshInputTextEP5UTextR10UErrorCode
|| __TEXT.__text __ZN3icu22RuleBasedBreakIterator17createBufferCloneEPvRiR10UErrorCode
|| __TEXT.__text __ZN3icu22RuleBasedBreakIterator18handleNextInternalEv
|| __TEXT.__text __ZN3icu22RuleBasedBreakIterator18handleSafePreviousEi
|| __TEXT.__text __ZN3icu22RuleBasedBreakIterator22getLanguageBreakEngineEi
|| __TEXT.__text __ZN3icu22RuleBasedBreakIterator4initER10UErrorCode
|| __TEXT.__text __ZN3icu22RuleBasedBreakIterator4lastEv
|| __TEXT.__text __ZN3icu22RuleBasedBreakIterator4nextEi
|| __TEXT.__text __ZN3icu22RuleBasedBreakIterator4nextEv
|| __TEXT.__text __ZN3icu22RuleBasedBreakIterator5firstEv
|| __TEXT.__text __ZN3icu22RuleBasedBreakIterator7setTextEP5UTextR10UErrorCode
|| __TEXT.__text __ZN3icu22RuleBasedBreakIterator7setTextERKNS_13UnicodeStringE
|| __TEXT.__text __ZN3icu22RuleBasedBreakIterator8previousEv
|| __TEXT.__text __ZN3icu22RuleBasedBreakIterator8tokenizeEiP19RuleBasedTokenRangePm
|| __TEXT.__text __ZN3icu22RuleBasedBreakIterator9adoptTextEPNS_17CharacterIteratorE
|| __TEXT.__text __ZN3icu22RuleBasedBreakIterator9dumpCacheEv
|| __TEXT.__text __ZN3icu22RuleBasedBreakIterator9followingEi
|| __TEXT.__text __ZN3icu22RuleBasedBreakIterator9precedingEi
|| __TEXT.__text __ZN3icu22RuleBasedBreakIteratorC1EP11UDataMemoryR10UErrorCode
|| __TEXT.__text __ZN3icu22RuleBasedBreakIteratorC1EPKhjR10UErrorCode
|| __TEXT.__text __ZN3icu22RuleBasedBreakIteratorC1EPNS_14RBBIDataHeaderER10UErrorCode
|| __TEXT.__text __ZN3icu22RuleBasedBreakIteratorC1ERKNS_13UnicodeStringER11UParseErrorR10UErrorCode
|| __TEXT.__text __ZN3icu22RuleBasedBreakIteratorC1ERKS0_
|| __TEXT.__text __ZN3icu22RuleBasedBreakIteratorC1Ev
|| __TEXT.__text __ZN3icu22RuleBasedBreakIteratorC2EP11UDataMemoryR10UErrorCode
|| __TEXT.__text __ZN3icu22RuleBasedBreakIteratorC2EPKhjR10UErrorCode
|| __TEXT.__text __ZN3icu22RuleBasedBreakIteratorC2EPNS_14RBBIDataHeaderER10UErrorCode
|| __TEXT.__text __ZN3icu22RuleBasedBreakIteratorC2ERKNS_13UnicodeStringER11UParseErrorR10UErrorCode
|| __TEXT.__text __ZN3icu22RuleBasedBreakIteratorC2ERKS0_
|| __TEXT.__text __ZN3icu22RuleBasedBreakIteratorC2Ev
|| __TEXT.__text __ZN3icu22RuleBasedBreakIteratorD0Ev
|| __TEXT.__text __ZN3icu22RuleBasedBreakIteratorD1Ev
|| __TEXT.__text __ZN3icu22RuleBasedBreakIteratorD2Ev
|| __TEXT.__text __ZN3icu22RuleBasedBreakIteratoraSERKS0_
|| __TEXT.__text __ZN3icu22UCharCharacterIterator10previous32Ev
|| __TEXT.__text __ZN3icu22UCharCharacterIterator10setIndex32Ei
|| __TEXT.__text __ZN3icu22UCharCharacterIterator11hasPreviousEv
|| __TEXT.__text __ZN3icu22UCharCharacterIterator11nextPostIncEv
|| __TEXT.__text __ZN3icu22UCharCharacterIterator12firstPostIncEv
|| __TEXT.__text __ZN3icu22UCharCharacterIterator13next32PostIncEv
|| __TEXT.__text __ZN3icu22UCharCharacterIterator14first32PostIncEv
|| __TEXT.__text __ZN3icu22UCharCharacterIterator16getStaticClassIDEv
|| __TEXT.__text __ZN3icu22UCharCharacterIterator4lastEv
|| __TEXT.__text __ZN3icu22UCharCharacterIterator4moveEiNS_17CharacterIterator7EOriginE
|| __TEXT.__text __ZN3icu22UCharCharacterIterator4nextEv
|| __TEXT.__text __ZN3icu22UCharCharacterIterator5firstEv
|| __TEXT.__text __ZN3icu22UCharCharacterIterator6last32Ev
|| __TEXT.__text __ZN3icu22UCharCharacterIterator6move32EiNS_17CharacterIterator7EOriginE
|| __TEXT.__text __ZN3icu22UCharCharacterIterator6next32Ev
|| __TEXT.__text __ZN3icu22UCharCharacterIterator7first32Ev
|| __TEXT.__text __ZN3icu22UCharCharacterIterator7getTextERNS_13UnicodeStringE
|| __TEXT.__text __ZN3icu22UCharCharacterIterator7hasNextEv
|| __TEXT.__text __ZN3icu22UCharCharacterIterator7setTextENS_14ConstChar16PtrEi
|| __TEXT.__text __ZN3icu22UCharCharacterIterator8previousEv
|| __TEXT.__text __ZN3icu22UCharCharacterIterator8setIndexEi
|| __TEXT.__text __ZN3icu22UCharCharacterIteratorC1ENS_14ConstChar16PtrEi
|| __TEXT.__text __ZN3icu22UCharCharacterIteratorC1ENS_14ConstChar16PtrEii
|| __TEXT.__text __ZN3icu22UCharCharacterIteratorC1ENS_14ConstChar16PtrEiiii
|| __TEXT.__text __ZN3icu22UCharCharacterIteratorC1ERKS0_
|| __TEXT.__text __ZN3icu22UCharCharacterIteratorC1Ev
|| __TEXT.__text __ZN3icu22UCharCharacterIteratorC2ENS_14ConstChar16PtrEi
|| __TEXT.__text __ZN3icu22UCharCharacterIteratorC2ENS_14ConstChar16PtrEii
|| __TEXT.__text __ZN3icu22UCharCharacterIteratorC2ENS_14ConstChar16PtrEiiii
|| __TEXT.__text __ZN3icu22UCharCharacterIteratorC2ERKS0_
|| __TEXT.__text __ZN3icu22UCharCharacterIteratorC2Ev
|| __TEXT.__text __ZN3icu22UCharCharacterIteratorD0Ev
|| __TEXT.__text __ZN3icu22UCharCharacterIteratorD1Ev
|| __TEXT.__text __ZN3icu22UCharCharacterIteratorD2Ev
|| __TEXT.__text __ZN3icu22UCharCharacterIteratoraSERKS0_
|| __TEXT.__text __ZN3icu22UIterCollationIterator13nextCodePointER10UErrorCode
|| __TEXT.__text __ZN3icu22UIterCollationIterator13resetToOffsetEi
|| __TEXT.__text __ZN3icu22UIterCollationIterator14handleNextCE32ERiR10UErrorCode
|| __TEXT.__text __ZN3icu22UIterCollationIterator17previousCodePointER10UErrorCode
|| __TEXT.__text __ZN3icu22UIterCollationIterator20forwardNumCodePointsEiR10UErrorCode
|| __TEXT.__text __ZN3icu22UIterCollationIterator21backwardNumCodePointsEiR10UErrorCode
|| __TEXT.__text __ZN3icu22UIterCollationIterator23handleGetTrailSurrogateEv
|| __TEXT.__text __ZN3icu22UIterCollationIteratorD0Ev
|| __TEXT.__text __ZN3icu22UIterCollationIteratorD1Ev
|| __TEXT.__text __ZN3icu22UIterCollationIteratorD2Ev
|| __TEXT.__text __ZN3icu22UTF16CollationIterator13nextCodePointER10UErrorCode
|| __TEXT.__text __ZN3icu22UTF16CollationIterator13resetToOffsetEi
|| __TEXT.__text __ZN3icu22UTF16CollationIterator14handleNextCE32ERiR10UErrorCode
|| __TEXT.__text __ZN3icu22UTF16CollationIterator17previousCodePointER10UErrorCode
|| __TEXT.__text __ZN3icu22UTF16CollationIterator18foundNULTerminatorEv
|| __TEXT.__text __ZN3icu22UTF16CollationIterator20forwardNumCodePointsEiR10UErrorCode
|| __TEXT.__text __ZN3icu22UTF16CollationIterator21backwardNumCodePointsEiR10UErrorCode
|| __TEXT.__text __ZN3icu22UTF16CollationIterator23handleGetTrailSurrogateEv
|| __TEXT.__text __ZN3icu22UTF16CollationIteratorC1ERKS0_PKDs
|| __TEXT.__text __ZN3icu22UTF16CollationIteratorC2ERKS0_PKDs
|| __TEXT.__text __ZN3icu22UTF16CollationIteratorD0Ev
|| __TEXT.__text __ZN3icu22UTF16CollationIteratorD1Ev
|| __TEXT.__text __ZN3icu22UTF16CollationIteratorD2Ev
|| __TEXT.__text __ZN3icu22UnescapeTransliterator16getStaticClassIDEv
|| __TEXT.__text __ZN3icu23FullCaseFoldingIterator4nextERNS_13UnicodeStringE
|| __TEXT.__text __ZN3icu23FullCaseFoldingIteratorC1Ev
|| __TEXT.__text __ZN3icu23FullCaseFoldingIteratorC2Ev
|| __TEXT.__text __ZN3icu23LowercaseTransliterator16getStaticClassIDEv
|| __TEXT.__text __ZN3icu23RuleBasedTransliterator16getStaticClassIDEv
|| __TEXT.__text __ZN3icu23SharedDateFormatSymbolsD0Ev
|| __TEXT.__text __ZN3icu23SharedDateFormatSymbolsD1Ev
|| __TEXT.__text __ZN3icu23SharedDateFormatSymbolsD2Ev
|| __TEXT.__text __ZN3icu23StringCharacterIterator16getStaticClassIDEv
|| __TEXT.__text __ZN3icu23StringCharacterIterator7getTextERNS_13UnicodeStringE
|| __TEXT.__text __ZN3icu23StringCharacterIterator7setTextERKNS_13UnicodeStringE
|| __TEXT.__text __ZN3icu23StringCharacterIteratorC1ERKNS_13UnicodeStringE
|| __TEXT.__text __ZN3icu23StringCharacterIteratorC1ERKNS_13UnicodeStringEi
|| __TEXT.__text __ZN3icu23StringCharacterIteratorC1ERKNS_13UnicodeStringEiii
|| __TEXT.__text __ZN3icu23StringCharacterIteratorC1ERKS0_
|| __TEXT.__text __ZN3icu23StringCharacterIteratorC1Ev
|| __TEXT.__text __ZN3icu23StringCharacterIteratorC2ERKNS_13UnicodeStringE
|| __TEXT.__text __ZN3icu23StringCharacterIteratorC2ERKNS_13UnicodeStringEi
|| __TEXT.__text __ZN3icu23StringCharacterIteratorC2ERKNS_13UnicodeStringEiii
|| __TEXT.__text __ZN3icu23StringCharacterIteratorC2ERKS0_
|| __TEXT.__text __ZN3icu23StringCharacterIteratorC2Ev
|| __TEXT.__text __ZN3icu23StringCharacterIteratorD0Ev
|| __TEXT.__text __ZN3icu23StringCharacterIteratorD1Ev
|| __TEXT.__text __ZN3icu23StringCharacterIteratorD2Ev
|| __TEXT.__text __ZN3icu23StringCharacterIteratoraSERKS0_
|| __TEXT.__text __ZN3icu23TitlecaseTransliterator16getStaticClassIDEv
|| __TEXT.__text __ZN3icu23UCharsDictionaryMatcherD0Ev
|| __TEXT.__text __ZN3icu23UCharsDictionaryMatcherD1Ev
|| __TEXT.__text __ZN3icu23UCharsDictionaryMatcherD2Ev
|| __TEXT.__text __ZN3icu23UnicodeStringAppendable12appendStringEPKDsi
|| __TEXT.__text __ZN3icu23UnicodeStringAppendable14appendCodeUnitEDs
|| __TEXT.__text __ZN3icu23UnicodeStringAppendable15appendCodePointEi
|| __TEXT.__text __ZN3icu23UnicodeStringAppendable15getAppendBufferEiiPDsiPi
|| __TEXT.__text __ZN3icu23UnicodeStringAppendable21reserveAppendCapacityEi
|| __TEXT.__text __ZN3icu23UnicodeStringAppendableD0Ev
|| __TEXT.__text __ZN3icu23UnicodeStringAppendableD1Ev
|| __TEXT.__text __ZN3icu23UnicodeStringAppendableD2Ev
|| __TEXT.__text __ZN3icu23UppercaseTransliterator16getStaticClassIDEv
|| __TEXT.__text __ZN3icu24CollationElementIterator15getMaxExpansionEPK10UHashtablei
|| __TEXT.__text __ZN3icu24CollationElementIterator16getStaticClassIDEv
|| __TEXT.__text __ZN3icu24CollationElementIterator20computeMaxExpansionsEPKNS_13CollationDataER10UErrorCode
|| __TEXT.__text __ZN3icu24CollationElementIterator4nextER10UErrorCode
|| __TEXT.__text __ZN3icu24CollationElementIterator5resetEv
|| __TEXT.__text __ZN3icu24CollationElementIterator7setTextERKNS_13UnicodeStringER10UErrorCode
|| __TEXT.__text __ZN3icu24CollationElementIterator7setTextERNS_17CharacterIteratorER10UErrorCode
|| __TEXT.__text __ZN3icu24CollationElementIterator8previousER10UErrorCode
|| __TEXT.__text __ZN3icu24CollationElementIterator9setOffsetEiR10UErrorCode
|| __TEXT.__text __ZN3icu24CollationElementIteratorC1ERKNS_13UnicodeStringEPKNS_17RuleBasedCollatorER10UErrorCode
|| __TEXT.__text __ZN3icu24CollationElementIteratorC1ERKNS_17CharacterIteratorEPKNS_17RuleBasedCollatorER10UErrorCode
|| __TEXT.__text __ZN3icu24CollationElementIteratorC1ERKS0_
|| __TEXT.__text __ZN3icu24CollationElementIteratorC2ERKNS_13UnicodeStringEPKNS_17RuleBasedCollatorER10UErrorCode
|| __TEXT.__text __ZN3icu24CollationElementIteratorC2ERKNS_17CharacterIteratorEPKNS_17RuleBasedCollatorER10UErrorCode
|| __TEXT.__text __ZN3icu24CollationElementIteratorC2ERKS0_
|| __TEXT.__text __ZN3icu24CollationElementIteratorD0Ev
|| __TEXT.__text __ZN3icu24CollationElementIteratorD1Ev
|| __TEXT.__text __ZN3icu24CollationElementIteratorD2Ev
|| __TEXT.__text __ZN3icu24CollationElementIteratoraSERKS0_
|| __TEXT.__text __ZN3icu24ConstrainedFieldPosition14constrainFieldEii
|| __TEXT.__text __ZN3icu24ConstrainedFieldPosition17constrainCategoryEi
|| __TEXT.__text __ZN3icu24ConstrainedFieldPosition24setInt64IterationContextEx
|| __TEXT.__text __ZN3icu24ConstrainedFieldPosition5resetEv
|| __TEXT.__text __ZN3icu24ConstrainedFieldPosition8setStateEiiii
|| __TEXT.__text __ZN3icu24ConstrainedFieldPositionC1Ev
|| __TEXT.__text __ZN3icu24ConstrainedFieldPositionC2Ev
|| __TEXT.__text __ZN3icu24ConstrainedFieldPositionD1Ev
|| __TEXT.__text __ZN3icu24ConstrainedFieldPositionD2Ev
|| __TEXT.__text __ZN3icu24DateTimePatternGenerator10addPatternERKNS_13UnicodeStringEaRS1_R10UErrorCode
|| __TEXT.__text __ZN3icu24DateTimePatternGenerator10getBestRawERNS_15DateTimeMatcherEiPNS_12DistanceInfoER10UErrorCodePPKNS_11PtnSkeletonE
|| __TEXT.__text __ZN3icu24DateTimePatternGenerator10setDecimalERKNS_13UnicodeStringE
|| __TEXT.__text __ZN3icu24DateTimePatternGenerator11addCLDRDataERKNS_6LocaleER10UErrorCode
|| __TEXT.__text __ZN3icu24DateTimePatternGenerator11getSkeletonERKNS_13UnicodeStringER10UErrorCode
|| __TEXT.__text __ZN3icu24DateTimePatternGenerator13copyHashtableEPNS_9HashtableER10UErrorCode
|| __TEXT.__text __ZN3icu24DateTimePatternGenerator13getAppendNameE21UDateTimePatternFieldRNS_13UnicodeStringE
|| __TEXT.__text __ZN3icu24DateTimePatternGenerator13getRedundantsER10UErrorCode
|| __TEXT.__text __ZN3icu24DateTimePatternGenerator13initHashtableER10UErrorCode
|| __TEXT.__text __ZN3icu24DateTimePatternGenerator14addICUPatternsERKNS_6LocaleER10UErrorCode
|| __TEXT.__text __ZN3icu24DateTimePatternGenerator14createInstanceER10UErrorCode
|| __TEXT.__text __ZN3icu24DateTimePatternGenerator14createInstanceERKNS_6LocaleER10UErrorCodea
|| __TEXT.__text __ZN3icu24DateTimePatternGenerator14getBestPatternERKNS_13UnicodeStringE28UDateTimePatternMatchOptionsR10UErrorCode
|| __TEXT.__text __ZN3icu24DateTimePatternGenerator14getBestPatternERKNS_13UnicodeStringER10UErrorCode
|| __TEXT.__text __ZN3icu24DateTimePatternGenerator15getBaseSkeletonERKNS_13UnicodeStringER10UErrorCode
|| __TEXT.__text __ZN3icu24DateTimePatternGenerator16adjustFieldTypesERKNS_13UnicodeStringEPKNS_11PtnSkeletonEi28UDateTimePatternMatchOptions
|| __TEXT.__text __ZN3icu24DateTimePatternGenerator16getBestAppendingEiiR10UErrorCode28UDateTimePatternMatchOptions
|| __TEXT.__text __ZN3icu24DateTimePatternGenerator16getStaticClassIDEv
|| __TEXT.__text __ZN3icu24DateTimePatternGenerator17addCanonicalItemsER10UErrorCode
|| __TEXT.__text __ZN3icu24DateTimePatternGenerator17replaceFieldTypesERKNS_13UnicodeStringES3_28UDateTimePatternMatchOptionsR10UErrorCode
|| __TEXT.__text __ZN3icu24DateTimePatternGenerator17replaceFieldTypesERKNS_13UnicodeStringES3_R10UErrorCode
|| __TEXT.__text __ZN3icu24DateTimePatternGenerator17setAppendItemNameE21UDateTimePatternFieldRKNS_13UnicodeStringE
|| __TEXT.__text __ZN3icu24DateTimePatternGenerator17setDateTimeFormatERKNS_13UnicodeStringE
|| __TEXT.__text __ZN3icu24DateTimePatternGenerator17setDecimalSymbolsERKNS_6LocaleER10UErrorCode
|| __TEXT.__text __ZN3icu24DateTimePatternGenerator17staticGetSkeletonERKNS_13UnicodeStringER10UErrorCode
|| __TEXT.__text __ZN3icu24DateTimePatternGenerator18setAvailableFormatERKNS_13UnicodeStringER10UErrorCode
|| __TEXT.__text __ZN3icu24DateTimePatternGenerator19AppendItemNamesSinkD0Ev
|| __TEXT.__text __ZN3icu24DateTimePatternGenerator19AppendItemNamesSinkD1Ev
|| __TEXT.__text __ZN3icu24DateTimePatternGenerator19AppendItemNamesSinkD2Ev
|| __TEXT.__text __ZN3icu24DateTimePatternGenerator19createEmptyInstanceER10UErrorCode
|| __TEXT.__text __ZN3icu24DateTimePatternGenerator19setAppendItemFormatE21UDateTimePatternFieldRKNS_13UnicodeStringE
|| __TEXT.__text __ZN3icu24DateTimePatternGenerator19setFieldDisplayNameE21UDateTimePatternField23UDateTimePGDisplayWidthRKNS_13UnicodeStringE
|| __TEXT.__text __ZN3icu24DateTimePatternGenerator20AvailableFormatsSinkD0Ev
|| __TEXT.__text __ZN3icu24DateTimePatternGenerator20AvailableFormatsSinkD1Ev
|| __TEXT.__text __ZN3icu24DateTimePatternGenerator20AvailableFormatsSinkD2Ev
|| __TEXT.__text __ZN3icu24DateTimePatternGenerator20getCalendarTypeToUseERKNS_6LocaleERNS_10CharStringER10UErrorCode
|| __TEXT.__text __ZN3icu24DateTimePatternGenerator21AppendItemFormatsSinkD0Ev
|| __TEXT.__text __ZN3icu24DateTimePatternGenerator21AppendItemFormatsSinkD1Ev
|| __TEXT.__text __ZN3icu24DateTimePatternGenerator21AppendItemFormatsSinkD2Ev
|| __TEXT.__text __ZN3icu24DateTimePatternGenerator21getAllowedHourFormatsERKNS_6LocaleER10UErrorCode
|| __TEXT.__text __ZN3icu24DateTimePatternGenerator21staticGetBaseSkeletonERKNS_13UnicodeStringER10UErrorCode
|| __TEXT.__text __ZN3icu24DateTimePatternGenerator22addPatternWithSkeletonERKNS_13UnicodeStringEPS2_aRS1_R10UErrorCode
|| __TEXT.__text __ZN3icu24DateTimePatternGenerator23consumeShortTimePatternERKNS_13UnicodeStringER10UErrorCode
|| __TEXT.__text __ZN3icu24DateTimePatternGenerator23setDateTimeFromCalendarERKNS_6LocaleER10UErrorCode
|| __TEXT.__text __ZN3icu24DateTimePatternGenerator25mapSkeletonMetacharactersERKNS_13UnicodeStringEPi28UDateTimePatternMatchOptionsR10UErrorCode
|| __TEXT.__text __ZN3icu24DateTimePatternGenerator26getMutableFieldDisplayNameE21UDateTimePatternField23UDateTimePGDisplayWidth
|| __TEXT.__text __ZN3icu24DateTimePatternGenerator26loadAllowedHourFormatsDataER10UErrorCode
|| __TEXT.__text __ZN3icu24DateTimePatternGenerator8initDataERKNS_6LocaleER10UErrorCodea
|| __TEXT.__text __ZN3icu24DateTimePatternGenerator9hackTimesERKNS_13UnicodeStringER10UErrorCode
|| __TEXT.__text __ZN3icu24DateTimePatternGeneratorC1ER10UErrorCode
|| __TEXT.__text __ZN3icu24DateTimePatternGeneratorC1ERKNS_6LocaleER10UErrorCodea
|| __TEXT.__text __ZN3icu24DateTimePatternGeneratorC1ERKS0_
|| __TEXT.__text __ZN3icu24DateTimePatternGeneratorC2ER10UErrorCode
|| __TEXT.__text __ZN3icu24DateTimePatternGeneratorC2ERKNS_6LocaleER10UErrorCodea
|| __TEXT.__text __ZN3icu24DateTimePatternGeneratorC2ERKS0_
|| __TEXT.__text __ZN3icu24DateTimePatternGeneratorD0Ev
|| __TEXT.__text __ZN3icu24DateTimePatternGeneratorD1Ev
|| __TEXT.__text __ZN3icu24DateTimePatternGeneratorD2Ev
|| __TEXT.__text __ZN3icu24DateTimePatternGeneratoraSERKS0_
|| __TEXT.__text __ZN3icu24FCDUTF8CollationIterator11nextSegmentER10UErrorCode
|| __TEXT.__text __ZN3icu24FCDUTF8CollationIterator13nextCodePointER10UErrorCode
|| __TEXT.__text __ZN3icu24FCDUTF8CollationIterator13resetToOffsetEi
|| __TEXT.__text __ZN3icu24FCDUTF8CollationIterator14handleNextCE32ERiR10UErrorCode
|| __TEXT.__text __ZN3icu24FCDUTF8CollationIterator15previousSegmentER10UErrorCode
|| __TEXT.__text __ZN3icu24FCDUTF8CollationIterator15switchToForwardEv
|| __TEXT.__text __ZN3icu24FCDUTF8CollationIterator16switchToBackwardEv
|| __TEXT.__text __ZN3icu24FCDUTF8CollationIterator17previousCodePointER10UErrorCode
|| __TEXT.__text __ZN3icu24FCDUTF8CollationIterator18foundNULTerminatorEv
|| __TEXT.__text __ZN3icu24FCDUTF8CollationIterator20forwardNumCodePointsEiR10UErrorCode
|| __TEXT.__text __ZN3icu24FCDUTF8CollationIterator21backwardNumCodePointsEiR10UErrorCode
|| __TEXT.__text __ZN3icu24FCDUTF8CollationIterator23handleGetTrailSurrogateEv
|| __TEXT.__text __ZN3icu24FCDUTF8CollationIterator9normalizeERKNS_13UnicodeStringER10UErrorCode
|| __TEXT.__text __ZN3icu24FCDUTF8CollationIteratorD0Ev
|| __TEXT.__text __ZN3icu24FCDUTF8CollationIteratorD1Ev
|| __TEXT.__text __ZN3icu24FCDUTF8CollationIteratorD2Ev
|| __TEXT.__text __ZN3icu24ForwardCharacterIteratorC2ERKS0_
|| __TEXT.__text __ZN3icu24ForwardCharacterIteratorC2Ev
|| __TEXT.__text __ZN3icu24ForwardCharacterIteratorD0Ev
|| __TEXT.__text __ZN3icu24ForwardCharacterIteratorD1Ev
|| __TEXT.__text __ZN3icu24ForwardCharacterIteratorD2Ev
|| __TEXT.__text __ZN3icu24RuleBasedBreakIterator5710handleNextEPKNS_14RBBIStateTableE
|| __TEXT.__text __ZN3icu24RuleBasedBreakIterator5710isBoundaryEi
|| __TEXT.__text __ZN3icu24RuleBasedBreakIterator5712setBreakTypeEi
|| __TEXT.__text __ZN3icu24RuleBasedBreakIterator5714getBinaryRulesERj
|| __TEXT.__text __ZN3icu24RuleBasedBreakIterator5714handlePreviousEPKNS_14RBBIStateTableE
|| __TEXT.__text __ZN3icu24RuleBasedBreakIterator5715checkDictionaryEiia
|| __TEXT.__text __ZN3icu24RuleBasedBreakIterator5716getRuleStatusVecEPiiR10UErrorCode
|| __TEXT.__text __ZN3icu24RuleBasedBreakIterator5716getStaticClassIDEv
|| __TEXT.__text __ZN3icu24RuleBasedBreakIterator5716refreshInputTextEP5UTextR10UErrorCode
|| __TEXT.__text __ZN3icu24RuleBasedBreakIterator5717createBufferCloneEPvRiR10UErrorCode
|| __TEXT.__text __ZN3icu24RuleBasedBreakIterator5719makeRuleStatusValidEv
|| __TEXT.__text __ZN3icu24RuleBasedBreakIterator5722getLanguageBreakEngineEi
|| __TEXT.__text __ZN3icu24RuleBasedBreakIterator574initEv
|| __TEXT.__text __ZN3icu24RuleBasedBreakIterator574lastEv
|| __TEXT.__text __ZN3icu24RuleBasedBreakIterator574nextEi
|| __TEXT.__text __ZN3icu24RuleBasedBreakIterator574nextEv
|| __TEXT.__text __ZN3icu24RuleBasedBreakIterator575firstEv
|| __TEXT.__text __ZN3icu24RuleBasedBreakIterator575resetEv
|| __TEXT.__text __ZN3icu24RuleBasedBreakIterator577setTextEP5UTextR10UErrorCode
|| __TEXT.__text __ZN3icu24RuleBasedBreakIterator577setTextERKNS_13UnicodeStringE
|| __TEXT.__text __ZN3icu24RuleBasedBreakIterator578previousEv
|| __TEXT.__text __ZN3icu24RuleBasedBreakIterator579adoptTextEPNS_17CharacterIteratorE
|| __TEXT.__text __ZN3icu24RuleBasedBreakIterator579followingEi
|| __TEXT.__text __ZN3icu24RuleBasedBreakIterator579precedingEi
|| __TEXT.__text __ZN3icu24RuleBasedBreakIterator57C1EPKNS_16RBBIDataHeader57ENS0_10EDontAdoptER10UErrorCode
|| __TEXT.__text __ZN3icu24RuleBasedBreakIterator57C1EPNS_16RBBIDataHeader57ER10UErrorCode
|| __TEXT.__text __ZN3icu24RuleBasedBreakIterator57C1ERKNS_13UnicodeStringER11UParseErrorR10UErrorCode
|| __TEXT.__text __ZN3icu24RuleBasedBreakIterator57C1ERKS0_
|| __TEXT.__text __ZN3icu24RuleBasedBreakIterator57C1Ev
|| __TEXT.__text __ZN3icu24RuleBasedBreakIterator57C2EPKNS_16RBBIDataHeader57ENS0_10EDontAdoptER10UErrorCode
|| __TEXT.__text __ZN3icu24RuleBasedBreakIterator57C2EPNS_16RBBIDataHeader57ER10UErrorCode
|| __TEXT.__text __ZN3icu24RuleBasedBreakIterator57C2ERKNS_13UnicodeStringER11UParseErrorR10UErrorCode
|| __TEXT.__text __ZN3icu24RuleBasedBreakIterator57C2ERKS0_
|| __TEXT.__text __ZN3icu24RuleBasedBreakIterator57C2Ev
|| __TEXT.__text __ZN3icu24RuleBasedBreakIterator57D0Ev
|| __TEXT.__text __ZN3icu24RuleBasedBreakIterator57D1Ev
|| __TEXT.__text __ZN3icu24RuleBasedBreakIterator57D2Ev
|| __TEXT.__text __ZN3icu24RuleBasedBreakIterator57aSERKS0_
|| __TEXT.__text __ZN3icu25CollationFastLatinBuilder10loadGroupsERKNS_13CollationDataER10UErrorCode
|| __TEXT.__text __ZN3icu25CollationFastLatinBuilder11addUniqueCEExR10UErrorCode
|| __TEXT.__text __ZN3icu25CollationFastLatinBuilder13encodeCharCEsER10UErrorCode
|| __TEXT.__text __ZN3icu25CollationFastLatinBuilder14getCEsFromCE32ERKNS_13CollationDataEijR10UErrorCode
|| __TEXT.__text __ZN3icu25CollationFastLatinBuilder15encodeUniqueCEsER10UErrorCode
|| __TEXT.__text __ZN3icu25CollationFastLatinBuilder18encodeContractionsER10UErrorCode
|| __TEXT.__text __ZN3icu25CollationFastLatinBuilder19addContractionEntryEixxR10UErrorCode
|| __TEXT.__text __ZN3icu25CollationFastLatinBuilder25getCEsFromContractionCE32ERKNS_13CollationDataEjR10UErrorCode
|| __TEXT.__text __ZN3icu25CollationFastLatinBuilder6getCEsERKNS_13CollationDataER10UErrorCode
|| __TEXT.__text __ZN3icu25CollationFastLatinBuilder7forDataERKNS_13CollationDataER10UErrorCode
|| __TEXT.__text __ZN3icu25CollationFastLatinBuilder8resetCEsEv
|| __TEXT.__text __ZN3icu25CollationFastLatinBuilderC1ER10UErrorCode
|| __TEXT.__text __ZN3icu25CollationFastLatinBuilderC2ER10UErrorCode
|| __TEXT.__text __ZN3icu25CollationFastLatinBuilderD0Ev
|| __TEXT.__text __ZN3icu25CollationFastLatinBuilderD1Ev
|| __TEXT.__text __ZN3icu25CollationFastLatinBuilderD2Ev
|| __TEXT.__text __ZN3icu25FCDUIterCollationIterator11nextSegmentER10UErrorCode
|| __TEXT.__text __ZN3icu25FCDUIterCollationIterator13nextCodePointER10UErrorCode
|| __TEXT.__text __ZN3icu25FCDUIterCollationIterator13resetToOffsetEi
|| __TEXT.__text __ZN3icu25FCDUIterCollationIterator14handleNextCE32ERiR10UErrorCode
|| __TEXT.__text __ZN3icu25FCDUIterCollationIterator15previousSegmentER10UErrorCode
|| __TEXT.__text __ZN3icu25FCDUIterCollationIterator15switchToForwardEv
|| __TEXT.__text __ZN3icu25FCDUIterCollationIterator16switchToBackwardEv
|| __TEXT.__text __ZN3icu25FCDUIterCollationIterator17previousCodePointER10UErrorCode
|| __TEXT.__text __ZN3icu25FCDUIterCollationIterator20forwardNumCodePointsEiR10UErrorCode
|| __TEXT.__text __ZN3icu25FCDUIterCollationIterator21backwardNumCodePointsEiR10UErrorCode
|| __TEXT.__text __ZN3icu25FCDUIterCollationIterator23handleGetTrailSurrogateEv
|| __TEXT.__text __ZN3icu25FCDUIterCollationIterator9normalizeERKNS_13UnicodeStringER10UErrorCode
|| __TEXT.__text __ZN3icu25FCDUIterCollationIteratorD0Ev
|| __TEXT.__text __ZN3icu25FCDUIterCollationIteratorD1Ev
|| __TEXT.__text __ZN3icu25FCDUIterCollationIteratorD2Ev
|| __TEXT.__text __ZN3icu25FCDUTF16CollationIterator11nextSegmentER10UErrorCode
|| __TEXT.__text __ZN3icu25FCDUTF16CollationIterator13nextCodePointER10UErrorCode
|| __TEXT.__text __ZN3icu25FCDUTF16CollationIterator13resetToOffsetEi
|| __TEXT.__text __ZN3icu25FCDUTF16CollationIterator14handleNextCE32ERiR10UErrorCode
|| __TEXT.__text __ZN3icu25FCDUTF16CollationIterator15previousSegmentER10UErrorCode
|| __TEXT.__text __ZN3icu25FCDUTF16CollationIterator15switchToForwardEv
|| __TEXT.__text __ZN3icu25FCDUTF16CollationIterator16switchToBackwardEv
|| __TEXT.__text __ZN3icu25FCDUTF16CollationIterator17previousCodePointER10UErrorCode
|| __TEXT.__text __ZN3icu25FCDUTF16CollationIterator18foundNULTerminatorEv
|| __TEXT.__text __ZN3icu25FCDUTF16CollationIterator20forwardNumCodePointsEiR10UErrorCode
|| __TEXT.__text __ZN3icu25FCDUTF16CollationIterator21backwardNumCodePointsEiR10UErrorCode
|| __TEXT.__text __ZN3icu25FCDUTF16CollationIterator9normalizeEPKDsS2_R10UErrorCode
|| __TEXT.__text __ZN3icu25FCDUTF16CollationIteratorC1ERKS0_PKDs
|| __TEXT.__text __ZN3icu25FCDUTF16CollationIteratorC2ERKS0_PKDs
|| __TEXT.__text __ZN3icu25FCDUTF16CollationIteratorD0Ev
|| __TEXT.__text __ZN3icu25FCDUTF16CollationIteratorD1Ev
|| __TEXT.__text __ZN3icu25FCDUTF16CollationIteratorD2Ev
|| __TEXT.__text __ZN3icu25FormattedRelativeDateTimeC1EOS0_
|| __TEXT.__text __ZN3icu25FormattedRelativeDateTimeC2EOS0_
|| __TEXT.__text __ZN3icu25FormattedRelativeDateTimeD0Ev
|| __TEXT.__text __ZN3icu25FormattedRelativeDateTimeD1Ev
|| __TEXT.__text __ZN3icu25FormattedRelativeDateTimeD2Ev
|| __TEXT.__text __ZN3icu25FormattedRelativeDateTimeaSEOS0_
|| __TEXT.__text __ZN3icu25NameUnicodeTransliterator16getStaticClassIDEv
|| __TEXT.__text __ZN3icu25RelativeDateTimeFormatter4initEPNS_12NumberFormatEPNS_13BreakIteratorER10UErrorCode
|| __TEXT.__text __ZN3icu25RelativeDateTimeFormatterC1ER10UErrorCode
|| __TEXT.__text __ZN3icu25RelativeDateTimeFormatterC1ERKNS_6LocaleEPNS_12NumberFormatE35UDateRelativeDateTimeFormatterStyle15UDisplayContextR10UErrorCode
|| __TEXT.__text __ZN3icu25RelativeDateTimeFormatterC1ERKNS_6LocaleEPNS_12NumberFormatER10UErrorCode
|| __TEXT.__text __ZN3icu25RelativeDateTimeFormatterC1ERKNS_6LocaleER10UErrorCode
|| __TEXT.__text __ZN3icu25RelativeDateTimeFormatterC1ERKS0_
|| __TEXT.__text __ZN3icu25RelativeDateTimeFormatterC2ER10UErrorCode
|| __TEXT.__text __ZN3icu25RelativeDateTimeFormatterC2ERKNS_6LocaleEPNS_12NumberFormatE35UDateRelativeDateTimeFormatterStyle15UDisplayContextR10UErrorCode
|| __TEXT.__text __ZN3icu25RelativeDateTimeFormatterC2ERKNS_6LocaleEPNS_12NumberFormatER10UErrorCode
|| __TEXT.__text __ZN3icu25RelativeDateTimeFormatterC2ERKNS_6LocaleER10UErrorCode
|| __TEXT.__text __ZN3icu25RelativeDateTimeFormatterC2ERKS0_
|| __TEXT.__text __ZN3icu25RelativeDateTimeFormatterD0Ev
|| __TEXT.__text __ZN3icu25RelativeDateTimeFormatterD1Ev
|| __TEXT.__text __ZN3icu25RelativeDateTimeFormatterD2Ev
|| __TEXT.__text __ZN3icu25RelativeDateTimeFormatteraSERKS0_
|| __TEXT.__text __ZN3icu25ScientificNumberFormatter14createInstanceEPNS_13DecimalFormatEPNS0_5StyleER10UErrorCode
|| __TEXT.__text __ZN3icu25ScientificNumberFormatter14getPreExponentERKNS_20DecimalFormatSymbolsERNS_13UnicodeStringE
|| __TEXT.__text __ZN3icu25ScientificNumberFormatter20createMarkupInstanceEPNS_13DecimalFormatERKNS_13UnicodeStringES5_R10UErrorCode
|| __TEXT.__text __ZN3icu25ScientificNumberFormatter20createMarkupInstanceERKNS_6LocaleERKNS_13UnicodeStringES6_R10UErrorCode
|| __TEXT.__text __ZN3icu25ScientificNumberFormatter25createSuperscriptInstanceEPNS_13DecimalFormatER10UErrorCode
|| __TEXT.__text __ZN3icu25ScientificNumberFormatter25createSuperscriptInstanceERKNS_6LocaleER10UErrorCode
|| __TEXT.__text __ZN3icu25ScientificNumberFormatterC1EPNS_13DecimalFormatEPNS0_5StyleER10UErrorCode
|| __TEXT.__text __ZN3icu25ScientificNumberFormatterC1ERKS0_
|| __TEXT.__text __ZN3icu25ScientificNumberFormatterC2EPNS_13DecimalFormatEPNS0_5StyleER10UErrorCode
|| __TEXT.__text __ZN3icu25ScientificNumberFormatterC2ERKS0_
|| __TEXT.__text __ZN3icu25ScientificNumberFormatterD0Ev
|| __TEXT.__text __ZN3icu25ScientificNumberFormatterD1Ev
|| __TEXT.__text __ZN3icu25ScientificNumberFormatterD2Ev
|| __TEXT.__text __ZN3icu25UnicodeNameTransliterator16getStaticClassIDEv
|| __TEXT.__text __ZN3icu27NormalizationTransliterator16getStaticClassIDEv
|| __TEXT.__text __ZN3icu28FilteredBreakIteratorBuilder14createInstanceER10UErrorCode
|| __TEXT.__text __ZN3icu28FilteredBreakIteratorBuilder14createInstanceERKNS_6LocaleER10UErrorCode
|| __TEXT.__text __ZN3icu28FilteredBreakIteratorBuilder19createEmptyInstanceER10UErrorCode
|| __TEXT.__text __ZN3icu28FilteredBreakIteratorBuilderC2Ev
|| __TEXT.__text __ZN3icu28FilteredBreakIteratorBuilderD0Ev
|| __TEXT.__text __ZN3icu28FilteredBreakIteratorBuilderD1Ev
|| __TEXT.__text __ZN3icu28FilteredBreakIteratorBuilderD2Ev
|| __TEXT.__text __ZN3icu33PluralAvailableLocalesEnumeration4nextEPiR10UErrorCode
|| __TEXT.__text __ZN3icu33PluralAvailableLocalesEnumeration5resetER10UErrorCode
|| __TEXT.__text __ZN3icu33PluralAvailableLocalesEnumerationC1ER10UErrorCode
|| __TEXT.__text __ZN3icu33PluralAvailableLocalesEnumerationC2ER10UErrorCode
|| __TEXT.__text __ZN3icu33PluralAvailableLocalesEnumerationD0Ev
|| __TEXT.__text __ZN3icu33PluralAvailableLocalesEnumerationD1Ev
|| __TEXT.__text __ZN3icu33PluralAvailableLocalesEnumerationD2Ev
|| __TEXT.__text __ZN3icu34SimpleFilteredBreakIteratorBuilder18suppressBreakAfterERKNS_13UnicodeStringER10UErrorCode
|| __TEXT.__text __ZN3icu34SimpleFilteredBreakIteratorBuilder20unsuppressBreakAfterERKNS_13UnicodeStringER10UErrorCode
|| __TEXT.__text __ZN3icu34SimpleFilteredBreakIteratorBuilder5buildEPNS_13BreakIteratorER10UErrorCode
|| __TEXT.__text __ZN3icu34SimpleFilteredBreakIteratorBuilderC1ER10UErrorCode
|| __TEXT.__text __ZN3icu34SimpleFilteredBreakIteratorBuilderC1ERKNS_6LocaleER10UErrorCode
|| __TEXT.__text __ZN3icu34SimpleFilteredBreakIteratorBuilderC2ER10UErrorCode
|| __TEXT.__text __ZN3icu34SimpleFilteredBreakIteratorBuilderC2ERKNS_6LocaleER10UErrorCode
|| __TEXT.__text __ZN3icu34SimpleFilteredBreakIteratorBuilderD0Ev
|| __TEXT.__text __ZN3icu34SimpleFilteredBreakIteratorBuilderD1Ev
|| __TEXT.__text __ZN3icu34SimpleFilteredBreakIteratorBuilderD2Ev
|| __TEXT.__text __ZN3icu4CStrC1ERKNS_13UnicodeStringE
|| __TEXT.__text __ZN3icu4CStrC2ERKNS_13UnicodeStringE
|| __TEXT.__text __ZN3icu4CStrD1Ev
|| __TEXT.__text __ZN3icu4CStrD2Ev
|| __TEXT.__text __ZN3icu4IDNA19createUTS46InstanceEjR10UErrorCode
|| __TEXT.__text __ZN3icu4IDNAD0Ev
|| __TEXT.__text __ZN3icu4IDNAD1Ev
|| __TEXT.__text __ZN3icu4IDNAD2Ev
|| __TEXT.__text __ZN3icu5Edits10addReplaceEii
|| __TEXT.__text __ZN3icu5Edits11copyErrorToER10UErrorCode
|| __TEXT.__text __ZN3icu5Edits12addUnchangedEi
|| __TEXT.__text __ZN3icu5Edits12releaseArrayEv
|| __TEXT.__text __ZN3icu5Edits14mergeAndAppendERKS0_S2_R10UErrorCode
|| __TEXT.__text __ZN3icu5Edits5resetEv
|| __TEXT.__text __ZN3icu5Edits6appendEi
|| __TEXT.__text __ZN3icu5Edits8Iterator10readLengthEi
|| __TEXT.__text __ZN3icu5Edits8Iterator17updateNextIndexesEv
|| __TEXT.__text __ZN3icu5Edits8Iterator21updatePreviousIndexesEv
|| __TEXT.__text __ZN3icu5Edits8Iterator31destinationIndexFromSourceIndexEiR10UErrorCode
|| __TEXT.__text __ZN3icu5Edits8Iterator31sourceIndexFromDestinationIndexEiR10UErrorCode
|| __TEXT.__text __ZN3icu5Edits8Iterator4nextEaR10UErrorCode
|| __TEXT.__text __ZN3icu5Edits8Iterator6noNextEv
|| __TEXT.__text __ZN3icu5Edits8Iterator8previousER10UErrorCode
|| __TEXT.__text __ZN3icu5Edits8Iterator9findIndexEiaR10UErrorCode
|| __TEXT.__text __ZN3icu5Edits8IteratorC1EPKtiaa
|| __TEXT.__text __ZN3icu5Edits8IteratorC2EPKtiaa
|| __TEXT.__text __ZN3icu5Edits9copyArrayERKS0_
|| __TEXT.__text __ZN3icu5Edits9growArrayEv
|| __TEXT.__text __ZN3icu5Edits9moveArrayERS0_
|| __TEXT.__text __ZN3icu5EditsD1Ev
|| __TEXT.__text __ZN3icu5EditsD2Ev
|| __TEXT.__text __ZN3icu5EditsaSEOS0_
|| __TEXT.__text __ZN3icu5EditsaSERKS0_
|| __TEXT.__text __ZN3icu6Format11syntaxErrorERKNS_13UnicodeStringEiR11UParseError
|| __TEXT.__text __ZN3icu6Format12setLocaleIDsEPKcS2_
|| __TEXT.__text __ZN3icu6FormatC2ERKS0_
|| __TEXT.__text __ZN3icu6FormatC2Ev
|| __TEXT.__text __ZN3icu6FormatD0Ev
|| __TEXT.__text __ZN3icu6FormatD1Ev
|| __TEXT.__text __ZN3icu6FormatD2Ev
|| __TEXT.__text __ZN3icu6FormataSERKS0_
|| __TEXT.__text __ZN3icu6Locale10getChineseEv
|| __TEXT.__text __ZN3icu6Locale10getDefaultEv
|| __TEXT.__text __ZN3icu6Locale10getEnglishEv
|| __TEXT.__text __ZN3icu6Locale10getGermanyEv
|| __TEXT.__text __ZN3icu6Locale10getItalianEv
|| __TEXT.__text __ZN3icu6Locale10setDefaultERKS0_R10UErrorCode
|| __TEXT.__text __ZN3icu6Locale10setToBogusEv
|| __TEXT.__text __ZN3icu6Locale11getJapaneseEv
|| __TEXT.__text __ZN3icu6Locale12initBaseNameER10UErrorCode
|| __TEXT.__text __ZN3icu6Locale14createFromNameEPKc
|| __TEXT.__text __ZN3icu6Locale14forLanguageTagENS_11StringPieceER10UErrorCode
|| __TEXT.__text __ZN3icu6Locale14getLocaleCacheEv
|| __TEXT.__text __ZN3icu6Locale14setFromPOSIXIDEPKc
|| __TEXT.__text __ZN3icu6Locale15createCanonicalEPKc
|| __TEXT.__text __ZN3icu6Locale15getCanadaFrenchEv
|| __TEXT.__text __ZN3icu6Locale15getISOCountriesEv
|| __TEXT.__text __ZN3icu6Locale15getISOLanguagesEv
|| __TEXT.__text __ZN3icu6Locale15minimizeSubtagsER10UErrorCode
|| __TEXT.__text __ZN3icu6Locale15setKeywordValueENS_11StringPieceES1_R10UErrorCode
|| __TEXT.__text __ZN3icu6Locale15setKeywordValueEPKcS2_R10UErrorCode
|| __TEXT.__text __ZN3icu6Locale16addLikelySubtagsER10UErrorCode
|| __TEXT.__text __ZN3icu6Locale16getStaticClassIDEv
|| __TEXT.__text __ZN3icu6Locale19getAvailableLocalesERi
|| __TEXT.__text __ZN3icu6Locale20getSimplifiedChineseEv
|| __TEXT.__text __ZN3icu6Locale21getTraditionalChineseEv
|| __TEXT.__text __ZN3icu6Locale22setUnicodeKeywordValueENS_11StringPieceES1_R10UErrorCode
|| __TEXT.__text __ZN3icu6Locale4initEPKca
|| __TEXT.__text __ZN3icu6Locale5getUKEv
|| __TEXT.__text __ZN3icu6Locale5getUSEv
|| __TEXT.__text __ZN3icu6Locale6getPRCEv
|| __TEXT.__text __ZN3icu6Locale7getRootEv
|| __TEXT.__text __ZN3icu6Locale8getChinaEv
|| __TEXT.__text __ZN3icu6Locale8getItalyEv
|| __TEXT.__text __ZN3icu6Locale8getJapanEv
|| __TEXT.__text __ZN3icu6Locale8getKoreaEv
|| __TEXT.__text __ZN3icu6Locale9getCanadaEv
|| __TEXT.__text __ZN3icu6Locale9getFranceEv
|| __TEXT.__text __ZN3icu6Locale9getFrenchEv
|| __TEXT.__text __ZN3icu6Locale9getGermanEv
|| __TEXT.__text __ZN3icu6Locale9getKoreanEv
|| __TEXT.__text __ZN3icu6Locale9getLocaleEi
|| __TEXT.__text __ZN3icu6Locale9getTaiwanEv
|| __TEXT.__text __ZN3icu6LocaleC1ENS0_11ELocaleTypeE
|| __TEXT.__text __ZN3icu6LocaleC1EOS0_
|| __TEXT.__text __ZN3icu6LocaleC1EPKcS2_S2_S2_
|| __TEXT.__text __ZN3icu6LocaleC1ERKS0_
|| __TEXT.__text __ZN3icu6LocaleC1Ev
|| __TEXT.__text __ZN3icu6LocaleC2ENS0_11ELocaleTypeE
|| __TEXT.__text __ZN3icu6LocaleC2EOS0_
|| __TEXT.__text __ZN3icu6LocaleC2EPKcS2_S2_S2_
|| __TEXT.__text __ZN3icu6LocaleC2ERKS0_
|| __TEXT.__text __ZN3icu6LocaleC2Ev
|| __TEXT.__text __ZN3icu6LocaleD0Ev
|| __TEXT.__text __ZN3icu6LocaleD1Ev
|| __TEXT.__text __ZN3icu6LocaleD2Ev
|| __TEXT.__text __ZN3icu6LocaleaSEOS0_
|| __TEXT.__text __ZN3icu6LocaleaSERKS0_
|| __TEXT.__text __ZN3icu6NoUnit16getStaticClassIDEv
|| __TEXT.__text __ZN3icu6NoUnit4baseEv
|| __TEXT.__text __ZN3icu6NoUnit7percentEv
|| __TEXT.__text __ZN3icu6NoUnit8permilleEv
|| __TEXT.__text __ZN3icu6NoUnitC1EPKc
|| __TEXT.__text __ZN3icu6NoUnitC1ERKS0_
|| __TEXT.__text __ZN3icu6NoUnitC2EPKc
|| __TEXT.__text __ZN3icu6NoUnitC2ERKS0_
|| __TEXT.__text __ZN3icu6NoUnitD0Ev
|| __TEXT.__text __ZN3icu6NoUnitD1Ev
|| __TEXT.__text __ZN3icu6NoUnitD2Ev
|| __TEXT.__text __ZN3icu6Region11getInstanceEPKcR10UErrorCode
|| __TEXT.__text __ZN3icu6Region11getInstanceEiR10UErrorCode
|| __TEXT.__text __ZN3icu6Region12getAvailableE11URegionTypeR10UErrorCode
|| __TEXT.__text __ZN3icu6Region14loadRegionDataER10UErrorCode
|| __TEXT.__text __ZN3icu6Region17cleanupRegionDataEv
|| __TEXT.__text __ZN3icu6RegionC1Ev
|| __TEXT.__text __ZN3icu6RegionC2Ev
|| __TEXT.__text __ZN3icu6RegionD0Ev
|| __TEXT.__text __ZN3icu6RegionD1Ev
|| __TEXT.__text __ZN3icu6RegionD2Ev
|| __TEXT.__text __ZN3icu6UStack16getStaticClassIDEv
|| __TEXT.__text __ZN3icu6UStack3popEv
|| __TEXT.__text __ZN3icu6UStack4popiEv
|| __TEXT.__text __ZN3icu6UStackC1EPFvPvEPFa8UElementS4_ER10UErrorCode
|| __TEXT.__text __ZN3icu6UStackC1EPFvPvEPFa8UElementS4_EiR10UErrorCode
|| __TEXT.__text __ZN3icu6UStackC1ER10UErrorCode
|| __TEXT.__text __ZN3icu6UStackC1EiR10UErrorCode
|| __TEXT.__text __ZN3icu6UStackC2EPFvPvEPFa8UElementS4_ER10UErrorCode
|| __TEXT.__text __ZN3icu6UStackC2EPFvPvEPFa8UElementS4_EiR10UErrorCode
|| __TEXT.__text __ZN3icu6UStackC2ER10UErrorCode
|| __TEXT.__text __ZN3icu6UStackC2EiR10UErrorCode
|| __TEXT.__text __ZN3icu6UStackD0Ev
|| __TEXT.__text __ZN3icu6UStackD1Ev
|| __TEXT.__text __ZN3icu6UStackD2Ev
|| __TEXT.__text __ZN3icu6number12IntegerWidth10truncateAtEi
|| __TEXT.__text __ZN3icu6number12IntegerWidth10zeroFillToEi
|| __TEXT.__text __ZN3icu6number12IntegerWidthC1Essb
|| __TEXT.__text __ZN3icu6number12IntegerWidthC2Essb
|| __TEXT.__text __ZN3icu6number15FormattedNumberC1EOS1_
|| __TEXT.__text __ZN3icu6number15FormattedNumberC2EOS1_
|| __TEXT.__text __ZN3icu6number15FormattedNumberD0Ev
|| __TEXT.__text __ZN3icu6number15FormattedNumberD1Ev
|| __TEXT.__text __ZN3icu6number15FormattedNumberD2Ev
|| __TEXT.__text __ZN3icu6number15FormattedNumberaSEOS1_
|| __TEXT.__text __ZN3icu6number15NumberFormatter10withLocaleERKNS_6LocaleE
|| __TEXT.__text __ZN3icu6number15NumberFormatter11forSkeletonERKNS_13UnicodeStringER10UErrorCode
|| __TEXT.__text __ZN3icu6number15NumberFormatter11forSkeletonERKNS_13UnicodeStringER11UParseErrorR10UErrorCode
|| __TEXT.__text __ZN3icu6number15NumberFormatter4withEv
|| __TEXT.__text __ZN3icu6number18ScientificNotationC1Eabs18UNumberSignDisplay
|| __TEXT.__text __ZN3icu6number18ScientificNotationC2Eabs18UNumberSignDisplay
|| __TEXT.__text __ZN3icu6number20FormattedNumberRangeC1EOS1_
|| __TEXT.__text __ZN3icu6number20FormattedNumberRangeC2EOS1_
|| __TEXT.__text __ZN3icu6number20FormattedNumberRangeD0Ev
|| __TEXT.__text __ZN3icu6number20FormattedNumberRangeD1Ev
|| __TEXT.__text __ZN3icu6number20FormattedNumberRangeD2Ev
|| __TEXT.__text __ZN3icu6number20FormattedNumberRangeaSEOS1_
|| __TEXT.__text __ZN3icu6number20NumberRangeFormatter10withLocaleERKNS_6LocaleE
|| __TEXT.__text __ZN3icu6number20NumberRangeFormatter4withEv
|| __TEXT.__text __ZN3icu6number24LocalizedNumberFormatter13lnfMoveHelperEOS1_
|| __TEXT.__text __ZN3icu6number24LocalizedNumberFormatter17setDFSShallowCopyEa
|| __TEXT.__text __ZN3icu6number24LocalizedNumberFormatter5clearEv
|| __TEXT.__text __ZN3icu6number24LocalizedNumberFormatterC1EONS0_23NumberFormatterSettingsIS1_EE
|| __TEXT.__text __ZN3icu6number24LocalizedNumberFormatterC1EONS0_4impl10MacroPropsERKNS_6LocaleE
|| __TEXT.__text __ZN3icu6number24LocalizedNumberFormatterC1EOS1_
|| __TEXT.__text __ZN3icu6number24LocalizedNumberFormatterC1ERKNS0_23NumberFormatterSettingsIS1_EE
|| __TEXT.__text __ZN3icu6number24LocalizedNumberFormatterC1ERKNS0_4impl10MacroPropsERKNS_6LocaleE
|| __TEXT.__text __ZN3icu6number24LocalizedNumberFormatterC1ERKS1_
|| __TEXT.__text __ZN3icu6number24LocalizedNumberFormatterC2EONS0_23NumberFormatterSettingsIS1_EE
|| __TEXT.__text __ZN3icu6number24LocalizedNumberFormatterC2EONS0_4impl10MacroPropsERKNS_6LocaleE
|| __TEXT.__text __ZN3icu6number24LocalizedNumberFormatterC2EOS1_
|| __TEXT.__text __ZN3icu6number24LocalizedNumberFormatterC2ERKNS0_23NumberFormatterSettingsIS1_EE
|| __TEXT.__text __ZN3icu6number24LocalizedNumberFormatterC2ERKNS0_4impl10MacroPropsERKNS_6LocaleE
|| __TEXT.__text __ZN3icu6number24LocalizedNumberFormatterC2ERKS1_
|| __TEXT.__text __ZN3icu6number24LocalizedNumberFormatterD1Ev
|| __TEXT.__text __ZN3icu6number24LocalizedNumberFormatterD2Ev
|| __TEXT.__text __ZN3icu6number24LocalizedNumberFormatteraSEOS1_
|| __TEXT.__text __ZN3icu6number24LocalizedNumberFormatteraSERKS1_
|| __TEXT.__text __ZN3icu6number26UnlocalizedNumberFormatterC1EONS0_23NumberFormatterSettingsIS1_EE
|| __TEXT.__text __ZN3icu6number26UnlocalizedNumberFormatterC1EOS1_
|| __TEXT.__text __ZN3icu6number26UnlocalizedNumberFormatterC1ERKNS0_23NumberFormatterSettingsIS1_EE
|| __TEXT.__text __ZN3icu6number26UnlocalizedNumberFormatterC1ERKS1_
|| __TEXT.__text __ZN3icu6number26UnlocalizedNumberFormatterC2EONS0_23NumberFormatterSettingsIS1_EE
|| __TEXT.__text __ZN3icu6number26UnlocalizedNumberFormatterC2EOS1_
|| __TEXT.__text __ZN3icu6number26UnlocalizedNumberFormatterC2ERKNS0_23NumberFormatterSettingsIS1_EE
|| __TEXT.__text __ZN3icu6number26UnlocalizedNumberFormatterC2ERKS1_
|| __TEXT.__text __ZN3icu6number26UnlocalizedNumberFormatteraSEOS1_
|| __TEXT.__text __ZN3icu6number26UnlocalizedNumberFormatteraSERKS1_
|| __TEXT.__text __ZN3icu6number29LocalizedNumberRangeFormatterC1EONS0_28NumberRangeFormatterSettingsIS1_EE
|| __TEXT.__text __ZN3icu6number29LocalizedNumberRangeFormatterC1EONS0_4impl15RangeMacroPropsERKNS_6LocaleE
|| __TEXT.__text __ZN3icu6number29LocalizedNumberRangeFormatterC1EOS1_
|| __TEXT.__text __ZN3icu6number29LocalizedNumberRangeFormatterC1ERKNS0_28NumberRangeFormatterSettingsIS1_EE
|| __TEXT.__text __ZN3icu6number29LocalizedNumberRangeFormatterC1ERKNS0_4impl15RangeMacroPropsERKNS_6LocaleE
|| __TEXT.__text __ZN3icu6number29LocalizedNumberRangeFormatterC1ERKS1_
|| __TEXT.__text __ZN3icu6number29LocalizedNumberRangeFormatterC2EONS0_28NumberRangeFormatterSettingsIS1_EE
|| __TEXT.__text __ZN3icu6number29LocalizedNumberRangeFormatterC2EONS0_4impl15RangeMacroPropsERKNS_6LocaleE
|| __TEXT.__text __ZN3icu6number29LocalizedNumberRangeFormatterC2EOS1_
|| __TEXT.__text __ZN3icu6number29LocalizedNumberRangeFormatterC2ERKNS0_28NumberRangeFormatterSettingsIS1_EE
|| __TEXT.__text __ZN3icu6number29LocalizedNumberRangeFormatterC2ERKNS0_4impl15RangeMacroPropsERKNS_6LocaleE
|| __TEXT.__text __ZN3icu6number29LocalizedNumberRangeFormatterC2ERKS1_
|| __TEXT.__text __ZN3icu6number29LocalizedNumberRangeFormatterD1Ev
|| __TEXT.__text __ZN3icu6number29LocalizedNumberRangeFormatterD2Ev
|| __TEXT.__text __ZN3icu6number29LocalizedNumberRangeFormatteraSEOS1_
|| __TEXT.__text __ZN3icu6number29LocalizedNumberRangeFormatteraSERKS1_
|| __TEXT.__text __ZN3icu6number31UnlocalizedNumberRangeFormatterC1EONS0_28NumberRangeFormatterSettingsIS1_EE
|| __TEXT.__text __ZN3icu6number31UnlocalizedNumberRangeFormatterC1EOS1_
|| __TEXT.__text __ZN3icu6number31UnlocalizedNumberRangeFormatterC1ERKNS0_28NumberRangeFormatterSettingsIS1_EE
|| __TEXT.__text __ZN3icu6number31UnlocalizedNumberRangeFormatterC1ERKS1_
|| __TEXT.__text __ZN3icu6number31UnlocalizedNumberRangeFormatterC2EONS0_28NumberRangeFormatterSettingsIS1_EE
|| __TEXT.__text __ZN3icu6number31UnlocalizedNumberRangeFormatterC2EOS1_
|| __TEXT.__text __ZN3icu6number31UnlocalizedNumberRangeFormatterC2ERKNS0_28NumberRangeFormatterSettingsIS1_EE
|| __TEXT.__text __ZN3icu6number31UnlocalizedNumberRangeFormatterC2ERKS1_
|| __TEXT.__text __ZN3icu6number31UnlocalizedNumberRangeFormatteraSEOS1_
|| __TEXT.__text __ZN3icu6number31UnlocalizedNumberRangeFormatteraSERKS1_
|| __TEXT.__text __ZN3icu6number4impl10AffixUtils11replaceTypeERKNS_13UnicodeStringENS1_16AffixPatternTypeEDsR10UErrorCode
|| __TEXT.__text __ZN3icu6number4impl10AffixUtils12containsTypeERKNS_13UnicodeStringENS1_16AffixPatternTypeER10UErrorCode
|| __TEXT.__text __ZN3icu6number4impl10AffixUtils14estimateLengthERKNS_13UnicodeStringER10UErrorCode
|| __TEXT.__text __ZN3icu6number4impl10AffixUtils15getFieldForTypeENS1_16AffixPatternTypeE
|| __TEXT.__text __ZN3icu6number4impl10AffixUtils18hasCurrencySymbolsERKNS_13UnicodeStringER10UErrorCode
|| __TEXT.__text __ZN3icu6number4impl10AffixUtils19iterateWithConsumerERKNS_13UnicodeStringERNS1_13TokenConsumerER10UErrorCode
|| __TEXT.__text __ZN3icu6number4impl10AffixUtils23unescapedCodePointCountERKNS_13UnicodeStringERKNS1_14SymbolProviderER10UErrorCode
|| __TEXT.__text __ZN3icu6number4impl10AffixUtils32containsOnlySymbolsAndIgnorablesERKNS_13UnicodeStringERKNS_10UnicodeSetER10UErrorCode
|| __TEXT.__text __ZN3icu6number4impl10AffixUtils6escapeERKNS_13UnicodeStringE
|| __TEXT.__text __ZN3icu6number4impl10AffixUtils7hasNextERKNS1_8AffixTagERKNS_13UnicodeStringE
|| __TEXT.__text __ZN3icu6number4impl10AffixUtils8unescapeERKNS_13UnicodeStringERNS1_19NumberStringBuilderEiRKNS1_14SymbolProviderEhR10UErrorCode
|| __TEXT.__text __ZN3icu6number4impl10AffixUtils9nextTokenENS1_8AffixTagERKNS_13UnicodeStringER10UErrorCode
|| __TEXT.__text __ZN3icu6number4impl13ModifierStoreD0Ev
|| __TEXT.__text __ZN3icu6number4impl13ModifierStoreD1Ev
|| __TEXT.__text __ZN3icu6number4impl13ModifierStoreD2Ev
|| __TEXT.__text __ZN3icu6number4impl13PatternParser17parseToPropertiesERKNS_13UnicodeStringENS1_14IgnoreRoundingER10UErrorCode
|| __TEXT.__text __ZN3icu6number4impl13PatternParser17parseToPropertiesERKNS_13UnicodeStringER10UErrorCode
|| __TEXT.__text __ZN3icu6number4impl13PatternParser18parseToPatternInfoERKNS_13UnicodeStringERNS1_17ParsedPatternInfoER10UErrorCode
|| __TEXT.__text __ZN3icu6number4impl13PatternParser23patternInfoToPropertiesERNS1_23DecimalFormatPropertiesERNS1_17ParsedPatternInfoENS1_14IgnoreRoundingER10UErrorCode
|| __TEXT.__text __ZN3icu6number4impl13PatternParser25parseToExistingPropertiesERKNS_13UnicodeStringERNS1_23DecimalFormatPropertiesENS1_14IgnoreRoundingER10UErrorCode
|| __TEXT.__text __ZN3icu6number4impl13PatternParser29parseToExistingPropertiesImplERKNS_13UnicodeStringERNS1_23DecimalFormatPropertiesENS1_14IgnoreRoundingER10UErrorCode
|| __TEXT.__text __ZN3icu6number4impl14SimpleModifier19formatTwoArgPatternERKNS_15SimpleFormatterERNS1_19NumberStringBuilderEiPiS8_hR10UErrorCode
|| __TEXT.__text __ZN3icu6number4impl14SimpleModifierC1ERKNS_15SimpleFormatterEhb
|| __TEXT.__text __ZN3icu6number4impl14SimpleModifierC1ERKNS_15SimpleFormatterEhbNS1_8Modifier10ParametersE
|| __TEXT.__text __ZN3icu6number4impl14SimpleModifierC1Ev
|| __TEXT.__text __ZN3icu6number4impl14SimpleModifierC2ERKNS_15SimpleFormatterEhb
|| __TEXT.__text __ZN3icu6number4impl14SimpleModifierC2ERKNS_15SimpleFormatterEhbNS1_8Modifier10ParametersE
|| __TEXT.__text __ZN3icu6number4impl14SimpleModifierC2Ev
|| __TEXT.__text __ZN3icu6number4impl14SymbolProviderD0Ev
|| __TEXT.__text __ZN3icu6number4impl14SymbolProviderD1Ev
|| __TEXT.__text __ZN3icu6number4impl14SymbolProviderD2Ev
|| __TEXT.__text __ZN3icu6number4impl14SymbolsWrapper10doCopyFromERKS2_
|| __TEXT.__text __ZN3icu6number4impl14SymbolsWrapper10doMoveFromEOS2_
|| __TEXT.__text __ZN3icu6number4impl14SymbolsWrapper17setDFSShallowCopyEa
|| __TEXT.__text __ZN3icu6number4impl14SymbolsWrapper5setToEPKNS_15NumberingSystemE
|| __TEXT.__text __ZN3icu6number4impl14SymbolsWrapper5setToERKNS_20DecimalFormatSymbolsE
|| __TEXT.__text __ZN3icu6number4impl14SymbolsWrapper9doCleanupEv
|| __TEXT.__text __ZN3icu6number4impl14SymbolsWrapperC1EOS2_
|| __TEXT.__text __ZN3icu6number4impl14SymbolsWrapperC1ERKS2_
|| __TEXT.__text __ZN3icu6number4impl14SymbolsWrapperC2EOS2_
|| __TEXT.__text __ZN3icu6number4impl14SymbolsWrapperC2ERKS2_
|| __TEXT.__text __ZN3icu6number4impl14SymbolsWrapperD1Ev
|| __TEXT.__text __ZN3icu6number4impl14SymbolsWrapperD2Ev
|| __TEXT.__text __ZN3icu6number4impl14SymbolsWrapperaSEOS2_
|| __TEXT.__text __ZN3icu6number4impl14SymbolsWrapperaSERKS2_
|| __TEXT.__text __ZN3icu6number4impl15CurrencySymbolsC1ENS_12CurrencyUnitERKNS_6LocaleER10UErrorCode
|| __TEXT.__text __ZN3icu6number4impl15CurrencySymbolsC1ENS_12CurrencyUnitERKNS_6LocaleERKNS_20DecimalFormatSymbolsER10UErrorCode
|| __TEXT.__text __ZN3icu6number4impl15CurrencySymbolsC2ENS_12CurrencyUnitERKNS_6LocaleER10UErrorCode
|| __TEXT.__text __ZN3icu6number4impl15CurrencySymbolsC2ENS_12CurrencyUnitERKNS_6LocaleERKNS_20DecimalFormatSymbolsER10UErrorCode
|| __TEXT.__text __ZN3icu6number4impl15DecimalQuantity10_setToLongEx
|| __TEXT.__text __ZN3icu6number4impl15DecimalQuantity10multiplyByERKNS1_6DecNumER10UErrorCode
|| __TEXT.__text __ZN3icu6number4impl15DecimalQuantity10shiftRightEi
|| __TEXT.__text __ZN3icu6number4impl15DecimalQuantity11appendDigitEaib
|| __TEXT.__text __ZN3icu6number4impl15DecimalQuantity11copyBcdFromERKS2_
|| __TEXT.__text __ZN3icu6number4impl15DecimalQuantity11moveBcdFromERS2_
|| __TEXT.__text __ZN3icu6number4impl15DecimalQuantity11popFromLeftEi
|| __TEXT.__text __ZN3icu6number4impl15DecimalQuantity11setDigitPosEia
|| __TEXT.__text __ZN3icu6number4impl15DecimalQuantity11setToDecNumERKNS1_6DecNumER10UErrorCode
|| __TEXT.__text __ZN3icu6number4impl15DecimalQuantity11setToDoubleEd
|| __TEXT.__text __ZN3icu6number4impl15DecimalQuantity12_setToDecNumERKNS1_6DecNumER10UErrorCode
|| __TEXT.__text __ZN3icu6number4impl15DecimalQuantity12readIntToBcdEi
|| __TEXT.__text __ZN3icu6number4impl15DecimalQuantity12setBcdToZeroEv
|| __TEXT.__text __ZN3icu6number4impl15DecimalQuantity13readLongToBcdEx
|| __TEXT.__text __ZN3icu6number4impl15DecimalQuantity13roundToNickelEi25UNumberFormatRoundingModeR10UErrorCode
|| __TEXT.__text __ZN3icu6number4impl15DecimalQuantity13setMinIntegerEi
|| __TEXT.__text __ZN3icu6number4impl15DecimalQuantity13switchStorageEv
|| __TEXT.__text __ZN3icu6number4impl15DecimalQuantity14copyFieldsFromERKS2_
|| __TEXT.__text __ZN3icu6number4impl15DecimalQuantity14ensureCapacityEi
|| __TEXT.__text __ZN3icu6number4impl15DecimalQuantity14ensureCapacityEv
|| __TEXT.__text __ZN3icu6number4impl15DecimalQuantity14setMinFractionEi
|| __TEXT.__text __ZN3icu6number4impl15DecimalQuantity14setToDecNumberENS_11StringPieceER10UErrorCode
|| __TEXT.__text __ZN3icu6number4impl15DecimalQuantity15adjustMagnitudeEi
|| __TEXT.__text __ZN3icu6number4impl15DecimalQuantity15applyMaxIntegerEi
|| __TEXT.__text __ZN3icu6number4impl15DecimalQuantity15roundToInfinityEv
|| __TEXT.__text __ZN3icu6number4impl15DecimalQuantity16_setToDoubleFastEd
|| __TEXT.__text __ZN3icu6number4impl15DecimalQuantity16roundToIncrementEd25UNumberFormatRoundingModeR10UErrorCode
|| __TEXT.__text __ZN3icu6number4impl15DecimalQuantity16roundToMagnitudeEi25UNumberFormatRoundingModeR10UErrorCode
|| __TEXT.__text __ZN3icu6number4impl15DecimalQuantity16roundToMagnitudeEi25UNumberFormatRoundingModebR10UErrorCode
|| __TEXT.__text __ZN3icu6number4impl15DecimalQuantity18readDecNumberToBcdERKNS1_6DecNumE
|| __TEXT.__text __ZN3icu6number4impl15DecimalQuantity23convertToAccurateDoubleEv
|| __TEXT.__text __ZN3icu6number4impl15DecimalQuantity25readDoubleConversionToBcdEPKcii
|| __TEXT.__text __ZN3icu6number4impl15DecimalQuantity5clearEv
|| __TEXT.__text __ZN3icu6number4impl15DecimalQuantity6negateEv
|| __TEXT.__text __ZN3icu6number4impl15DecimalQuantity7compactEv
|| __TEXT.__text __ZN3icu6number4impl15DecimalQuantity8divideByERKNS1_6DecNumER10UErrorCode
|| __TEXT.__text __ZN3icu6number4impl15DecimalQuantity8setToIntEi
|| __TEXT.__text __ZN3icu6number4impl15DecimalQuantity8truncateEv
|| __TEXT.__text __ZN3icu6number4impl15DecimalQuantity9_setToIntEi
|| __TEXT.__text __ZN3icu6number4impl15DecimalQuantity9setToLongEx
|| __TEXT.__text __ZN3icu6number4impl15DecimalQuantity9shiftLeftEi
|| __TEXT.__text __ZN3icu6number4impl15DecimalQuantityC1EOS2_
|| __TEXT.__text __ZN3icu6number4impl15DecimalQuantityC1ERKS2_
|| __TEXT.__text __ZN3icu6number4impl15DecimalQuantityC1Ev
|| __TEXT.__text __ZN3icu6number4impl15DecimalQuantityC2EOS2_
|| __TEXT.__text __ZN3icu6number4impl15DecimalQuantityC2ERKS2_
|| __TEXT.__text __ZN3icu6number4impl15DecimalQuantityC2Ev
|| __TEXT.__text __ZN3icu6number4impl15DecimalQuantityD0Ev
|| __TEXT.__text __ZN3icu6number4impl15DecimalQuantityD1Ev
|| __TEXT.__text __ZN3icu6number4impl15DecimalQuantityD2Ev
|| __TEXT.__text __ZN3icu6number4impl15DecimalQuantityaSEOS2_
|| __TEXT.__text __ZN3icu6number4impl15DecimalQuantityaSERKS2_
|| __TEXT.__text __ZN3icu6number4impl17ParsedPatternInfo11ParserState4nextEv
|| __TEXT.__text __ZN3icu6number4impl17ParsedPatternInfo11ParserState4peekEv
|| __TEXT.__text __ZN3icu6number4impl17ParsedPatternInfo12consumeAffixERNS1_9EndpointsER10UErrorCode
|| __TEXT.__text __ZN3icu6number4impl17ParsedPatternInfo13consumeFormatER10UErrorCode
|| __TEXT.__text __ZN3icu6number4impl17ParsedPatternInfo14consumeLiteralER10UErrorCode
|| __TEXT.__text __ZN3icu6number4impl17ParsedPatternInfo14consumePaddingE24UNumberFormatPadPositionR10UErrorCode
|| __TEXT.__text __ZN3icu6number4impl17ParsedPatternInfo14consumePatternERKNS_13UnicodeStringER10UErrorCode
|| __TEXT.__text __ZN3icu6number4impl17ParsedPatternInfo15consumeExponentER10UErrorCode
|| __TEXT.__text __ZN3icu6number4impl17ParsedPatternInfo17consumeSubpatternER10UErrorCode
|| __TEXT.__text __ZN3icu6number4impl17ParsedPatternInfo20consumeIntegerFormatER10UErrorCode
|| __TEXT.__text __ZN3icu6number4impl17ParsedPatternInfo21consumeFractionFormatER10UErrorCode
|| __TEXT.__text __ZN3icu6number4impl17ParsedPatternInfo22getLengthFromEndpointsERKNS1_9EndpointsE
|| __TEXT.__text __ZN3icu6number4impl18PatternStringUtils16convertLocalizedERKNS_13UnicodeStringERKNS_20DecimalFormatSymbolsEbR10UErrorCode
|| __TEXT.__text __ZN3icu6number4impl18PatternStringUtils19escapePaddingStringENS_13UnicodeStringERS3_iR10UErrorCode
|| __TEXT.__text __ZN3icu6number4impl18PatternStringUtils23ignoreRoundingIncrementEPdi
|| __TEXT.__text __ZN3icu6number4impl18PatternStringUtils25propertiesToPatternStringERKNS1_23DecimalFormatPropertiesER10UErrorCode
|| __TEXT.__text __ZN3icu6number4impl18PatternStringUtils26patternInfoToStringBuilderERKNS1_20AffixPatternProviderEba18UNumberSignDisplayNS_14StandardPlural4FormEbRNS_13UnicodeStringE
|| __TEXT.__text __ZN3icu6number4impl18ScientificModifier3setEiPKNS1_17ScientificHandlerE
|| __TEXT.__text __ZN3icu6number4impl18ScientificModifierC1Ev
|| __TEXT.__text __ZN3icu6number4impl18ScientificModifierC2Ev
|| __TEXT.__text __ZN3icu6number4impl19MicroPropsGeneratorD0Ev
|| __TEXT.__text __ZN3icu6number4impl19MicroPropsGeneratorD1Ev
|| __TEXT.__text __ZN3icu6number4impl19MicroPropsGeneratorD2Ev
|| __TEXT.__text __ZN3icu6number4impl19NumberStringBuilder12isIntOrGroupEh
|| __TEXT.__text __ZN3icu6number4impl19NumberStringBuilder14isNumericFieldEh
|| __TEXT.__text __ZN3icu6number4impl19NumberStringBuilder15appendCodePointEihR10UErrorCode
|| __TEXT.__text __ZN3icu6number4impl19NumberStringBuilder15insertCodePointEiihR10UErrorCode
|| __TEXT.__text __ZN3icu6number4impl19NumberStringBuilder15writeTerminatorER10UErrorCode
|| __TEXT.__text __ZN3icu6number4impl19NumberStringBuilder16prepareForInsertEiiR10UErrorCode
|| __TEXT.__text __ZN3icu6number4impl19NumberStringBuilder22prepareForInsertHelperEiiR10UErrorCode
|| __TEXT.__text __ZN3icu6number4impl19NumberStringBuilder5clearEv
|| __TEXT.__text __ZN3icu6number4impl19NumberStringBuilder6appendERKNS_13UnicodeStringEhR10UErrorCode
|| __TEXT.__text __ZN3icu6number4impl19NumberStringBuilder6appendERKS2_R10UErrorCode
|| __TEXT.__text __ZN3icu6number4impl19NumberStringBuilder6insertEiRKNS_13UnicodeStringEhR10UErrorCode
|| __TEXT.__text __ZN3icu6number4impl19NumberStringBuilder6insertEiRKNS_13UnicodeStringEiihR10UErrorCode
|| __TEXT.__text __ZN3icu6number4impl19NumberStringBuilder6insertEiRKS2_R10UErrorCode
|| __TEXT.__text __ZN3icu6number4impl19NumberStringBuilder6removeEii
|| __TEXT.__text __ZN3icu6number4impl19NumberStringBuilder6spliceEiiRKNS_13UnicodeStringEiihR10UErrorCode
|| __TEXT.__text __ZN3icu6number4impl19NumberStringBuilderC1ERKS2_
|| __TEXT.__text __ZN3icu6number4impl19NumberStringBuilderC1Ev
|| __TEXT.__text __ZN3icu6number4impl19NumberStringBuilderC2ERKS2_
|| __TEXT.__text __ZN3icu6number4impl19NumberStringBuilderC2Ev
|| __TEXT.__text __ZN3icu6number4impl19NumberStringBuilderD1Ev
|| __TEXT.__text __ZN3icu6number4impl19NumberStringBuilderD2Ev
|| __TEXT.__text __ZN3icu6number4impl19NumberStringBuilderaSERKS2_
|| __TEXT.__text __ZN3icu6number4impl20AffixPatternProviderD0Ev
|| __TEXT.__text __ZN3icu6number4impl20AffixPatternProviderD1Ev
|| __TEXT.__text __ZN3icu6number4impl20AffixPatternProviderD2Ev
|| __TEXT.__text __ZN3icu6number4impl21AdoptingModifierStoreD0Ev
|| __TEXT.__text __ZN3icu6number4impl21AdoptingModifierStoreD1Ev
|| __TEXT.__text __ZN3icu6number4impl21AdoptingModifierStoreD2Ev
|| __TEXT.__text __ZN3icu6number4impl22MutablePatternModifier10addToChainEPKNS1_19MicroPropsGeneratorE
|| __TEXT.__text __ZN3icu6number4impl22MutablePatternModifier10setSymbolsEPKNS_20DecimalFormatSymbolsEPKNS1_15CurrencySymbolsE16UNumberUnitWidthPKNS_11PluralRulesE
|| __TEXT.__text __ZN3icu6number4impl22MutablePatternModifier12insertPrefixERNS1_19NumberStringBuilderEiR10UErrorCode
|| __TEXT.__text __ZN3icu6number4impl22MutablePatternModifier12insertSuffixERNS1_19NumberStringBuilderEiR10UErrorCode
|| __TEXT.__text __ZN3icu6number4impl22MutablePatternModifier12prepareAffixEb
|| __TEXT.__text __ZN3icu6number4impl22MutablePatternModifier14setPatternInfoEPKNS1_20AffixPatternProviderEh
|| __TEXT.__text __ZN3icu6number4impl22MutablePatternModifier15createImmutableER10UErrorCode
|| __TEXT.__text __ZN3icu6number4impl22MutablePatternModifier19setNumberPropertiesEaNS_14StandardPlural4FormE
|| __TEXT.__text __ZN3icu6number4impl22MutablePatternModifier20setPatternAttributesE18UNumberSignDisplayb
|| __TEXT.__text __ZN3icu6number4impl22MutablePatternModifier22createConstantModifierER10UErrorCode
|| __TEXT.__text __ZN3icu6number4impl22MutablePatternModifier23createImmutableAndChainEPKNS1_19MicroPropsGeneratorER10UErrorCode
|| __TEXT.__text __ZN3icu6number4impl22MutablePatternModifierC1Eb
|| __TEXT.__text __ZN3icu6number4impl22MutablePatternModifierC2Eb
|| __TEXT.__text __ZN3icu6number4impl23DecimalFormatProperties10getDefaultEv
|| __TEXT.__text __ZN3icu6number4impl23DecimalFormatProperties5clearEv
|| __TEXT.__text __ZN3icu6number4impl23DecimalFormatPropertiesC1Ev
|| __TEXT.__text __ZN3icu6number4impl23DecimalFormatPropertiesC2Ev
|| __TEXT.__text __ZN3icu6number4impl23MultiplierFormatHandler11setAndChainERKNS0_5ScaleEPKNS1_19MicroPropsGeneratorE
|| __TEXT.__text __ZN3icu6number4impl24ImmutablePatternModifierC1EPNS1_21AdoptingModifierStoreEPKNS_11PluralRulesEPKNS1_19MicroPropsGeneratorE
|| __TEXT.__text __ZN3icu6number4impl24ImmutablePatternModifierC2EPNS1_21AdoptingModifierStoreEPKNS_11PluralRulesEPKNS1_19MicroPropsGeneratorE
|| __TEXT.__text __ZN3icu6number4impl30CurrencySpacingEnabledModifier13getUnicodeSetERKNS_20DecimalFormatSymbolsENS2_9EPositionENS2_6EAffixER10UErrorCode
|| __TEXT.__text __ZN3icu6number4impl30CurrencySpacingEnabledModifier15getInsertStringERKNS_20DecimalFormatSymbolsENS2_6EAffixER10UErrorCode
|| __TEXT.__text __ZN3icu6number4impl30CurrencySpacingEnabledModifier20applyCurrencySpacingERNS1_19NumberStringBuilderEiiiiRKNS_20DecimalFormatSymbolsER10UErrorCode
|| __TEXT.__text __ZN3icu6number4impl30CurrencySpacingEnabledModifier25applyCurrencySpacingAffixERNS1_19NumberStringBuilderEiNS2_6EAffixERKNS_20DecimalFormatSymbolsER10UErrorCode
|| __TEXT.__text __ZN3icu6number4impl30CurrencySpacingEnabledModifierC1ERKNS1_19NumberStringBuilderES5_bbRKNS_20DecimalFormatSymbolsER10UErrorCode
|| __TEXT.__text __ZN3icu6number4impl30CurrencySpacingEnabledModifierC2ERKNS1_19NumberStringBuilderES5_bbRKNS_20DecimalFormatSymbolsER10UErrorCode
|| __TEXT.__text __ZN3icu6number4impl32LocalizedNumberFormatterAsFormat16getStaticClassIDEv
|| __TEXT.__text __ZN3icu6number4impl32LocalizedNumberFormatterAsFormatC1ERKNS0_24LocalizedNumberFormatterERKNS_6LocaleE
|| __TEXT.__text __ZN3icu6number4impl32LocalizedNumberFormatterAsFormatC2ERKNS0_24LocalizedNumberFormatterERKNS_6LocaleE
|| __TEXT.__text __ZN3icu6number4impl32LocalizedNumberFormatterAsFormatD0Ev
|| __TEXT.__text __ZN3icu6number4impl32LocalizedNumberFormatterAsFormatD1Ev
|| __TEXT.__text __ZN3icu6number4impl32LocalizedNumberFormatterAsFormatD2Ev
|| __TEXT.__text __ZN3icu6number4impl6DecNum10multiplyByERKS2_R10UErrorCode
|| __TEXT.__text __ZN3icu6number4impl6DecNum5setToENS_11StringPieceER10UErrorCode
|| __TEXT.__text __ZN3icu6number4impl6DecNum5setToEPKcR10UErrorCode
|| __TEXT.__text __ZN3icu6number4impl6DecNum5setToEPKhiibR10UErrorCode
|| __TEXT.__text __ZN3icu6number4impl6DecNum5setToEdR10UErrorCode
|| __TEXT.__text __ZN3icu6number4impl6DecNum6_setToEPKciR10UErrorCode
|| __TEXT.__text __ZN3icu6number4impl6DecNum8divideByERKS2_R10UErrorCode
|| __TEXT.__text __ZN3icu6number4impl6DecNum9normalizeEv
|| __TEXT.__text __ZN3icu6number4impl6DecNumC1ERKS2_R10UErrorCode
|| __TEXT.__text __ZN3icu6number4impl6DecNumC1Ev
|| __TEXT.__text __ZN3icu6number4impl6DecNumC2ERKS2_R10UErrorCode
|| __TEXT.__text __ZN3icu6number4impl6DecNumC2Ev
|| __TEXT.__text __ZN3icu6number4impl6Padder10codePointsEii24UNumberFormatPadPosition
|| __TEXT.__text __ZN3icu6number4impl6Padder13forPropertiesERKNS1_23DecimalFormatPropertiesE
|| __TEXT.__text __ZN3icu6number4impl6Padder4noneEv
|| __TEXT.__text __ZN3icu6number4impl6PadderC1Ei
|| __TEXT.__text __ZN3icu6number4impl6PadderC1Eii24UNumberFormatPadPosition
|| __TEXT.__text __ZN3icu6number4impl6PadderC2Ei
|| __TEXT.__text __ZN3icu6number4impl6PadderC2Eii24UNumberFormatPadPosition
|| __TEXT.__text __ZN3icu6number4impl7Grouper11forStrategyE23UNumberGroupingStrategy
|| __TEXT.__text __ZN3icu6number4impl7Grouper13forPropertiesERKNS1_23DecimalFormatPropertiesE
|| __TEXT.__text __ZN3icu6number4impl7Grouper13setLocaleDataERKNS1_17ParsedPatternInfoERKNS_6LocaleE
|| __TEXT.__text __ZN3icu6number4impl8Modifier10ParametersC1EPKNS1_13ModifierStoreEaNS_14StandardPlural4FormE
|| __TEXT.__text __ZN3icu6number4impl8Modifier10ParametersC1Ev
|| __TEXT.__text __ZN3icu6number4impl8Modifier10ParametersC2EPKNS1_13ModifierStoreEaNS_14StandardPlural4FormE
|| __TEXT.__text __ZN3icu6number4impl8Modifier10ParametersC2Ev
|| __TEXT.__text __ZN3icu6number4impl8ModifierD0Ev
|| __TEXT.__text __ZN3icu6number4impl8ModifierD1Ev
|| __TEXT.__text __ZN3icu6number4impl8ModifierD2Ev
|| __TEXT.__text __ZN3icu6number5Scale10powerOfTenEi
|| __TEXT.__text __ZN3icu6number5Scale21byDoubleAndPowerOfTenEdi
|| __TEXT.__text __ZN3icu6number5Scale4noneEv
|| __TEXT.__text __ZN3icu6number5Scale8byDoubleEd
|| __TEXT.__text __ZN3icu6number5Scale9byDecimalENS_11StringPieceE
|| __TEXT.__text __ZN3icu6number5ScaleC1EOS1_
|| __TEXT.__text __ZN3icu6number5ScaleC1ERKS1_
|| __TEXT.__text __ZN3icu6number5ScaleC1EiPNS0_4impl6DecNumE
|| __TEXT.__text __ZN3icu6number5ScaleC2EOS1_
|| __TEXT.__text __ZN3icu6number5ScaleC2ERKS1_
|| __TEXT.__text __ZN3icu6number5ScaleC2EiPNS0_4impl6DecNumE
|| __TEXT.__text __ZN3icu6number5ScaleD1Ev
|| __TEXT.__text __ZN3icu6number5ScaleD2Ev
|| __TEXT.__text __ZN3icu6number5ScaleaSEOS1_
|| __TEXT.__text __ZN3icu6number5ScaleaSERKS1_
|| __TEXT.__text __ZN3icu6number8Notation10scientificEv
|| __TEXT.__text __ZN3icu6number8Notation11compactLongEv
|| __TEXT.__text __ZN3icu6number8Notation11engineeringEv
|| __TEXT.__text __ZN3icu6number8Notation12compactShortEv
|| __TEXT.__text __ZN3icu6number8Notation6simpleEv
|| __TEXT.__text __ZN3icu6number9Precision11maxFractionEi
|| __TEXT.__text __ZN3icu6number9Precision11minFractionEi
|| __TEXT.__text __ZN3icu6number9Precision13fixedFractionEi
|| __TEXT.__text __ZN3icu6number9Precision14minMaxFractionEii
|| __TEXT.__text __ZN3icu6number9Precision17constructCurrencyE14UCurrencyUsage
|| __TEXT.__text __ZN3icu6number9Precision17constructFractionEii
|| __TEXT.__text __ZN3icu6number9Precision18constructIncrementEdi
|| __TEXT.__text __ZN3icu6number9Precision20constructSignificantEii
|| __TEXT.__text __ZN3icu6number9Precision20maxSignificantDigitsEi
|| __TEXT.__text __ZN3icu6number9Precision20minSignificantDigitsEi
|| __TEXT.__text __ZN3icu6number9Precision22fixedSignificantDigitsEi
|| __TEXT.__text __ZN3icu6number9Precision23minMaxSignificantDigitsEii
|| __TEXT.__text __ZN3icu6number9Precision28constructFractionSignificantERKNS0_17FractionPrecisionEii
|| __TEXT.__text __ZN3icu6number9Precision29constructIncrementSignificantEdii
|| __TEXT.__text __ZN3icu6number9Precision7integerEv
|| __TEXT.__text __ZN3icu6number9Precision8currencyE14UCurrencyUsage
|| __TEXT.__text __ZN3icu6number9Precision9incrementEd
|| __TEXT.__text __ZN3icu6number9Precision9unlimitedEv
|| __TEXT.__text __ZN3icu7CaseMap11utf8ToLowerEPKcjNS_11StringPieceERNS_8ByteSinkEPNS_5EditsER10UErrorCode
|| __TEXT.__text __ZN3icu7CaseMap11utf8ToLowerEPKcjS2_iPciPNS_5EditsER10UErrorCode
|| __TEXT.__text __ZN3icu7CaseMap11utf8ToTitleEPKcjPNS_13BreakIteratorENS_11StringPieceERNS_8ByteSinkEPNS_5EditsER10UErrorCode
|| __TEXT.__text __ZN3icu7CaseMap11utf8ToTitleEPKcjPNS_13BreakIteratorES2_iPciPNS_5EditsER10UErrorCode
|| __TEXT.__text __ZN3icu7CaseMap11utf8ToUpperEPKcjNS_11StringPieceERNS_8ByteSinkEPNS_5EditsER10UErrorCode
|| __TEXT.__text __ZN3icu7CaseMap11utf8ToUpperEPKcjS2_iPciPNS_5EditsER10UErrorCode
|| __TEXT.__text __ZN3icu7CaseMap4foldEjPKDsiPDsiPNS_5EditsER10UErrorCode
|| __TEXT.__text __ZN3icu7CaseMap7toLowerEPKcjPKDsiPDsiPNS_5EditsER10UErrorCode
|| __TEXT.__text __ZN3icu7CaseMap7toTitleEPKcjPNS_13BreakIteratorEPKDsiPDsiPNS_5EditsER10UErrorCode
|| __TEXT.__text __ZN3icu7CaseMap7toUpperEPKcjPKDsiPDsiPNS_5EditsER10UErrorCode
|| __TEXT.__text __ZN3icu7CaseMap8utf8FoldEjNS_11StringPieceERNS_8ByteSinkEPNS_5EditsER10UErrorCode
|| __TEXT.__text __ZN3icu7CaseMap8utf8FoldEjPKciPciPNS_5EditsER10UErrorCode
|| __TEXT.__text __ZN3icu7Measure16getStaticClassIDEv
|| __TEXT.__text __ZN3icu7MeasureC1ERKNS_11FormattableEPNS_11MeasureUnitER10UErrorCode
|| __TEXT.__text __ZN3icu7MeasureC1ERKS0_
|| __TEXT.__text __ZN3icu7MeasureC1Ev
|| __TEXT.__text __ZN3icu7MeasureC2ERKNS_11FormattableEPNS_11MeasureUnitER10UErrorCode
|| __TEXT.__text __ZN3icu7MeasureC2ERKS0_
|| __TEXT.__text __ZN3icu7MeasureC2Ev
|| __TEXT.__text __ZN3icu7MeasureD0Ev
|| __TEXT.__text __ZN3icu7MeasureD1Ev
|| __TEXT.__text __ZN3icu7MeasureD2Ev
|| __TEXT.__text __ZN3icu7MeasureaSERKS0_
|| __TEXT.__text __ZN3icu7UMemorydaEPv
|| __TEXT.__text __ZN3icu7UMemorydlEPv
|| __TEXT.__text __ZN3icu7UMemorynaEm
|| __TEXT.__text __ZN3icu7UMemorynwEm
|| __TEXT.__text __ZN3icu7UObjectD0Ev
|| __TEXT.__text __ZN3icu7UObjectD1Ev
|| __TEXT.__text __ZN3icu7UObjectD2Ev
|| __TEXT.__text __ZN3icu7UVector10addElementEPvR10UErrorCode
|| __TEXT.__text __ZN3icu7UVector10addElementEiR10UErrorCode
|| __TEXT.__text __ZN3icu7UVector10setDeleterEPFvPvE
|| __TEXT.__text __ZN3icu7UVector11setComparerEPFa8UElementS1_E
|| __TEXT.__text __ZN3icu7UVector12setElementAtEPvi
|| __TEXT.__text __ZN3icu7UVector12setElementAtEii
|| __TEXT.__text __ZN3icu7UVector12sortedInsertE8UElementPFaS1_S1_ER10UErrorCode
|| __TEXT.__text __ZN3icu7UVector12sortedInsertEPvPFa8UElementS2_ER10UErrorCode
|| __TEXT.__text __ZN3icu7UVector12sortedInsertEiPFa8UElementS1_ER10UErrorCode
|| __TEXT.__text __ZN3icu7UVector13removeElementEPv
|| __TEXT.__text __ZN3icu7UVector14ensureCapacityEiR10UErrorCode
|| __TEXT.__text __ZN3icu7UVector15insertElementAtEPviR10UErrorCode
|| __TEXT.__text __ZN3icu7UVector15insertElementAtEiiR10UErrorCode
|| __TEXT.__text __ZN3icu7UVector15orphanElementAtEi
|| __TEXT.__text __ZN3icu7UVector15removeElementAtEi
|| __TEXT.__text __ZN3icu7UVector16getStaticClassIDEv
|| __TEXT.__text __ZN3icu7UVector17removeAllElementsEv
|| __TEXT.__text __ZN3icu7UVector19sortWithUComparatorEPFiPKvS2_S2_ES2_R10UErrorCode
|| __TEXT.__text __ZN3icu7UVector4sortEPFa8UElementS1_ER10UErrorCode
|| __TEXT.__text __ZN3icu7UVector5_initEiR10UErrorCode
|| __TEXT.__text __ZN3icu7UVector5sortiER10UErrorCode
|| __TEXT.__text __ZN3icu7UVector6assignERKS0_PFvP8UElementS4_ER10UErrorCode
|| __TEXT.__text __ZN3icu7UVector7setSizeEiR10UErrorCode
|| __TEXT.__text __ZN3icu7UVector9removeAllERKS0_
|| __TEXT.__text __ZN3icu7UVector9retainAllERKS0_
|| __TEXT.__text __ZN3icu7UVectorC1EPFvPvEPFa8UElementS4_ER10UErrorCode
|| __TEXT.__text __ZN3icu7UVectorC1EPFvPvEPFa8UElementS4_EiR10UErrorCode
|| __TEXT.__text __ZN3icu7UVectorC1ER10UErrorCode
|| __TEXT.__text __ZN3icu7UVectorC1EiR10UErrorCode
|| __TEXT.__text __ZN3icu7UVectorC2EPFvPvEPFa8UElementS4_ER10UErrorCode
|| __TEXT.__text __ZN3icu7UVectorC2EPFvPvEPFa8UElementS4_EiR10UErrorCode
|| __TEXT.__text __ZN3icu7UVectorC2ER10UErrorCode
|| __TEXT.__text __ZN3icu7UVectorC2EiR10UErrorCode
|| __TEXT.__text __ZN3icu7UVectorD0Ev
|| __TEXT.__text __ZN3icu7UVectorD1Ev
|| __TEXT.__text __ZN3icu7UVectorD2Ev
|| __TEXT.__text __ZN3icu7UVectoreqERKS0_
|| __TEXT.__text __ZN3icu7unisets10chooseFromENS_13UnicodeStringENS0_3KeyE
|| __TEXT.__text __ZN3icu7unisets10chooseFromENS_13UnicodeStringENS0_3KeyES2_
|| __TEXT.__text __ZN3icu7unisets3getENS0_3KeyE
|| __TEXT.__text __ZN3icu8ByteSink15GetAppendBufferEiiPciPi
|| __TEXT.__text __ZN3icu8ByteSink5FlushEv
|| __TEXT.__text __ZN3icu8ByteSinkD0Ev
|| __TEXT.__text __ZN3icu8ByteSinkD1Ev
|| __TEXT.__text __ZN3icu8ByteSinkD2Ev
|| __TEXT.__text __ZN3icu8Calendar10setLenientEa
|| __TEXT.__text __ZN3icu8Calendar10updateTimeER10UErrorCode
|| __TEXT.__text __ZN3icu8Calendar10weekNumberEiii
|| __TEXT.__text __ZN3icu8Calendar11computeTimeER10UErrorCode
|| __TEXT.__text __ZN3icu8Calendar11getLocalDOWEv
|| __TEXT.__text __ZN3icu8Calendar11internalSetENS0_11EDateFieldsEi
|| __TEXT.__text __ZN3icu8Calendar11setTimeZoneERKNS_8TimeZoneE
|| __TEXT.__text __ZN3icu8Calendar11setWeekDataERKNS_6LocaleEPKcR10UErrorCode
|| __TEXT.__text __ZN3icu8Calendar12makeInstanceERKNS_6LocaleER10UErrorCode
|| __TEXT.__text __ZN3icu8Calendar13adoptTimeZoneEPNS_8TimeZoneE
|| __TEXT.__text __ZN3icu8Calendar13computeFieldsER10UErrorCode
|| __TEXT.__text __ZN3icu8Calendar13resolveFieldsEPA12_A8_Ki
|| __TEXT.__text __ZN3icu8Calendar13validateFieldE19UCalendarDateFieldsR10UErrorCode
|| __TEXT.__text __ZN3icu8Calendar13validateFieldE19UCalendarDateFieldsiiR10UErrorCode
|| __TEXT.__text __ZN3icu8Calendar14createInstanceEPNS_8TimeZoneERKNS_6LocaleER10UErrorCode
|| __TEXT.__text __ZN3icu8Calendar14createInstanceER10UErrorCode
|| __TEXT.__text __ZN3icu8Calendar14createInstanceERKNS_6LocaleER10UErrorCode
|| __TEXT.__text __ZN3icu8Calendar14createInstanceERKNS_8TimeZoneER10UErrorCode
|| __TEXT.__text __ZN3icu8Calendar14createInstanceERKNS_8TimeZoneERKNS_6LocaleER10UErrorCode
|| __TEXT.__text __ZN3icu8Calendar14orphanTimeZoneEv
|| __TEXT.__text __ZN3icu8Calendar14setRelatedYearEi
|| __TEXT.__text __ZN3icu8Calendar14validateFieldsER10UErrorCode
|| __TEXT.__text __ZN3icu8Calendar15fieldDifferenceEd19UCalendarDateFieldsR10UErrorCode
|| __TEXT.__text __ZN3icu8Calendar15fieldDifferenceEdNS0_11EDateFieldsER10UErrorCode
|| __TEXT.__text __ZN3icu8Calendar15setTimeInMillisEdR10UErrorCode
|| __TEXT.__text __ZN3icu8Calendar16computeJulianDayEv
|| __TEXT.__text __ZN3icu8Calendar16prepareGetActualE19UCalendarDateFieldsaR10UErrorCode
|| __TEXT.__text __ZN3icu8Calendar16recalculateStampEv
|| __TEXT.__text __ZN3icu8Calendar17computeWeekFieldsER10UErrorCode
|| __TEXT.__text __ZN3icu8Calendar17computeZoneOffsetEddR10UErrorCode
|| __TEXT.__text __ZN3icu8Calendar17setFirstDayOfWeekE19UCalendarDaysOfWeek
|| __TEXT.__text __ZN3icu8Calendar18computeMillisInDayEv
|| __TEXT.__text __ZN3icu8Calendar19getAvailableLocalesERi
|| __TEXT.__text __ZN3icu8Calendar19handleComputeFieldsEiR10UErrorCode
|| __TEXT.__text __ZN3icu8Calendar20getDefaultDayInMonthEii
|| __TEXT.__text __ZN3icu8Calendar20julianDayToDayOfWeekEd
|| __TEXT.__text __ZN3icu8Calendar21getDefaultMonthInYearEi
|| __TEXT.__text __ZN3icu8Calendar22computeGregorianFieldsEiR10UErrorCode
|| __TEXT.__text __ZN3icu8Calendar22handleComputeJulianDayE19UCalendarDateFields
|| __TEXT.__text __ZN3icu8Calendar24setSkippedWallTimeOptionE23UCalendarWallTimeOption
|| __TEXT.__text __ZN3icu8Calendar25getCalendarTypeFromLocaleERKNS_6LocaleEPciR10UErrorCode
|| __TEXT.__text __ZN3icu8Calendar25getKeywordValuesForLocaleEPKcRKNS_6LocaleEaR10UErrorCode
|| __TEXT.__text __ZN3icu8Calendar25setMinimalDaysInFirstWeekEh
|| __TEXT.__text __ZN3icu8Calendar25setRepeatedWallTimeOptionE23UCalendarWallTimeOption
|| __TEXT.__text __ZN3icu8Calendar28computeGregorianAndDOWFieldsEiR10UErrorCode
|| __TEXT.__text __ZN3icu8Calendar35handleGetExtendedYearFromWeekFieldsEii
|| __TEXT.__text __ZN3icu8Calendar3addE19UCalendarDateFieldsiR10UErrorCode
|| __TEXT.__text __ZN3icu8Calendar3addENS0_11EDateFieldsEiR10UErrorCode
|| __TEXT.__text __ZN3icu8Calendar3setE19UCalendarDateFieldsi
|| __TEXT.__text __ZN3icu8Calendar3setEiii
|| __TEXT.__text __ZN3icu8Calendar3setEiiiii
|| __TEXT.__text __ZN3icu8Calendar3setEiiiiii
|| __TEXT.__text __ZN3icu8Calendar4rollE19UCalendarDateFieldsiR10UErrorCode
|| __TEXT.__text __ZN3icu8Calendar4rollENS0_11EDateFieldsEiR10UErrorCode
|| __TEXT.__text __ZN3icu8Calendar5clearE19UCalendarDateFields
|| __TEXT.__text __ZN3icu8Calendar5clearEv
|| __TEXT.__text __ZN3icu8Calendar6getNowEv
|| __TEXT.__text __ZN3icu8Calendar8completeER10UErrorCode
|| __TEXT.__text __ZN3icu8Calendar8pinFieldE19UCalendarDateFieldsR10UErrorCode
|| __TEXT.__text __ZN3icu8CalendarC2EPNS_8TimeZoneERKNS_6LocaleER10UErrorCode
|| __TEXT.__text __ZN3icu8CalendarC2ER10UErrorCode
|| __TEXT.__text __ZN3icu8CalendarC2ERKNS_8TimeZoneERKNS_6LocaleER10UErrorCode
|| __TEXT.__text __ZN3icu8CalendarC2ERKS0_
|| __TEXT.__text __ZN3icu8CalendarD0Ev
|| __TEXT.__text __ZN3icu8CalendarD1Ev
|| __TEXT.__text __ZN3icu8CalendarD2Ev
|| __TEXT.__text __ZN3icu8CalendaraSERKS0_
|| __TEXT.__text __ZN3icu8Collator10setLocalesERKNS_6LocaleES3_S3_
|| __TEXT.__text __ZN3icu8Collator11getKeywordsER10UErrorCode
|| __TEXT.__text __ZN3icu8Collator11setStrengthENS0_18ECollationStrengthE
|| __TEXT.__text __ZN3icu8Collator12makeInstanceERKNS_6LocaleER10UErrorCode
|| __TEXT.__text __ZN3icu8Collator14createInstanceER10UErrorCode
|| __TEXT.__text __ZN3icu8Collator14createInstanceERKNS_6LocaleER10UErrorCode
|| __TEXT.__text __ZN3icu8Collator14getDisplayNameERKNS_6LocaleERNS_13UnicodeStringE
|| __TEXT.__text __ZN3icu8Collator14getDisplayNameERKNS_6LocaleES3_RNS_13UnicodeStringE
|| __TEXT.__text __ZN3icu8Collator14setMaxVariableE15UColReorderCodeR10UErrorCode
|| __TEXT.__text __ZN3icu8Collator15setReorderCodesEPKiiR10UErrorCode
|| __TEXT.__text __ZN3icu8Collator16getKeywordValuesEPKcR10UErrorCode
|| __TEXT.__text __ZN3icu8Collator19getAvailableLocalesERi
|| __TEXT.__text __ZN3icu8Collator19getAvailableLocalesEv
|| __TEXT.__text __ZN3icu8Collator23getFunctionalEquivalentEPKcRKNS_6LocaleERaR10UErrorCode
|| __TEXT.__text __ZN3icu8Collator25getEquivalentReorderCodesEiPiiR10UErrorCode
|| __TEXT.__text __ZN3icu8Collator25getKeywordValuesForLocaleEPKcRKNS_6LocaleEaR10UErrorCode
|| __TEXT.__text __ZN3icu8Collator8getBoundEPKhi13UColBoundModejPhiR10UErrorCode
|| __TEXT.__text __ZN3icu8CollatorC2E18UColAttributeValue18UNormalizationMode
|| __TEXT.__text __ZN3icu8CollatorC2ERKS0_
|| __TEXT.__text __ZN3icu8CollatorC2Ev
|| __TEXT.__text __ZN3icu8CollatorD0Ev
|| __TEXT.__text __ZN3icu8CollatorD1Ev
|| __TEXT.__text __ZN3icu8CollatorD2Ev
|| __TEXT.__text __ZN3icu8EraRules14createInstanceEPKcaR10UErrorCode
|| __TEXT.__text __ZN3icu8EraRules14initCurrentEraEv
|| __TEXT.__text __ZN3icu8EraRulesC1ERNS_11LocalMemoryIiEEi
|| __TEXT.__text __ZN3icu8EraRulesC2ERNS_11LocalMemoryIiEEi
|| __TEXT.__text __ZN3icu8EraRulesD1Ev
|| __TEXT.__text __ZN3icu8EraRulesD2Ev
|| __TEXT.__text __ZN3icu8TimeUnit14createInstanceENS0_15UTimeUnitFieldsER10UErrorCode
|| __TEXT.__text __ZN3icu8TimeUnit16getStaticClassIDEv
|| __TEXT.__text __ZN3icu8TimeUnitC1ENS0_15UTimeUnitFieldsE
|| __TEXT.__text __ZN3icu8TimeUnitC1ERKS0_
|| __TEXT.__text __ZN3icu8TimeUnitC2ENS0_15UTimeUnitFieldsE
|| __TEXT.__text __ZN3icu8TimeUnitC2ERKS0_
|| __TEXT.__text __ZN3icu8TimeUnitD0Ev
|| __TEXT.__text __ZN3icu8TimeUnitD1Ev
|| __TEXT.__text __ZN3icu8TimeUnitD2Ev
|| __TEXT.__text __ZN3icu8TimeUnitaSERKS0_
|| __TEXT.__text __ZN3icu8TimeZone10getUnknownEv
|| __TEXT.__text __ZN3icu8TimeZone10setDefaultERKS0_
|| __TEXT.__text __ZN3icu8TimeZone11getCustomIDERKNS_13UnicodeStringERS1_R10UErrorCode
|| __TEXT.__text __ZN3icu8TimeZone12adoptDefaultEPS0_
|| __TEXT.__text __ZN3icu8TimeZone12getWindowsIDERKNS_13UnicodeStringERS1_R10UErrorCode
|| __TEXT.__text __ZN3icu8TimeZone13createDefaultEv
|| __TEXT.__text __ZN3icu8TimeZone13parseCustomIDERKNS_13UnicodeStringERiS4_S4_S4_
|| __TEXT.__text __ZN3icu8TimeZone14createTimeZoneERKNS_13UnicodeStringE
|| __TEXT.__text __ZN3icu8TimeZone14formatCustomIDEiiiaRNS_13UnicodeStringE
|| __TEXT.__text __ZN3icu8TimeZone14getCanonicalIDERKNS_13UnicodeStringERS1_R10UErrorCode
|| __TEXT.__text __ZN3icu8TimeZone14getCanonicalIDERKNS_13UnicodeStringERS1_RaR10UErrorCode
|| __TEXT.__text __ZN3icu8TimeZone15getEquivalentIDERKNS_13UnicodeStringEi
|| __TEXT.__text __ZN3icu8TimeZone16dereferOlsonLinkERKNS_13UnicodeStringE
|| __TEXT.__text __ZN3icu8TimeZone16getStaticClassIDEv
|| __TEXT.__text __ZN3icu8TimeZone16getTZDataVersionER10UErrorCode
|| __TEXT.__text __ZN3icu8TimeZone17createEnumerationEPKc
|| __TEXT.__text __ZN3icu8TimeZone17createEnumerationEi
|| __TEXT.__text __ZN3icu8TimeZone17createEnumerationEv
|| __TEXT.__text __ZN3icu8TimeZone17getIDForWindowsIDERKNS_13UnicodeStringEPKcRS1_R10UErrorCode
|| __TEXT.__text __ZN3icu8TimeZone18countEquivalentIDsERKNS_13UnicodeStringE
|| __TEXT.__text __ZN3icu8TimeZone18detectHostTimeZoneEv
|| __TEXT.__text __ZN3icu8TimeZone20createCustomTimeZoneERKNS_13UnicodeStringE
|| __TEXT.__text __ZN3icu8TimeZone27createTimeZoneIDEnumerationE19USystemTimeZoneTypePKcPKiR10UErrorCode
|| __TEXT.__text __ZN3icu8TimeZone6findIDERKNS_13UnicodeStringE
|| __TEXT.__text __ZN3icu8TimeZone6getGMTEv
|| __TEXT.__text __ZN3icu8TimeZone8loadRuleEPK15UResourceBundleRKNS_13UnicodeStringEPS1_R10UErrorCode
|| __TEXT.__text __ZN3icu8TimeZone9getRegionERKNS_13UnicodeStringE
|| __TEXT.__text __ZN3icu8TimeZone9getRegionERKNS_13UnicodeStringEPciR10UErrorCode
|| __TEXT.__text __ZN3icu8TimeZone9getRegionERKNS_13UnicodeStringER10UErrorCode
|| __TEXT.__text __ZN3icu8TimeZoneC2ERKNS_13UnicodeStringE
|| __TEXT.__text __ZN3icu8TimeZoneC2ERKS0_
|| __TEXT.__text __ZN3icu8TimeZoneC2Ev
|| __TEXT.__text __ZN3icu8TimeZoneD0Ev
|| __TEXT.__text __ZN3icu8TimeZoneD1Ev
|| __TEXT.__text __ZN3icu8TimeZoneD2Ev
|| __TEXT.__text __ZN3icu8TimeZoneaSERKS0_
|| __TEXT.__text __ZN3icu8ZoneMeta10getShortIDERKNS_13UnicodeStringE
|| __TEXT.__text __ZN3icu8ZoneMeta10getShortIDERKNS_8TimeZoneE
|| __TEXT.__text __ZN3icu8ZoneMeta13getMetazoneIDERKNS_13UnicodeStringEdRS1_
|| __TEXT.__text __ZN3icu8ZoneMeta14findMetaZoneIDERKNS_13UnicodeStringE
|| __TEXT.__text __ZN3icu8ZoneMeta14findTimeZoneIDERKNS_13UnicodeStringE
|| __TEXT.__text __ZN3icu8ZoneMeta14formatCustomIDEhhhaRNS_13UnicodeStringE
|| __TEXT.__text __ZN3icu8ZoneMeta18getCanonicalCLDRIDERKNS_13UnicodeStringER10UErrorCode
|| __TEXT.__text __ZN3icu8ZoneMeta18getCanonicalCLDRIDERKNS_13UnicodeStringERS1_R10UErrorCode
|| __TEXT.__text __ZN3icu8ZoneMeta18getCanonicalCLDRIDERKNS_8TimeZoneE
|| __TEXT.__text __ZN3icu8ZoneMeta19getCanonicalCountryERKNS_13UnicodeStringERS1_Pa
|| __TEXT.__text __ZN3icu8ZoneMeta19getMetazoneMappingsERKNS_13UnicodeStringE
|| __TEXT.__text __ZN3icu8ZoneMeta19getZoneIdByMetazoneERKNS_13UnicodeStringES3_RS1_
|| __TEXT.__text __ZN3icu8ZoneMeta20createCustomTimeZoneEi
|| __TEXT.__text __ZN3icu8ZoneMeta22createMetazoneMappingsERKNS_13UnicodeStringE
|| __TEXT.__text __ZN3icu8ZoneMeta23getAvailableMetazoneIDsEv
|| __TEXT.__text __ZN3icu8ZoneMeta23getShortIDFromCanonicalEPKDs
|| __TEXT.__text __ZN3icu8numparse4impl12ParsedNumber11postProcessEv
|| __TEXT.__text __ZN3icu8numparse4impl12ParsedNumber12isBetterThanERKS2_
|| __TEXT.__text __ZN3icu8numparse4impl12ParsedNumber16setCharsConsumedERKNS1_13StringSegmentE
|| __TEXT.__text __ZN3icu8numparse4impl12ParsedNumber5clearEv
|| __TEXT.__text __ZN3icu8numparse4impl12ParsedNumberC1Ev
|| __TEXT.__text __ZN3icu8numparse4impl12ParsedNumberC2Ev
|| __TEXT.__text __ZN3icu8numparse4impl13StringSegment11resetLengthEv
|| __TEXT.__text __ZN3icu8numparse4impl13StringSegment12adjustOffsetEi
|| __TEXT.__text __ZN3icu8numparse4impl13StringSegment15codePointsEqualEiib
|| __TEXT.__text __ZN3icu8numparse4impl13StringSegment21getCommonPrefixLengthERKNS_13UnicodeStringE
|| __TEXT.__text __ZN3icu8numparse4impl13StringSegment23adjustOffsetByCodePointEv
|| __TEXT.__text __ZN3icu8numparse4impl13StringSegment23getPrefixLengthInternalERKNS_13UnicodeStringEb
|| __TEXT.__text __ZN3icu8numparse4impl13StringSegment28getCaseSensitivePrefixLengthERKNS_13UnicodeStringE
|| __TEXT.__text __ZN3icu8numparse4impl13StringSegment9setLengthEi
|| __TEXT.__text __ZN3icu8numparse4impl13StringSegment9setOffsetEi
|| __TEXT.__text __ZN3icu8numparse4impl13StringSegmentC1ERKNS_13UnicodeStringEb
|| __TEXT.__text __ZN3icu8numparse4impl13StringSegmentC2ERKNS_13UnicodeStringEb
|| __TEXT.__text __ZN3icu8numparse4impl13SymbolMatcherC2ERKNS_13UnicodeStringENS_7unisets3KeyE
|| __TEXT.__text __ZN3icu8numparse4impl14PercentMatcherC1ERKNS_20DecimalFormatSymbolsE
|| __TEXT.__text __ZN3icu8numparse4impl14PercentMatcherC2ERKNS_20DecimalFormatSymbolsE
|| __TEXT.__text __ZN3icu8numparse4impl15PermilleMatcherC1ERKNS_20DecimalFormatSymbolsE
|| __TEXT.__text __ZN3icu8numparse4impl15PermilleMatcherC2ERKNS_20DecimalFormatSymbolsE
|| __TEXT.__text __ZN3icu8numparse4impl15PlusSignMatcherC1ERKNS_20DecimalFormatSymbolsEb
|| __TEXT.__text __ZN3icu8numparse4impl15PlusSignMatcherC2ERKNS_20DecimalFormatSymbolsEb
|| __TEXT.__text __ZN3icu8numparse4impl16MinusSignMatcherC1ERKNS_20DecimalFormatSymbolsEb
|| __TEXT.__text __ZN3icu8numparse4impl16MinusSignMatcherC2ERKNS_20DecimalFormatSymbolsEb
|| __TEXT.__text __ZN3icu8numparse4impl16NumberParserImpl10addMatcherERNS1_18NumberParseMatcherE
|| __TEXT.__text __ZN3icu8numparse4impl16NumberParserImpl18createSimpleParserERKNS_6LocaleERKNS_13UnicodeStringEiR10UErrorCode
|| __TEXT.__text __ZN3icu8numparse4impl16NumberParserImpl26createParserFromPropertiesERKNS_6number4impl23DecimalFormatPropertiesERKNS_20DecimalFormatSymbolsEbR10UErrorCode
|| __TEXT.__text __ZN3icu8numparse4impl16NumberParserImpl6freezeEv
|| __TEXT.__text __ZN3icu8numparse4impl16NumberParserImplC1Ei
|| __TEXT.__text __ZN3icu8numparse4impl16NumberParserImplC2Ei
|| __TEXT.__text __ZN3icu8numparse4impl16NumberParserImplD0Ev
|| __TEXT.__text __ZN3icu8numparse4impl16NumberParserImplD1Ev
|| __TEXT.__text __ZN3icu8numparse4impl16NumberParserImplD2Ev
|| __TEXT.__text __ZN3icu8numparse4impl17IgnorablesMatcherC1ENS_7unisets3KeyE
|| __TEXT.__text __ZN3icu8numparse4impl17IgnorablesMatcherC2ENS_7unisets3KeyE
|| __TEXT.__text __ZN3icu8numparse4impl18ArraySeriesMatcherC1ERNS_15MaybeStackArrayIPKNS1_18NumberParseMatcherELi3EEEi
|| __TEXT.__text __ZN3icu8numparse4impl18ArraySeriesMatcherC1Ev
|| __TEXT.__text __ZN3icu8numparse4impl18ArraySeriesMatcherC2ERNS_15MaybeStackArrayIPKNS1_18NumberParseMatcherELi3EEEi
|| __TEXT.__text __ZN3icu8numparse4impl18ArraySeriesMatcherC2Ev
|| __TEXT.__text __ZN3icu8numparse4impl18NumberParseMatcherD0Ev
|| __TEXT.__text __ZN3icu8numparse4impl18NumberParseMatcherD1Ev
|| __TEXT.__text __ZN3icu8numparse4impl18NumberParseMatcherD2Ev
|| __TEXT.__text __ZN3icu8numparse4impl19AffixPatternMatcher16fromAffixPatternERKNS_13UnicodeStringERNS1_26AffixTokenMatcherWarehouseEiPbR10UErrorCode
|| __TEXT.__text __ZN3icu8numparse4impl19AffixPatternMatcherC1ERNS_15MaybeStackArrayIPKNS1_18NumberParseMatcherELi3EEEiRKNS_13UnicodeStringE
|| __TEXT.__text __ZN3icu8numparse4impl19AffixPatternMatcherC2ERNS_15MaybeStackArrayIPKNS1_18NumberParseMatcherELi3EEEiRKNS_13UnicodeStringE
|| __TEXT.__text __ZN3icu8numparse4impl23CombinedCurrencyMatcherC1ERKNS_6number4impl15CurrencySymbolsERKNS_20DecimalFormatSymbolsEiR10UErrorCode
|| __TEXT.__text __ZN3icu8numparse4impl23CombinedCurrencyMatcherC2ERKNS_6number4impl15CurrencySymbolsERKNS_20DecimalFormatSymbolsEiR10UErrorCode
|| __TEXT.__text __ZN3icu8numparse4impl26AffixTokenMatcherWarehouse10ignorablesEv
|| __TEXT.__text __ZN3icu8numparse4impl26AffixTokenMatcherWarehouse20nextCodePointMatcherEiR10UErrorCode
|| __TEXT.__text __ZN3icu8numparse4impl26AffixTokenMatcherWarehouse7percentEv
|| __TEXT.__text __ZN3icu8numparse4impl26AffixTokenMatcherWarehouse8currencyER10UErrorCode
|| __TEXT.__text __ZN3icu8numparse4impl26AffixTokenMatcherWarehouse8permilleEv
|| __TEXT.__text __ZN3icu8numparse4impl26AffixTokenMatcherWarehouse8plusSignEv
|| __TEXT.__text __ZN3icu8numparse4impl26AffixTokenMatcherWarehouse9minusSignEv
|| __TEXT.__text __ZN3icu8numparse4impl26AffixTokenMatcherWarehouseC1EPKNS1_26AffixTokenMatcherSetupDataE
|| __TEXT.__text __ZN3icu8numparse4impl26AffixTokenMatcherWarehouseC2EPKNS1_26AffixTokenMatcherSetupDataE
|| __TEXT.__text __ZN3icu9BytesTrie10branchNextEPKhii
|| __TEXT.__text __ZN3icu9BytesTrie11jumpByDeltaEPKh
|| __TEXT.__text __ZN3icu9BytesTrie15findUniqueValueEPKhaRi
|| __TEXT.__text __ZN3icu9BytesTrie18getNextBranchBytesEPKhiRNS_8ByteSinkE
|| __TEXT.__text __ZN3icu9BytesTrie25findUniqueValueFromBranchEPKhiaRi
|| __TEXT.__text __ZN3icu9BytesTrie4nextEPKci
|| __TEXT.__text __ZN3icu9BytesTrie4nextEi
|| __TEXT.__text __ZN3icu9BytesTrie6appendERNS_8ByteSinkEi
|| __TEXT.__text __ZN3icu9BytesTrie8Iterator10branchNextEPKhiR10UErrorCode
|| __TEXT.__text __ZN3icu9BytesTrie8Iterator15truncateAndStopEv
|| __TEXT.__text __ZN3icu9BytesTrie8Iterator4nextER10UErrorCode
|| __TEXT.__text __ZN3icu9BytesTrie8Iterator5resetEv
|| __TEXT.__text __ZN3icu9BytesTrie8IteratorC1EPKviR10UErrorCode
|| __TEXT.__text __ZN3icu9BytesTrie8IteratorC1ERKS0_iR10UErrorCode
|| __TEXT.__text __ZN3icu9BytesTrie8IteratorC2EPKviR10UErrorCode
|| __TEXT.__text __ZN3icu9BytesTrie8IteratorC2ERKS0_iR10UErrorCode
|| __TEXT.__text __ZN3icu9BytesTrie8IteratorD1Ev
|| __TEXT.__text __ZN3icu9BytesTrie8IteratorD2Ev
|| __TEXT.__text __ZN3icu9BytesTrie8nextImplEPKhi
|| __TEXT.__text __ZN3icu9BytesTrie9readValueEPKhi
|| __TEXT.__text __ZN3icu9BytesTrieD1Ev
|| __TEXT.__text __ZN3icu9BytesTrieD2Ev
|| __TEXT.__text __ZN3icu9Collation25incTwoBytePrimaryByOffsetEjai
|| __TEXT.__text __ZN3icu9Collation26decTwoBytePrimaryByOneStepEjai
|| __TEXT.__text __ZN3icu9Collation27incThreeBytePrimaryByOffsetEjai
|| __TEXT.__text __ZN3icu9Collation28decThreeBytePrimaryByOneStepEjai
|| __TEXT.__text __ZN3icu9Collation30unassignedPrimaryFromCodePointEi
|| __TEXT.__text __ZN3icu9Collation32getThreeBytePrimaryForOffsetDataEix
|| __TEXT.__text __ZN3icu9ErrorCode5resetEv
|| __TEXT.__text __ZN3icu9ErrorCodeD0Ev
|| __TEXT.__text __ZN3icu9ErrorCodeD1Ev
|| __TEXT.__text __ZN3icu9ErrorCodeD2Ev
|| __TEXT.__text __ZN3icu9ScriptSet12parseScriptsERKNS_13UnicodeStringER10UErrorCode
|| __TEXT.__text __ZN3icu9ScriptSet19setScriptExtensionsEiR10UErrorCode
|| __TEXT.__text __ZN3icu9ScriptSet3setE11UScriptCodeR10UErrorCode
|| __TEXT.__text __ZN3icu9ScriptSet5UnionERKS0_
|| __TEXT.__text __ZN3icu9ScriptSet5resetE11UScriptCodeR10UErrorCode
|| __TEXT.__text __ZN3icu9ScriptSet6setAllEv
|| __TEXT.__text __ZN3icu9ScriptSet8resetAllEv
|| __TEXT.__text __ZN3icu9ScriptSet9intersectE11UScriptCodeR10UErrorCode
|| __TEXT.__text __ZN3icu9ScriptSet9intersectERKS0_
|| __TEXT.__text __ZN3icu9ScriptSetC1ERKS0_
|| __TEXT.__text __ZN3icu9ScriptSetC1Ev
|| __TEXT.__text __ZN3icu9ScriptSetC2ERKS0_
|| __TEXT.__text __ZN3icu9ScriptSetC2Ev
|| __TEXT.__text __ZN3icu9ScriptSetD1Ev
|| __TEXT.__text __ZN3icu9ScriptSetD2Ev
|| __TEXT.__text __ZN3icu9ScriptSetaSERKS0_
|| __TEXT.__text __ZN3icu9UVector3212setElementAtEii
|| __TEXT.__text __ZN3icu9UVector3212sortedInsertEiR10UErrorCode
|| __TEXT.__text __ZN3icu9UVector3214expandCapacityEiR10UErrorCode
|| __TEXT.__text __ZN3icu9UVector3214setMaxCapacityEi
|| __TEXT.__text __ZN3icu9UVector3215insertElementAtEiiR10UErrorCode
|| __TEXT.__text __ZN3icu9UVector3215removeElementAtEi
|| __TEXT.__text __ZN3icu9UVector3216getStaticClassIDEv
|| __TEXT.__text __ZN3icu9UVector3217removeAllElementsEv
|| __TEXT.__text __ZN3icu9UVector325_initEiR10UErrorCode
|| __TEXT.__text __ZN3icu9UVector326assignERKS0_R10UErrorCode
|| __TEXT.__text __ZN3icu9UVector327setSizeEi
|| __TEXT.__text __ZN3icu9UVector329removeAllERKS0_
|| __TEXT.__text __ZN3icu9UVector329retainAllERKS0_
|| __TEXT.__text __ZN3icu9UVector32C1ER10UErrorCode
|| __TEXT.__text __ZN3icu9UVector32C1EiR10UErrorCode
|| __TEXT.__text __ZN3icu9UVector32C2ER10UErrorCode
|| __TEXT.__text __ZN3icu9UVector32C2EiR10UErrorCode
|| __TEXT.__text __ZN3icu9UVector32D0Ev
|| __TEXT.__text __ZN3icu9UVector32D1Ev
|| __TEXT.__text __ZN3icu9UVector32D2Ev
|| __TEXT.__text __ZN3icu9UVector32eqERKS0_
|| __TEXT.__text __ZN3icu9UVector6412setElementAtExi
|| __TEXT.__text __ZN3icu9UVector6414expandCapacityEiR10UErrorCode
|| __TEXT.__text __ZN3icu9UVector6414setMaxCapacityEi
|| __TEXT.__text __ZN3icu9UVector6415insertElementAtExiR10UErrorCode
|| __TEXT.__text __ZN3icu9UVector6416getStaticClassIDEv
|| __TEXT.__text __ZN3icu9UVector6417removeAllElementsEv
|| __TEXT.__text __ZN3icu9UVector645_initEiR10UErrorCode
|| __TEXT.__text __ZN3icu9UVector646assignERKS0_R10UErrorCode
|| __TEXT.__text __ZN3icu9UVector647setSizeEi
|| __TEXT.__text __ZN3icu9UVector64C1ER10UErrorCode
|| __TEXT.__text __ZN3icu9UVector64C1EiR10UErrorCode
|| __TEXT.__text __ZN3icu9UVector64C2ER10UErrorCode
|| __TEXT.__text __ZN3icu9UVector64C2EiR10UErrorCode
|| __TEXT.__text __ZN3icu9UVector64D0Ev
|| __TEXT.__text __ZN3icu9UVector64D1Ev
|| __TEXT.__text __ZN3icu9UVector64D2Ev
|| __TEXT.__text __ZN3icu9UVector64eqERKS0_
|| __TEXT.__text __ZN3icu9VTimeZone12setRawOffsetEi
|| __TEXT.__text __ZN3icu9VTimeZone15createVTimeZoneERKNS_13UnicodeStringER10UErrorCode
|| __TEXT.__text __ZN3icu9VTimeZone15setLastModifiedEd
|| __TEXT.__text __ZN3icu9VTimeZone16getStaticClassIDEv
|| __TEXT.__text __ZN3icu9VTimeZone19createVTimeZoneByIDERKNS_13UnicodeStringE
|| __TEXT.__text __ZN3icu9VTimeZone32createVTimeZoneFromBasicTimeZoneERKNS_13BasicTimeZoneER10UErrorCode
|| __TEXT.__text __ZN3icu9VTimeZone4loadERNS_9VTZReaderER10UErrorCode
|| __TEXT.__text __ZN3icu9VTimeZone5parseER10UErrorCode
|| __TEXT.__text __ZN3icu9VTimeZone8setTZURLERKNS_13UnicodeStringE
|| __TEXT.__text __ZN3icu9VTimeZoneC1ERKS0_
|| __TEXT.__text __ZN3icu9VTimeZoneC1Ev
|| __TEXT.__text __ZN3icu9VTimeZoneC2ERKS0_
|| __TEXT.__text __ZN3icu9VTimeZoneC2Ev
|| __TEXT.__text __ZN3icu9VTimeZoneD0Ev
|| __TEXT.__text __ZN3icu9VTimeZoneD1Ev
|| __TEXT.__text __ZN3icu9VTimeZoneD2Ev
|| __TEXT.__text __ZN3icu9VTimeZoneaSERKS0_
|| __TEXT.__text __ZN3icueqERKNS_11StringPieceES2_
|| __TEXT.__text __ZN3icuplERKNS_13UnicodeStringES2_
|| __TEXT.__text __ZNK3icu10CECalendar14handleGetLimitE19UCalendarDateFieldsNS_8Calendar10ELimitTypeE
|| __TEXT.__text __ZNK3icu10CECalendar14inDaylightTimeER10UErrorCode
|| __TEXT.__text __ZNK3icu10CECalendar18haveDefaultCenturyEv
|| __TEXT.__text __ZNK3icu10CECalendar23handleComputeMonthStartEiia
|| __TEXT.__text __ZNK3icu10CharString11lastIndexOfEc
|| __TEXT.__text __ZNK3icu10DateFormat10getContextE19UDisplayContextTypeR10UErrorCode
|| __TEXT.__text __ZNK3icu10DateFormat11getCalendarEv
|| __TEXT.__text __ZNK3icu10DateFormat11getTimeZoneEv
|| __TEXT.__text __ZNK3icu10DateFormat11parseObjectERKNS_13UnicodeStringERNS_11FormattableERNS_13ParsePositionE
|| __TEXT.__text __ZNK3icu10DateFormat15getNumberFormatEv
|| __TEXT.__text __ZNK3icu10DateFormat17isCalendarLenientEv
|| __TEXT.__text __ZNK3icu10DateFormat19getBooleanAttributeE27UDateFormatBooleanAttributeR10UErrorCode
|| __TEXT.__text __ZNK3icu10DateFormat5parseERKNS_13UnicodeStringER10UErrorCode
|| __TEXT.__text __ZNK3icu10DateFormat5parseERKNS_13UnicodeStringERNS_13ParsePositionE
|| __TEXT.__text __ZNK3icu10DateFormat6formatERKNS_11FormattableERNS_13UnicodeStringEPNS_21FieldPositionIteratorER10UErrorCode
|| __TEXT.__text __ZNK3icu10DateFormat6formatERKNS_11FormattableERNS_13UnicodeStringERNS_13FieldPositionER10UErrorCode
|| __TEXT.__text __ZNK3icu10DateFormat6formatERNS_8CalendarERNS_13UnicodeStringEPNS_21FieldPositionIteratorER10UErrorCode
|| __TEXT.__text __ZNK3icu10DateFormat6formatEdRNS_13UnicodeStringE
|| __TEXT.__text __ZNK3icu10DateFormat6formatEdRNS_13UnicodeStringEPNS_21FieldPositionIteratorER10UErrorCode
|| __TEXT.__text __ZNK3icu10DateFormat6formatEdRNS_13UnicodeStringERNS_13FieldPositionE
|| __TEXT.__text __ZNK3icu10DateFormat9isLenientEv
|| __TEXT.__text __ZNK3icu10DateFormateqERKNS_6FormatE
|| __TEXT.__text __ZNK3icu10GenderInfo13getListGenderEPK7UGenderiR10UErrorCode
|| __TEXT.__text __ZNK3icu10Normalizer10startIndexEv
|| __TEXT.__text __ZNK3icu10Normalizer17getDynamicClassIDEv
|| __TEXT.__text __ZNK3icu10Normalizer5cloneEv
|| __TEXT.__text __ZNK3icu10Normalizer8endIndexEv
|| __TEXT.__text __ZNK3icu10Normalizer8getIndexEv
|| __TEXT.__text __ZNK3icu10Normalizer8getUModeEv
|| __TEXT.__text __ZNK3icu10Normalizer8hashCodeEv
|| __TEXT.__text __ZNK3icu10Normalizer9getOptionEi
|| __TEXT.__text __ZNK3icu10NormalizereqERKS0_
|| __TEXT.__text __ZNK3icu10UCharsTrie13getNextUCharsERNS_10AppendableE
|| __TEXT.__text __ZNK3icu10UCharsTrie7currentEv
|| __TEXT.__text __ZNK3icu10UCharsTrie8Iterator7hasNextEv
|| __TEXT.__text __ZNK3icu10UnicodeSet10_toPatternERNS_13UnicodeStringEa
|| __TEXT.__text __ZNK3icu10UnicodeSet10hasStringsEv
|| __TEXT.__text __ZNK3icu10UnicodeSet11containsAllERKNS_13UnicodeStringE
|| __TEXT.__text __ZNK3icu10UnicodeSet11containsAllERKS0_
|| __TEXT.__text __ZNK3icu10UnicodeSet11getRangeEndEi
|| __TEXT.__text __ZNK3icu10UnicodeSet11stringsSizeEv
|| __TEXT.__text __ZNK3icu10UnicodeSet12containsNoneERKNS_13UnicodeStringE
|| __TEXT.__text __ZNK3icu10UnicodeSet12containsNoneERKS0_
|| __TEXT.__text __ZNK3icu10UnicodeSet12containsNoneEii
|| __TEXT.__text __ZNK3icu10UnicodeSet12spanBackUTF8EPKci17USetSpanCondition
|| __TEXT.__text __ZNK3icu10UnicodeSet13addMatchSetToERS0_
|| __TEXT.__text __ZNK3icu10UnicodeSet13cloneAsThawedEv
|| __TEXT.__text __ZNK3icu10UnicodeSet13findCodePointEi
|| __TEXT.__text __ZNK3icu10UnicodeSet13getRangeCountEv
|| __TEXT.__text __ZNK3icu10UnicodeSet13getRangeStartEi
|| __TEXT.__text __ZNK3icu10UnicodeSet15stringsContainsERKNS_13UnicodeStringE
|| __TEXT.__text __ZNK3icu10UnicodeSet16_generatePatternERNS_13UnicodeStringEa
|| __TEXT.__text __ZNK3icu10UnicodeSet17getDynamicClassIDEv
|| __TEXT.__text __ZNK3icu10UnicodeSet17matchesIndexValueEh
|| __TEXT.__text __ZNK3icu10UnicodeSet4sizeEv
|| __TEXT.__text __ZNK3icu10UnicodeSet4spanEPKDsi17USetSpanCondition
|| __TEXT.__text __ZNK3icu10UnicodeSet5cloneEv
|| __TEXT.__text __ZNK3icu10UnicodeSet6charAtEi
|| __TEXT.__text __ZNK3icu10UnicodeSet7indexOfEi
|| __TEXT.__text __ZNK3icu10UnicodeSet7isEmptyEv
|| __TEXT.__text __ZNK3icu10UnicodeSet8containsERKNS_13UnicodeStringE
|| __TEXT.__text __ZNK3icu10UnicodeSet8containsEi
|| __TEXT.__text __ZNK3icu10UnicodeSet8containsEii
|| __TEXT.__text __ZNK3icu10UnicodeSet8hashCodeEv
|| __TEXT.__text __ZNK3icu10UnicodeSet8spanBackEPKDsi17USetSpanCondition
|| __TEXT.__text __ZNK3icu10UnicodeSet8spanUTF8EPKci17USetSpanCondition
|| __TEXT.__text __ZNK3icu10UnicodeSet9getStringEi
|| __TEXT.__text __ZNK3icu10UnicodeSet9serializeEPtiR10UErrorCode
|| __TEXT.__text __ZNK3icu10UnicodeSet9toPatternERNS_13UnicodeStringEa
|| __TEXT.__text __ZNK3icu10UnicodeSeteqERKS0_
|| __TEXT.__text __ZNK3icu11Formattable17getDynamicClassIDEv
|| __TEXT.__text __ZNK3icu11Formattable23populateDecimalQuantityERNS_6number4impl15DecimalQuantityER10UErrorCode
|| __TEXT.__text __ZNK3icu11Formattable5cloneEv
|| __TEXT.__text __ZNK3icu11Formattable7getLongER10UErrorCode
|| __TEXT.__text __ZNK3icu11Formattable7getTypeEv
|| __TEXT.__text __ZNK3icu11Formattable8getArrayERiR10UErrorCode
|| __TEXT.__text __ZNK3icu11Formattable8getBogusEv
|| __TEXT.__text __ZNK3icu11Formattable8getInt64ER10UErrorCode
|| __TEXT.__text __ZNK3icu11Formattable9getDoubleER10UErrorCode
|| __TEXT.__text __ZNK3icu11Formattable9getObjectEv
|| __TEXT.__text __ZNK3icu11Formattable9getStringER10UErrorCode
|| __TEXT.__text __ZNK3icu11Formattable9getStringERNS_13UnicodeStringER10UErrorCode
|| __TEXT.__text __ZNK3icu11Formattable9isNumericEv
|| __TEXT.__text __ZNK3icu11FormattableeqERKS0_
|| __TEXT.__text __ZNK3icu11LocaleBased11getLocaleIDE18ULocDataLocaleTypeR10UErrorCode
|| __TEXT.__text __ZNK3icu11LocaleBased9getLocaleE18ULocDataLocaleTypeR10UErrorCode
|| __TEXT.__text __ZNK3icu11MeasureUnit10getSubtypeEv
|| __TEXT.__text __ZNK3icu11MeasureUnit17getDynamicClassIDEv
|| __TEXT.__text __ZNK3icu11MeasureUnit5cloneEv
|| __TEXT.__text __ZNK3icu11MeasureUnit7getTypeEv
|| __TEXT.__text __ZNK3icu11MeasureUnit8getIndexEv
|| __TEXT.__text __ZNK3icu11MeasureUnit9getOffsetEv
|| __TEXT.__text __ZNK3icu11MeasureUniteqERKNS_7UObjectE
|| __TEXT.__text __ZNK3icu11Normalizer211composePairEii
|| __TEXT.__text __ZNK3icu11Normalizer213normalizeUTF8EjNS_11StringPieceERNS_8ByteSinkEPNS_5EditsER10UErrorCode
|| __TEXT.__text __ZNK3icu11Normalizer216isNormalizedUTF8ENS_11StringPieceER10UErrorCode
|| __TEXT.__text __ZNK3icu11Normalizer217getCombiningClassEi
|| __TEXT.__text __ZNK3icu11Normalizer219getRawDecompositionEiRNS_13UnicodeStringE
|| __TEXT.__text __ZNK3icu11PluralRules11getKeywordsER10UErrorCode
|| __TEXT.__text __ZNK3icu11PluralRules15getKeywordOtherEv
|| __TEXT.__text __ZNK3icu11PluralRules15rulesForKeywordERKNS_13UnicodeStringE
|| __TEXT.__text __ZNK3icu11PluralRules17getDynamicClassIDEv
|| __TEXT.__text __ZNK3icu11PluralRules5cloneEv
|| __TEXT.__text __ZNK3icu11PluralRules6selectERKNS_13IFixedDecimalE
|| __TEXT.__text __ZNK3icu11PluralRules6selectERKNS_6number15FormattedNumberER10UErrorCode
|| __TEXT.__text __ZNK3icu11PluralRules6selectEd
|| __TEXT.__text __ZNK3icu11PluralRules6selectEi
|| __TEXT.__text __ZNK3icu11PluralRules8getRulesEv
|| __TEXT.__text __ZNK3icu11PluralRules9isKeywordERKNS_13UnicodeStringE
|| __TEXT.__text __ZNK3icu11PluralRuleseqERKS0_
|| __TEXT.__text __ZNK3icu11Replaceable11hasMetaDataEv
|| __TEXT.__text __ZNK3icu11Replaceable5cloneEv
|| __TEXT.__text __ZNK3icu11TextTrieMap12getChildNodeEPNS_13CharacterNodeEDs
|| __TEXT.__text __ZNK3icu11TextTrieMap6searchEPNS_13CharacterNodeERKNS_13UnicodeStringEiiPNS_30TextTrieMapSearchResultHandlerER10UErrorCode
|| __TEXT.__text __ZNK3icu11TextTrieMap6searchERKNS_13UnicodeStringEiPNS_30TextTrieMapSearchResultHandlerER10UErrorCode
|| __TEXT.__text __ZNK3icu11TextTrieMap7isEmptyEv
|| __TEXT.__text __ZNK3icu12ChoiceFormat10getFormatsERi
|| __TEXT.__text __ZNK3icu12ChoiceFormat11getClosuresERi
|| __TEXT.__text __ZNK3icu12ChoiceFormat17getDynamicClassIDEv
|| __TEXT.__text __ZNK3icu12ChoiceFormat5cloneEv
|| __TEXT.__text __ZNK3icu12ChoiceFormat5parseERKNS_13UnicodeStringERNS_11FormattableERNS_13ParsePositionE
|| __TEXT.__text __ZNK3icu12ChoiceFormat6formatEPKNS_11FormattableEiRNS_13UnicodeStringERNS_13FieldPositionER10UErrorCode
|| __TEXT.__text __ZNK3icu12ChoiceFormat6formatEdRNS_13UnicodeStringERNS_13FieldPositionE
|| __TEXT.__text __ZNK3icu12ChoiceFormat6formatEiRNS_13UnicodeStringERNS_13FieldPositionE
|| __TEXT.__text __ZNK3icu12ChoiceFormat6formatExRNS_13UnicodeStringERNS_13FieldPositionE
|| __TEXT.__text __ZNK3icu12ChoiceFormat9getLimitsERi
|| __TEXT.__text __ZNK3icu12ChoiceFormat9toPatternERNS_13UnicodeStringE
|| __TEXT.__text __ZNK3icu12ChoiceFormateqERKNS_6FormatE
|| __TEXT.__text __ZNK3icu12CollationKey17getDynamicClassIDEv
|| __TEXT.__text __ZNK3icu12CollationKey8hashCodeEv
|| __TEXT.__text __ZNK3icu12CollationKey9compareToERKS0_
|| __TEXT.__text __ZNK3icu12CollationKey9compareToERKS0_R10UErrorCode
|| __TEXT.__text __ZNK3icu12CollationKeyeqERKS0_
|| __TEXT.__text __ZNK3icu12CurrencyUnit17getDynamicClassIDEv
|| __TEXT.__text __ZNK3icu12CurrencyUnit5cloneEv
|| __TEXT.__text __ZNK3icu12DateInterval17getDynamicClassIDEv
|| __TEXT.__text __ZNK3icu12DateInterval5cloneEv
|| __TEXT.__text __ZNK3icu12DateIntervaleqERKS0_
|| __TEXT.__text __ZNK3icu12DateTimeRule12getRuleMonthEv
|| __TEXT.__text __ZNK3icu12DateTimeRule15getDateRuleTypeEv
|| __TEXT.__text __ZNK3icu12DateTimeRule15getTimeRuleTypeEv
|| __TEXT.__text __ZNK3icu12DateTimeRule16getRuleDayOfWeekEv
|| __TEXT.__text __ZNK3icu12DateTimeRule17getDynamicClassIDEv
|| __TEXT.__text __ZNK3icu12DateTimeRule17getRuleDayOfMonthEv
|| __TEXT.__text __ZNK3icu12DateTimeRule18getRuleMillisInDayEv
|| __TEXT.__text __ZNK3icu12DateTimeRule18getRuleWeekInMonthEv
|| __TEXT.__text __ZNK3icu12DateTimeRule5cloneEv
|| __TEXT.__text __ZNK3icu12DateTimeRuleeqERKS0_
|| __TEXT.__text __ZNK3icu12DateTimeRuleneERKS0_
|| __TEXT.__text __ZNK3icu12FixedDecimal10isInfiniteEv
|| __TEXT.__text __ZNK3icu12FixedDecimal15hasIntegerValueEv
|| __TEXT.__text __ZNK3icu12FixedDecimal15isNanOrInfinityEv
|| __TEXT.__text __ZNK3icu12FixedDecimal16getPluralOperandENS_13PluralOperandE
|| __TEXT.__text __ZNK3icu12FixedDecimal28getVisibleFractionDigitCountEv
|| __TEXT.__text __ZNK3icu12FixedDecimal5isNaNEv
|| __TEXT.__text __ZNK3icu12NumberFormat10getContextE19UDisplayContextTypeR10UErrorCode
|| __TEXT.__text __ZNK3icu12NumberFormat11getCurrencyEv
|| __TEXT.__text __ZNK3icu12NumberFormat11parseObjectERKNS_13UnicodeStringERNS_11FormattableERNS_13ParsePositionE
|| __TEXT.__text __ZNK3icu12NumberFormat13parseCurrencyERKNS_13UnicodeStringERNS_13ParsePositionE
|| __TEXT.__text __ZNK3icu12NumberFormat14isGroupingUsedEv
|| __TEXT.__text __ZNK3icu12NumberFormat15getRoundingModeEv
|| __TEXT.__text __ZNK3icu12NumberFormat20getEffectiveCurrencyEPDsR10UErrorCode
|| __TEXT.__text __ZNK3icu12NumberFormat23getMaximumIntegerDigitsEv
|| __TEXT.__text __ZNK3icu12NumberFormat23getMinimumIntegerDigitsEv
|| __TEXT.__text __ZNK3icu12NumberFormat24getMaximumFractionDigitsEv
|| __TEXT.__text __ZNK3icu12NumberFormat24getMinimumFractionDigitsEv
|| __TEXT.__text __ZNK3icu12NumberFormat5parseERKNS_13UnicodeStringERNS_11FormattableER10UErrorCode
|| __TEXT.__text __ZNK3icu12NumberFormat6formatENS_11StringPieceERNS_13UnicodeStringEPNS_21FieldPositionIteratorER10UErrorCode
|| __TEXT.__text __ZNK3icu12NumberFormat6formatERKNS_11FormattableERNS_13UnicodeStringEPNS_21FieldPositionIteratorER10UErrorCode
|| __TEXT.__text __ZNK3icu12NumberFormat6formatERKNS_11FormattableERNS_13UnicodeStringERNS_13FieldPositionER10UErrorCode
|| __TEXT.__text __ZNK3icu12NumberFormat6formatERKNS_6number4impl15DecimalQuantityERNS_13UnicodeStringEPNS_21FieldPositionIteratorER10UErrorCode
|| __TEXT.__text __ZNK3icu12NumberFormat6formatERKNS_6number4impl15DecimalQuantityERNS_13UnicodeStringERNS_13FieldPositionER10UErrorCode
|| __TEXT.__text __ZNK3icu12NumberFormat6formatEdRNS_13UnicodeStringE
|| __TEXT.__text __ZNK3icu12NumberFormat6formatEdRNS_13UnicodeStringEPNS_21FieldPositionIteratorER10UErrorCode
|| __TEXT.__text __ZNK3icu12NumberFormat6formatEdRNS_13UnicodeStringERNS_13FieldPositionER10UErrorCode
|| __TEXT.__text __ZNK3icu12NumberFormat6formatEiRNS_13UnicodeStringE
|| __TEXT.__text __ZNK3icu12NumberFormat6formatEiRNS_13UnicodeStringEPNS_21FieldPositionIteratorER10UErrorCode
|| __TEXT.__text __ZNK3icu12NumberFormat6formatEiRNS_13UnicodeStringERNS_13FieldPositionER10UErrorCode
|| __TEXT.__text __ZNK3icu12NumberFormat6formatExRNS_13UnicodeStringE
|| __TEXT.__text __ZNK3icu12NumberFormat6formatExRNS_13UnicodeStringEPNS_21FieldPositionIteratorER10UErrorCode
|| __TEXT.__text __ZNK3icu12NumberFormat6formatExRNS_13UnicodeStringERNS_13FieldPositionE
|| __TEXT.__text __ZNK3icu12NumberFormat6formatExRNS_13UnicodeStringERNS_13FieldPositionER10UErrorCode
|| __TEXT.__text __ZNK3icu12NumberFormateqERKNS_6FormatE
|| __TEXT.__text __ZNK3icu12PluralFormat11parseObjectERKNS_13UnicodeStringERNS_11FormattableERNS_13ParsePositionE
|| __TEXT.__text __ZNK3icu12PluralFormat17getDynamicClassIDEv
|| __TEXT.__text __ZNK3icu12PluralFormat21PluralSelectorAdapter6selectEPvdR10UErrorCode
|| __TEXT.__text __ZNK3icu12PluralFormat5cloneEv
|| __TEXT.__text __ZNK3icu12PluralFormat6formatERKNS_11FormattableERNS_13UnicodeStringERNS_13FieldPositionER10UErrorCode
|| __TEXT.__text __ZNK3icu12PluralFormat6formatERKNS_11FormattableEdRNS_13UnicodeStringERNS_13FieldPositionER10UErrorCode
|| __TEXT.__text __ZNK3icu12PluralFormat6formatEdR10UErrorCode
|| __TEXT.__text __ZNK3icu12PluralFormat6formatEdRNS_13UnicodeStringERNS_13FieldPositionER10UErrorCode
|| __TEXT.__text __ZNK3icu12PluralFormat6formatEiR10UErrorCode
|| __TEXT.__text __ZNK3icu12PluralFormat6formatEiRNS_13UnicodeStringERNS_13FieldPositionER10UErrorCode
|| __TEXT.__text __ZNK3icu12PluralFormat9parseTypeERKNS_13UnicodeStringEPKNS_6NFRuleERNS_11FormattableERNS_13FieldPositionE
|| __TEXT.__text __ZNK3icu12PluralFormateqERKNS_6FormatE
|| __TEXT.__text __ZNK3icu12PluralFormatneERKNS_6FormatE
|| __TEXT.__text __ZNK3icu12RegexMatcher10groupCountEv
|| __TEXT.__text __ZNK3icu12RegexMatcher10requireEndEv
|| __TEXT.__text __ZNK3icu12RegexMatcher11appendGroupEiP5UTextR10UErrorCode
|| __TEXT.__text __ZNK3icu12RegexMatcher11regionEnd64Ev
|| __TEXT.__text __ZNK3icu12RegexMatcher11regionStartEv
|| __TEXT.__text __ZNK3icu12RegexMatcher12getTimeLimitEv
|| __TEXT.__text __ZNK3icu12RegexMatcher13getStackLimitEv
|| __TEXT.__text __ZNK3icu12RegexMatcher13regionStart64Ev
|| __TEXT.__text __ZNK3icu12RegexMatcher17getDynamicClassIDEv
|| __TEXT.__text __ZNK3icu12RegexMatcher18hasAnchoringBoundsEv
|| __TEXT.__text __ZNK3icu12RegexMatcher20hasTransparentBoundsEv
|| __TEXT.__text __ZNK3icu12RegexMatcher3endER10UErrorCode
|| __TEXT.__text __ZNK3icu12RegexMatcher3endEiR10UErrorCode
|| __TEXT.__text __ZNK3icu12RegexMatcher5end64ER10UErrorCode
|| __TEXT.__text __ZNK3icu12RegexMatcher5end64EiR10UErrorCode
|| __TEXT.__text __ZNK3icu12RegexMatcher5groupEP5UTextRxR10UErrorCode
|| __TEXT.__text __ZNK3icu12RegexMatcher5groupER10UErrorCode
|| __TEXT.__text __ZNK3icu12RegexMatcher5groupEiP5UTextRxR10UErrorCode
|| __TEXT.__text __ZNK3icu12RegexMatcher5groupEiR10UErrorCode
|| __TEXT.__text __ZNK3icu12RegexMatcher5inputEv
|| __TEXT.__text __ZNK3icu12RegexMatcher5startER10UErrorCode
|| __TEXT.__text __ZNK3icu12RegexMatcher5startEiR10UErrorCode
|| __TEXT.__text __ZNK3icu12RegexMatcher6hitEndEv
|| __TEXT.__text __ZNK3icu12RegexMatcher7patternEv
|| __TEXT.__text __ZNK3icu12RegexMatcher7start64ER10UErrorCode
|| __TEXT.__text __ZNK3icu12RegexMatcher7start64EiR10UErrorCode
|| __TEXT.__text __ZNK3icu12RegexMatcher8getInputEP5UTextR10UErrorCode
|| __TEXT.__text __ZNK3icu12RegexMatcher9inputTextEv
|| __TEXT.__text __ZNK3icu12RegexMatcher9regionEndEv
|| __TEXT.__text __ZNK3icu12RegexPattern11dumpPatternEv
|| __TEXT.__text __ZNK3icu12RegexPattern11patternTextER10UErrorCode
|| __TEXT.__text __ZNK3icu12RegexPattern17getDynamicClassIDEv
|| __TEXT.__text __ZNK3icu12RegexPattern19groupNumberFromNameEPKciR10UErrorCode
|| __TEXT.__text __ZNK3icu12RegexPattern19groupNumberFromNameERKNS_13UnicodeStringER10UErrorCode
|| __TEXT.__text __ZNK3icu12RegexPattern5cloneEv
|| __TEXT.__text __ZNK3icu12RegexPattern5flagsEv
|| __TEXT.__text __ZNK3icu12RegexPattern5splitEP5UTextPS2_iR10UErrorCode
|| __TEXT.__text __ZNK3icu12RegexPattern5splitERKNS_13UnicodeStringEPS1_iR10UErrorCode
|| __TEXT.__text __ZNK3icu12RegexPattern6dumpOpEi
|| __TEXT.__text __ZNK3icu12RegexPattern7matcherER10UErrorCode
|| __TEXT.__text __ZNK3icu12RegexPattern7matcherERKNS_13UnicodeStringER10UErrorCode
|| __TEXT.__text __ZNK3icu12RegexPattern7patternEv
|| __TEXT.__text __ZNK3icu12RegexPatterneqERKS0_
|| __TEXT.__text __ZNK3icu12SelectFormat11parseObjectERKNS_13UnicodeStringERNS_11FormattableERNS_13ParsePositionE
|| __TEXT.__text __ZNK3icu12SelectFormat17getDynamicClassIDEv
|| __TEXT.__text __ZNK3icu12SelectFormat5cloneEv
|| __TEXT.__text __ZNK3icu12SelectFormat6formatERKNS_11FormattableERNS_13UnicodeStringERNS_13FieldPositionER10UErrorCode
|| __TEXT.__text __ZNK3icu12SelectFormat6formatERKNS_13UnicodeStringERS1_RNS_13FieldPositionER10UErrorCode
|| __TEXT.__text __ZNK3icu12SelectFormateqERKNS_6FormatE
|| __TEXT.__text __ZNK3icu12SelectFormatneERKNS_6FormatE
|| __TEXT.__text __ZNK3icu12SharedObject11getRefCountEv
|| __TEXT.__text __ZNK3icu12SharedObject20deleteIfZeroRefCountEv
|| __TEXT.__text __ZNK3icu12SharedObject6addRefEv
|| __TEXT.__text __ZNK3icu12SharedObject9removeRefEv
|| __TEXT.__text __ZNK3icu12StringSearch10getPatternEv
|| __TEXT.__text __ZNK3icu12StringSearch11getCollatorEv
|| __TEXT.__text __ZNK3icu12StringSearch17getDynamicClassIDEv
|| __TEXT.__text __ZNK3icu12StringSearch5cloneEv
|| __TEXT.__text __ZNK3icu12StringSearch9getOffsetEv
|| __TEXT.__text __ZNK3icu12StringSearch9safeCloneEv
|| __TEXT.__text __ZNK3icu12StringSearcheqERKNS_14SearchIteratorE
|| __TEXT.__text __ZNK3icu12TimeZoneRule12getRawOffsetEv
|| __TEXT.__text __ZNK3icu12TimeZoneRule13getDSTSavingsEv
|| __TEXT.__text __ZNK3icu12TimeZoneRule14isEquivalentToERKS0_
|| __TEXT.__text __ZNK3icu12TimeZoneRule7getNameERNS_13UnicodeStringE
|| __TEXT.__text __ZNK3icu12TimeZoneRuleeqERKS0_
|| __TEXT.__text __ZNK3icu12TimeZoneRuleneERKS0_
|| __TEXT.__text __ZNK3icu12UnifiedCache10addHardRefEPKNS_12SharedObjectE
|| __TEXT.__text __ZNK3icu12UnifiedCache11_inProgressEPK12UHashElement
|| __TEXT.__text __ZNK3icu12UnifiedCache11_inProgressEPKNS_12SharedObjectE10UErrorCode
|| __TEXT.__text __ZNK3icu12UnifiedCache11unusedCountEv
|| __TEXT.__text __ZNK3icu12UnifiedCache12_isEvictableEPK12UHashElement
|| __TEXT.__text __ZNK3icu12UnifiedCache12_nextElementEv
|| __TEXT.__text __ZNK3icu12UnifiedCache13removeHardRefEPKNS_12SharedObjectE
|| __TEXT.__text __ZNK3icu12UnifiedCache13removeSoftRefEPKNS_12SharedObjectE
|| __TEXT.__text __ZNK3icu12UnifiedCache15_registerMasterEPKNS_12CacheKeyBaseEPKNS_12SharedObjectE
|| __TEXT.__text __ZNK3icu12UnifiedCache16autoEvictedCountEv
|| __TEXT.__text __ZNK3icu12UnifiedCache17_runEvictionSliceEv
|| __TEXT.__text __ZNK3icu12UnifiedCache18_putIfAbsentAndGetERKNS_12CacheKeyBaseERPKNS_12SharedObjectER10UErrorCode
|| __TEXT.__text __ZNK3icu12UnifiedCache24handleUnreferencedObjectEv
|| __TEXT.__text __ZNK3icu12UnifiedCache27_computeCountOfItemsToEvictEv
|| __TEXT.__text __ZNK3icu12UnifiedCache4_getERKNS_12CacheKeyBaseERPKNS_12SharedObjectEPKvR10UErrorCode
|| __TEXT.__text __ZNK3icu12UnifiedCache4_putEPK12UHashElementPKNS_12SharedObjectE10UErrorCode
|| __TEXT.__text __ZNK3icu12UnifiedCache5_pollERKNS_12CacheKeyBaseERPKNS_12SharedObjectER10UErrorCode
|| __TEXT.__text __ZNK3icu12UnifiedCache5flushEv
|| __TEXT.__text __ZNK3icu12UnifiedCache6_fetchEPK12UHashElementRPKNS_12SharedObjectER10UErrorCode
|| __TEXT.__text __ZNK3icu12UnifiedCache6_flushEa
|| __TEXT.__text __ZNK3icu12UnifiedCache7_putNewERKNS_12CacheKeyBaseEPKNS_12SharedObjectE10UErrorCodeRS7_
|| __TEXT.__text __ZNK3icu12UnifiedCache8keyCountEv
|| __TEXT.__text __ZNK3icu13BasicTimeZone18getOffsetFromLocalEdiiRiS1_R10UErrorCode
|| __TEXT.__text __ZNK3icu13BasicTimeZone18getSimpleRulesNearEdRPNS_19InitialTimeZoneRuleERPNS_18AnnualTimeZoneRuleES6_R10UErrorCode
|| __TEXT.__text __ZNK3icu13BasicTimeZone21getTimeZoneRulesAfterEdRPNS_19InitialTimeZoneRuleERPNS_7UVectorER10UErrorCode
|| __TEXT.__text __ZNK3icu13BasicTimeZone24hasEquivalentTransitionsERKS0_ddaR10UErrorCode
|| __TEXT.__text __ZNK3icu13BreakIterator11getLocaleIDE18ULocDataLocaleTypeR10UErrorCode
|| __TEXT.__text __ZNK3icu13BreakIterator13getRuleStatusEv
|| __TEXT.__text __ZNK3icu13BreakIterator9getLocaleE18ULocDataLocaleTypeR10UErrorCode
|| __TEXT.__text __ZNK3icu13CollationData11getSingleCEEiR10UErrorCode
|| __TEXT.__text __ZNK3icu13CollationData12getFinalCE32Ej
|| __TEXT.__text __ZNK3icu13CollationData14getScriptIndexEi
|| __TEXT.__text __ZNK3icu13CollationData15getIndirectCE32Ej
|| __TEXT.__text __ZNK3icu13CollationData17addLowScriptRangeEPhii
|| __TEXT.__text __ZNK3icu13CollationData17makeReorderRangesEPKiiRNS_9UVector32ER10UErrorCode
|| __TEXT.__text __ZNK3icu13CollationData17makeReorderRangesEPKiiaRNS_9UVector32ER10UErrorCode
|| __TEXT.__text __ZNK3icu13CollationData18addHighScriptRangeEPhii
|| __TEXT.__text __ZNK3icu13CollationData18getGroupForPrimaryEj
|| __TEXT.__text __ZNK3icu13CollationData20getEquivalentScriptsEiPiiR10UErrorCode
|| __TEXT.__text __ZNK3icu13CollationData22getLastPrimaryForGroupEi
|| __TEXT.__text __ZNK3icu13CollationData23getFirstPrimaryForGroupEi
|| __TEXT.__text __ZNK3icu13DecimalFormat12getAttributeE22UNumberFormatAttributeR10UErrorCode
|| __TEXT.__text __ZNK3icu13DecimalFormat13getMultiplierEv
|| __TEXT.__text __ZNK3icu13DecimalFormat13parseCurrencyERKNS_13UnicodeStringERNS_13ParsePositionE
|| __TEXT.__text __ZNK3icu13DecimalFormat14getFormatWidthEv
|| __TEXT.__text __ZNK3icu13DecimalFormat14getPadPositionEv
|| __TEXT.__text __ZNK3icu13DecimalFormat15fastFormatInt64ExRNS_13UnicodeStringE
|| __TEXT.__text __ZNK3icu13DecimalFormat15getGroupingSizeEv
|| __TEXT.__text __ZNK3icu13DecimalFormat15getRoundingModeEv
|| __TEXT.__text __ZNK3icu13DecimalFormat16fastFormatDoubleEdRNS_13UnicodeStringE
|| __TEXT.__text __ZNK3icu13DecimalFormat16getCurrencyUsageEv
|| __TEXT.__text __ZNK3icu13DecimalFormat17doFastFormatInt32EibRNS_13UnicodeStringE
|| __TEXT.__text __ZNK3icu13DecimalFormat17getCurrencyParserER10UErrorCode
|| __TEXT.__text __ZNK3icu13DecimalFormat17getDynamicClassIDEv
|| __TEXT.__text __ZNK3icu13DecimalFormat17getNegativePrefixERNS_13UnicodeStringE
|| __TEXT.__text __ZNK3icu13DecimalFormat17getNegativeSuffixERNS_13UnicodeStringE
|| __TEXT.__text __ZNK3icu13DecimalFormat17getPositivePrefixERNS_13UnicodeStringE
|| __TEXT.__text __ZNK3icu13DecimalFormat17getPositiveSuffixERNS_13UnicodeStringE
|| __TEXT.__text __ZNK3icu13DecimalFormat17isParseNoExponentEv
|| __TEXT.__text __ZNK3icu13DecimalFormat17isSignAlwaysShownEv
|| __TEXT.__text __ZNK3icu13DecimalFormat17toNumberFormatterER10UErrorCode
|| __TEXT.__text __ZNK3icu13DecimalFormat17toNumberFormatterEv
|| __TEXT.__text __ZNK3icu13DecimalFormat18getMultiplierScaleEv
|| __TEXT.__text __ZNK3icu13DecimalFormat18toLocalizedPatternERNS_13UnicodeStringE
|| __TEXT.__text __ZNK3icu13DecimalFormat20getRoundingIncrementEv
|| __TEXT.__text __ZNK3icu13DecimalFormat20isParseCaseSensitiveEv
|| __TEXT.__text __ZNK3icu13DecimalFormat20isScientificNotationEv
|| __TEXT.__text __ZNK3icu13DecimalFormat21getCurrencyPluralInfoEv
|| __TEXT.__text __ZNK3icu13DecimalFormat21getPadCharacterStringEv
|| __TEXT.__text __ZNK3icu13DecimalFormat23formatToDecimalQuantityERKNS_11FormattableERNS_6number4impl15DecimalQuantityER10UErrorCode
|| __TEXT.__text __ZNK3icu13DecimalFormat23formatToDecimalQuantityEdRNS_6number4impl15DecimalQuantityER10UErrorCode
|| __TEXT.__text __ZNK3icu13DecimalFormat23getDecimalFormatSymbolsEv
|| __TEXT.__text __ZNK3icu13DecimalFormat24areSignificantDigitsUsedEv
|| __TEXT.__text __ZNK3icu13DecimalFormat24getMinimumExponentDigitsEv
|| __TEXT.__text __ZNK3icu13DecimalFormat24getMinimumGroupingDigitsEv
|| __TEXT.__text __ZNK3icu13DecimalFormat24getSecondaryGroupingSizeEv
|| __TEXT.__text __ZNK3icu13DecimalFormat25isExponentSignAlwaysShownEv
|| __TEXT.__text __ZNK3icu13DecimalFormat27getMaximumSignificantDigitsEv
|| __TEXT.__text __ZNK3icu13DecimalFormat27getMinimumSignificantDigitsEv
|| __TEXT.__text __ZNK3icu13DecimalFormat29isDecimalPatternMatchRequiredEv
|| __TEXT.__text __ZNK3icu13DecimalFormat29isDecimalSeparatorAlwaysShownEv
|| __TEXT.__text __ZNK3icu13DecimalFormat31isFormatFailIfMoreThanMaxDigitsEv
|| __TEXT.__text __ZNK3icu13DecimalFormat5cloneEv
|| __TEXT.__text __ZNK3icu13DecimalFormat5parseERKNS_13UnicodeStringERNS_11FormattableERNS_13ParsePositionE
|| __TEXT.__text __ZNK3icu13DecimalFormat6formatENS_11StringPieceERNS_13UnicodeStringEPNS_21FieldPositionIteratorER10UErrorCode
|| __TEXT.__text __ZNK3icu13DecimalFormat6formatERKNS_6number4impl15DecimalQuantityERNS_13UnicodeStringEPNS_21FieldPositionIteratorER10UErrorCode
|| __TEXT.__text __ZNK3icu13DecimalFormat6formatERKNS_6number4impl15DecimalQuantityERNS_13UnicodeStringERNS_13FieldPositionER10UErrorCode
|| __TEXT.__text __ZNK3icu13DecimalFormat6formatEdRNS_13UnicodeStringEPNS_21FieldPositionIteratorER10UErrorCode
|| __TEXT.__text __ZNK3icu13DecimalFormat6formatEdRNS_13UnicodeStringERNS_13FieldPositionE
|| __TEXT.__text __ZNK3icu13DecimalFormat6formatEdRNS_13UnicodeStringERNS_13FieldPositionER10UErrorCode
|| __TEXT.__text __ZNK3icu13DecimalFormat6formatEiRNS_13UnicodeStringEPNS_21FieldPositionIteratorER10UErrorCode
|| __TEXT.__text __ZNK3icu13DecimalFormat6formatEiRNS_13UnicodeStringERNS_13FieldPositionE
|| __TEXT.__text __ZNK3icu13DecimalFormat6formatEiRNS_13UnicodeStringERNS_13FieldPositionER10UErrorCode
|| __TEXT.__text __ZNK3icu13DecimalFormat6formatExRNS_13UnicodeStringEPNS_21FieldPositionIteratorER10UErrorCode
|| __TEXT.__text __ZNK3icu13DecimalFormat6formatExRNS_13UnicodeStringERNS_13FieldPositionE
|| __TEXT.__text __ZNK3icu13DecimalFormat6formatExRNS_13UnicodeStringERNS_13FieldPositionER10UErrorCode
|| __TEXT.__text __ZNK3icu13DecimalFormat9getParserER10UErrorCode
|| __TEXT.__text __ZNK3icu13DecimalFormat9toPatternERNS_13UnicodeStringE
|| __TEXT.__text __ZNK3icu13DecimalFormateqERKNS_6FormatE
|| __TEXT.__text __ZNK3icu13FieldPosition17getDynamicClassIDEv
|| __TEXT.__text __ZNK3icu13FieldPosition5cloneEv
|| __TEXT.__text __ZNK3icu13FormattedList12nextPositionERNS_24ConstrainedFieldPositionER10UErrorCode
|| __TEXT.__text __ZNK3icu13FormattedList12toTempStringER10UErrorCode
|| __TEXT.__text __ZNK3icu13FormattedList8appendToERNS_10AppendableER10UErrorCode
|| __TEXT.__text __ZNK3icu13FormattedList8toStringER10UErrorCode
|| __TEXT.__text __ZNK3icu13ListFormatter20formatStringsToValueEPKNS_13UnicodeStringEiR10UErrorCode
|| __TEXT.__text __ZNK3icu13ListFormatter6formatEPKNS_13UnicodeStringEiRS1_PNS_21FieldPositionIteratorER10UErrorCode
|| __TEXT.__text __ZNK3icu13ListFormatter6formatEPKNS_13UnicodeStringEiRS1_R10UErrorCode
|| __TEXT.__text __ZNK3icu13ListFormatter6formatEPKNS_13UnicodeStringEiRS1_iRiR10UErrorCode
|| __TEXT.__text __ZNK3icu13ListFormatter7format_EPKNS_13UnicodeStringEiRS1_iRiPNS_20FieldPositionHandlerER10UErrorCode
|| __TEXT.__text __ZNK3icu13MeasureFormat11getLocaleIDER10UErrorCode
|| __TEXT.__text __ZNK3icu13MeasureFormat11getUnitNameEPKNS_11MeasureUnitERNS_13UnicodeStringE
|| __TEXT.__text __ZNK3icu13MeasureFormat11parseObjectERKNS_13UnicodeStringERNS_11FormattableERNS_13ParsePositionE
|| __TEXT.__text __ZNK3icu13MeasureFormat13formatMeasureERKNS_7MeasureERKNS_12NumberFormatERNS_13UnicodeStringERNS_13FieldPositionER10UErrorCode
|| __TEXT.__text __ZNK3icu13MeasureFormat13formatNumericEPKNS_11FormattableEiRNS_13UnicodeStringERNS_20FieldPositionHandlerER10UErrorCode
|| __TEXT.__text __ZNK3icu13MeasureFormat13formatNumericEdRKNS_10DateFormatE16UDateFormatFieldRKNS_11FormattableERNS_13UnicodeStringERNS_20FieldPositionHandlerER10UErrorCode
|| __TEXT.__text __ZNK3icu13MeasureFormat14formatMeasuresEPKNS_7MeasureEiRNS_13UnicodeStringEPNS_21FieldPositionIteratorER10UErrorCode
|| __TEXT.__text __ZNK3icu13MeasureFormat14formatMeasuresEPKNS_7MeasureEiRNS_13UnicodeStringERNS_13FieldPositionER10UErrorCode
|| __TEXT.__text __ZNK3icu13MeasureFormat14getPluralRulesEv
|| __TEXT.__text __ZNK3icu13MeasureFormat17getDynamicClassIDEv
|| __TEXT.__text __ZNK3icu13MeasureFormat18getUnitDisplayNameERKNS_11MeasureUnitER10UErrorCode
|| __TEXT.__text __ZNK3icu13MeasureFormat20formatMeasurePerUnitERKNS_7MeasureERKNS_11MeasureUnitERNS_13UnicodeStringERNS_13FieldPositionER10UErrorCode
|| __TEXT.__text __ZNK3icu13MeasureFormat20getMultipleUnitNamesEPPKNS_11MeasureUnitEi22UAMeasureNameListStyleRNS_13UnicodeStringE
|| __TEXT.__text __ZNK3icu13MeasureFormat23formatMeasuresSlowTrackEPKNS_7MeasureEiRNS_13UnicodeStringERNS_13FieldPositionER10UErrorCode
|| __TEXT.__text __ZNK3icu13MeasureFormat23getNumberFormatInternalEv
|| __TEXT.__text __ZNK3icu13MeasureFormat25getCurrencyFormatInternalEv
|| __TEXT.__text __ZNK3icu13MeasureFormat5cloneEv
|| __TEXT.__text __ZNK3icu13MeasureFormat6formatERKNS_11FormattableERNS_13UnicodeStringERNS_13FieldPositionER10UErrorCode
|| __TEXT.__text __ZNK3icu13MeasureFormat8getWidthEv
|| __TEXT.__text __ZNK3icu13MeasureFormat9getLocaleER10UErrorCode
|| __TEXT.__text __ZNK3icu13MeasureFormateqERKNS_6FormatE
|| __TEXT.__text __ZNK3icu13MessageFormat10getFormatsERi
|| __TEXT.__text __ZNK3icu13MessageFormat11DummyFormat11parseObjectERKNS_13UnicodeStringERNS_11FormattableERNS_13ParsePositionE
|| __TEXT.__text __ZNK3icu13MessageFormat11DummyFormat5cloneEv
|| __TEXT.__text __ZNK3icu13MessageFormat11DummyFormat6formatERKNS_11FormattableERNS_13UnicodeStringEPNS_21FieldPositionIteratorER10UErrorCode
|| __TEXT.__text __ZNK3icu13MessageFormat11DummyFormat6formatERKNS_11FormattableERNS_13UnicodeStringER10UErrorCode
|| __TEXT.__text __ZNK3icu13MessageFormat11DummyFormat6formatERKNS_11FormattableERNS_13UnicodeStringERNS_13FieldPositionER10UErrorCode
|| __TEXT.__text __ZNK3icu13MessageFormat11DummyFormateqERKNS_6FormatE
|| __TEXT.__text __ZNK3icu13MessageFormat11parseObjectERKNS_13UnicodeStringERNS_11FormattableERNS_13ParsePositionE
|| __TEXT.__text __ZNK3icu13MessageFormat14updateMetaDataERNS_17AppendableWrapperEiPNS_13FieldPositionEPKNS_11FormattableE
|| __TEXT.__text __ZNK3icu13MessageFormat15getArgTypeCountEv
|| __TEXT.__text __ZNK3icu13MessageFormat17getDynamicClassIDEv
|| __TEXT.__text __ZNK3icu13MessageFormat18getCachedFormatterEi
|| __TEXT.__text __ZNK3icu13MessageFormat18usesNamedArgumentsEv
|| __TEXT.__text __ZNK3icu13MessageFormat19createIntegerFormatERKNS_6LocaleER10UErrorCode
|| __TEXT.__text __ZNK3icu13MessageFormat19findOtherSubMessageEi
|| __TEXT.__text __ZNK3icu13MessageFormat20getArgFromListByNameEPKNS_11FormattableEPKNS_13UnicodeStringEiRS4_
|| __TEXT.__text __ZNK3icu13MessageFormat20getDefaultDateFormatER10UErrorCode
|| __TEXT.__text __ZNK3icu13MessageFormat20nextTopLevelArgStartEi
|| __TEXT.__text __ZNK3icu13MessageFormat22PluralSelectorProvider6selectEPvdR10UErrorCode
|| __TEXT.__text __ZNK3icu13MessageFormat22getDefaultNumberFormatER10UErrorCode
|| __TEXT.__text __ZNK3icu13MessageFormat23formatComplexSubMessageEiPKvPKNS_11FormattableEPKNS_13UnicodeStringEiRNS_17AppendableWrapperER10UErrorCode
|| __TEXT.__text __ZNK3icu13MessageFormat24findFirstPluralNumberArgEiRKNS_13UnicodeStringE
|| __TEXT.__text __ZNK3icu13MessageFormat33getLiteralStringUntilNextArgumentEi
|| __TEXT.__text __ZNK3icu13MessageFormat5cloneEv
|| __TEXT.__text __ZNK3icu13MessageFormat5parseERKNS_13UnicodeStringERNS_13ParsePositionERi
|| __TEXT.__text __ZNK3icu13MessageFormat5parseERKNS_13UnicodeStringERiR10UErrorCode
|| __TEXT.__text __ZNK3icu13MessageFormat5parseEiRKNS_13UnicodeStringERNS_13ParsePositionERiR10UErrorCode
|| __TEXT.__text __ZNK3icu13MessageFormat6formatEPKNS_11FormattableEPKNS_13UnicodeStringEiRS4_PNS_13FieldPositionER10UErrorCode
|| __TEXT.__text __ZNK3icu13MessageFormat6formatEPKNS_11FormattableEiRNS_13UnicodeStringERNS_13FieldPositionER10UErrorCode
|| __TEXT.__text __ZNK3icu13MessageFormat6formatEPKNS_13UnicodeStringEPKNS_11FormattableEiRS1_R10UErrorCode
|| __TEXT.__text __ZNK3icu13MessageFormat6formatERKNS_11FormattableERNS_13UnicodeStringERNS_13FieldPositionER10UErrorCode
|| __TEXT.__text __ZNK3icu13MessageFormat6formatEiPKvPKNS_11FormattableEPKNS_13UnicodeStringEiRNS_17AppendableWrapperEPNS_13FieldPositionER10UErrorCode
|| __TEXT.__text __ZNK3icu13MessageFormat9getLocaleEv
|| __TEXT.__text __ZNK3icu13MessageFormat9toPatternERNS_13UnicodeStringE
|| __TEXT.__text __ZNK3icu13MessageFormateqERKNS_6FormatE
|| __TEXT.__text __ZNK3icu13OlsonTimeZone12getRawOffsetEv
|| __TEXT.__text __ZNK3icu13OlsonTimeZone12hasSameRulesERKNS_8TimeZoneE
|| __TEXT.__text __ZNK3icu13OlsonTimeZone13getDSTSavingsEv
|| __TEXT.__text __ZNK3icu13OlsonTimeZone14inDaylightTimeEdR10UErrorCode
|| __TEXT.__text __ZNK3icu13OlsonTimeZone15useDaylightTimeEv
|| __TEXT.__text __ZNK3icu13OlsonTimeZone16getTimeZoneRulesERPKNS_19InitialTimeZoneRuleEPPKNS_12TimeZoneRuleERiR10UErrorCode
|| __TEXT.__text __ZNK3icu13OlsonTimeZone17getDynamicClassIDEv
|| __TEXT.__text __ZNK3icu13OlsonTimeZone17getNextTransitionEdaRNS_18TimeZoneTransitionE
|| __TEXT.__text __ZNK3icu13OlsonTimeZone18getOffsetFromLocalEdiiRiS1_R10UErrorCode
|| __TEXT.__text __ZNK3icu13OlsonTimeZone19getHistoricalOffsetEdaiiRiS1_
|| __TEXT.__text __ZNK3icu13OlsonTimeZone20checkTransitionRulesER10UErrorCode
|| __TEXT.__text __ZNK3icu13OlsonTimeZone20countTransitionRulesER10UErrorCode
|| __TEXT.__text __ZNK3icu13OlsonTimeZone21getPreviousTransitionEdaRNS_18TimeZoneTransitionE
|| __TEXT.__text __ZNK3icu13OlsonTimeZone23transitionTimeInSecondsEs
|| __TEXT.__text __ZNK3icu13OlsonTimeZone5cloneEv
|| __TEXT.__text __ZNK3icu13OlsonTimeZone9getOffsetEdaRiS1_R10UErrorCode
|| __TEXT.__text __ZNK3icu13OlsonTimeZone9getOffsetEhiiihiR10UErrorCode
|| __TEXT.__text __ZNK3icu13OlsonTimeZone9getOffsetEhiiihiiR10UErrorCode
|| __TEXT.__text __ZNK3icu13OlsonTimeZoneeqERKNS_8TimeZoneE
|| __TEXT.__text __ZNK3icu13ParsePosition17getDynamicClassIDEv
|| __TEXT.__text __ZNK3icu13ParsePosition5cloneEv
|| __TEXT.__text __ZNK3icu13ResourceArray19internalGetResourceEPK12ResourceDatai
|| __TEXT.__text __ZNK3icu13ResourceArray8getValueEiRNS_13ResourceValueE
|| __TEXT.__text __ZNK3icu13ResourceTable14getKeyAndValueEiRPKcRNS_13ResourceValueE
|| __TEXT.__text __ZNK3icu13TimeZoneNames14getDisplayNameERKNS_13UnicodeStringE17UTimeZoneNameTypedRS1_
|| __TEXT.__text __ZNK3icu13TimeZoneNames15getDisplayNamesERKNS_13UnicodeStringEPK17UTimeZoneNameTypeidPS1_R10UErrorCode
|| __TEXT.__text __ZNK3icu13TimeZoneNames19MatchInfoCollection13getNameTypeAtEi
|| __TEXT.__text __ZNK3icu13TimeZoneNames19MatchInfoCollection15getMetaZoneIDAtEiRNS_13UnicodeStringE
|| __TEXT.__text __ZNK3icu13TimeZoneNames19MatchInfoCollection15getTimeZoneIDAtEiRNS_13UnicodeStringE
|| __TEXT.__text __ZNK3icu13TimeZoneNames19MatchInfoCollection16getMatchLengthAtEi
|| __TEXT.__text __ZNK3icu13TimeZoneNames19MatchInfoCollection4sizeEv
|| __TEXT.__text __ZNK3icu13TimeZoneNames23getExemplarLocationNameERKNS_13UnicodeStringERS1_
|| __TEXT.__text __ZNK3icu13UnicodeFilter9toMatcherEv
|| __TEXT.__text __ZNK3icu13UnicodeString10doHashCodeEv
|| __TEXT.__text __ZNK3icu13UnicodeString10unescapeAtERi
|| __TEXT.__text __ZNK3icu13UnicodeString11countChar32Eii
|| __TEXT.__text __ZNK3icu13UnicodeString11getChar32AtEi
|| __TEXT.__text __ZNK3icu13UnicodeString11hasMetaDataEv
|| __TEXT.__text __ZNK3icu13UnicodeString11lastIndexOfEPKDsiiii
|| __TEXT.__text __ZNK3icu13UnicodeString11moveIndex32Eii
|| __TEXT.__text __ZNK3icu13UnicodeString13doCaseCompareEiiPKDsiij
|| __TEXT.__text __ZNK3icu13UnicodeString13doLastIndexOfEDsii
|| __TEXT.__text __ZNK3icu13UnicodeString13doLastIndexOfEiii
|| __TEXT.__text __ZNK3icu13UnicodeString13tempSubStringEii
|| __TEXT.__text __ZNK3icu13UnicodeString14extractBetweenEiiRS0_
|| __TEXT.__text __ZNK3icu13UnicodeString14getChar32LimitEi
|| __TEXT.__text __ZNK3icu13UnicodeString14getChar32StartEi
|| __TEXT.__text __ZNK3icu13UnicodeString17getDynamicClassIDEv
|| __TEXT.__text __ZNK3icu13UnicodeString17hasMoreChar32ThanEiii
|| __TEXT.__text __ZNK3icu13UnicodeString23doCompareCodePointOrderEiiPKDsii
|| __TEXT.__text __ZNK3icu13UnicodeString5cloneEv
|| __TEXT.__text __ZNK3icu13UnicodeString6toUTF8ERNS_8ByteSinkE
|| __TEXT.__text __ZNK3icu13UnicodeString6toUTF8EiiPci
|| __TEXT.__text __ZNK3icu13UnicodeString7extractENS_9Char16PtrEiR10UErrorCode
|| __TEXT.__text __ZNK3icu13UnicodeString7extractEPciP10UConverterR10UErrorCode
|| __TEXT.__text __ZNK3icu13UnicodeString7extractEiiPciNS0_10EInvariantE
|| __TEXT.__text __ZNK3icu13UnicodeString7extractEiiPcj
|| __TEXT.__text __ZNK3icu13UnicodeString7extractEiiPcjPKc
|| __TEXT.__text __ZNK3icu13UnicodeString7indexOfEPKDsiiii
|| __TEXT.__text __ZNK3icu13UnicodeString7toUTF32EPiiR10UErrorCode
|| __TEXT.__text __ZNK3icu13UnicodeString8char32AtEi
|| __TEXT.__text __ZNK3icu13UnicodeString8doEqualsERKS0_i
|| __TEXT.__text __ZNK3icu13UnicodeString8refCountEv
|| __TEXT.__text __ZNK3icu13UnicodeString8unescapeEv
|| __TEXT.__text __ZNK3icu13UnicodeString9doCompareEiiPKDsii
|| __TEXT.__text __ZNK3icu13UnicodeString9doExtractEiiPDsi
|| __TEXT.__text __ZNK3icu13UnicodeString9doExtractEiiPciP10UConverterR10UErrorCode
|| __TEXT.__text __ZNK3icu13UnicodeString9doIndexOfEDsii
|| __TEXT.__text __ZNK3icu13UnicodeString9doIndexOfEiii
|| __TEXT.__text __ZNK3icu13UnicodeString9getCharAtEi
|| __TEXT.__text __ZNK3icu13UnicodeString9getLengthEv
|| __TEXT.__text __ZNK3icu14CurrencyAmount17getDynamicClassIDEv
|| __TEXT.__text __ZNK3icu14CurrencyAmount5cloneEv
|| __TEXT.__text __ZNK3icu14HebrewCalendar14handleGetLimitE19UCalendarDateFieldsNS_8Calendar10ELimitTypeE
|| __TEXT.__text __ZNK3icu14HebrewCalendar14inDaylightTimeER10UErrorCode
|| __TEXT.__text __ZNK3icu14HebrewCalendar17getDynamicClassIDEv
|| __TEXT.__text __ZNK3icu14HebrewCalendar18haveDefaultCenturyEv
|| __TEXT.__text __ZNK3icu14HebrewCalendar19defaultCenturyStartEv
|| __TEXT.__text __ZNK3icu14HebrewCalendar19handleGetYearLengthEi
|| __TEXT.__text __ZNK3icu14HebrewCalendar20handleGetMonthLengthEii
|| __TEXT.__text __ZNK3icu14HebrewCalendar23defaultCenturyStartYearEv
|| __TEXT.__text __ZNK3icu14HebrewCalendar23handleComputeMonthStartEiia
|| __TEXT.__text __ZNK3icu14HebrewCalendar5cloneEv
|| __TEXT.__text __ZNK3icu14HebrewCalendar7getTypeEv
|| __TEXT.__text __ZNK3icu14HebrewCalendar8yearTypeEi
|| __TEXT.__text __ZNK3icu14IndianCalendar14handleGetLimitE19UCalendarDateFieldsNS_8Calendar10ELimitTypeE
|| __TEXT.__text __ZNK3icu14IndianCalendar14inDaylightTimeER10UErrorCode
|| __TEXT.__text __ZNK3icu14IndianCalendar17getDynamicClassIDEv
|| __TEXT.__text __ZNK3icu14IndianCalendar18haveDefaultCenturyEv
|| __TEXT.__text __ZNK3icu14IndianCalendar19defaultCenturyStartEv
|| __TEXT.__text __ZNK3icu14IndianCalendar19handleGetYearLengthEi
|| __TEXT.__text __ZNK3icu14IndianCalendar20handleGetMonthLengthEii
|| __TEXT.__text __ZNK3icu14IndianCalendar23defaultCenturyStartYearEv
|| __TEXT.__text __ZNK3icu14IndianCalendar23handleComputeMonthStartEiia
|| __TEXT.__text __ZNK3icu14IndianCalendar5cloneEv
|| __TEXT.__text __ZNK3icu14IndianCalendar7getTypeEv
|| __TEXT.__text __ZNK3icu14LocaleCacheKeyINS_14SharedCalendarEE12createObjectEPKvR10UErrorCode
|| __TEXT.__text __ZNK3icu14LocaleCacheKeyINS_17SharedPluralRulesEE12createObjectEPKvR10UErrorCode
|| __TEXT.__text __ZNK3icu14LocaleCacheKeyINS_18DateFmtBestPatternEE12createObjectEPKvR10UErrorCode
|| __TEXT.__text __ZNK3icu14LocaleCacheKeyINS_18SharedNumberFormatEE12createObjectEPKvR10UErrorCode
|| __TEXT.__text __ZNK3icu14LocaleCacheKeyINS_19CollationCacheEntryEE12createObjectEPKvR10UErrorCode
|| __TEXT.__text __ZNK3icu14LocaleCacheKeyINS_22MeasureFormatCacheDataEE12createObjectEPKvR10UErrorCode
|| __TEXT.__text __ZNK3icu14LocaleCacheKeyINS_23SharedDateFormatSymbolsEE12createObjectEPKvR10UErrorCode
|| __TEXT.__text __ZNK3icu14LocaleCacheKeyINS_25RelativeDateTimeCacheDataEE12createObjectEPKvR10UErrorCode
|| __TEXT.__text __ZNK3icu14MessagePattern15getNumericValueERKNS0_4PartE
|| __TEXT.__text __ZNK3icu14MessagePattern15getPluralOffsetEi
|| __TEXT.__text __ZNK3icu14MessagePattern23autoQuoteApostropheDeepEv
|| __TEXT.__text __ZNK3icu14MessagePattern4ParteqERKS1_
|| __TEXT.__text __ZNK3icu14MessagePattern8hashCodeEv
|| __TEXT.__text __ZNK3icu14MessagePatterneqERKS0_
|| __TEXT.__text __ZNK3icu14ResourceBundle10getVersionEPh
|| __TEXT.__text __ZNK3icu14ResourceBundle11getStringExEPKcR10UErrorCode
|| __TEXT.__text __ZNK3icu14ResourceBundle11getStringExEiR10UErrorCode
|| __TEXT.__text __ZNK3icu14ResourceBundle12getIntVectorERiR10UErrorCode
|| __TEXT.__text __ZNK3icu14ResourceBundle16getVersionNumberEv
|| __TEXT.__text __ZNK3icu14ResourceBundle17getDynamicClassIDEv
|| __TEXT.__text __ZNK3icu14ResourceBundle3getEPKcR10UErrorCode
|| __TEXT.__text __ZNK3icu14ResourceBundle3getEiR10UErrorCode
|| __TEXT.__text __ZNK3icu14ResourceBundle5cloneEv
|| __TEXT.__text __ZNK3icu14ResourceBundle6getIntER10UErrorCode
|| __TEXT.__text __ZNK3icu14ResourceBundle6getKeyEv
|| __TEXT.__text __ZNK3icu14ResourceBundle7getNameEv
|| __TEXT.__text __ZNK3icu14ResourceBundle7getSizeEv
|| __TEXT.__text __ZNK3icu14ResourceBundle7getTypeEv
|| __TEXT.__text __ZNK3icu14ResourceBundle7getUIntER10UErrorCode
|| __TEXT.__text __ZNK3icu14ResourceBundle7hasNextEv
|| __TEXT.__text __ZNK3icu14ResourceBundle9getBinaryERiR10UErrorCode
|| __TEXT.__text __ZNK3icu14ResourceBundle9getLocaleE18ULocDataLocaleTypeR10UErrorCode
|| __TEXT.__text __ZNK3icu14ResourceBundle9getLocaleEv
|| __TEXT.__text __ZNK3icu14ResourceBundle9getStringER10UErrorCode
|| __TEXT.__text __ZNK3icu14SearchIterator12getAttributeE16USearchAttribute
|| __TEXT.__text __ZNK3icu14SearchIterator14getMatchedTextERNS_13UnicodeStringE
|| __TEXT.__text __ZNK3icu14SearchIterator15getMatchedStartEv
|| __TEXT.__text __ZNK3icu14SearchIterator16getBreakIteratorEv
|| __TEXT.__text __ZNK3icu14SearchIterator16getMatchedLengthEv
|| __TEXT.__text __ZNK3icu14SearchIterator7getTextEv
|| __TEXT.__text __ZNK3icu14SearchIteratoreqERKS0_
|| __TEXT.__text __ZNK3icu14SimpleTimeZone12getRawOffsetEv
|| __TEXT.__text __ZNK3icu14SimpleTimeZone12hasSameRulesERKNS_8TimeZoneE
|| __TEXT.__text __ZNK3icu14SimpleTimeZone13getDSTSavingsEv
|| __TEXT.__text __ZNK3icu14SimpleTimeZone14inDaylightTimeEdR10UErrorCode
|| __TEXT.__text __ZNK3icu14SimpleTimeZone15useDaylightTimeEv
|| __TEXT.__text __ZNK3icu14SimpleTimeZone16getTimeZoneRulesERPKNS_19InitialTimeZoneRuleEPPKNS_12TimeZoneRuleERiR10UErrorCode
|| __TEXT.__text __ZNK3icu14SimpleTimeZone17getDynamicClassIDEv
|| __TEXT.__text __ZNK3icu14SimpleTimeZone17getNextTransitionEdaRNS_18TimeZoneTransitionE
|| __TEXT.__text __ZNK3icu14SimpleTimeZone18getOffsetFromLocalEdiiRiS1_R10UErrorCode
|| __TEXT.__text __ZNK3icu14SimpleTimeZone20checkTransitionRulesER10UErrorCode
|| __TEXT.__text __ZNK3icu14SimpleTimeZone20countTransitionRulesER10UErrorCode
|| __TEXT.__text __ZNK3icu14SimpleTimeZone21getPreviousTransitionEdaRNS_18TimeZoneTransitionE
|| __TEXT.__text __ZNK3icu14SimpleTimeZone5cloneEv
|| __TEXT.__text __ZNK3icu14SimpleTimeZone9getOffsetEhiiihiR10UErrorCode
|| __TEXT.__text __ZNK3icu14SimpleTimeZone9getOffsetEhiiihiiR10UErrorCode
|| __TEXT.__text __ZNK3icu14SimpleTimeZone9getOffsetEhiiihiiiR10UErrorCode
|| __TEXT.__text __ZNK3icu14SimpleTimeZoneeqERKNS_8TimeZoneE
|| __TEXT.__text __ZNK3icu14TimeUnitAmount11getTimeUnitEv
|| __TEXT.__text __ZNK3icu14TimeUnitAmount16getTimeUnitFieldEv
|| __TEXT.__text __ZNK3icu14TimeUnitAmount17getDynamicClassIDEv
|| __TEXT.__text __ZNK3icu14TimeUnitAmount5cloneEv
|| __TEXT.__text __ZNK3icu14TimeUnitAmounteqERKNS_7UObjectE
|| __TEXT.__text __ZNK3icu14TimeUnitFormat11parseObjectERKNS_13UnicodeStringERNS_11FormattableERNS_13ParsePositionE
|| __TEXT.__text __ZNK3icu14TimeUnitFormat17getDynamicClassIDEv
|| __TEXT.__text __ZNK3icu14TimeUnitFormat5cloneEv
|| __TEXT.__text __ZNK3icu14TimeZoneFormat11parseObjectERKNS_13UnicodeStringERNS_11FormattableERNS_13ParsePositionE
|| __TEXT.__text __ZNK3icu14TimeZoneFormat11parseZoneIDERKNS_13UnicodeStringERNS_13ParsePositionERS1_
|| __TEXT.__text __ZNK3icu14TimeZoneFormat13formatGenericERKNS_8TimeZoneEidRNS_13UnicodeStringE
|| __TEXT.__text __ZNK3icu14TimeZoneFormat13getGMTPatternERNS_13UnicodeStringE
|| __TEXT.__text __ZNK3icu14TimeZoneFormat13getTimeZoneIDEPKNS_13TimeZoneNames19MatchInfoCollectionEiRNS_13UnicodeStringE
|| __TEXT.__text __ZNK3icu14TimeZoneFormat14formatSpecificERKNS_8TimeZoneE17UTimeZoneNameTypeS4_dRNS_13UnicodeStringEP23UTimeZoneFormatTimeType
|| __TEXT.__text __ZNK3icu14TimeZoneFormat16getGMTZeroFormatERNS_13UnicodeStringE
|| __TEXT.__text __ZNK3icu14TimeZoneFormat16getTimeZoneNamesEv
|| __TEXT.__text __ZNK3icu14TimeZoneFormat16parseShortZoneIDERKNS_13UnicodeStringERNS_13ParsePositionERS1_
|| __TEXT.__text __ZNK3icu14TimeZoneFormat17getDynamicClassIDEv
|| __TEXT.__text __ZNK3icu14TimeZoneFormat17parseOffsetFieldsERKNS_13UnicodeStringEiaRi
|| __TEXT.__text __ZNK3icu14TimeZoneFormat18appendOffsetDigitsERNS_13UnicodeStringEih
|| __TEXT.__text __ZNK3icu14TimeZoneFormat18getGMTOffsetDigitsERNS_13UnicodeStringE
|| __TEXT.__text __ZNK3icu14TimeZoneFormat18parseOffsetISO8601ERKNS_13UnicodeStringERNS_13ParsePositionE
|| __TEXT.__text __ZNK3icu14TimeZoneFormat18parseOffsetISO8601ERKNS_13UnicodeStringERNS_13ParsePositionEaPa
|| __TEXT.__text __ZNK3icu14TimeZoneFormat19formatOffsetISO8601EiaaaaRNS_13UnicodeStringER10UErrorCode
|| __TEXT.__text __ZNK3icu14TimeZoneFormat19getGMTOffsetPatternE35UTimeZoneFormatGMTOffsetPatternTypeRNS_13UnicodeStringE
|| __TEXT.__text __ZNK3icu14TimeZoneFormat20getTZDBTimeZoneNamesER10UErrorCode
|| __TEXT.__text __ZNK3icu14TimeZoneFormat21parseExemplarLocationERKNS_13UnicodeStringERNS_13ParsePositionERS1_
|| __TEXT.__text __ZNK3icu14TimeZoneFormat22formatExemplarLocationERKNS_8TimeZoneERNS_13UnicodeStringE
|| __TEXT.__text __ZNK3icu14TimeZoneFormat22getDefaultParseOptionsEv
|| __TEXT.__text __ZNK3icu14TimeZoneFormat23createTimeZoneForOffsetEi
|| __TEXT.__text __ZNK3icu14TimeZoneFormat23getTimeZoneGenericNamesER10UErrorCode
|| __TEXT.__text __ZNK3icu14TimeZoneFormat23parseOffsetLocalizedGMTERKNS_13UnicodeStringERNS_13ParsePositionE
|| __TEXT.__text __ZNK3icu14TimeZoneFormat23parseOffsetLocalizedGMTERKNS_13UnicodeStringERNS_13ParsePositionEaPa
|| __TEXT.__text __ZNK3icu14TimeZoneFormat24formatOffsetISO8601BasicEiaaaRNS_13UnicodeStringER10UErrorCode
|| __TEXT.__text __ZNK3icu14TimeZoneFormat24formatOffsetLocalizedGMTEiRNS_13UnicodeStringER10UErrorCode
|| __TEXT.__text __ZNK3icu14TimeZoneFormat24formatOffsetLocalizedGMTEiaRNS_13UnicodeStringER10UErrorCode
|| __TEXT.__text __ZNK3icu14TimeZoneFormat24parseDefaultOffsetFieldsERKNS_13UnicodeStringEiDsRi
|| __TEXT.__text __ZNK3icu14TimeZoneFormat25parseAbuttingOffsetFieldsERKNS_13UnicodeStringEiRi
|| __TEXT.__text __ZNK3icu14TimeZoneFormat25parseSingleLocalizedDigitERKNS_13UnicodeStringEiRi
|| __TEXT.__text __ZNK3icu14TimeZoneFormat27formatOffsetISO8601ExtendedEiaaaRNS_13UnicodeStringER10UErrorCode
|| __TEXT.__text __ZNK3icu14TimeZoneFormat28parseOffsetFieldsWithPatternERKNS_13UnicodeStringEiPNS_7UVectorEaRiS6_S6_
|| __TEXT.__text __ZNK3icu14TimeZoneFormat28parseOffsetShortLocalizedGMTERKNS_13UnicodeStringERNS_13ParsePositionE
|| __TEXT.__text __ZNK3icu14TimeZoneFormat29formatOffsetShortLocalizedGMTEiRNS_13UnicodeStringER10UErrorCode
|| __TEXT.__text __ZNK3icu14TimeZoneFormat30parseOffsetDefaultLocalizedGMTERKNS_13UnicodeStringEiRi
|| __TEXT.__text __ZNK3icu14TimeZoneFormat30parseOffsetLocalizedGMTPatternERKNS_13UnicodeStringEiaRi
|| __TEXT.__text __ZNK3icu14TimeZoneFormat35parseOffsetFieldWithLocalizedDigitsERKNS_13UnicodeStringEihhttRi
|| __TEXT.__text __ZNK3icu14TimeZoneFormat5cloneEv
|| __TEXT.__text __ZNK3icu14TimeZoneFormat5parseE20UTimeZoneFormatStyleRKNS_13UnicodeStringERNS_13ParsePositionEP23UTimeZoneFormatTimeType
|| __TEXT.__text __ZNK3icu14TimeZoneFormat5parseE20UTimeZoneFormatStyleRKNS_13UnicodeStringERNS_13ParsePositionEiP23UTimeZoneFormatTimeType
|| __TEXT.__text __ZNK3icu14TimeZoneFormat6formatE20UTimeZoneFormatStyleRKNS_8TimeZoneEdRNS_13UnicodeStringEP23UTimeZoneFormatTimeType
|| __TEXT.__text __ZNK3icu14TimeZoneFormat6formatERKNS_11FormattableERNS_13UnicodeStringERNS_13FieldPositionER10UErrorCode
|| __TEXT.__text __ZNK3icu14TimeZoneFormateqERKNS_6FormatE
|| __TEXT.__text __ZNK3icu14Transliterator10getElementEiR10UErrorCode
|| __TEXT.__text __ZNK3icu14Transliterator12getSourceSetERNS_10UnicodeSetE
|| __TEXT.__text __ZNK3icu14Transliterator12getTargetSetERNS_10UnicodeSetE
|| __TEXT.__text __ZNK3icu14Transliterator13countElementsEv
|| __TEXT.__text __ZNK3icu14Transliterator13createInverseER10UErrorCode
|| __TEXT.__text __ZNK3icu14Transliterator13transliterateERNS_11ReplaceableE
|| __TEXT.__text __ZNK3icu14Transliterator13transliterateERNS_11ReplaceableER14UTransPositionR10UErrorCode
|| __TEXT.__text __ZNK3icu14Transliterator13transliterateERNS_11ReplaceableER14UTransPositionRKNS_13UnicodeStringER10UErrorCode
|| __TEXT.__text __ZNK3icu14Transliterator13transliterateERNS_11ReplaceableER14UTransPositioniR10UErrorCode
|| __TEXT.__text __ZNK3icu14Transliterator13transliterateERNS_11ReplaceableEii
|| __TEXT.__text __ZNK3icu14Transliterator14_transliterateERNS_11ReplaceableER14UTransPositionPKNS_13UnicodeStringER10UErrorCode
|| __TEXT.__text __ZNK3icu14Transliterator18handleGetSourceSetERNS_10UnicodeSetE
|| __TEXT.__text __ZNK3icu14Transliterator21filteredTransliterateERNS_11ReplaceableER14UTransPositiona
|| __TEXT.__text __ZNK3icu14Transliterator21filteredTransliterateERNS_11ReplaceableER14UTransPositionaa
|| __TEXT.__text __ZNK3icu14Transliterator21finishTransliterationERNS_11ReplaceableER14UTransPosition
|| __TEXT.__text __ZNK3icu14Transliterator5cloneEv
|| __TEXT.__text __ZNK3icu14Transliterator5getIDEv
|| __TEXT.__text __ZNK3icu14Transliterator7toRulesERNS_13UnicodeStringEa
|| __TEXT.__text __ZNK3icu14Transliterator9getFilterEv
|| __TEXT.__text __ZNK3icu14UnicodeFunctor10toReplacerEv
|| __TEXT.__text __ZNK3icu14UnicodeFunctor9toMatcherEv
|| __TEXT.__text __ZNK3icu15AlphabeticIndex10initLabelsERNS_7UVectorER10UErrorCode
|| __TEXT.__text __ZNK3icu15AlphabeticIndex11getCollatorEv
|| __TEXT.__text __ZNK3icu15AlphabeticIndex13getRecordDataEv
|| __TEXT.__text __ZNK3icu15AlphabeticIndex13getRecordNameEv
|| __TEXT.__text __ZNK3icu15AlphabeticIndex14ImmutableIndex14getBucketCountEv
|| __TEXT.__text __ZNK3icu15AlphabeticIndex14ImmutableIndex14getBucketIndexERKNS_13UnicodeStringER10UErrorCode
|| __TEXT.__text __ZNK3icu15AlphabeticIndex14ImmutableIndex9getBucketEi
|| __TEXT.__text __ZNK3icu15AlphabeticIndex14getBucketIndexEv
|| __TEXT.__text __ZNK3icu15AlphabeticIndex14getBucketLabelEv
|| __TEXT.__text __ZNK3icu15AlphabeticIndex14getInflowLabelEv
|| __TEXT.__text __ZNK3icu15AlphabeticIndex16createBucketListER10UErrorCode
|| __TEXT.__text __ZNK3icu15AlphabeticIndex16getMaxLabelCountEv
|| __TEXT.__text __ZNK3icu15AlphabeticIndex16getOverflowLabelEv
|| __TEXT.__text __ZNK3icu15AlphabeticIndex17getUnderflowLabelEv
|| __TEXT.__text __ZNK3icu15AlphabeticIndex18getBucketLabelTypeEv
|| __TEXT.__text __ZNK3icu15AlphabeticIndex20getBucketRecordCountEv
|| __TEXT.__text __ZNK3icu15AlphabeticIndexeqERKS0_
|| __TEXT.__text __ZNK3icu15AlphabeticIndexneERKS0_
|| __TEXT.__text __ZNK3icu15ChineseCalendar11newMoonNearEda
|| __TEXT.__text __ZNK3icu15ChineseCalendar12daysToMillisEd
|| __TEXT.__text __ZNK3icu15ChineseCalendar12millisToDaysEd
|| __TEXT.__text __ZNK3icu15ChineseCalendar14handleGetLimitE19UCalendarDateFieldsNS_8Calendar10ELimitTypeE
|| __TEXT.__text __ZNK3icu15ChineseCalendar14inDaylightTimeER10UErrorCode
|| __TEXT.__text __ZNK3icu15ChineseCalendar14majorSolarTermEi
|| __TEXT.__text __ZNK3icu15ChineseCalendar14winterSolsticeEi
|| __TEXT.__text __ZNK3icu15ChineseCalendar17getDynamicClassIDEv
|| __TEXT.__text __ZNK3icu15ChineseCalendar18haveDefaultCenturyEv
|| __TEXT.__text __ZNK3icu15ChineseCalendar18isLeapMonthBetweenEii
|| __TEXT.__text __ZNK3icu15ChineseCalendar19defaultCenturyStartEv
|| __TEXT.__text __ZNK3icu15ChineseCalendar19hasNoMajorSolarTermEi
|| __TEXT.__text __ZNK3icu15ChineseCalendar20handleGetMonthLengthEii
|| __TEXT.__text __ZNK3icu15ChineseCalendar20synodicMonthsBetweenEii
|| __TEXT.__text __ZNK3icu15ChineseCalendar23defaultCenturyStartYearEv
|| __TEXT.__text __ZNK3icu15ChineseCalendar23getFieldResolutionTableEv
|| __TEXT.__text __ZNK3icu15ChineseCalendar23handleComputeMonthStartEiia
|| __TEXT.__text __ZNK3icu15ChineseCalendar26getChineseCalZoneAstroCalcEv
|| __TEXT.__text __ZNK3icu15ChineseCalendar30internalGetDefaultCenturyStartEv
|| __TEXT.__text __ZNK3icu15ChineseCalendar34internalGetDefaultCenturyStartYearEv
|| __TEXT.__text __ZNK3icu15ChineseCalendar5cloneEv
|| __TEXT.__text __ZNK3icu15ChineseCalendar7getTypeEv
|| __TEXT.__text __ZNK3icu15ChineseCalendar7newYearEi
|| __TEXT.__text __ZNK3icu15IslamicCalendar10monthStartEii
|| __TEXT.__text __ZNK3icu15IslamicCalendar14handleGetLimitE19UCalendarDateFieldsNS_8Calendar10ELimitTypeE
|| __TEXT.__text __ZNK3icu15IslamicCalendar14inDaylightTimeER10UErrorCode
|| __TEXT.__text __ZNK3icu15IslamicCalendar14trueMonthStartEi
|| __TEXT.__text __ZNK3icu15IslamicCalendar17getDynamicClassIDEv
|| __TEXT.__text __ZNK3icu15IslamicCalendar18haveDefaultCenturyEv
|| __TEXT.__text __ZNK3icu15IslamicCalendar19defaultCenturyStartEv
|| __TEXT.__text __ZNK3icu15IslamicCalendar19handleGetYearLengthEi
|| __TEXT.__text __ZNK3icu15IslamicCalendar20handleGetMonthLengthEii
|| __TEXT.__text __ZNK3icu15IslamicCalendar23defaultCenturyStartYearEv
|| __TEXT.__text __ZNK3icu15IslamicCalendar23handleComputeMonthStartEiia
|| __TEXT.__text __ZNK3icu15IslamicCalendar5cloneEv
|| __TEXT.__text __ZNK3icu15IslamicCalendar7getTypeEv
|| __TEXT.__text __ZNK3icu15IslamicCalendar9yearStartEi
|| __TEXT.__text __ZNK3icu15Normalizer2Impl11composePairEii
|| __TEXT.__text __ZNK3icu15Normalizer2Impl11composeUTF8EjaPKhS2_PNS_8ByteSinkEPNS_5EditsER10UErrorCode
|| __TEXT.__text __ZNK3icu15Normalizer2Impl12addLcccCharsERNS_10UnicodeSetE
|| __TEXT.__text __ZNK3icu15Normalizer2Impl13addCompositesEPKtRNS_10UnicodeSetE
|| __TEXT.__text __ZNK3icu15Normalizer2Impl13getCanonValueEi
|| __TEXT.__text __ZNK3icu15Normalizer2Impl14decomposeShortEPKDsS2_aaRNS_16ReorderingBufferER10UErrorCode
|| __TEXT.__text __ZNK3icu15Normalizer2Impl14decomposeShortEPKhS2_aaRNS_16ReorderingBufferER10UErrorCode
|| __TEXT.__text __ZNK3icu15Normalizer2Impl16composeAndAppendEPKDsS2_aaRNS_13UnicodeStringERNS_16ReorderingBufferER10UErrorCode
|| __TEXT.__text __ZNK3icu15Normalizer2Impl16getCanonStartSetEi
|| __TEXT.__text __ZNK3icu15Normalizer2Impl16getCanonStartSetEiRNS_10UnicodeSetE
|| __TEXT.__text __ZNK3icu15Normalizer2Impl16getDecompositionEiPDsRi
|| __TEXT.__text __ZNK3icu15Normalizer2Impl16makeFCDAndAppendEPKDsS2_aRNS_13UnicodeStringERNS_16ReorderingBufferER10UErrorCode
|| __TEXT.__text __ZNK3icu15Normalizer2Impl17addPropertyStartsEPK9USetAdderR10UErrorCode
|| __TEXT.__text __ZNK3icu15Normalizer2Impl17composeQuickCheckEPKDsS2_aP25UNormalizationCheckResult
|| __TEXT.__text __ZNK3icu15Normalizer2Impl18decomposeAndAppendEPKDsS2_aRNS_13UnicodeStringERNS_16ReorderingBufferER10UErrorCode
|| __TEXT.__text __ZNK3icu15Normalizer2Impl18getPreviousTrailCCEPKDsS2_
|| __TEXT.__text __ZNK3icu15Normalizer2Impl18getPreviousTrailCCEPKhS2_
|| __TEXT.__text __ZNK3icu15Normalizer2Impl19ensureCanonIterDataER10UErrorCode
|| __TEXT.__text __ZNK3icu15Normalizer2Impl19findNextFCDBoundaryEPKDsS2_
|| __TEXT.__text __ZNK3icu15Normalizer2Impl19getRawDecompositionEiPDsRi
|| __TEXT.__text __ZNK3icu15Normalizer2Impl20findNextCompBoundaryEPKDsS2_a
|| __TEXT.__text __ZNK3icu15Normalizer2Impl20getFCD16FromNormDataEi
|| __TEXT.__text __ZNK3icu15Normalizer2Impl20hasCompBoundaryAfterEPKDsS2_a
|| __TEXT.__text __ZNK3icu15Normalizer2Impl20hasCompBoundaryAfterEPKhS2_a
|| __TEXT.__text __ZNK3icu15Normalizer2Impl21hasCompBoundaryBeforeEPKDsS2_
|| __TEXT.__text __ZNK3icu15Normalizer2Impl21hasCompBoundaryBeforeEPKhS2_
|| __TEXT.__text __ZNK3icu15Normalizer2Impl21isCanonSegmentStarterEi
|| __TEXT.__text __ZNK3icu15Normalizer2Impl22hasDecompBoundaryAfterEi
|| __TEXT.__text __ZNK3icu15Normalizer2Impl23findPreviousFCDBoundaryEPKDsS2_
|| __TEXT.__text __ZNK3icu15Normalizer2Impl23hasDecompBoundaryBeforeEi
|| __TEXT.__text __ZNK3icu15Normalizer2Impl24findPreviousCompBoundaryEPKDsS2_a
|| __TEXT.__text __ZNK3icu15Normalizer2Impl26addCanonIterPropertyStartsEPK9USetAdderR10UErrorCode
|| __TEXT.__text __ZNK3icu15Normalizer2Impl27makeCanonIterDataFromNorm16EiitRNS_13CanonIterDataER10UErrorCode
|| __TEXT.__text __ZNK3icu15Normalizer2Impl28norm16HasDecompBoundaryAfterEt
|| __TEXT.__text __ZNK3icu15Normalizer2Impl29norm16HasDecompBoundaryBeforeEt
|| __TEXT.__text __ZNK3icu15Normalizer2Impl30copyLowPrefixFromNulTerminatedEPKDsiPNS_16ReorderingBufferER10UErrorCode
|| __TEXT.__text __ZNK3icu15Normalizer2Impl7composeEPKDsS2_aaRNS_16ReorderingBufferER10UErrorCode
|| __TEXT.__text __ZNK3icu15Normalizer2Impl7makeFCDEPKDsS2_PNS_16ReorderingBufferER10UErrorCode
|| __TEXT.__text __ZNK3icu15Normalizer2Impl9decomposeEPKDsS2_PNS_16ReorderingBufferER10UErrorCode
|| __TEXT.__text __ZNK3icu15Normalizer2Impl9decomposeEPKDsS2_RNS_13UnicodeStringEiR10UErrorCode
|| __TEXT.__text __ZNK3icu15Normalizer2Impl9decomposeERKNS_13UnicodeStringERS1_R10UErrorCode
|| __TEXT.__text __ZNK3icu15Normalizer2Impl9decomposeEitRNS_16ReorderingBufferER10UErrorCode
|| __TEXT.__text __ZNK3icu15Normalizer2Impl9recomposeERNS_16ReorderingBufferEia
|| __TEXT.__text __ZNK3icu15NumberingSystem13isAlgorithmicEv
|| __TEXT.__text __ZNK3icu15NumberingSystem14getDescriptionEv
|| __TEXT.__text __ZNK3icu15NumberingSystem17getDynamicClassIDEv
|| __TEXT.__text __ZNK3icu15NumberingSystem7getNameEv
|| __TEXT.__text __ZNK3icu15NumberingSystem8getRadixEv
|| __TEXT.__text __ZNK3icu15SimpleFormatter15formatAndAppendEPKPKNS_13UnicodeStringEiRS1_PiiR10UErrorCode
|| __TEXT.__text __ZNK3icu15SimpleFormatter16formatAndReplaceEPKPKNS_13UnicodeStringEiRS1_PiiR10UErrorCode
|| __TEXT.__text __ZNK3icu15SimpleFormatter6formatERKNS_13UnicodeStringERS1_R10UErrorCode
|| __TEXT.__text __ZNK3icu15SimpleFormatter6formatERKNS_13UnicodeStringES3_RS1_R10UErrorCode
|| __TEXT.__text __ZNK3icu15SimpleFormatter6formatERKNS_13UnicodeStringES3_S3_RS1_R10UErrorCode
|| __TEXT.__text __ZNK3icu16BytesTrieBuilder14getElementUnitEii
|| __TEXT.__text __ZNK3icu16BytesTrieBuilder15getElementValueEi
|| __TEXT.__text __ZNK3icu16BytesTrieBuilder17BTLinearMatchNodeeqERKNS_17StringTrieBuilder4NodeE
|| __TEXT.__text __ZNK3icu16BytesTrieBuilder17countElementUnitsEiii
|| __TEXT.__text __ZNK3icu16BytesTrieBuilder21createLinearMatchNodeEiiiPNS_17StringTrieBuilder4NodeE
|| __TEXT.__text __ZNK3icu16BytesTrieBuilder21getLimitOfLinearMatchEiii
|| __TEXT.__text __ZNK3icu16BytesTrieBuilder22getElementStringLengthEi
|| __TEXT.__text __ZNK3icu16BytesTrieBuilder23skipElementsBySomeUnitsEiii
|| __TEXT.__text __ZNK3icu16BytesTrieBuilder26indexOfElementWithNextUnitEiiDs
|| __TEXT.__text __ZNK3icu16CollationBuilder12ignorePrefixERKNS_13UnicodeStringER10UErrorCode
|| __TEXT.__text __ZNK3icu16CollationBuilder12ignoreStringERKNS_13UnicodeStringER10UErrorCode
|| __TEXT.__text __ZNK3icu16CollationBuilder14findCommonNodeEii
|| __TEXT.__text __ZNK3icu16CollationBuilder24mergeCompositeIntoStringERKNS_13UnicodeStringEiiS3_RS1_S4_R10UErrorCode
|| __TEXT.__text __ZNK3icu16CollationBuilder5isFCDERKNS_13UnicodeStringER10UErrorCode
|| __TEXT.__text __ZNK3icu16CollationWeights13lengthenRangeERNS0_11WeightRangeE
|| __TEXT.__text __ZNK3icu16CollationWeights17incWeightByOffsetEjii
|| __TEXT.__text __ZNK3icu16CollationWeights9incWeightEji
|| __TEXT.__text __ZNK3icu16DateIntervalInfo15getBestSkeletonERKNS_13UnicodeStringERa
|| __TEXT.__text __ZNK3icu16DateIntervalInfo15getDefaultOrderEv
|| __TEXT.__text __ZNK3icu16DateIntervalInfo17getDynamicClassIDEv
|| __TEXT.__text __ZNK3icu16DateIntervalInfo18getIntervalPatternERKNS_13UnicodeStringE19UCalendarDateFieldsRS1_R10UErrorCode
|| __TEXT.__text __ZNK3icu16DateIntervalInfo26getFallbackIntervalPatternERNS_13UnicodeStringE
|| __TEXT.__text __ZNK3icu16DateIntervalInfo5cloneEv
|| __TEXT.__text __ZNK3icu16DateIntervalInfoeqERKS0_
|| __TEXT.__text __ZNK3icu16ReorderingBuffer6equalsEPKDsS2_
|| __TEXT.__text __ZNK3icu16ReorderingBuffer6equalsEPKhS2_
|| __TEXT.__text __ZNK3icu16SimpleDateFormat11countDigitsERKNS_13UnicodeStringEii
|| __TEXT.__text __ZNK3icu16SimpleDateFormat11matchStringERKNS_13UnicodeStringEi19UCalendarDateFieldsPS2_iS5_RNS_8CalendarE
|| __TEXT.__text __ZNK3icu16SimpleDateFormat14checkIntSuffixERKNS_13UnicodeStringEiia
|| __TEXT.__text __ZNK3icu16SimpleDateFormat15getSmpFmtLocaleEv
|| __TEXT.__text __ZNK3icu16SimpleDateFormat15skipUWhiteSpaceERKNS_13UnicodeStringEi
|| __TEXT.__text __ZNK3icu16SimpleDateFormat17getDynamicClassIDEv
|| __TEXT.__text __ZNK3icu16SimpleDateFormat17getTimeZoneFormatEv
|| __TEXT.__text __ZNK3icu16SimpleDateFormat17zeroPaddingNumberEPKNS_12NumberFormatERNS_13UnicodeStringEiii
|| __TEXT.__text __ZNK3icu16SimpleDateFormat18compareSimpleAffixERKNS_13UnicodeStringES3_i
|| __TEXT.__text __ZNK3icu16SimpleDateFormat18isFieldUnitIgnoredE19UCalendarDateFields
|| __TEXT.__text __ZNK3icu16SimpleDateFormat18matchQuarterStringERKNS_13UnicodeStringEi19UCalendarDateFieldsPS2_iRNS_8CalendarE
|| __TEXT.__text __ZNK3icu16SimpleDateFormat18toLocalizedPatternERNS_13UnicodeStringER10UErrorCode
|| __TEXT.__text __ZNK3icu16SimpleDateFormat20getDateFormatSymbolsEv
|| __TEXT.__text __ZNK3icu16SimpleDateFormat21matchDayPeriodStringsERKNS_13UnicodeStringEiPS2_iRi
|| __TEXT.__text __ZNK3icu16SimpleDateFormat21skipPatternWhiteSpaceERKNS_13UnicodeStringEi
|| __TEXT.__text __ZNK3icu16SimpleDateFormat22getNumberFormatByIndexE16UDateFormatField
|| __TEXT.__text __ZNK3icu16SimpleDateFormat23getNumberFormatForFieldEDs
|| __TEXT.__text __ZNK3icu16SimpleDateFormat5cloneEv
|| __TEXT.__text __ZNK3icu16SimpleDateFormat5parseERKNS_13UnicodeStringERNS_8CalendarERNS_13ParsePositionE
|| __TEXT.__text __ZNK3icu16SimpleDateFormat6formatERNS_8CalendarERNS_13UnicodeStringEPNS_21FieldPositionIteratorER10UErrorCode
|| __TEXT.__text __ZNK3icu16SimpleDateFormat6formatERNS_8CalendarERNS_13UnicodeStringERNS_13FieldPositionE
|| __TEXT.__text __ZNK3icu16SimpleDateFormat7_formatERNS_8CalendarERNS_13UnicodeStringERNS_20FieldPositionHandlerER10UErrorCode
|| __TEXT.__text __ZNK3icu16SimpleDateFormat8parseIntERKNS_13UnicodeStringERNS_11FormattableERNS_13ParsePositionEaPKNS_12NumberFormatE
|| __TEXT.__text __ZNK3icu16SimpleDateFormat8parseIntERKNS_13UnicodeStringERNS_11FormattableEiRNS_13ParsePositionEaPKNS_12NumberFormatE
|| __TEXT.__text __ZNK3icu16SimpleDateFormat8subParseERKNS_13UnicodeStringERiDsiaaPaS4_RNS_8CalendarEiPNS_13MessageFormatEP23UTimeZoneFormatTimeTypePi
|| __TEXT.__text __ZNK3icu16SimpleDateFormat8tzFormatER10UErrorCode
|| __TEXT.__text __ZNK3icu16SimpleDateFormat9subFormatERNS_13UnicodeStringEDsi15UDisplayContextiRNS_20FieldPositionHandlerERNS_8CalendarER10UErrorCode
|| __TEXT.__text __ZNK3icu16SimpleDateFormat9toPatternERNS_13UnicodeStringE
|| __TEXT.__text __ZNK3icu16SimpleDateFormateqERKNS_6FormatE
|| __TEXT.__text __ZNK3icu17CanonicalIterator17getDynamicClassIDEv
|| __TEXT.__text __ZNK3icu17CollationIterator11getDataCE32Ei
|| __TEXT.__text __ZNK3icu17CollationIterator25forbidSurrogateCodePointsEv
|| __TEXT.__text __ZNK3icu17CollationIteratoreqERKS0_
|| __TEXT.__text __ZNK3icu17CollationSettings8hashCodeEv
|| __TEXT.__text __ZNK3icu17CollationSettings9reorderExEj
|| __TEXT.__text __ZNK3icu17CollationSettingseqERKS0_
|| __TEXT.__text __ZNK3icu17DateFormatSymbols11getEraNamesERi
|| __TEXT.__text __ZNK3icu17DateFormatSymbols11getQuartersERiNS0_13DtContextTypeENS0_11DtWidthTypeE
|| __TEXT.__text __ZNK3icu17DateFormatSymbols11getWeekdaysERi
|| __TEXT.__text __ZNK3icu17DateFormatSymbols11getWeekdaysERiNS0_13DtContextTypeENS0_11DtWidthTypeE
|| __TEXT.__text __ZNK3icu17DateFormatSymbols12getYearNamesERiNS0_13DtContextTypeENS0_11DtWidthTypeE
|| __TEXT.__text __ZNK3icu17DateFormatSymbols13getNarrowErasERi
|| __TEXT.__text __ZNK3icu17DateFormatSymbols14getAmPmStringsERi
|| __TEXT.__text __ZNK3icu17DateFormatSymbols14getShortMonthsERi
|| __TEXT.__text __ZNK3icu17DateFormatSymbols14getZodiacNamesERiNS0_13DtContextTypeENS0_11DtWidthTypeE
|| __TEXT.__text __ZNK3icu17DateFormatSymbols14getZoneStringsERiS1_
|| __TEXT.__text __ZNK3icu17DateFormatSymbols16getShortWeekdaysERi
|| __TEXT.__text __ZNK3icu17DateFormatSymbols17getDynamicClassIDEv
|| __TEXT.__text __ZNK3icu17DateFormatSymbols20getLeapMonthPatternsERi
|| __TEXT.__text __ZNK3icu17DateFormatSymbols20getLocalPatternCharsERNS_13UnicodeStringE
|| __TEXT.__text __ZNK3icu17DateFormatSymbols22getTimeSeparatorStringERNS_13UnicodeStringE
|| __TEXT.__text __ZNK3icu17DateFormatSymbols7getErasERi
|| __TEXT.__text __ZNK3icu17DateFormatSymbols9getLocaleE18ULocDataLocaleTypeR10UErrorCode
|| __TEXT.__text __ZNK3icu17DateFormatSymbols9getMonthsERi
|| __TEXT.__text __ZNK3icu17DateFormatSymbols9getMonthsERiNS0_13DtContextTypeENS0_11DtWidthTypeE
|| __TEXT.__text __ZNK3icu17DateFormatSymbolseqERKS0_
|| __TEXT.__text __ZNK3icu17GregorianCalendar10isLeapYearEi
|| __TEXT.__text __ZNK3icu17GregorianCalendar10yearLengthEi
|| __TEXT.__text __ZNK3icu17GregorianCalendar10yearLengthEv
|| __TEXT.__text __ZNK3icu17GregorianCalendar11boundsCheckEi19UCalendarDateFields
|| __TEXT.__text __ZNK3icu17GregorianCalendar11monthLengthEi
|| __TEXT.__text __ZNK3icu17GregorianCalendar11monthLengthEii
|| __TEXT.__text __ZNK3icu17GregorianCalendar14handleGetLimitE19UCalendarDateFieldsNS_8Calendar10ELimitTypeE
|| __TEXT.__text __ZNK3icu17GregorianCalendar14inDaylightTimeER10UErrorCode
|| __TEXT.__text __ZNK3icu17GregorianCalendar14internalGetEraEv
|| __TEXT.__text __ZNK3icu17GregorianCalendar14isEquivalentToERKNS_8CalendarE
|| __TEXT.__text __ZNK3icu17GregorianCalendar14validateFieldsEv
|| __TEXT.__text __ZNK3icu17GregorianCalendar16getActualMaximumE19UCalendarDateFieldsR10UErrorCode
|| __TEXT.__text __ZNK3icu17GregorianCalendar16getActualMinimumE19UCalendarDateFieldsR10UErrorCode
|| __TEXT.__text __ZNK3icu17GregorianCalendar16getActualMinimumENS_8Calendar11EDateFieldsE
|| __TEXT.__text __ZNK3icu17GregorianCalendar16getActualMinimumENS_8Calendar11EDateFieldsER10UErrorCode
|| __TEXT.__text __ZNK3icu17GregorianCalendar17getDynamicClassIDEv
|| __TEXT.__text __ZNK3icu17GregorianCalendar18getGregorianChangeEv
|| __TEXT.__text __ZNK3icu17GregorianCalendar18haveDefaultCenturyEv
|| __TEXT.__text __ZNK3icu17GregorianCalendar19defaultCenturyStartEv
|| __TEXT.__text __ZNK3icu17GregorianCalendar19handleGetYearLengthEi
|| __TEXT.__text __ZNK3icu17GregorianCalendar20handleGetMonthLengthEii
|| __TEXT.__text __ZNK3icu17GregorianCalendar23defaultCenturyStartYearEv
|| __TEXT.__text __ZNK3icu17GregorianCalendar23handleComputeMonthStartEiia
|| __TEXT.__text __ZNK3icu17GregorianCalendar5cloneEv
|| __TEXT.__text __ZNK3icu17GregorianCalendar7getTypeEv
|| __TEXT.__text __ZNK3icu17QuantityFormatter12getByVariantEPKc
|| __TEXT.__text __ZNK3icu17QuantityFormatter6formatERKNS_11FormattableERKNS_12NumberFormatERKNS_11PluralRulesERNS_13UnicodeStringERNS_13FieldPositionER10UErrorCode
|| __TEXT.__text __ZNK3icu17QuantityFormatter7isValidEv
|| __TEXT.__text __ZNK3icu17RuleBasedCollator10getSortKeyEPKDsiPhi
|| __TEXT.__text __ZNK3icu17RuleBasedCollator10getSortKeyERKNS_13UnicodeStringEPhi
|| __TEXT.__text __ZNK3icu17RuleBasedCollator10getVersionEPh
|| __TEXT.__text __ZNK3icu17RuleBasedCollator11cloneBinaryEPhiR10UErrorCode
|| __TEXT.__text __ZNK3icu17RuleBasedCollator11compareUTF8ERKNS_11StringPieceES3_R10UErrorCode
|| __TEXT.__text __ZNK3icu17RuleBasedCollator12getAttributeE13UColAttributeR10UErrorCode
|| __TEXT.__text __ZNK3icu17RuleBasedCollator12writeSortKeyEPKDsiRNS_15SortKeyByteSinkER10UErrorCode
|| __TEXT.__text __ZNK3icu17RuleBasedCollator13cloneRuleDataERiR10UErrorCode
|| __TEXT.__text __ZNK3icu17RuleBasedCollator14getMaxVariableEv
|| __TEXT.__text __ZNK3icu17RuleBasedCollator14getTailoredSetER10UErrorCode
|| __TEXT.__text __ZNK3icu17RuleBasedCollator14getVariableTopER10UErrorCode
|| __TEXT.__text __ZNK3icu17RuleBasedCollator14internalGetCEsERKNS_13UnicodeStringERNS_9UVector64ER10UErrorCode
|| __TEXT.__text __ZNK3icu17RuleBasedCollator15getCollationKeyEPKDsiRNS_12CollationKeyER10UErrorCode
|| __TEXT.__text __ZNK3icu17RuleBasedCollator15getCollationKeyERKNS_13UnicodeStringERNS_12CollationKeyER10UErrorCode
|| __TEXT.__text __ZNK3icu17RuleBasedCollator15getMaxExpansionEi
|| __TEXT.__text __ZNK3icu17RuleBasedCollator15getReorderCodesEPiiR10UErrorCode
|| __TEXT.__text __ZNK3icu17RuleBasedCollator17getDynamicClassIDEv
|| __TEXT.__text __ZNK3icu17RuleBasedCollator17initMaxExpansionsER10UErrorCode
|| __TEXT.__text __ZNK3icu17RuleBasedCollator18getDefaultSettingsEv
|| __TEXT.__text __ZNK3icu17RuleBasedCollator19internalCompareUTF8EPKciS2_iR10UErrorCode
|| __TEXT.__text __ZNK3icu17RuleBasedCollator19internalGetLocaleIDE18ULocDataLocaleTypeR10UErrorCode
|| __TEXT.__text __ZNK3icu17RuleBasedCollator19setFastLatinOptionsERNS_17CollationSettingsE
|| __TEXT.__text __ZNK3icu17RuleBasedCollator19writeIdenticalLevelEPKDsS2_RNS_15SortKeyByteSinkER10UErrorCode
|| __TEXT.__text __ZNK3icu17RuleBasedCollator23internalAddContractionsEiRNS_10UnicodeSetER10UErrorCode
|| __TEXT.__text __ZNK3icu17RuleBasedCollator23internalNextSortKeyPartEP13UCharIteratorPjPhiR10UErrorCode
|| __TEXT.__text __ZNK3icu17RuleBasedCollator30createCollationElementIteratorERKNS_13UnicodeStringE
|| __TEXT.__text __ZNK3icu17RuleBasedCollator30createCollationElementIteratorERKNS_17CharacterIteratorE
|| __TEXT.__text __ZNK3icu17RuleBasedCollator32internalGetShortDefinitionStringEPKcPciR10UErrorCode
|| __TEXT.__text __ZNK3icu17RuleBasedCollator36internalGetContractionsAndExpansionsEPNS_10UnicodeSetES2_aR10UErrorCode
|| __TEXT.__text __ZNK3icu17RuleBasedCollator5cloneEv
|| __TEXT.__text __ZNK3icu17RuleBasedCollator7compareEPKDsiS2_iR10UErrorCode
|| __TEXT.__text __ZNK3icu17RuleBasedCollator7compareER13UCharIteratorS2_R10UErrorCode
|| __TEXT.__text __ZNK3icu17RuleBasedCollator7compareERKNS_13UnicodeStringES3_R10UErrorCode
|| __TEXT.__text __ZNK3icu17RuleBasedCollator7compareERKNS_13UnicodeStringES3_iR10UErrorCode
|| __TEXT.__text __ZNK3icu17RuleBasedCollator8getRulesE14UColRuleOptionRNS_13UnicodeStringE
|| __TEXT.__text __ZNK3icu17RuleBasedCollator8getRulesEv
|| __TEXT.__text __ZNK3icu17RuleBasedCollator8hashCodeEv
|| __TEXT.__text __ZNK3icu17RuleBasedCollator8isUnsafeEi
|| __TEXT.__text __ZNK3icu17RuleBasedCollator9doCompareEPKDsiS2_iR10UErrorCode
|| __TEXT.__text __ZNK3icu17RuleBasedCollator9doCompareEPKhiS2_iR10UErrorCode
|| __TEXT.__text __ZNK3icu17RuleBasedCollator9getLocaleE18ULocDataLocaleTypeR10UErrorCode
|| __TEXT.__text __ZNK3icu17RuleBasedCollatoreqERKNS_8CollatorE
|| __TEXT.__text __ZNK3icu17RuleBasedTimeZone12getRawOffsetEv
|| __TEXT.__text __ZNK3icu17RuleBasedTimeZone12hasSameRulesERKNS_8TimeZoneE
|| __TEXT.__text __ZNK3icu17RuleBasedTimeZone13completeConstER10UErrorCode
|| __TEXT.__text __ZNK3icu17RuleBasedTimeZone13getLocalDeltaEiiiiii
|| __TEXT.__text __ZNK3icu17RuleBasedTimeZone14inDaylightTimeEdR10UErrorCode
|| __TEXT.__text __ZNK3icu17RuleBasedTimeZone15findRuleInFinalEdaii
|| __TEXT.__text __ZNK3icu17RuleBasedTimeZone15useDaylightTimeEv
|| __TEXT.__text __ZNK3icu17RuleBasedTimeZone16getTimeZoneRulesERPKNS_19InitialTimeZoneRuleEPPKNS_12TimeZoneRuleERiR10UErrorCode
|| __TEXT.__text __ZNK3icu17RuleBasedTimeZone17getDynamicClassIDEv
|| __TEXT.__text __ZNK3icu17RuleBasedTimeZone17getNextTransitionEdaRNS_18TimeZoneTransitionE
|| __TEXT.__text __ZNK3icu17RuleBasedTimeZone17getOffsetInternalEdaiiRiS1_R10UErrorCode
|| __TEXT.__text __ZNK3icu17RuleBasedTimeZone17getTransitionTimeEPNS_10TransitionEaii
|| __TEXT.__text __ZNK3icu17RuleBasedTimeZone18getOffsetFromLocalEdiiRiS1_R10UErrorCode
|| __TEXT.__text __ZNK3icu17RuleBasedTimeZone20countTransitionRulesER10UErrorCode
|| __TEXT.__text __ZNK3icu17RuleBasedTimeZone21getPreviousTransitionEdaRNS_18TimeZoneTransitionE
|| __TEXT.__text __ZNK3icu17RuleBasedTimeZone5cloneEv
|| __TEXT.__text __ZNK3icu17RuleBasedTimeZone8findNextEdaRdRPNS_12TimeZoneRuleES4_
|| __TEXT.__text __ZNK3icu17RuleBasedTimeZone8findPrevEdaRdRPNS_12TimeZoneRuleES4_
|| __TEXT.__text __ZNK3icu17RuleBasedTimeZone9getOffsetEdaRiS1_R10UErrorCode
|| __TEXT.__text __ZNK3icu17RuleBasedTimeZone9getOffsetEhiiihiR10UErrorCode
|| __TEXT.__text __ZNK3icu17RuleBasedTimeZone9getOffsetEhiiihiiR10UErrorCode
|| __TEXT.__text __ZNK3icu17RuleBasedTimeZoneeqERKNS_8TimeZoneE
|| __TEXT.__text __ZNK3icu17RuleBasedTimeZoneneERKNS_8TimeZoneE
|| __TEXT.__text __ZNK3icu17StringEnumeration5cloneEv
|| __TEXT.__text __ZNK3icu17StringEnumerationeqERKS0_
|| __TEXT.__text __ZNK3icu17StringEnumerationneERKS0_
|| __TEXT.__text __ZNK3icu17StringTrieBuilder14BranchHeadNodeeqERKNS0_4NodeE
|| __TEXT.__text __ZNK3icu17StringTrieBuilder14FinalValueNodeeqERKNS0_4NodeE
|| __TEXT.__text __ZNK3icu17StringTrieBuilder14ListBranchNodeeqERKNS0_4NodeE
|| __TEXT.__text __ZNK3icu17StringTrieBuilder15LinearMatchNodeeqERKNS0_4NodeE
|| __TEXT.__text __ZNK3icu17StringTrieBuilder15SplitBranchNodeeqERKNS0_4NodeE
|| __TEXT.__text __ZNK3icu17StringTrieBuilder21IntermediateValueNodeeqERKNS0_4NodeE
|| __TEXT.__text __ZNK3icu17StringTrieBuilder4NodeeqERKS1_
|| __TEXT.__text __ZNK3icu17StringTrieBuilder9ValueNodeeqERKNS0_4NodeE
|| __TEXT.__text __ZNK3icu17UCharsTrieBuilder14getElementUnitEii
|| __TEXT.__text __ZNK3icu17UCharsTrieBuilder15getElementValueEi
|| __TEXT.__text __ZNK3icu17UCharsTrieBuilder17countElementUnitsEiii
|| __TEXT.__text __ZNK3icu17UCharsTrieBuilder18UCTLinearMatchNodeeqERKNS_17StringTrieBuilder4NodeE
|| __TEXT.__text __ZNK3icu17UCharsTrieBuilder21createLinearMatchNodeEiiiPNS_17StringTrieBuilder4NodeE
|| __TEXT.__text __ZNK3icu17UCharsTrieBuilder21getLimitOfLinearMatchEiii
|| __TEXT.__text __ZNK3icu17UCharsTrieBuilder22getElementStringLengthEi
|| __TEXT.__text __ZNK3icu17UCharsTrieBuilder23skipElementsBySomeUnitsEiii
|| __TEXT.__text __ZNK3icu17UCharsTrieBuilder26indexOfElementWithNextUnitEiiDs
|| __TEXT.__text __ZNK3icu18AnnualTimeZoneRule10getEndYearEv
|| __TEXT.__text __ZNK3icu18AnnualTimeZoneRule12getNextStartEdiiaRd
|| __TEXT.__text __ZNK3icu18AnnualTimeZoneRule12getStartYearEv
|| __TEXT.__text __ZNK3icu18AnnualTimeZoneRule13getFinalStartEiiRd
|| __TEXT.__text __ZNK3icu18AnnualTimeZoneRule13getFirstStartEiiRd
|| __TEXT.__text __ZNK3icu18AnnualTimeZoneRule14getStartInYearEiiiRd
|| __TEXT.__text __ZNK3icu18AnnualTimeZoneRule14isEquivalentToERKNS_12TimeZoneRuleE
|| __TEXT.__text __ZNK3icu18AnnualTimeZoneRule16getPreviousStartEdiiaRd
|| __TEXT.__text __ZNK3icu18AnnualTimeZoneRule17getDynamicClassIDEv
|| __TEXT.__text __ZNK3icu18AnnualTimeZoneRule5cloneEv
|| __TEXT.__text __ZNK3icu18AnnualTimeZoneRule7getRuleEv
|| __TEXT.__text __ZNK3icu18AnnualTimeZoneRuleeqERKNS_12TimeZoneRuleE
|| __TEXT.__text __ZNK3icu18AnnualTimeZoneRuleneERKNS_12TimeZoneRuleE
|| __TEXT.__text __ZNK3icu18CalendarAstronomer10Equatorial8toStringEv
|| __TEXT.__text __ZNK3icu18CalendarAstronomer7Horizon8toStringEv
|| __TEXT.__text __ZNK3icu18CalendarAstronomer8Ecliptic8toStringEv
|| __TEXT.__text __ZNK3icu18CollationTailoring13getUCAVersionEv
|| __TEXT.__text __ZNK3icu18CurrencyPluralInfo14getPluralRulesEv
|| __TEXT.__text __ZNK3icu18CurrencyPluralInfo17getDynamicClassIDEv
|| __TEXT.__text __ZNK3icu18CurrencyPluralInfo24getCurrencyPluralPatternERKNS_13UnicodeStringERS1_
|| __TEXT.__text __ZNK3icu18CurrencyPluralInfo5cloneEv
|| __TEXT.__text __ZNK3icu18CurrencyPluralInfo9getLocaleEv
|| __TEXT.__text __ZNK3icu18CurrencyPluralInfoeqERKS0_
|| __TEXT.__text __ZNK3icu18DateIntervalFormat10formatImplERNS_8CalendarES2_RNS_13UnicodeStringERaRNS_20FieldPositionHandlerER10UErrorCode
|| __TEXT.__text __ZNK3icu18DateIntervalFormat10getContextE19UDisplayContextTypeR10UErrorCode
|| __TEXT.__text __ZNK3icu18DateIntervalFormat11getTimeZoneEv
|| __TEXT.__text __ZNK3icu18DateIntervalFormat11parseObjectERKNS_13UnicodeStringERNS_11FormattableERNS_13ParsePositionE
|| __TEXT.__text __ZNK3icu18DateIntervalFormat13formatToValueERKNS_12DateIntervalER10UErrorCode
|| __TEXT.__text __ZNK3icu18DateIntervalFormat13formatToValueERNS_8CalendarES2_R10UErrorCode
|| __TEXT.__text __ZNK3icu18DateIntervalFormat13getDateFormatEv
|| __TEXT.__text __ZNK3icu18DateIntervalFormat14fallbackFormatERNS_8CalendarES2_aRNS_13UnicodeStringERaRNS_20FieldPositionHandlerER10UErrorCode
|| __TEXT.__text __ZNK3icu18DateIntervalFormat17getDynamicClassIDEv
|| __TEXT.__text __ZNK3icu18DateIntervalFormat18formatIntervalImplERKNS_12DateIntervalERNS_13UnicodeStringERaRNS_20FieldPositionHandlerER10UErrorCode
|| __TEXT.__text __ZNK3icu18DateIntervalFormat19fallbackFormatRangeERNS_8CalendarES2_RNS_13UnicodeStringERaRNS_20FieldPositionHandlerER10UErrorCode
|| __TEXT.__text __ZNK3icu18DateIntervalFormat19getDateIntervalInfoEv
|| __TEXT.__text __ZNK3icu18DateIntervalFormat5cloneEv
|| __TEXT.__text __ZNK3icu18DateIntervalFormat6formatEPKNS_12DateIntervalERNS_13UnicodeStringERNS_13FieldPositionER10UErrorCode
|| __TEXT.__text __ZNK3icu18DateIntervalFormat6formatERKNS_11FormattableERNS_13UnicodeStringERNS_13FieldPositionER10UErrorCode
|| __TEXT.__text __ZNK3icu18DateIntervalFormat6formatERNS_8CalendarES2_RNS_13UnicodeStringERNS_13FieldPositionER10UErrorCode
|| __TEXT.__text __ZNK3icu18DateIntervalFormateqERKNS_6FormatE
|| __TEXT.__text __ZNK3icu18TimeZoneTransition17getDynamicClassIDEv
|| __TEXT.__text __ZNK3icu18TimeZoneTransition5cloneEv
|| __TEXT.__text __ZNK3icu18TimeZoneTransition5getToEv
|| __TEXT.__text __ZNK3icu18TimeZoneTransition7getFromEv
|| __TEXT.__text __ZNK3icu18TimeZoneTransition7getTimeEv
|| __TEXT.__text __ZNK3icu18TimeZoneTransitioneqERKS0_
|| __TEXT.__text __ZNK3icu18TimeZoneTransitionneERKS0_
|| __TEXT.__text __ZNK3icu18UStringEnumeration17getDynamicClassIDEv
|| __TEXT.__text __ZNK3icu18UStringEnumeration5countER10UErrorCode
|| __TEXT.__text __ZNK3icu18UnicodeSetIterator17getDynamicClassIDEv
|| __TEXT.__text __ZNK3icu19CollationRuleParser11skipCommentEi
|| __TEXT.__text __ZNK3icu19CollationRuleParser14skipWhiteSpaceEi
|| __TEXT.__text __ZNK3icu19CollationRuleParser9readWordsEiRNS_13UnicodeStringE
|| __TEXT.__text __ZNK3icu19FilteredNormalizer210quickCheckERKNS_13UnicodeStringER10UErrorCode
|| __TEXT.__text __ZNK3icu19FilteredNormalizer211composePairEii
|| __TEXT.__text __ZNK3icu19FilteredNormalizer212isNormalizedERKNS_13UnicodeStringER10UErrorCode
|| __TEXT.__text __ZNK3icu19FilteredNormalizer213normalizeUTF8EjNS_11StringPieceERNS_8ByteSinkEPNS_5EditsER10UErrorCode
|| __TEXT.__text __ZNK3icu19FilteredNormalizer213normalizeUTF8EjPKciRNS_8ByteSinkEPNS_5EditsE17USetSpanConditionR10UErrorCode
|| __TEXT.__text __ZNK3icu19FilteredNormalizer216getDecompositionEiRNS_13UnicodeStringE
|| __TEXT.__text __ZNK3icu19FilteredNormalizer216hasBoundaryAfterEi
|| __TEXT.__text __ZNK3icu19FilteredNormalizer216isNormalizedUTF8ENS_11StringPieceER10UErrorCode
|| __TEXT.__text __ZNK3icu19FilteredNormalizer217getCombiningClassEi
|| __TEXT.__text __ZNK3icu19FilteredNormalizer217hasBoundaryBeforeEi
|| __TEXT.__text __ZNK3icu19FilteredNormalizer217spanQuickCheckYesERKNS_13UnicodeStringER10UErrorCode
|| __TEXT.__text __ZNK3icu19FilteredNormalizer219getRawDecompositionEiRNS_13UnicodeStringE
|| __TEXT.__text __ZNK3icu19FilteredNormalizer224normalizeSecondAndAppendERNS_13UnicodeStringERKS1_R10UErrorCode
|| __TEXT.__text __ZNK3icu19FilteredNormalizer224normalizeSecondAndAppendERNS_13UnicodeStringERKS1_aR10UErrorCode
|| __TEXT.__text __ZNK3icu19FilteredNormalizer26appendERNS_13UnicodeStringERKS1_R10UErrorCode
|| __TEXT.__text __ZNK3icu19FilteredNormalizer27isInertEi
|| __TEXT.__text __ZNK3icu19FilteredNormalizer29normalizeERKNS_13UnicodeStringERS1_17USetSpanConditionR10UErrorCode
|| __TEXT.__text __ZNK3icu19FilteredNormalizer29normalizeERKNS_13UnicodeStringERS1_R10UErrorCode
|| __TEXT.__text __ZNK3icu19InitialTimeZoneRule12getNextStartEdiiaRd
|| __TEXT.__text __ZNK3icu19InitialTimeZoneRule13getFinalStartEiiRd
|| __TEXT.__text __ZNK3icu19InitialTimeZoneRule13getFirstStartEiiRd
|| __TEXT.__text __ZNK3icu19InitialTimeZoneRule14isEquivalentToERKNS_12TimeZoneRuleE
|| __TEXT.__text __ZNK3icu19InitialTimeZoneRule16getPreviousStartEdiiaRd
|| __TEXT.__text __ZNK3icu19InitialTimeZoneRule17getDynamicClassIDEv
|| __TEXT.__text __ZNK3icu19InitialTimeZoneRule5cloneEv
|| __TEXT.__text __ZNK3icu19InitialTimeZoneRuleeqERKNS_12TimeZoneRuleE
|| __TEXT.__text __ZNK3icu19InitialTimeZoneRuleneERKNS_12TimeZoneRuleE
|| __TEXT.__text __ZNK3icu20CollationDataBuilder10isAssignedEi
|| __TEXT.__text __ZNK3icu20CollationDataBuilder11getSingleCEEiR10UErrorCode
|| __TEXT.__text __ZNK3icu20CollationDataBuilder21getCE32FromOffsetCE32Eaij
|| __TEXT.__text __ZNK3icu20CollationDataBuilder22isCompressibleLeadByteEj
|| __TEXT.__text __ZNK3icu20CollationDataBuilder24getLongPrimaryIfSingleCEEi
|| __TEXT.__text __ZNK3icu20CompactDecimalFormat13parseCurrencyERKNS_13UnicodeStringERNS_13ParsePositionE
|| __TEXT.__text __ZNK3icu20CompactDecimalFormat17getDynamicClassIDEv
|| __TEXT.__text __ZNK3icu20CompactDecimalFormat5cloneEv
|| __TEXT.__text __ZNK3icu20CompactDecimalFormat5parseERKNS_13UnicodeStringERNS_11FormattableER10UErrorCode
|| __TEXT.__text __ZNK3icu20CompactDecimalFormat5parseERKNS_13UnicodeStringERNS_11FormattableERNS_13ParsePositionE
|| __TEXT.__text __ZNK3icu20DecimalFormatSymbols17getDynamicClassIDEv
|| __TEXT.__text __ZNK3icu20DecimalFormatSymbols28getPatternForCurrencySpacingE16UCurrencySpacingaR10UErrorCode
|| __TEXT.__text __ZNK3icu20DecimalFormatSymbols9getLocaleE18ULocDataLocaleTypeR10UErrorCode
|| __TEXT.__text __ZNK3icu20DecimalFormatSymbolseqERKS0_
|| __TEXT.__text __ZNK3icu20TimeZoneGenericNames13findBestMatchERKNS_13UnicodeStringEijRS1_R23UTimeZoneFormatTimeTypeR10UErrorCode
|| __TEXT.__text __ZNK3icu20TimeZoneGenericNames14getDisplayNameERKNS_8TimeZoneE24UTimeZoneGenericNameTypedRNS_13UnicodeStringE
|| __TEXT.__text __ZNK3icu20TimeZoneGenericNames22getGenericLocationNameERKNS_13UnicodeStringERS1_
|| __TEXT.__text __ZNK3icu20TimeZoneGenericNames5cloneEv
|| __TEXT.__text __ZNK3icu20TimeZoneGenericNameseqERKS0_
|| __TEXT.__text __ZNK3icu21CollationRootElements11findPrimaryEj
|| __TEXT.__text __ZNK3icu21CollationRootElements15getPrimaryAfterEjia
|| __TEXT.__text __ZNK3icu21CollationRootElements16getPrimaryBeforeEja
|| __TEXT.__text __ZNK3icu21CollationRootElements16getTertiaryAfterEijj
|| __TEXT.__text __ZNK3icu21CollationRootElements17getSecondaryAfterEij
|| __TEXT.__text __ZNK3icu21CollationRootElements17getTertiaryBeforeEjjj
|| __TEXT.__text __ZNK3icu21CollationRootElements18getSecondaryBeforeEjj
|| __TEXT.__text __ZNK3icu21CollationRootElements23lastCEWithPrimaryBeforeEj
|| __TEXT.__text __ZNK3icu21CollationRootElements24getFirstSecTerForPrimaryEi
|| __TEXT.__text __ZNK3icu21CollationRootElements25firstCEWithPrimaryAtLeastEj
|| __TEXT.__text __ZNK3icu21CollationRootElements5findPEj
|| __TEXT.__text __ZNK3icu21FieldPositionIteratoreqERKS0_
|| __TEXT.__text __ZNK3icu21FormattedDateInterval12nextPositionERNS_24ConstrainedFieldPositionER10UErrorCode
|| __TEXT.__text __ZNK3icu21FormattedDateInterval12toTempStringER10UErrorCode
|| __TEXT.__text __ZNK3icu21FormattedDateInterval8appendToERNS_10AppendableER10UErrorCode
|| __TEXT.__text __ZNK3icu21FormattedDateInterval8toStringER10UErrorCode
|| __TEXT.__text __ZNK3icu21RuleBasedNumberFormat11findRuleSetERKNS_13UnicodeStringER10UErrorCode
|| __TEXT.__text __ZNK3icu21RuleBasedNumberFormat11getCollatorEv
|| __TEXT.__text __ZNK3icu21RuleBasedNumberFormat14getRuleSetNameEi
|| __TEXT.__text __ZNK3icu21RuleBasedNumberFormat15getRoundingModeEv
|| __TEXT.__text __ZNK3icu21RuleBasedNumberFormat17getDefaultNaNRuleEv
|| __TEXT.__text __ZNK3icu21RuleBasedNumberFormat17getDynamicClassIDEv
|| __TEXT.__text __ZNK3icu21RuleBasedNumberFormat18createPluralFormatE11UPluralTypeRKNS_13UnicodeStringER10UErrorCode
|| __TEXT.__text __ZNK3icu21RuleBasedNumberFormat21getDefaultRuleSetNameEv
|| __TEXT.__text __ZNK3icu21RuleBasedNumberFormat22getDefaultInfinityRuleEv
|| __TEXT.__text __ZNK3icu21RuleBasedNumberFormat23getDecimalFormatSymbolsEv
|| __TEXT.__text __ZNK3icu21RuleBasedNumberFormat23getNumberOfRuleSetNamesEv
|| __TEXT.__text __ZNK3icu21RuleBasedNumberFormat27getRuleSetDisplayNameLocaleEiR10UErrorCode
|| __TEXT.__text __ZNK3icu21RuleBasedNumberFormat30adjustForCapitalizationContextEiRNS_13UnicodeStringER10UErrorCode
|| __TEXT.__text __ZNK3icu21RuleBasedNumberFormat36getNumberOfRuleSetDisplayNameLocalesEv
|| __TEXT.__text __ZNK3icu21RuleBasedNumberFormat5cloneEv
|| __TEXT.__text __ZNK3icu21RuleBasedNumberFormat5parseERKNS_13UnicodeStringERNS_11FormattableERNS_13ParsePositionE
|| __TEXT.__text __ZNK3icu21RuleBasedNumberFormat6formatERKNS_6number4impl15DecimalQuantityERNS_13UnicodeStringEPNS_21FieldPositionIteratorER10UErrorCode
|| __TEXT.__text __ZNK3icu21RuleBasedNumberFormat6formatERKNS_6number4impl15DecimalQuantityERNS_13UnicodeStringERNS_13FieldPositionER10UErrorCode
|| __TEXT.__text __ZNK3icu21RuleBasedNumberFormat6formatEdRKNS_13UnicodeStringERS1_RNS_13FieldPositionER10UErrorCode
|| __TEXT.__text __ZNK3icu21RuleBasedNumberFormat6formatEdRNS_13UnicodeStringERNS_13FieldPositionE
|| __TEXT.__text __ZNK3icu21RuleBasedNumberFormat6formatEdRNS_9NFRuleSetERNS_13UnicodeStringER10UErrorCode
|| __TEXT.__text __ZNK3icu21RuleBasedNumberFormat6formatEiRKNS_13UnicodeStringERS1_RNS_13FieldPositionER10UErrorCode
|| __TEXT.__text __ZNK3icu21RuleBasedNumberFormat6formatEiRNS_13UnicodeStringERNS_13FieldPositionE
|| __TEXT.__text __ZNK3icu21RuleBasedNumberFormat6formatExPNS_9NFRuleSetERNS_13UnicodeStringER10UErrorCode
|| __TEXT.__text __ZNK3icu21RuleBasedNumberFormat6formatExRKNS_13UnicodeStringERS1_RNS_13FieldPositionER10UErrorCode
|| __TEXT.__text __ZNK3icu21RuleBasedNumberFormat6formatExRNS_13UnicodeStringERNS_13FieldPositionE
|| __TEXT.__text __ZNK3icu21RuleBasedNumberFormat8getRulesEv
|| __TEXT.__text __ZNK3icu21RuleBasedNumberFormateqERKNS_6FormatE
|| __TEXT.__text __ZNK3icu21TimeArrayTimeZoneRule11getTimeTypeEv
|| __TEXT.__text __ZNK3icu21TimeArrayTimeZoneRule12getNextStartEdiiaRd
|| __TEXT.__text __ZNK3icu21TimeArrayTimeZoneRule13getFinalStartEiiRd
|| __TEXT.__text __ZNK3icu21TimeArrayTimeZoneRule13getFirstStartEiiRd
|| __TEXT.__text __ZNK3icu21TimeArrayTimeZoneRule14getStartTimeAtEiRd
|| __TEXT.__text __ZNK3icu21TimeArrayTimeZoneRule14isEquivalentToERKNS_12TimeZoneRuleE
|| __TEXT.__text __ZNK3icu21TimeArrayTimeZoneRule15countStartTimesEv
|| __TEXT.__text __ZNK3icu21TimeArrayTimeZoneRule16getPreviousStartEdiiaRd
|| __TEXT.__text __ZNK3icu21TimeArrayTimeZoneRule17getDynamicClassIDEv
|| __TEXT.__text __ZNK3icu21TimeArrayTimeZoneRule5cloneEv
|| __TEXT.__text __ZNK3icu21TimeArrayTimeZoneRule6getUTCEdii
|| __TEXT.__text __ZNK3icu21TimeArrayTimeZoneRuleeqERKNS_12TimeZoneRuleE
|| __TEXT.__text __ZNK3icu21TimeArrayTimeZoneRuleneERKNS_12TimeZoneRuleE
|| __TEXT.__text __ZNK3icu21UTF8CollationIterator25forbidSurrogateCodePointsEv
|| __TEXT.__text __ZNK3icu21UTF8CollationIterator9getOffsetEv
|| __TEXT.__text __ZNK3icu22BytesDictionaryMatcher7getTypeEv
|| __TEXT.__text __ZNK3icu22BytesDictionaryMatcher7matchesEP5UTextiiPiS3_S3_S3_
|| __TEXT.__text __ZNK3icu22BytesDictionaryMatcher9transformEi
|| __TEXT.__text __ZNK3icu22CompoundTransliterator12getTargetSetERNS_10UnicodeSetE
|| __TEXT.__text __ZNK3icu22CompoundTransliterator17getDynamicClassIDEv
|| __TEXT.__text __ZNK3icu22CompoundTransliterator17getTransliteratorEi
|| __TEXT.__text __ZNK3icu22CompoundTransliterator18handleGetSourceSetERNS_10UnicodeSetE
|| __TEXT.__text __ZNK3icu22CompoundTransliterator19handleTransliterateERNS_11ReplaceableER14UTransPositiona
|| __TEXT.__text __ZNK3icu22CompoundTransliterator5cloneEv
|| __TEXT.__text __ZNK3icu22CompoundTransliterator7toRulesERNS_13UnicodeStringEa
|| __TEXT.__text __ZNK3icu22CompoundTransliterator8getCountEv
|| __TEXT.__text __ZNK3icu22RuleBasedBreakIterator13getRuleStatusEv
|| __TEXT.__text __ZNK3icu22RuleBasedBreakIterator17getDynamicClassIDEv
|| __TEXT.__text __ZNK3icu22RuleBasedBreakIterator5cloneEv
|| __TEXT.__text __ZNK3icu22RuleBasedBreakIterator7currentEv
|| __TEXT.__text __ZNK3icu22RuleBasedBreakIterator7getTextEv
|| __TEXT.__text __ZNK3icu22RuleBasedBreakIterator8getRulesEv
|| __TEXT.__text __ZNK3icu22RuleBasedBreakIterator8getUTextEP5UTextR10UErrorCode
|| __TEXT.__text __ZNK3icu22RuleBasedBreakIterator8hashCodeEv
|| __TEXT.__text __ZNK3icu22RuleBasedBreakIteratoreqERKNS_13BreakIteratorE
|| __TEXT.__text __ZNK3icu22UCharCharacterIterator17getDynamicClassIDEv
|| __TEXT.__text __ZNK3icu22UCharCharacterIterator5cloneEv
|| __TEXT.__text __ZNK3icu22UCharCharacterIterator7currentEv
|| __TEXT.__text __ZNK3icu22UCharCharacterIterator8hashCodeEv
|| __TEXT.__text __ZNK3icu22UCharCharacterIterator9current32Ev
|| __TEXT.__text __ZNK3icu22UCharCharacterIteratoreqERKNS_24ForwardCharacterIteratorE
|| __TEXT.__text __ZNK3icu22UIterCollationIterator9getOffsetEv
|| __TEXT.__text __ZNK3icu22UTF16CollationIterator9getOffsetEv
|| __TEXT.__text __ZNK3icu22UTF16CollationIteratoreqERKNS_17CollationIteratorE
|| __TEXT.__text __ZNK3icu23StringCharacterIterator17getDynamicClassIDEv
|| __TEXT.__text __ZNK3icu23StringCharacterIterator5cloneEv
|| __TEXT.__text __ZNK3icu23StringCharacterIteratoreqERKNS_24ForwardCharacterIteratorE
|| __TEXT.__text __ZNK3icu23UCharsDictionaryMatcher7getTypeEv
|| __TEXT.__text __ZNK3icu23UCharsDictionaryMatcher7matchesEP5UTextiiPiS3_S3_S3_
|| __TEXT.__text __ZNK3icu24CollationElementIterator13strengthOrderEi
|| __TEXT.__text __ZNK3icu24CollationElementIterator15getMaxExpansionEi
|| __TEXT.__text __ZNK3icu24CollationElementIterator17getDynamicClassIDEv
|| __TEXT.__text __ZNK3icu24CollationElementIterator9getOffsetEv
|| __TEXT.__text __ZNK3icu24CollationElementIteratoreqERKS0_
|| __TEXT.__text __ZNK3icu24CollationElementIteratorneERKS0_
|| __TEXT.__text __ZNK3icu24ConstrainedFieldPosition12matchesFieldEii
|| __TEXT.__text __ZNK3icu24DateTimePatternGenerator10getDecimalEv
|| __TEXT.__text __ZNK3icu24DateTimePatternGenerator12getSkeletonsER10UErrorCode
|| __TEXT.__text __ZNK3icu24DateTimePatternGenerator15getTopBitNumberEi
|| __TEXT.__text __ZNK3icu24DateTimePatternGenerator15isCanonicalItemERKNS_13UnicodeStringE
|| __TEXT.__text __ZNK3icu24DateTimePatternGenerator16getBaseSkeletonsER10UErrorCode
|| __TEXT.__text __ZNK3icu24DateTimePatternGenerator17getAppendItemNameE21UDateTimePatternField
|| __TEXT.__text __ZNK3icu24DateTimePatternGenerator17getDateTimeFormatEv
|| __TEXT.__text __ZNK3icu24DateTimePatternGenerator17getDynamicClassIDEv
|| __TEXT.__text __ZNK3icu24DateTimePatternGenerator19getAppendItemFormatE21UDateTimePatternField
|| __TEXT.__text __ZNK3icu24DateTimePatternGenerator19getFieldDisplayNameE21UDateTimePatternField23UDateTimePGDisplayWidth
|| __TEXT.__text __ZNK3icu24DateTimePatternGenerator20isAvailableFormatSetERKNS_13UnicodeStringE
|| __TEXT.__text __ZNK3icu24DateTimePatternGenerator21getAppendFormatNumberEPKc
|| __TEXT.__text __ZNK3icu24DateTimePatternGenerator21getPatternForSkeletonERKNS_13UnicodeStringE
|| __TEXT.__text __ZNK3icu24DateTimePatternGenerator23getFieldAndWidthIndicesEPKcP23UDateTimePGDisplayWidth
|| __TEXT.__text __ZNK3icu24DateTimePatternGenerator5cloneEv
|| __TEXT.__text __ZNK3icu24DateTimePatternGeneratoreqERKS0_
|| __TEXT.__text __ZNK3icu24DateTimePatternGeneratorneERKS0_
|| __TEXT.__text __ZNK3icu24FCDUTF8CollationIterator11nextHasLcccEv
|| __TEXT.__text __ZNK3icu24FCDUTF8CollationIterator15previousHasTcccEv
|| __TEXT.__text __ZNK3icu24FCDUTF8CollationIterator9getOffsetEv
|| __TEXT.__text __ZNK3icu24RuleBasedBreakIterator5713getRuleStatusEv
|| __TEXT.__text __ZNK3icu24RuleBasedBreakIterator5717getDynamicClassIDEv
|| __TEXT.__text __ZNK3icu24RuleBasedBreakIterator575cloneEv
|| __TEXT.__text __ZNK3icu24RuleBasedBreakIterator577currentEv
|| __TEXT.__text __ZNK3icu24RuleBasedBreakIterator577getTextEv
|| __TEXT.__text __ZNK3icu24RuleBasedBreakIterator578getUTextEP5UTextR10UErrorCode
|| __TEXT.__text __ZNK3icu24RuleBasedBreakIterator578hashCodeEv
|| __TEXT.__text __ZNK3icu24RuleBasedBreakIterator57eqERKNS_13BreakIteratorE
|| __TEXT.__text __ZNK3icu25CollationFastLatinBuilder11inSameGroupEjj
|| __TEXT.__text __ZNK3icu25CollationFastLatinBuilder12encodeTwoCEsExx
|| __TEXT.__text __ZNK3icu25CollationFastLatinBuilder9getMiniCEEx
|| __TEXT.__text __ZNK3icu25FCDUIterCollationIterator9getOffsetEv
|| __TEXT.__text __ZNK3icu25FCDUTF16CollationIterator9getOffsetEv
|| __TEXT.__text __ZNK3icu25FCDUTF16CollationIteratoreqERKNS_17CollationIteratorE
|| __TEXT.__text __ZNK3icu25FormattedRelativeDateTime12nextPositionERNS_24ConstrainedFieldPositionER10UErrorCode
|| __TEXT.__text __ZNK3icu25FormattedRelativeDateTime12toTempStringER10UErrorCode
|| __TEXT.__text __ZNK3icu25FormattedRelativeDateTime8appendToERNS_10AppendableER10UErrorCode
|| __TEXT.__text __ZNK3icu25FormattedRelativeDateTime8toStringER10UErrorCode
|| __TEXT.__text __ZNK3icu25RelativeDateTimeFormatter10formatImplEd14UDateDirection17UDateRelativeUnitRNS_29FormattedRelativeDateTimeDataER10UErrorCode
|| __TEXT.__text __ZNK3icu25RelativeDateTimeFormatter13formatNumericEd21URelativeDateTimeUnitRNS_13UnicodeStringER10UErrorCode
|| __TEXT.__text __ZNK3icu25RelativeDateTimeFormatter13formatToValueE14UDateDirection17UDateAbsoluteUnitR10UErrorCode
|| __TEXT.__text __ZNK3icu25RelativeDateTimeFormatter13formatToValueEd14UDateDirection17UDateRelativeUnitR10UErrorCode
|| __TEXT.__text __ZNK3icu25RelativeDateTimeFormatter13formatToValueEd21URelativeDateTimeUnitR10UErrorCode
|| __TEXT.__text __ZNK3icu25RelativeDateTimeFormatter14getFormatStyleEv
|| __TEXT.__text __ZNK3icu25RelativeDateTimeFormatter15getNumberFormatEv
|| __TEXT.__text __ZNK3icu25RelativeDateTimeFormatter16adjustForContextERNS_13UnicodeStringE
|| __TEXT.__text __ZNK3icu25RelativeDateTimeFormatter17formatNumericImplEd21URelativeDateTimeUnitRNS_29FormattedRelativeDateTimeDataER10UErrorCode
|| __TEXT.__text __ZNK3icu25RelativeDateTimeFormatter18combineDateAndTimeERKNS_13UnicodeStringES3_RS1_R10UErrorCode
|| __TEXT.__text __ZNK3icu25RelativeDateTimeFormatter18formatAbsoluteImplE14UDateDirection17UDateAbsoluteUnitRNS_29FormattedRelativeDateTimeDataER10UErrorCode
|| __TEXT.__text __ZNK3icu25RelativeDateTimeFormatter18formatRelativeImplEd21URelativeDateTimeUnitRNS_29FormattedRelativeDateTimeDataER10UErrorCode
|| __TEXT.__text __ZNK3icu25RelativeDateTimeFormatter20formatNumericToValueEd21URelativeDateTimeUnitR10UErrorCode
|| __TEXT.__text __ZNK3icu25RelativeDateTimeFormatter23checkNoAdjustForContextER10UErrorCode
|| __TEXT.__text __ZNK3icu25RelativeDateTimeFormatter24getCapitalizationContextEv
|| __TEXT.__text __ZNK3icu25RelativeDateTimeFormatter6formatE14UDateDirection17UDateAbsoluteUnitRNS_13UnicodeStringER10UErrorCode
|| __TEXT.__text __ZNK3icu25RelativeDateTimeFormatter6formatEd14UDateDirection17UDateRelativeUnitRNS_13UnicodeStringER10UErrorCode
|| __TEXT.__text __ZNK3icu25RelativeDateTimeFormatter6formatEd21URelativeDateTimeUnitRNS_13UnicodeStringER10UErrorCode
|| __TEXT.__text __ZNK3icu25ScientificNumberFormatter11MarkupStyle5cloneEv
|| __TEXT.__text __ZNK3icu25ScientificNumberFormatter11MarkupStyle6formatERKNS_13UnicodeStringERNS_21FieldPositionIteratorES4_RS2_R10UErrorCode
|| __TEXT.__text __ZNK3icu25ScientificNumberFormatter16SuperscriptStyle5cloneEv
|| __TEXT.__text __ZNK3icu25ScientificNumberFormatter16SuperscriptStyle6formatERKNS_13UnicodeStringERNS_21FieldPositionIteratorES4_RS2_R10UErrorCode
|| __TEXT.__text __ZNK3icu25ScientificNumberFormatter6formatERKNS_11FormattableERNS_13UnicodeStringER10UErrorCode
|| __TEXT.__text __ZNK3icu33PluralAvailableLocalesEnumeration5countER10UErrorCode
|| __TEXT.__text __ZNK3icu4CStrclEv
|| __TEXT.__text __ZNK3icu4IDNA16nameToASCII_UTF8ENS_11StringPieceERNS_8ByteSinkERNS_8IDNAInfoER10UErrorCode
|| __TEXT.__text __ZNK3icu4IDNA17labelToASCII_UTF8ENS_11StringPieceERNS_8ByteSinkERNS_8IDNAInfoER10UErrorCode
|| __TEXT.__text __ZNK3icu4IDNA17nameToUnicodeUTF8ENS_11StringPieceERNS_8ByteSinkERNS_8IDNAInfoER10UErrorCode
|| __TEXT.__text __ZNK3icu4IDNA18labelToUnicodeUTF8ENS_11StringPieceERNS_8ByteSinkERNS_8IDNAInfoER10UErrorCode
|| __TEXT.__text __ZNK3icu5Edits8Iterator8toStringERNS_13UnicodeStringE
|| __TEXT.__text __ZNK3icu6Format11getLocaleIDE18ULocDataLocaleTypeR10UErrorCode
|| __TEXT.__text __ZNK3icu6Format11parseObjectERKNS_13UnicodeStringERNS_11FormattableER10UErrorCode
|| __TEXT.__text __ZNK3icu6Format6formatERKNS_11FormattableERNS_13UnicodeStringEPNS_21FieldPositionIteratorER10UErrorCode
|| __TEXT.__text __ZNK3icu6Format6formatERKNS_11FormattableERNS_13UnicodeStringER10UErrorCode
|| __TEXT.__text __ZNK3icu6Format9getLocaleE18ULocDataLocaleTypeR10UErrorCode
|| __TEXT.__text __ZNK3icu6FormateqERKS0_
|| __TEXT.__text __ZNK3icu6Locale11getBaseNameEv
|| __TEXT.__text __ZNK3icu6Locale13isRightToLeftEv
|| __TEXT.__text __ZNK3icu6Locale13toLanguageTagERNS_8ByteSinkER10UErrorCode
|| __TEXT.__text __ZNK3icu6Locale14createKeywordsER10UErrorCode
|| __TEXT.__text __ZNK3icu6Locale14getDisplayNameERKS0_RNS_13UnicodeStringE
|| __TEXT.__text __ZNK3icu6Locale14getDisplayNameERNS_13UnicodeStringE
|| __TEXT.__text __ZNK3icu6Locale14getISO3CountryEv
|| __TEXT.__text __ZNK3icu6Locale15getISO3LanguageEv
|| __TEXT.__text __ZNK3icu6Locale15getKeywordValueENS_11StringPieceERNS_8ByteSinkER10UErrorCode
|| __TEXT.__text __ZNK3icu6Locale15getKeywordValueEPKcPciR10UErrorCode
|| __TEXT.__text __ZNK3icu6Locale16getDisplayScriptERKS0_RNS_13UnicodeStringE
|| __TEXT.__text __ZNK3icu6Locale16getDisplayScriptERNS_13UnicodeStringE
|| __TEXT.__text __ZNK3icu6Locale17getDisplayCountryERKS0_RNS_13UnicodeStringE
|| __TEXT.__text __ZNK3icu6Locale17getDisplayCountryERNS_13UnicodeStringE
|| __TEXT.__text __ZNK3icu6Locale17getDisplayVariantERKS0_RNS_13UnicodeStringE
|| __TEXT.__text __ZNK3icu6Locale17getDisplayVariantERNS_13UnicodeStringE
|| __TEXT.__text __ZNK3icu6Locale17getDynamicClassIDEv
|| __TEXT.__text __ZNK3icu6Locale18getDisplayLanguageERKS0_RNS_13UnicodeStringE
|| __TEXT.__text __ZNK3icu6Locale18getDisplayLanguageERNS_13UnicodeStringE
|| __TEXT.__text __ZNK3icu6Locale21createUnicodeKeywordsER10UErrorCode
|| __TEXT.__text __ZNK3icu6Locale22getUnicodeKeywordValueENS_11StringPieceERNS_8ByteSinkER10UErrorCode
|| __TEXT.__text __ZNK3icu6Locale5cloneEv
|| __TEXT.__text __ZNK3icu6Locale7getLCIDEv
|| __TEXT.__text __ZNK3icu6Locale8hashCodeEv
|| __TEXT.__text __ZNK3icu6LocaleeqERKS0_
|| __TEXT.__text __ZNK3icu6NoUnit17getDynamicClassIDEv
|| __TEXT.__text __ZNK3icu6NoUnit5cloneEv
|| __TEXT.__text __ZNK3icu6Region13getRegionCodeEv
|| __TEXT.__text __ZNK3icu6Region14getNumericCodeEv
|| __TEXT.__text __ZNK3icu6Region18getPreferredValuesER10UErrorCode
|| __TEXT.__text __ZNK3icu6Region19getContainedRegionsE11URegionTypeR10UErrorCode
|| __TEXT.__text __ZNK3icu6Region19getContainedRegionsER10UErrorCode
|| __TEXT.__text __ZNK3icu6Region19getContainingRegionE11URegionType
|| __TEXT.__text __ZNK3icu6Region19getContainingRegionEv
|| __TEXT.__text __ZNK3icu6Region7getTypeEv
|| __TEXT.__text __ZNK3icu6Region8containsERKS0_
|| __TEXT.__text __ZNK3icu6RegioneqERKS0_
|| __TEXT.__text __ZNK3icu6RegionneERKS0_
|| __TEXT.__text __ZNK3icu6UStack17getDynamicClassIDEv
|| __TEXT.__text __ZNK3icu6UStack6searchEPv
|| __TEXT.__text __ZNK3icu6number12IntegerWidth5applyERNS0_4impl15DecimalQuantityER10UErrorCode
|| __TEXT.__text __ZNK3icu6number12IntegerWidtheqERKS1_
|| __TEXT.__text __ZNK3icu6number15FormattedNumber12nextPositionERNS_24ConstrainedFieldPositionER10UErrorCode
|| __TEXT.__text __ZNK3icu6number15FormattedNumber12toTempStringER10UErrorCode
|| __TEXT.__text __ZNK3icu6number15FormattedNumber17nextFieldPositionERNS_13FieldPositionER10UErrorCode
|| __TEXT.__text __ZNK3icu6number15FormattedNumber18getDecimalQuantityERNS0_4impl15DecimalQuantityER10UErrorCode
|| __TEXT.__text __ZNK3icu6number15FormattedNumber20getAllFieldPositionsERNS_21FieldPositionIteratorER10UErrorCode
|| __TEXT.__text __ZNK3icu6number15FormattedNumber24getAllFieldPositionsImplERNS_28FieldPositionIteratorHandlerER10UErrorCode
|| __TEXT.__text __ZNK3icu6number15FormattedNumber8appendToERNS_10AppendableER10UErrorCode
|| __TEXT.__text __ZNK3icu6number15FormattedNumber8toStringER10UErrorCode
|| __TEXT.__text __ZNK3icu6number17CurrencyPrecision12withCurrencyERKNS_12CurrencyUnitE
|| __TEXT.__text __ZNK3icu6number17FractionPrecision13withMaxDigitsEi
|| __TEXT.__text __ZNK3icu6number17FractionPrecision13withMinDigitsEi
|| __TEXT.__text __ZNK3icu6number18IncrementPrecision15withMinFractionEi
|| __TEXT.__text __ZNK3icu6number18ScientificNotation21withMinExponentDigitsEi
|| __TEXT.__text __ZNK3icu6number18ScientificNotation23withExponentSignDisplayE18UNumberSignDisplay
|| __TEXT.__text __ZNK3icu6number20FormattedNumberRange12nextPositionERNS_24ConstrainedFieldPositionER10UErrorCode
|| __TEXT.__text __ZNK3icu6number20FormattedNumberRange12toTempStringER10UErrorCode
|| __TEXT.__text __ZNK3icu6number20FormattedNumberRange15getFirstDecimalER10UErrorCode
|| __TEXT.__text __ZNK3icu6number20FormattedNumberRange16getSecondDecimalER10UErrorCode
|| __TEXT.__text __ZNK3icu6number20FormattedNumberRange17getIdentityResultER10UErrorCode
|| __TEXT.__text __ZNK3icu6number20FormattedNumberRange17nextFieldPositionERNS_13FieldPositionER10UErrorCode
|| __TEXT.__text __ZNK3icu6number20FormattedNumberRange20getAllFieldPositionsERNS_21FieldPositionIteratorER10UErrorCode
|| __TEXT.__text __ZNK3icu6number20FormattedNumberRange24getAllFieldPositionsImplERNS_28FieldPositionIteratorHandlerER10UErrorCode
|| __TEXT.__text __ZNK3icu6number20FormattedNumberRange8appendToERNS_10AppendableER10UErrorCode
|| __TEXT.__text __ZNK3icu6number20FormattedNumberRange8toStringER10UErrorCode
|| __TEXT.__text __ZNK3icu6number24LocalizedNumberFormatter10formatImplEPNS0_4impl20UFormattedNumberDataER10UErrorCode
|| __TEXT.__text __ZNK3icu6number24LocalizedNumberFormatter11getCompiledEv
|| __TEXT.__text __ZNK3icu6number24LocalizedNumberFormatter12formatDoubleEdR10UErrorCode
|| __TEXT.__text __ZNK3icu6number24LocalizedNumberFormatter12getAffixImplEbbRNS_13UnicodeStringER10UErrorCode
|| __TEXT.__text __ZNK3icu6number24LocalizedNumberFormatter12getCallCountEv
|| __TEXT.__text __ZNK3icu6number24LocalizedNumberFormatter13formatDecimalENS_11StringPieceER10UErrorCode
|| __TEXT.__text __ZNK3icu6number24LocalizedNumberFormatter15computeCompiledER10UErrorCode
|| __TEXT.__text __ZNK3icu6number24LocalizedNumberFormatter21formatDecimalQuantityERKNS0_4impl15DecimalQuantityER10UErrorCode
|| __TEXT.__text __ZNK3icu6number24LocalizedNumberFormatter8toFormatER10UErrorCode
|| __TEXT.__text __ZNK3icu6number24LocalizedNumberFormatter9formatIntExR10UErrorCode
|| __TEXT.__text __ZNK3icu6number29LocalizedNumberRangeFormatter10formatImplERNS0_4impl25UFormattedNumberRangeDataEbR10UErrorCode
|| __TEXT.__text __ZNK3icu6number29LocalizedNumberRangeFormatter12getFormatterER10UErrorCode
|| __TEXT.__text __ZNK3icu6number29LocalizedNumberRangeFormatter22formatFormattableRangeERKNS_11FormattableES4_R10UErrorCode
|| __TEXT.__text __ZNK3icu6number4impl14SimpleModifier13containsFieldE19UNumberFormatFields
|| __TEXT.__text __ZNK3icu6number4impl14SimpleModifier13getParametersERNS1_8Modifier10ParametersE
|| __TEXT.__text __ZNK3icu6number4impl14SimpleModifier15getPrefixLengthEv
|| __TEXT.__text __ZNK3icu6number4impl14SimpleModifier17getCodePointCountEv
|| __TEXT.__text __ZNK3icu6number4impl14SimpleModifier20formatAsPrefixSuffixERNS1_19NumberStringBuilderEiiR10UErrorCode
|| __TEXT.__text __ZNK3icu6number4impl14SimpleModifier22semanticallyEquivalentERKNS1_8ModifierE
|| __TEXT.__text __ZNK3icu6number4impl14SimpleModifier5applyERNS1_19NumberStringBuilderEiiR10UErrorCode
|| __TEXT.__text __ZNK3icu6number4impl14SimpleModifier8isStrongEv
|| __TEXT.__text __ZNK3icu6number4impl14SymbolsWrapper17isNumberingSystemEv
|| __TEXT.__text __ZNK3icu6number4impl14SymbolsWrapper18getNumberingSystemEv
|| __TEXT.__text __ZNK3icu6number4impl14SymbolsWrapper22isDecimalFormatSymbolsEv
|| __TEXT.__text __ZNK3icu6number4impl14SymbolsWrapper23getDecimalFormatSymbolsEv
|| __TEXT.__text __ZNK3icu6number4impl15CurrencySymbols10getIsoCodeEv
|| __TEXT.__text __ZNK3icu6number4impl15CurrencySymbols10loadSymbolE14UCurrNameStyleR10UErrorCode
|| __TEXT.__text __ZNK3icu6number4impl15CurrencySymbols13getPluralNameENS_14StandardPlural4FormER10UErrorCode
|| __TEXT.__text __ZNK3icu6number4impl15CurrencySymbols17getCurrencySymbolER10UErrorCode
|| __TEXT.__text __ZNK3icu6number4impl15CurrencySymbols21getIntlCurrencySymbolER10UErrorCode
|| __TEXT.__text __ZNK3icu6number4impl15CurrencySymbols23getNarrowCurrencySymbolER10UErrorCode
|| __TEXT.__text __ZNK3icu6number4impl15DecimalQuantity10fitsInLongEb
|| __TEXT.__text __ZNK3icu6number4impl15DecimalQuantity10isInfiniteEv
|| __TEXT.__text __ZNK3icu6number4impl15DecimalQuantity10isNegativeEv
|| __TEXT.__text __ZNK3icu6number4impl15DecimalQuantity11checkHealthEv
|| __TEXT.__text __ZNK3icu6number4impl15DecimalQuantity11getDigitPosEi
|| __TEXT.__text __ZNK3icu6number4impl15DecimalQuantity12getMagnitudeEv
|| __TEXT.__text __ZNK3icu6number4impl15DecimalQuantity13fractionCountEv
|| __TEXT.__text __ZNK3icu6number4impl15DecimalQuantity13toPlainStringEv
|| __TEXT.__text __ZNK3icu6number4impl15DecimalQuantity14toFractionLongEb
|| __TEXT.__text __ZNK3icu6number4impl15DecimalQuantity15hasIntegerValueEv
|| __TEXT.__text __ZNK3icu6number4impl15DecimalQuantity16getPluralOperandENS_13PluralOperandE
|| __TEXT.__text __ZNK3icu6number4impl15DecimalQuantity18toScientificStringEv
|| __TEXT.__text __ZNK3icu6number4impl15DecimalQuantity22getPositionFingerprintEv
|| __TEXT.__text __ZNK3icu6number4impl15DecimalQuantity24getLowerDisplayMagnitudeEv
|| __TEXT.__text __ZNK3icu6number4impl15DecimalQuantity24getUpperDisplayMagnitudeEv
|| __TEXT.__text __ZNK3icu6number4impl15DecimalQuantity33fractionCountWithoutTrailingZerosEv
|| __TEXT.__text __ZNK3icu6number4impl15DecimalQuantity5isNaNEv
|| __TEXT.__text __ZNK3icu6number4impl15DecimalQuantity6isZeroEv
|| __TEXT.__text __ZNK3icu6number4impl15DecimalQuantity6signumEv
|| __TEXT.__text __ZNK3icu6number4impl15DecimalQuantity6toLongEb
|| __TEXT.__text __ZNK3icu6number4impl15DecimalQuantity8getDigitEi
|| __TEXT.__text __ZNK3icu6number4impl15DecimalQuantity8toDecNumERNS1_6DecNumER10UErrorCode
|| __TEXT.__text __ZNK3icu6number4impl15DecimalQuantity8toDoubleEv
|| __TEXT.__text __ZNK3icu6number4impl15DecimalQuantity8toStringEv
|| __TEXT.__text __ZNK3icu6number4impl15DecimalQuantityeqERKS2_
|| __TEXT.__text __ZNK3icu6number4impl17ParsedPatternInfo12getEndpointsEi
|| __TEXT.__text __ZNK3icu6number4impl17ParsedPatternInfo15hasCurrencySignEv
|| __TEXT.__text __ZNK3icu6number4impl17ParsedPatternInfo18containsSymbolTypeENS1_16AffixPatternTypeER10UErrorCode
|| __TEXT.__text __ZNK3icu6number4impl17ParsedPatternInfo19positiveHasPlusSignEv
|| __TEXT.__text __ZNK3icu6number4impl17ParsedPatternInfo20negativeHasMinusSignEv
|| __TEXT.__text __ZNK3icu6number4impl17ParsedPatternInfo21hasNegativeSubpatternEv
|| __TEXT.__text __ZNK3icu6number4impl17ParsedPatternInfo6charAtEii
|| __TEXT.__text __ZNK3icu6number4impl17ParsedPatternInfo6lengthEi
|| __TEXT.__text __ZNK3icu6number4impl17ParsedPatternInfo7hasBodyEv
|| __TEXT.__text __ZNK3icu6number4impl17ParsedPatternInfo9getStringEi
|| __TEXT.__text __ZNK3icu6number4impl18ScientificModifier13containsFieldE19UNumberFormatFields
|| __TEXT.__text __ZNK3icu6number4impl18ScientificModifier13getParametersERNS1_8Modifier10ParametersE
|| __TEXT.__text __ZNK3icu6number4impl18ScientificModifier15getPrefixLengthEv
|| __TEXT.__text __ZNK3icu6number4impl18ScientificModifier17getCodePointCountEv
|| __TEXT.__text __ZNK3icu6number4impl18ScientificModifier22semanticallyEquivalentERKNS1_8ModifierE
|| __TEXT.__text __ZNK3icu6number4impl18ScientificModifier5applyERNS1_19NumberStringBuilderEiiR10UErrorCode
|| __TEXT.__text __ZNK3icu6number4impl18ScientificModifier8isStrongEv
|| __TEXT.__text __ZNK3icu6number4impl19NumberStringBuilder11codePointAtEi
|| __TEXT.__text __ZNK3icu6number4impl19NumberStringBuilder12nextPositionERNS_24ConstrainedFieldPositionEhR10UErrorCode
|| __TEXT.__text __ZNK3icu6number4impl19NumberStringBuilder13containsFieldEh
|| __TEXT.__text __ZNK3icu6number4impl19NumberStringBuilder13contentEqualsERKS2_
|| __TEXT.__text __ZNK3icu6number4impl19NumberStringBuilder13toDebugStringEv
|| __TEXT.__text __ZNK3icu6number4impl19NumberStringBuilder14codePointCountEv
|| __TEXT.__text __ZNK3icu6number4impl19NumberStringBuilder15codePointBeforeEi
|| __TEXT.__text __ZNK3icu6number4impl19NumberStringBuilder15toUnicodeStringEv
|| __TEXT.__text __ZNK3icu6number4impl19NumberStringBuilder16getLastCodePointEv
|| __TEXT.__text __ZNK3icu6number4impl19NumberStringBuilder17getFirstCodePointEv
|| __TEXT.__text __ZNK3icu6number4impl19NumberStringBuilder17nextFieldPositionERNS_13FieldPositionER10UErrorCode
|| __TEXT.__text __ZNK3icu6number4impl19NumberStringBuilder19toTempUnicodeStringEv
|| __TEXT.__text __ZNK3icu6number4impl19NumberStringBuilder20getAllFieldPositionsERNS_28FieldPositionIteratorHandlerER10UErrorCode
|| __TEXT.__text __ZNK3icu6number4impl19NumberStringBuilder5charsEv
|| __TEXT.__text __ZNK3icu6number4impl19NumberStringBuilder6lengthEv
|| __TEXT.__text __ZNK3icu6number4impl19NumberStringBuilder8trimBackEi
|| __TEXT.__text __ZNK3icu6number4impl19NumberStringBuilder9trimFrontEi
|| __TEXT.__text __ZNK3icu6number4impl21ConstantAffixModifier13containsFieldE19UNumberFormatFields
|| __TEXT.__text __ZNK3icu6number4impl21ConstantAffixModifier13getParametersERNS1_8Modifier10ParametersE
|| __TEXT.__text __ZNK3icu6number4impl21ConstantAffixModifier15getPrefixLengthEv
|| __TEXT.__text __ZNK3icu6number4impl21ConstantAffixModifier17getCodePointCountEv
|| __TEXT.__text __ZNK3icu6number4impl21ConstantAffixModifier22semanticallyEquivalentERKNS1_8ModifierE
|| __TEXT.__text __ZNK3icu6number4impl21ConstantAffixModifier5applyERNS1_19NumberStringBuilderEiiR10UErrorCode
|| __TEXT.__text __ZNK3icu6number4impl21ConstantAffixModifier8isStrongEv
|| __TEXT.__text __ZNK3icu6number4impl22MutablePatternModifier12needsPluralsEv
|| __TEXT.__text __ZNK3icu6number4impl22MutablePatternModifier13containsFieldE19UNumberFormatFields
|| __TEXT.__text __ZNK3icu6number4impl22MutablePatternModifier13getParametersERNS1_8Modifier10ParametersE
|| __TEXT.__text __ZNK3icu6number4impl22MutablePatternModifier15getPrefixLengthEv
|| __TEXT.__text __ZNK3icu6number4impl22MutablePatternModifier15processQuantityERNS1_15DecimalQuantityERNS1_10MicroPropsER10UErrorCode
|| __TEXT.__text __ZNK3icu6number4impl22MutablePatternModifier15toUnicodeStringEv
|| __TEXT.__text __ZNK3icu6number4impl22MutablePatternModifier17getCodePointCountEv
|| __TEXT.__text __ZNK3icu6number4impl22MutablePatternModifier22semanticallyEquivalentERKNS1_8ModifierE
|| __TEXT.__text __ZNK3icu6number4impl22MutablePatternModifier5applyERNS1_19NumberStringBuilderEiiR10UErrorCode
|| __TEXT.__text __ZNK3icu6number4impl22MutablePatternModifier8isStrongEv
|| __TEXT.__text __ZNK3icu6number4impl22MutablePatternModifier9getSymbolENS1_16AffixPatternTypeE
|| __TEXT.__text __ZNK3icu6number4impl23DecimalFormatProperties29equalsDefaultExceptFastFormatEv
|| __TEXT.__text __ZNK3icu6number4impl23DecimalFormatProperties7_equalsERKS2_b
|| __TEXT.__text __ZNK3icu6number4impl23MultiplierFormatHandler15processQuantityERNS1_15DecimalQuantityERNS1_10MicroPropsER10UErrorCode
|| __TEXT.__text __ZNK3icu6number4impl24ImmutablePatternModifier11getModifierEaNS_14StandardPlural4FormE
|| __TEXT.__text __ZNK3icu6number4impl24ImmutablePatternModifier13applyToMicrosERNS1_10MicroPropsERKNS1_15DecimalQuantityER10UErrorCode
|| __TEXT.__text __ZNK3icu6number4impl24ImmutablePatternModifier15processQuantityERNS1_15DecimalQuantityERNS1_10MicroPropsER10UErrorCode
|| __TEXT.__text __ZNK3icu6number4impl26ConstantMultiFieldModifier13containsFieldE19UNumberFormatFields
|| __TEXT.__text __ZNK3icu6number4impl26ConstantMultiFieldModifier13getParametersERNS1_8Modifier10ParametersE
|| __TEXT.__text __ZNK3icu6number4impl26ConstantMultiFieldModifier15getPrefixLengthEv
|| __TEXT.__text __ZNK3icu6number4impl26ConstantMultiFieldModifier17getCodePointCountEv
|| __TEXT.__text __ZNK3icu6number4impl26ConstantMultiFieldModifier22semanticallyEquivalentERKNS1_8ModifierE
|| __TEXT.__text __ZNK3icu6number4impl26ConstantMultiFieldModifier5applyERNS1_19NumberStringBuilderEiiR10UErrorCode
|| __TEXT.__text __ZNK3icu6number4impl26ConstantMultiFieldModifier8isStrongEv
|| __TEXT.__text __ZNK3icu6number4impl30CurrencySpacingEnabledModifier5applyERNS1_19NumberStringBuilderEiiR10UErrorCode
|| __TEXT.__text __ZNK3icu6number4impl32LocalizedNumberFormatterAsFormat11parseObjectERKNS_13UnicodeStringERNS_11FormattableERNS_13ParsePositionE
|| __TEXT.__text __ZNK3icu6number4impl32LocalizedNumberFormatterAsFormat17getDynamicClassIDEv
|| __TEXT.__text __ZNK3icu6number4impl32LocalizedNumberFormatterAsFormat18getNumberFormatterEv
|| __TEXT.__text __ZNK3icu6number4impl32LocalizedNumberFormatterAsFormat5cloneEv
|| __TEXT.__text __ZNK3icu6number4impl32LocalizedNumberFormatterAsFormat6formatERKNS_11FormattableERNS_13UnicodeStringEPNS_21FieldPositionIteratorER10UErrorCode
|| __TEXT.__text __ZNK3icu6number4impl32LocalizedNumberFormatterAsFormat6formatERKNS_11FormattableERNS_13UnicodeStringERNS_13FieldPositionER10UErrorCode
|| __TEXT.__text __ZNK3icu6number4impl32LocalizedNumberFormatterAsFormateqERKNS_6FormatE
|| __TEXT.__text __ZNK3icu6number4impl6DecNum10isNegativeEv
|| __TEXT.__text __ZNK3icu6number4impl6DecNum6isZeroEv
|| __TEXT.__text __ZNK3icu6number4impl6Padder11padAndApplyERKNS1_8ModifierES5_RNS1_19NumberStringBuilderEiiR10UErrorCode
|| __TEXT.__text __ZNK3icu6number4impl7Grouper10getPrimaryEv
|| __TEXT.__text __ZNK3icu6number4impl7Grouper12getSecondaryEv
|| __TEXT.__text __ZNK3icu6number4impl7Grouper15groupAtPositionEiRKNS1_15DecimalQuantityE
|| __TEXT.__text __ZNK3icu6number5Scale17applyReciprocalToERNS0_4impl15DecimalQuantityE
|| __TEXT.__text __ZNK3icu6number5Scale7applyToERNS0_4impl15DecimalQuantityE
|| __TEXT.__text __ZNK3icu6number9Precision12withCurrencyERKNS_12CurrencyUnitER10UErrorCode
|| __TEXT.__text __ZNK3icu7Measure17getDynamicClassIDEv
|| __TEXT.__text __ZNK3icu7Measure5cloneEv
|| __TEXT.__text __ZNK3icu7MeasureeqERKNS_7UObjectE
|| __TEXT.__text __ZNK3icu7UObject17getDynamicClassIDEv
|| __TEXT.__text __ZNK3icu7UVector10elementAtiEi
|| __TEXT.__text __ZNK3icu7UVector11containsAllERKS0_
|| __TEXT.__text __ZNK3icu7UVector12containsNoneERKS0_
|| __TEXT.__text __ZNK3icu7UVector17getDynamicClassIDEv
|| __TEXT.__text __ZNK3icu7UVector6equalsERKS0_
|| __TEXT.__text __ZNK3icu7UVector7indexOfE8UElementia
|| __TEXT.__text __ZNK3icu7UVector7indexOfEPvi
|| __TEXT.__text __ZNK3icu7UVector7indexOfEii
|| __TEXT.__text __ZNK3icu7UVector7toArrayEPPv
|| __TEXT.__text __ZNK3icu7UVector9elementAtEi
|| __TEXT.__text __ZNK3icu8Calendar10getMaximumE19UCalendarDateFields
|| __TEXT.__text __ZNK3icu8Calendar10getMaximumENS0_11EDateFieldsE
|| __TEXT.__text __ZNK3icu8Calendar10getMinimumE19UCalendarDateFields
|| __TEXT.__text __ZNK3icu8Calendar10getMinimumENS0_11EDateFieldsE
|| __TEXT.__text __ZNK3icu8Calendar10newerFieldE19UCalendarDateFieldsS1_
|| __TEXT.__text __ZNK3icu8Calendar11getLocaleIDE18ULocDataLocaleTypeR10UErrorCode
|| __TEXT.__text __ZNK3icu8Calendar11getTimeZoneEv
|| __TEXT.__text __ZNK3icu8Calendar11newestStampE19UCalendarDateFieldsS1_i
|| __TEXT.__text __ZNK3icu8Calendar14getRelatedYearER10UErrorCode
|| __TEXT.__text __ZNK3icu8Calendar14isEquivalentToERKS0_
|| __TEXT.__text __ZNK3icu8Calendar15getActualHelperE19UCalendarDateFieldsiiR10UErrorCode
|| __TEXT.__text __ZNK3icu8Calendar15getLeastMaximumE19UCalendarDateFields
|| __TEXT.__text __ZNK3icu8Calendar15getLeastMaximumENS0_11EDateFieldsE
|| __TEXT.__text __ZNK3icu8Calendar15getTimeInMillisER10UErrorCode
|| __TEXT.__text __ZNK3icu8Calendar16getActualMaximumE19UCalendarDateFieldsR10UErrorCode
|| __TEXT.__text __ZNK3icu8Calendar16getActualMinimumE19UCalendarDateFieldsR10UErrorCode
|| __TEXT.__text __ZNK3icu8Calendar16getActualMinimumENS0_11EDateFieldsER10UErrorCode
|| __TEXT.__text __ZNK3icu8Calendar16getBasicTimeZoneEv
|| __TEXT.__text __ZNK3icu8Calendar16getDayOfWeekTypeE19UCalendarDaysOfWeekR10UErrorCode
|| __TEXT.__text __ZNK3icu8Calendar17getFirstDayOfWeekER10UErrorCode
|| __TEXT.__text __ZNK3icu8Calendar17getFirstDayOfWeekEv
|| __TEXT.__text __ZNK3icu8Calendar18getGreatestMinimumE19UCalendarDateFields
|| __TEXT.__text __ZNK3icu8Calendar18getGreatestMinimumENS0_11EDateFieldsE
|| __TEXT.__text __ZNK3icu8Calendar19handleGetYearLengthEi
|| __TEXT.__text __ZNK3icu8Calendar20getWeekendTransitionE19UCalendarDaysOfWeekR10UErrorCode
|| __TEXT.__text __ZNK3icu8Calendar20handleGetMonthLengthEii
|| __TEXT.__text __ZNK3icu8Calendar23getFieldResolutionTableEv
|| __TEXT.__text __ZNK3icu8Calendar24getSkippedWallTimeOptionEv
|| __TEXT.__text __ZNK3icu8Calendar25getMinimalDaysInFirstWeekEv
|| __TEXT.__text __ZNK3icu8Calendar25getRepeatedWallTimeOptionEv
|| __TEXT.__text __ZNK3icu8Calendar34getImmediatePreviousZoneTransitionEdPdR10UErrorCode
|| __TEXT.__text __ZNK3icu8Calendar3getE19UCalendarDateFieldsR10UErrorCode
|| __TEXT.__text __ZNK3icu8Calendar5afterERKS0_R10UErrorCode
|| __TEXT.__text __ZNK3icu8Calendar5isSetE19UCalendarDateFields
|| __TEXT.__text __ZNK3icu8Calendar6beforeERKS0_R10UErrorCode
|| __TEXT.__text __ZNK3icu8Calendar6equalsERKS0_R10UErrorCode
|| __TEXT.__text __ZNK3icu8Calendar8getLimitE19UCalendarDateFieldsNS0_10ELimitTypeE
|| __TEXT.__text __ZNK3icu8Calendar9getLocaleE18ULocDataLocaleTypeR10UErrorCode
|| __TEXT.__text __ZNK3icu8Calendar9isLenientEv
|| __TEXT.__text __ZNK3icu8Calendar9isWeekendEdR10UErrorCode
|| __TEXT.__text __ZNK3icu8Calendar9isWeekendEv
|| __TEXT.__text __ZNK3icu8CalendareqERKS0_
|| __TEXT.__text __ZNK3icu8Collator11compareUTF8ERKNS_11StringPieceES3_R10UErrorCode
|| __TEXT.__text __ZNK3icu8Collator11getStrengthEv
|| __TEXT.__text __ZNK3icu8Collator14getMaxVariableEv
|| __TEXT.__text __ZNK3icu8Collator14getTailoredSetER10UErrorCode
|| __TEXT.__text __ZNK3icu8Collator14greaterOrEqualERKNS_13UnicodeStringES3_
|| __TEXT.__text __ZNK3icu8Collator15getReorderCodesEPiiR10UErrorCode
|| __TEXT.__text __ZNK3icu8Collator19internalCompareUTF8EPKciS2_iR10UErrorCode
|| __TEXT.__text __ZNK3icu8Collator23internalNextSortKeyPartEP13UCharIteratorPjPhiR10UErrorCode
|| __TEXT.__text __ZNK3icu8Collator32internalGetShortDefinitionStringEPKcPciR10UErrorCode
|| __TEXT.__text __ZNK3icu8Collator6equalsERKNS_13UnicodeStringES3_
|| __TEXT.__text __ZNK3icu8Collator7compareEPKDsiS2_i
|| __TEXT.__text __ZNK3icu8Collator7compareER13UCharIteratorS2_R10UErrorCode
|| __TEXT.__text __ZNK3icu8Collator7compareERKNS_13UnicodeStringES3_
|| __TEXT.__text __ZNK3icu8Collator7compareERKNS_13UnicodeStringES3_i
|| __TEXT.__text __ZNK3icu8Collator7greaterERKNS_13UnicodeStringES3_
|| __TEXT.__text __ZNK3icu8Collator9safeCloneEv
|| __TEXT.__text __ZNK3icu8CollatoreqERKS0_
|| __TEXT.__text __ZNK3icu8CollatorneERKS0_
|| __TEXT.__text __ZNK3icu8EraRules11getEraIndexEiiiR10UErrorCode
|| __TEXT.__text __ZNK3icu8EraRules12getStartDateEiRA3_iR10UErrorCode
|| __TEXT.__text __ZNK3icu8EraRules12getStartYearEiR10UErrorCode
|| __TEXT.__text __ZNK3icu8TimeUnit16getTimeUnitFieldEv
|| __TEXT.__text __ZNK3icu8TimeUnit17getDynamicClassIDEv
|| __TEXT.__text __ZNK3icu8TimeUnit5cloneEv
|| __TEXT.__text __ZNK3icu8TimeZone12hasSameRulesERKS0_
|| __TEXT.__text __ZNK3icu8TimeZone13getDSTSavingsEv
|| __TEXT.__text __ZNK3icu8TimeZone14getDisplayNameERKNS_6LocaleERNS_13UnicodeStringE
|| __TEXT.__text __ZNK3icu8TimeZone14getDisplayNameERNS_13UnicodeStringE
|| __TEXT.__text __ZNK3icu8TimeZone14getDisplayNameEaNS0_12EDisplayTypeERKNS_6LocaleERNS_13UnicodeStringE
|| __TEXT.__text __ZNK3icu8TimeZone14getDisplayNameEaNS0_12EDisplayTypeERNS_13UnicodeStringE
|| __TEXT.__text __ZNK3icu8TimeZone9getOffsetEdaRiS1_R10UErrorCode
|| __TEXT.__text __ZNK3icu8TimeZoneeqERKS0_
|| __TEXT.__text __ZNK3icu8numparse4impl12ParsedNumber10seenNumberEv
|| __TEXT.__text __ZNK3icu8numparse4impl12ParsedNumber19populateFormattableERNS_11FormattableEi
|| __TEXT.__text __ZNK3icu8numparse4impl12ParsedNumber7successEv
|| __TEXT.__text __ZNK3icu8numparse4impl12ParsedNumber9getDoubleER10UErrorCode
|| __TEXT.__text __ZNK3icu8numparse4impl13SeriesMatcher11postProcessERNS1_12ParsedNumberE
|| __TEXT.__text __ZNK3icu8numparse4impl13SeriesMatcher5matchERNS1_13StringSegmentERNS1_12ParsedNumberER10UErrorCode
|| __TEXT.__text __ZNK3icu8numparse4impl13SeriesMatcher9smokeTestERKNS1_13StringSegmentE
|| __TEXT.__text __ZNK3icu8numparse4impl13StringSegment10startsWithERKNS_10UnicodeSetE
|| __TEXT.__text __ZNK3icu8numparse4impl13StringSegment10startsWithERKNS_13UnicodeStringE
|| __TEXT.__text __ZNK3icu8numparse4impl13StringSegment10startsWithEi
|| __TEXT.__text __ZNK3icu8numparse4impl13StringSegment11codePointAtEi
|| __TEXT.__text __ZNK3icu8numparse4impl13StringSegment12getCodePointEv
|| __TEXT.__text __ZNK3icu8numparse4impl13StringSegment15toUnicodeStringEv
|| __TEXT.__text __ZNK3icu8numparse4impl13StringSegment19toTempUnicodeStringEv
|| __TEXT.__text __ZNK3icu8numparse4impl13StringSegment6charAtEi
|| __TEXT.__text __ZNK3icu8numparse4impl13StringSegment6lengthEv
|| __TEXT.__text __ZNK3icu8numparse4impl13StringSegment9getOffsetEv
|| __TEXT.__text __ZNK3icu8numparse4impl13StringSegmenteqERKNS_13UnicodeStringE
|| __TEXT.__text __ZNK3icu8numparse4impl13SymbolMatcher5matchERNS1_13StringSegmentERNS1_12ParsedNumberER10UErrorCode
|| __TEXT.__text __ZNK3icu8numparse4impl13SymbolMatcher6getSetEv
|| __TEXT.__text __ZNK3icu8numparse4impl13SymbolMatcher8toStringEv
|| __TEXT.__text __ZNK3icu8numparse4impl13SymbolMatcher9smokeTestERKNS1_13StringSegmentE
|| __TEXT.__text __ZNK3icu8numparse4impl14PercentMatcher10isDisabledERKNS1_12ParsedNumberE
|| __TEXT.__text __ZNK3icu8numparse4impl14PercentMatcher6acceptERNS1_13StringSegmentERNS1_12ParsedNumberE
|| __TEXT.__text __ZNK3icu8numparse4impl15PermilleMatcher10isDisabledERKNS1_12ParsedNumberE
|| __TEXT.__text __ZNK3icu8numparse4impl15PermilleMatcher6acceptERNS1_13StringSegmentERNS1_12ParsedNumberE
|| __TEXT.__text __ZNK3icu8numparse4impl15PlusSignMatcher10isDisabledERKNS1_12ParsedNumberE
|| __TEXT.__text __ZNK3icu8numparse4impl15PlusSignMatcher6acceptERNS1_13StringSegmentERNS1_12ParsedNumberE
|| __TEXT.__text __ZNK3icu8numparse4impl16MinusSignMatcher10isDisabledERKNS1_12ParsedNumberE
|| __TEXT.__text __ZNK3icu8numparse4impl16MinusSignMatcher6acceptERNS1_13StringSegmentERNS1_12ParsedNumberE
|| __TEXT.__text __ZNK3icu8numparse4impl16NumberParserImpl11parseGreedyERNS1_13StringSegmentERNS1_12ParsedNumberER10UErrorCode
|| __TEXT.__text __ZNK3icu8numparse4impl16NumberParserImpl13getParseFlagsEv
|| __TEXT.__text __ZNK3icu8numparse4impl16NumberParserImpl21parseLongestRecursiveERNS1_13StringSegmentERNS1_12ParsedNumberEiR10UErrorCode
|| __TEXT.__text __ZNK3icu8numparse4impl16NumberParserImpl5parseERKNS_13UnicodeStringEbRNS1_12ParsedNumberER10UErrorCode
|| __TEXT.__text __ZNK3icu8numparse4impl16NumberParserImpl5parseERKNS_13UnicodeStringEibRNS1_12ParsedNumberER10UErrorCode
|| __TEXT.__text __ZNK3icu8numparse4impl16NumberParserImpl8toStringEv
|| __TEXT.__text __ZNK3icu8numparse4impl17IgnorablesMatcher10isDisabledERKNS1_12ParsedNumberE
|| __TEXT.__text __ZNK3icu8numparse4impl17IgnorablesMatcher10isFlexibleEv
|| __TEXT.__text __ZNK3icu8numparse4impl17IgnorablesMatcher6acceptERNS1_13StringSegmentERNS1_12ParsedNumberE
|| __TEXT.__text __ZNK3icu8numparse4impl17IgnorablesMatcher8toStringEv
|| __TEXT.__text __ZNK3icu8numparse4impl18ArraySeriesMatcher3endEv
|| __TEXT.__text __ZNK3icu8numparse4impl18ArraySeriesMatcher5beginEv
|| __TEXT.__text __ZNK3icu8numparse4impl18ArraySeriesMatcher6lengthEv
|| __TEXT.__text __ZNK3icu8numparse4impl18ArraySeriesMatcher8toStringEv
|| __TEXT.__text __ZNK3icu8numparse4impl19AffixPatternMatcher10getPatternEv
|| __TEXT.__text __ZNK3icu8numparse4impl19AffixPatternMatchereqERKS2_
|| __TEXT.__text __ZNK3icu8numparse4impl23CombinedCurrencyMatcher13matchCurrencyERNS1_13StringSegmentERNS1_12ParsedNumberER10UErrorCode
|| __TEXT.__text __ZNK3icu8numparse4impl23CombinedCurrencyMatcher5matchERNS1_13StringSegmentERNS1_12ParsedNumberER10UErrorCode
|| __TEXT.__text __ZNK3icu8numparse4impl23CombinedCurrencyMatcher8toStringEv
|| __TEXT.__text __ZNK3icu8numparse4impl23CombinedCurrencyMatcher9smokeTestERKNS1_13StringSegmentE
|| __TEXT.__text __ZNK3icu9BytesTrie12getNextBytesERNS_8ByteSinkE
|| __TEXT.__text __ZNK3icu9BytesTrie7currentEv
|| __TEXT.__text __ZNK3icu9BytesTrie8Iterator7hasNextEv
|| __TEXT.__text __ZNK3icu9BytesTrie8Iterator9getStringEv
|| __TEXT.__text __ZNK3icu9ErrorCode13assertSuccessEv
|| __TEXT.__text __ZNK3icu9ErrorCode9errorNameEv
|| __TEXT.__text __ZNK3icu9ScriptSet10intersectsERKS0_
|| __TEXT.__text __ZNK3icu9ScriptSet10nextSetBitEi
|| __TEXT.__text __ZNK3icu9ScriptSet12countMembersEv
|| __TEXT.__text __ZNK3icu9ScriptSet14displayScriptsERNS_13UnicodeStringE
|| __TEXT.__text __ZNK3icu9ScriptSet4testE11UScriptCodeR10UErrorCode
|| __TEXT.__text __ZNK3icu9ScriptSet7isEmptyEv
|| __TEXT.__text __ZNK3icu9ScriptSet8containsERKS0_
|| __TEXT.__text __ZNK3icu9ScriptSet8hashCodeEv
|| __TEXT.__text __ZNK3icu9ScriptSeteqERKS0_
|| __TEXT.__text __ZNK3icu9UVector3211containsAllERKS0_
|| __TEXT.__text __ZNK3icu9UVector3212containsNoneERKS0_
|| __TEXT.__text __ZNK3icu9UVector3217getDynamicClassIDEv
|| __TEXT.__text __ZNK3icu9UVector326equalsERKS0_
|| __TEXT.__text __ZNK3icu9UVector327indexOfEii
|| __TEXT.__text __ZNK3icu9UVector6417getDynamicClassIDEv
|| __TEXT.__text __ZNK3icu9VTimeZone10beginRRULEERNS_9VTZWriterEiR10UErrorCode
|| __TEXT.__text __ZNK3icu9VTimeZone11appendUNTILERNS_9VTZWriterERKNS_13UnicodeStringER10UErrorCode
|| __TEXT.__text __ZNK3icu9VTimeZone11writeFooterERNS_9VTZWriterER10UErrorCode
|| __TEXT.__text __ZNK3icu9VTimeZone11writeSimpleEdRNS_13UnicodeStringER10UErrorCode
|| __TEXT.__text __ZNK3icu9VTimeZone11writeSimpleEdRNS_9VTZWriterER10UErrorCode
|| __TEXT.__text __ZNK3icu9VTimeZone12endZonePropsERNS_9VTZWriterEaR10UErrorCode
|| __TEXT.__text __ZNK3icu9VTimeZone12getRawOffsetEv
|| __TEXT.__text __ZNK3icu9VTimeZone12hasSameRulesERKNS_8TimeZoneE
|| __TEXT.__text __ZNK3icu9VTimeZone12writeHeadersERNS_9VTZWriterER10UErrorCode
|| __TEXT.__text __ZNK3icu9VTimeZone14beginZonePropsERNS_9VTZWriterEaRKNS_13UnicodeStringEiidR10UErrorCode
|| __TEXT.__text __ZNK3icu9VTimeZone14inDaylightTimeEdR10UErrorCode
|| __TEXT.__text __ZNK3icu9VTimeZone14writeFinalRuleERNS_9VTZWriterEaPKNS_18AnnualTimeZoneRuleEiidR10UErrorCode
|| __TEXT.__text __ZNK3icu9VTimeZone15getLastModifiedERd
|| __TEXT.__text __ZNK3icu9VTimeZone15useDaylightTimeEv
|| __TEXT.__text __ZNK3icu9VTimeZone16getTimeZoneRulesERPKNS_19InitialTimeZoneRuleEPPKNS_12TimeZoneRuleERiR10UErrorCode
|| __TEXT.__text __ZNK3icu9VTimeZone17getDynamicClassIDEv
|| __TEXT.__text __ZNK3icu9VTimeZone17getNextTransitionEdaRNS_18TimeZoneTransitionE
|| __TEXT.__text __ZNK3icu9VTimeZone19writeZonePropsByDOMERNS_9VTZWriterEaRKNS_13UnicodeStringEiiiiddR10UErrorCode
|| __TEXT.__text __ZNK3icu9VTimeZone19writeZonePropsByDOWERNS_9VTZWriterEaRKNS_13UnicodeStringEiiiiiddR10UErrorCode
|| __TEXT.__text __ZNK3icu9VTimeZone20countTransitionRulesER10UErrorCode
|| __TEXT.__text __ZNK3icu9VTimeZone20writeZonePropsByTimeERNS_9VTZWriterEaRKNS_13UnicodeStringEiidaR10UErrorCode
|| __TEXT.__text __ZNK3icu9VTimeZone21getPreviousTransitionEdaRNS_18TimeZoneTransitionE
|| __TEXT.__text __ZNK3icu9VTimeZone27writeZonePropsByDOW_GEQ_DOMERNS_9VTZWriterEaRKNS_13UnicodeStringEiiiiiddR10UErrorCode
|| __TEXT.__text __ZNK3icu9VTimeZone27writeZonePropsByDOW_LEQ_DOMERNS_9VTZWriterEaRKNS_13UnicodeStringEiiiiiddR10UErrorCode
|| __TEXT.__text __ZNK3icu9VTimeZone31writeZonePropsByDOW_GEQ_DOM_subERNS_9VTZWriterEiiiidiR10UErrorCode
|| __TEXT.__text __ZNK3icu9VTimeZone5cloneEv
|| __TEXT.__text __ZNK3icu9VTimeZone5writeERNS_13UnicodeStringER10UErrorCode
|| __TEXT.__text __ZNK3icu9VTimeZone5writeERNS_9VTZWriterER10UErrorCode
|| __TEXT.__text __ZNK3icu9VTimeZone5writeEdRNS_13UnicodeStringER10UErrorCode
|| __TEXT.__text __ZNK3icu9VTimeZone5writeEdRNS_9VTZWriterER10UErrorCode
|| __TEXT.__text __ZNK3icu9VTimeZone8getTZURLERNS_13UnicodeStringE
|| __TEXT.__text __ZNK3icu9VTimeZone9getOffsetEdaRiS1_R10UErrorCode
|| __TEXT.__text __ZNK3icu9VTimeZone9getOffsetEhiiihiR10UErrorCode
|| __TEXT.__text __ZNK3icu9VTimeZone9getOffsetEhiiihiiR10UErrorCode
|| __TEXT.__text __ZNK3icu9VTimeZone9writeZoneERNS_9VTZWriterERNS_13BasicTimeZoneEPNS_7UVectorER10UErrorCode
|| __TEXT.__text __ZNK3icu9VTimeZoneeqERKNS_8TimeZoneE
|| __TEXT.__text __ZNK3icu9VTimeZoneneERKNS_8TimeZoneE
|| __TEXT.__text __ZNKR3icu6number26UnlocalizedNumberFormatter6localeERKNS_6LocaleE
|| __TEXT.__text __ZNKR3icu6number31UnlocalizedNumberRangeFormatter6localeERKNS_6LocaleE
|| __TEXT.__text __ZNO3icu6number26UnlocalizedNumberFormatter6localeERKNS_6LocaleE
|| __TEXT.__text __ZNO3icu6number31UnlocalizedNumberRangeFormatter6localeERKNS_6LocaleE
|| __TEXT.__text __ZThn16_NK3icu6number4impl22MutablePatternModifier9getSymbolENS1_16AffixPatternTypeE
|| __TEXT.__text __ZThn8_N3icu10UnicodeSet7matchesERKNS_11ReplaceableERiia
|| __TEXT.__text __ZThn8_N3icu10UnicodeSetD0Ev
|| __TEXT.__text __ZThn8_N3icu10UnicodeSetD1Ev
|| __TEXT.__text __ZThn8_N3icu12FixedDecimalD0Ev
|| __TEXT.__text __ZThn8_N3icu12FixedDecimalD1Ev
|| __TEXT.__text __ZThn8_N3icu13UnicodeFilter7matchesERKNS_11ReplaceableERiia
|| __TEXT.__text __ZThn8_N3icu13UnicodeFilterD0Ev
|| __TEXT.__text __ZThn8_N3icu13UnicodeFilterD1Ev
|| __TEXT.__text __ZThn8_NK3icu10UnicodeSet13addMatchSetToERS0_
|| __TEXT.__text __ZThn8_NK3icu10UnicodeSet17matchesIndexValueEh
|| __TEXT.__text __ZThn8_NK3icu10UnicodeSet9toPatternERNS_13UnicodeStringEa
|| __TEXT.__text __ZThn8_NK3icu6number4impl22MutablePatternModifier13containsFieldE19UNumberFormatFields
|| __TEXT.__text __ZThn8_NK3icu6number4impl22MutablePatternModifier13getParametersERNS1_8Modifier10ParametersE
|| __TEXT.__text __ZThn8_NK3icu6number4impl22MutablePatternModifier15getPrefixLengthEv
|| __TEXT.__text __ZThn8_NK3icu6number4impl22MutablePatternModifier17getCodePointCountEv
|| __TEXT.__text __ZThn8_NK3icu6number4impl22MutablePatternModifier22semanticallyEquivalentERKNS1_8ModifierE
|| __TEXT.__text __ZThn8_NK3icu6number4impl22MutablePatternModifier5applyERNS1_19NumberStringBuilderEiiR10UErrorCode
|| __TEXT.__text __ZThn8_NK3icu6number4impl22MutablePatternModifier8isStrongEv
|| __TEXT.__text _izrule_clone
|| __TEXT.__text _izrule_close
|| __TEXT.__text _izrule_equals
|| __TEXT.__text _izrule_getDSTSavings
|| __TEXT.__text _izrule_getDynamicClassID
|| __TEXT.__text _izrule_getFinalStart
|| __TEXT.__text _izrule_getFirstStart
|| __TEXT.__text _izrule_getName
|| __TEXT.__text _izrule_getNextStart
|| __TEXT.__text _izrule_getPreviousStart
|| __TEXT.__text _izrule_getRawOffset
|| __TEXT.__text _izrule_getStaticClassID
|| __TEXT.__text _izrule_isEquivalentTo
|| __TEXT.__text _izrule_open
|| __TEXT.__text _locale_getKeywordsStart
|| __TEXT.__text _res_countArrayItems
|| __TEXT.__text _res_getAlias
|| __TEXT.__text _res_getArrayItem
|| __TEXT.__text _res_getBinary
|| __TEXT.__text _res_getIntVector
|| __TEXT.__text _res_getPublicType
|| __TEXT.__text _res_getResource
|| __TEXT.__text _res_getString
|| __TEXT.__text _res_getTableItemByIndex
|| __TEXT.__text _res_getTableItemByKey
|| __TEXT.__text _res_read
|| __TEXT.__text _u_UCharsToChars
|| __TEXT.__text _u_austrcpy
|| __TEXT.__text _u_austrncpy
|| __TEXT.__text _u_caseInsensitivePrefixMatch
|| __TEXT.__text _u_catclose
|| __TEXT.__text _u_catgets
|| __TEXT.__text _u_catopen
|| __TEXT.__text _u_charAge
|| __TEXT.__text _u_charDigitValue
|| __TEXT.__text _u_charDirection
|| __TEXT.__text _u_charFromName
|| __TEXT.__text _u_charMirror
|| __TEXT.__text _u_charName
|| __TEXT.__text _u_charType
|| __TEXT.__text _u_charsToUChars
|| __TEXT.__text _u_cleanup
|| __TEXT.__text _u_countChar32
|| __TEXT.__text _u_digit
|| __TEXT.__text _u_enumCharNames
|| __TEXT.__text _u_enumCharTypes
|| __TEXT.__text _u_errorName
|| __TEXT.__text _u_flushDefaultConverter
|| __TEXT.__text _u_foldCase
|| __TEXT.__text _u_forDigit
|| __TEXT.__text _u_formatMessage
|| __TEXT.__text _u_formatMessageWithError
|| __TEXT.__text _u_getBidiPairedBracket
|| __TEXT.__text _u_getBinaryPropertySet
|| __TEXT.__text _u_getCombiningClass
|| __TEXT.__text _u_getDataDirectory
|| __TEXT.__text _u_getDataVersion
|| __TEXT.__text _u_getDefaultConverter
|| __TEXT.__text _u_getFC_NFKC_Closure
|| __TEXT.__text _u_getISOComment
|| __TEXT.__text _u_getIntPropertyMap
|| __TEXT.__text _u_getIntPropertyMaxValue
|| __TEXT.__text _u_getIntPropertyMinValue
|| __TEXT.__text _u_getIntPropertyValue
|| __TEXT.__text _u_getNumericValue
|| __TEXT.__text _u_getPropertyEnum
|| __TEXT.__text _u_getPropertyName
|| __TEXT.__text _u_getPropertyValueEnum
|| __TEXT.__text _u_getPropertyValueName
|| __TEXT.__text _u_getTimeZoneFilesDirectory
|| __TEXT.__text _u_getUnicodeVersion
|| __TEXT.__text _u_getVersion
|| __TEXT.__text _u_hasBinaryProperty
|| __TEXT.__text _u_init
|| __TEXT.__text _u_isEmoji
|| __TEXT.__text _u_isIDIgnorable
|| __TEXT.__text _u_isIDPart
|| __TEXT.__text _u_isIDStart
|| __TEXT.__text _u_isISOControl
|| __TEXT.__text _u_isJavaIDPart
|| __TEXT.__text _u_isJavaIDStart
|| __TEXT.__text _u_isJavaSpaceChar
|| __TEXT.__text _u_isMirrored
|| __TEXT.__text _u_isUAlphabetic
|| __TEXT.__text _u_isULowercase
|| __TEXT.__text _u_isUUppercase
|| __TEXT.__text _u_isUWhiteSpace
|| __TEXT.__text _u_isWhitespace
|| __TEXT.__text _u_isalnum
|| __TEXT.__text _u_isalpha
|| __TEXT.__text _u_isbase
|| __TEXT.__text _u_isblank
|| __TEXT.__text _u_iscntrl
|| __TEXT.__text _u_isdefined
|| __TEXT.__text _u_isdigit
|| __TEXT.__text _u_isgraph
|| __TEXT.__text _u_islower
|| __TEXT.__text _u_isprint
|| __TEXT.__text _u_ispunct
|| __TEXT.__text _u_isspace
|| __TEXT.__text _u_istitle
|| __TEXT.__text _u_isupper
|| __TEXT.__text _u_isxdigit
|| __TEXT.__text _u_memcasecmp
|| __TEXT.__text _u_memchr
|| __TEXT.__text _u_memchr32
|| __TEXT.__text _u_memcmp
|| __TEXT.__text _u_memcmpCodePointOrder
|| __TEXT.__text _u_memcpy
|| __TEXT.__text _u_memmove
|| __TEXT.__text _u_memrchr
|| __TEXT.__text _u_memrchr32
|| __TEXT.__text _u_memset
|| __TEXT.__text _u_parseMessage
|| __TEXT.__text _u_parseMessageWithError
|| __TEXT.__text _u_releaseDefaultConverter
|| __TEXT.__text _u_setAtomicIncDecFunctions
|| __TEXT.__text _u_setDataDirectory
|| __TEXT.__text _u_setMemoryFunctions
|| __TEXT.__text _u_setMutexFunctions
|| __TEXT.__text _u_setTimeZoneFilesDirectory
|| __TEXT.__text _u_shapeArabic
|| __TEXT.__text _u_strCaseCompare
|| __TEXT.__text _u_strCompare
|| __TEXT.__text _u_strCompareIter
|| __TEXT.__text _u_strFindFirst
|| __TEXT.__text _u_strFindLast
|| __TEXT.__text _u_strFoldCase
|| __TEXT.__text _u_strFromJavaModifiedUTF8WithSub
|| __TEXT.__text _u_strFromUTF32
|| __TEXT.__text _u_strFromUTF32WithSub
|| __TEXT.__text _u_strFromUTF8
|| __TEXT.__text _u_strFromUTF8Lenient
|| __TEXT.__text _u_strFromUTF8WithSub
|| __TEXT.__text _u_strFromWCS
|| __TEXT.__text _u_strHasMoreChar32Than
|| __TEXT.__text _u_strIsWellFormed
|| __TEXT.__text _u_strToJavaModifiedUTF8
|| __TEXT.__text _u_strToLower
|| __TEXT.__text _u_strToTitle
|| __TEXT.__text _u_strToUTF32
|| __TEXT.__text _u_strToUTF32WithSub
|| __TEXT.__text _u_strToUTF8
|| __TEXT.__text _u_strToUTF8WithSub
|| __TEXT.__text _u_strToUpper
|| __TEXT.__text _u_strToWCS
|| __TEXT.__text _u_strcasecmp
|| __TEXT.__text _u_strcat
|| __TEXT.__text _u_strchr
|| __TEXT.__text _u_strchr32
|| __TEXT.__text _u_strcmp
|| __TEXT.__text _u_strcmpCodePointOrder
|| __TEXT.__text _u_strcpy
|| __TEXT.__text _u_strcspn
|| __TEXT.__text _u_strlen
|| __TEXT.__text _u_strncasecmp
|| __TEXT.__text _u_strncat
|| __TEXT.__text _u_strncmp
|| __TEXT.__text _u_strncmpCodePointOrder
|| __TEXT.__text _u_strncpy
|| __TEXT.__text _u_strpbrk
|| __TEXT.__text _u_strrchr
|| __TEXT.__text _u_strrchr32
|| __TEXT.__text _u_strrstr
|| __TEXT.__text _u_strspn
|| __TEXT.__text _u_strstr
|| __TEXT.__text _u_strtok_r
|| __TEXT.__text _u_terminateChars
|| __TEXT.__text _u_terminateUChar32s
|| __TEXT.__text _u_terminateUChars
|| __TEXT.__text _u_terminateWChars
|| __TEXT.__text _u_tolower
|| __TEXT.__text _u_totitle
|| __TEXT.__text _u_toupper
|| __TEXT.__text _u_uastrcpy
|| __TEXT.__text _u_uastrncpy
|| __TEXT.__text _u_unescape
|| __TEXT.__text _u_unescapeAt
|| __TEXT.__text _u_versionFromString
|| __TEXT.__text _u_versionFromUString
|| __TEXT.__text _u_versionToString
|| __TEXT.__text _u_vformatMessage
|| __TEXT.__text _u_vformatMessageWithError
|| __TEXT.__text _u_vparseMessage
|| __TEXT.__text _u_vparseMessageWithError
|| __TEXT.__text _uacal_getDayPeriod
|| __TEXT.__text _uadatpg_remapPatternWithOptions
|| __TEXT.__text _ualoc_getAppleParent
|| __TEXT.__text _ualoc_getLanguagesForRegion
|| __TEXT.__text _ualoc_localizationsToUse
|| __TEXT.__text _uameasfmt_close
|| __TEXT.__text _uameasfmt_format
|| __TEXT.__text _uameasfmt_formatGetPosition
|| __TEXT.__text _uameasfmt_formatMultiple
|| __TEXT.__text _uameasfmt_formatMultipleForFields
|| __TEXT.__text _uameasfmt_getMultipleUnitNames
|| __TEXT.__text _uameasfmt_getUnitCategory
|| __TEXT.__text _uameasfmt_getUnitName
|| __TEXT.__text _uameasfmt_getUnitsForUsage
|| __TEXT.__text _uameasfmt_open
|| __TEXT.__text _uatmufmt_close
|| __TEXT.__text _uatmufmt_format
|| __TEXT.__text _uatmufmt_getListPattern
|| __TEXT.__text _uatmufmt_getTimePattern
|| __TEXT.__text _uatmufmt_open
|| __TEXT.__text _uatmufmt_openWithNumberFormat
|| __TEXT.__text _uatmufmt_parse
|| __TEXT.__text _uatmufmt_setNumberFormat
|| __TEXT.__text _ubidi_close
|| __TEXT.__text _ubidi_countParagraphs
|| __TEXT.__text _ubidi_countRuns
|| __TEXT.__text _ubidi_getBaseDirection
|| __TEXT.__text _ubidi_getClass
|| __TEXT.__text _ubidi_getClassCallback
|| __TEXT.__text _ubidi_getCustomizedClass
|| __TEXT.__text _ubidi_getDirection
|| __TEXT.__text _ubidi_getLength
|| __TEXT.__text _ubidi_getLevelAt
|| __TEXT.__text _ubidi_getLevels
|| __TEXT.__text _ubidi_getLogicalIndex
|| __TEXT.__text _ubidi_getLogicalMap
|| __TEXT.__text _ubidi_getLogicalRun
|| __TEXT.__text _ubidi_getParaLevel
|| __TEXT.__text _ubidi_getParagraph
|| __TEXT.__text _ubidi_getParagraphByIndex
|| __TEXT.__text _ubidi_getProcessedLength
|| __TEXT.__text _ubidi_getReorderingMode
|| __TEXT.__text _ubidi_getReorderingOptions
|| __TEXT.__text _ubidi_getResultLength
|| __TEXT.__text _ubidi_getText
|| __TEXT.__text _ubidi_getVisualIndex
|| __TEXT.__text _ubidi_getVisualMap
|| __TEXT.__text _ubidi_getVisualRun
|| __TEXT.__text _ubidi_invertMap
|| __TEXT.__text _ubidi_isInverse
|| __TEXT.__text _ubidi_isOrderParagraphsLTR
|| __TEXT.__text _ubidi_open
|| __TEXT.__text _ubidi_openSized
|| __TEXT.__text _ubidi_orderParagraphsLTR
|| __TEXT.__text _ubidi_reorderLogical
|| __TEXT.__text _ubidi_reorderVisual
|| __TEXT.__text _ubidi_setClassCallback
|| __TEXT.__text _ubidi_setContext
|| __TEXT.__text _ubidi_setInverse
|| __TEXT.__text _ubidi_setLine
|| __TEXT.__text _ubidi_setPara
|| __TEXT.__text _ubidi_setParaWithControls
|| __TEXT.__text _ubidi_setReorderingMode
|| __TEXT.__text _ubidi_setReorderingOptions
|| __TEXT.__text _ubidi_writeReordered
|| __TEXT.__text _ubidi_writeReverse
|| __TEXT.__text _ubiditransform_close
|| __TEXT.__text _ubiditransform_open
|| __TEXT.__text _ubiditransform_transform
|| __TEXT.__text _ublock_getCode
|| __TEXT.__text _ubrk_close
|| __TEXT.__text _ubrk_countAvailable
|| __TEXT.__text _ubrk_current
|| __TEXT.__text _ubrk_first
|| __TEXT.__text _ubrk_following
|| __TEXT.__text _ubrk_getAvailable
|| __TEXT.__text _ubrk_getBinaryRules
|| __TEXT.__text _ubrk_getLocaleByType
|| __TEXT.__text _ubrk_getRuleStatus
|| __TEXT.__text _ubrk_getRuleStatusVec
|| __TEXT.__text _ubrk_isBoundary
|| __TEXT.__text _ubrk_last
|| __TEXT.__text _ubrk_next
|| __TEXT.__text _ubrk_open
|| __TEXT.__text _ubrk_openBinaryRules
|| __TEXT.__text _ubrk_openRules
|| __TEXT.__text _ubrk_preceding
|| __TEXT.__text _ubrk_previous
|| __TEXT.__text _ubrk_refreshUText
|| __TEXT.__text _ubrk_safeClone
|| __TEXT.__text _ubrk_setLineWordOpts
|| __TEXT.__text _ubrk_setText
|| __TEXT.__text _ubrk_setUText
|| __TEXT.__text _ubrk_swap
|| __TEXT.__text _ucache_compareKeys
|| __TEXT.__text _ucache_deleteKey
|| __TEXT.__text _ucache_hashKeys
|| __TEXT.__text _ucal_add
|| __TEXT.__text _ucal_clear
|| __TEXT.__text _ucal_clearField
|| __TEXT.__text _ucal_clone
|| __TEXT.__text _ucal_close
|| __TEXT.__text _ucal_countAvailable
|| __TEXT.__text _ucal_equivalentTo
|| __TEXT.__text _ucal_get
|| __TEXT.__text _ucal_getAttribute
|| __TEXT.__text _ucal_getAvailable
|| __TEXT.__text _ucal_getCanonicalTimeZoneID
|| __TEXT.__text _ucal_getDSTSavings
|| __TEXT.__text _ucal_getDayOfWeekType
|| __TEXT.__text _ucal_getDefaultTimeZone
|| __TEXT.__text _ucal_getFieldDifference
|| __TEXT.__text _ucal_getGregorianChange
|| __TEXT.__text _ucal_getKeywordValuesForLocale
|| __TEXT.__text _ucal_getLimit
|| __TEXT.__text _ucal_getLocaleByType
|| __TEXT.__text _ucal_getMillis
|| __TEXT.__text _ucal_getNow
|| __TEXT.__text _ucal_getTZDataVersion
|| __TEXT.__text _ucal_getTimeZoneDisplayName
|| __TEXT.__text _ucal_getTimeZoneID
|| __TEXT.__text _ucal_getTimeZoneIDForWindowsID
|| __TEXT.__text _ucal_getTimeZoneTransitionDate
|| __TEXT.__text _ucal_getType
|| __TEXT.__text _ucal_getWeekendTransition
|| __TEXT.__text _ucal_getWindowsTimeZoneID
|| __TEXT.__text _ucal_inDaylightTime
|| __TEXT.__text _ucal_isSet
|| __TEXT.__text _ucal_isWeekend
|| __TEXT.__text _ucal_open
|| __TEXT.__text _ucal_openCountryTimeZones
|| __TEXT.__text _ucal_openTimeZoneIDEnumeration
|| __TEXT.__text _ucal_openTimeZones
|| __TEXT.__text _ucal_roll
|| __TEXT.__text _ucal_set
|| __TEXT.__text _ucal_setAttribute
|| __TEXT.__text _ucal_setDate
|| __TEXT.__text _ucal_setDateTime
|| __TEXT.__text _ucal_setDefaultTimeZone
|| __TEXT.__text _ucal_setGregorianChange
|| __TEXT.__text _ucal_setMillis
|| __TEXT.__text _ucal_setTimeZone
|| __TEXT.__text _ucase_fold
|| __TEXT.__text _ucase_getType
|| __TEXT.__text _ucase_getTypeOrIgnorable
|| __TEXT.__text _ucase_isCaseSensitive
|| __TEXT.__text _ucase_isSoftDotted
|| __TEXT.__text _ucase_toFullFolding
|| __TEXT.__text _ucase_toFullLower
|| __TEXT.__text _ucase_toFullTitle
|| __TEXT.__text _ucase_toFullUpper
|| __TEXT.__text _ucase_tolower
|| __TEXT.__text _ucase_totitle
|| __TEXT.__text _ucase_toupper
|| __TEXT.__text _ucasemap_close
|| __TEXT.__text _ucasemap_getBreakIterator
|| __TEXT.__text _ucasemap_getLocale
|| __TEXT.__text _ucasemap_getOptions
|| __TEXT.__text _ucasemap_open
|| __TEXT.__text _ucasemap_setBreakIterator
|| __TEXT.__text _ucasemap_setLocale
|| __TEXT.__text _ucasemap_setOptions
|| __TEXT.__text _ucasemap_toTitle
|| __TEXT.__text _ucasemap_utf8FoldCase
|| __TEXT.__text _ucasemap_utf8ToLower
|| __TEXT.__text _ucasemap_utf8ToTitle
|| __TEXT.__text _ucasemap_utf8ToUpper
|| __TEXT.__text _ucfpos_close
|| __TEXT.__text _ucfpos_constrainCategory
|| __TEXT.__text _ucfpos_constrainField
|| __TEXT.__text _ucfpos_getCategory
|| __TEXT.__text _ucfpos_getField
|| __TEXT.__text _ucfpos_getIndexes
|| __TEXT.__text _ucfpos_getInt64IterationContext
|| __TEXT.__text _ucfpos_matchesField
|| __TEXT.__text _ucfpos_open
|| __TEXT.__text _ucfpos_reset
|| __TEXT.__text _ucfpos_setInt64IterationContext
|| __TEXT.__text _ucfpos_setState
|| __TEXT.__text _uchar_swapNames
|| __TEXT.__text _ucln_cleanupOne
|| __TEXT.__text _ucln_registerCleanup
|| __TEXT.__text _ucnv_cbFromUWriteBytes
|| __TEXT.__text _ucnv_cbFromUWriteSub
|| __TEXT.__text _ucnv_cbFromUWriteUChars
|| __TEXT.__text _ucnv_cbToUWriteSub
|| __TEXT.__text _ucnv_cbToUWriteUChars
|| __TEXT.__text _ucnv_close
|| __TEXT.__text _ucnv_compareNames
|| __TEXT.__text _ucnv_convert
|| __TEXT.__text _ucnv_convertEx
|| __TEXT.__text _ucnv_countAliases
|| __TEXT.__text _ucnv_countAvailable
|| __TEXT.__text _ucnv_countStandards
|| __TEXT.__text _ucnv_createConverter
|| __TEXT.__text _ucnv_detectUnicodeSignature
|| __TEXT.__text _ucnv_enableCleanup
|| __TEXT.__text _ucnv_fixFileSeparator
|| __TEXT.__text _ucnv_flushCache
|| __TEXT.__text _ucnv_fromAlgorithmic
|| __TEXT.__text _ucnv_fromUChars
|| __TEXT.__text _ucnv_fromUCountPending
|| __TEXT.__text _ucnv_fromUnicode
|| __TEXT.__text _ucnv_getAlias
|| __TEXT.__text _ucnv_getAliases
|| __TEXT.__text _ucnv_getAvailableName
|| __TEXT.__text _ucnv_getCCSID
|| __TEXT.__text _ucnv_getCanonicalName
|| __TEXT.__text _ucnv_getDefaultName
|| __TEXT.__text _ucnv_getDisplayName
|| __TEXT.__text _ucnv_getFromUCallBack
|| __TEXT.__text _ucnv_getInvalidChars
|| __TEXT.__text _ucnv_getInvalidUChars
|| __TEXT.__text _ucnv_getMaxCharSize
|| __TEXT.__text _ucnv_getMinCharSize
|| __TEXT.__text _ucnv_getName
|| __TEXT.__text _ucnv_getNextUChar
|| __TEXT.__text _ucnv_getPlatform
|| __TEXT.__text _ucnv_getStandard
|| __TEXT.__text _ucnv_getStandardName
|| __TEXT.__text _ucnv_getStarters
|| __TEXT.__text _ucnv_getSubstChars
|| __TEXT.__text _ucnv_getToUCallBack
|| __TEXT.__text _ucnv_getType
|| __TEXT.__text _ucnv_getUnicodeSet
|| __TEXT.__text _ucnv_io_countKnownConverters
|| __TEXT.__text _ucnv_io_getConverterName
|| __TEXT.__text _ucnv_io_stripASCIIForCompare
|| __TEXT.__text _ucnv_io_stripEBCDICForCompare
|| __TEXT.__text _ucnv_isAmbiguous
|| __TEXT.__text _ucnv_isFixedWidth
|| __TEXT.__text _ucnv_load
|| __TEXT.__text _ucnv_open
|| __TEXT.__text _ucnv_openAllNames
|| __TEXT.__text _ucnv_openCCSID
|| __TEXT.__text _ucnv_openPackage
|| __TEXT.__text _ucnv_openStandardNames
|| __TEXT.__text _ucnv_openU
|| __TEXT.__text _ucnv_reset
|| __TEXT.__text _ucnv_resetFromUnicode
|| __TEXT.__text _ucnv_resetToUnicode
|| __TEXT.__text _ucnv_safeClone
|| __TEXT.__text _ucnv_setDefaultName
|| __TEXT.__text _ucnv_setFallback
|| __TEXT.__text _ucnv_setFromUCallBack
|| __TEXT.__text _ucnv_setSubstChars
|| __TEXT.__text _ucnv_setSubstString
|| __TEXT.__text _ucnv_setToUCallBack
|| __TEXT.__text _ucnv_swap
|| __TEXT.__text _ucnv_swapAliases
|| __TEXT.__text _ucnv_toAlgorithmic
|| __TEXT.__text _ucnv_toUChars
|| __TEXT.__text _ucnv_toUCountPending
|| __TEXT.__text _ucnv_toUnicode
|| __TEXT.__text _ucnv_unload
|| __TEXT.__text _ucnv_usesFallback
|| __TEXT.__text _ucnvsel_close
|| __TEXT.__text _ucnvsel_open
|| __TEXT.__text _ucnvsel_openFromSerialized
|| __TEXT.__text _ucnvsel_selectForString
|| __TEXT.__text _ucnvsel_selectForUTF8
|| __TEXT.__text _ucnvsel_serialize
|| __TEXT.__text _ucol_cloneBinary
|| __TEXT.__text _ucol_close
|| __TEXT.__text _ucol_closeElements
|| __TEXT.__text _ucol_countAvailable
|| __TEXT.__text _ucol_equal
|| __TEXT.__text _ucol_equals
|| __TEXT.__text _ucol_getAttribute
|| __TEXT.__text _ucol_getAvailable
|| __TEXT.__text _ucol_getBound
|| __TEXT.__text _ucol_getContractions
|| __TEXT.__text _ucol_getContractionsAndExpansions
|| __TEXT.__text _ucol_getDisplayName
|| __TEXT.__text _ucol_getEquivalentReorderCodes
|| __TEXT.__text _ucol_getFunctionalEquivalent
|| __TEXT.__text _ucol_getKeywordValues
|| __TEXT.__text _ucol_getKeywordValuesForLocale
|| __TEXT.__text _ucol_getKeywords
|| __TEXT.__text _ucol_getLocale
|| __TEXT.__text _ucol_getLocaleByType
|| __TEXT.__text _ucol_getMaxExpansion
|| __TEXT.__text _ucol_getMaxVariable
|| __TEXT.__text _ucol_getOffset
|| __TEXT.__text _ucol_getReorderCodes
|| __TEXT.__text _ucol_getRules
|| __TEXT.__text _ucol_getRulesEx
|| __TEXT.__text _ucol_getShortDefinitionString
|| __TEXT.__text _ucol_getSortKey
|| __TEXT.__text _ucol_getStrength
|| __TEXT.__text _ucol_getTailoredSet
|| __TEXT.__text _ucol_getUCAVersion
|| __TEXT.__text _ucol_getUnsafeSet
|| __TEXT.__text _ucol_getVariableTop
|| __TEXT.__text _ucol_getVersion
|| __TEXT.__text _ucol_greater
|| __TEXT.__text _ucol_greaterOrEqual
|| __TEXT.__text _ucol_keyHashCode
|| __TEXT.__text _ucol_looksLikeCollationBinary
|| __TEXT.__text _ucol_mergeSortkeys
|| __TEXT.__text _ucol_next
|| __TEXT.__text _ucol_nextProcessed
|| __TEXT.__text _ucol_nextSortKeyPart
|| __TEXT.__text _ucol_normalizeShortDefinitionString
|| __TEXT.__text _ucol_open
|| __TEXT.__text _ucol_openBinary
|| __TEXT.__text _ucol_openElements
|| __TEXT.__text _ucol_openFromShortString
|| __TEXT.__text _ucol_openRules
|| __TEXT.__text _ucol_prepareShortStringOpen
|| __TEXT.__text _ucol_previous
|| __TEXT.__text _ucol_previousProcessed
|| __TEXT.__text _ucol_primaryOrder
|| __TEXT.__text _ucol_reset
|| __TEXT.__text _ucol_restoreVariableTop
|| __TEXT.__text _ucol_safeClone
|| __TEXT.__text _ucol_secondaryOrder
|| __TEXT.__text _ucol_setAttribute
|| __TEXT.__text _ucol_setMaxVariable
|| __TEXT.__text _ucol_setOffset
|| __TEXT.__text _ucol_setReorderCodes
|| __TEXT.__text _ucol_setStrength
|| __TEXT.__text _ucol_setText
|| __TEXT.__text _ucol_setVariableTop
|| __TEXT.__text _ucol_strcoll
|| __TEXT.__text _ucol_strcollIter
|| __TEXT.__text _ucol_strcollUTF8
|| __TEXT.__text _ucol_swap
|| __TEXT.__text _ucol_swapInverseUCA
|| __TEXT.__text _ucol_tertiaryOrder
|| __TEXT.__text _ucpmap_get
|| __TEXT.__text _ucpmap_getRange
|| __TEXT.__text _ucptrie_close
|| __TEXT.__text _ucptrie_get
|| __TEXT.__text _ucptrie_getRange
|| __TEXT.__text _ucptrie_getType
|| __TEXT.__text _ucptrie_getValueWidth
|| __TEXT.__text _ucptrie_internalSmallIndex
|| __TEXT.__text _ucptrie_internalSmallU8Index
|| __TEXT.__text _ucptrie_internalU8PrevIndex
|| __TEXT.__text _ucptrie_openFromBinary
|| __TEXT.__text _ucptrie_swap
|| __TEXT.__text _ucptrie_toBinary
|| __TEXT.__text _ucsdet_close
|| __TEXT.__text _ucsdet_detect
|| __TEXT.__text _ucsdet_detectAll
|| __TEXT.__text _ucsdet_enableInputFilter
|| __TEXT.__text _ucsdet_getAllDetectableCharsets
|| __TEXT.__text _ucsdet_getConfidence
|| __TEXT.__text _ucsdet_getDetectableCharsets
|| __TEXT.__text _ucsdet_getLanguage
|| __TEXT.__text _ucsdet_getName
|| __TEXT.__text _ucsdet_getUChars
|| __TEXT.__text _ucsdet_isInputFilterEnabled
|| __TEXT.__text _ucsdet_open
|| __TEXT.__text _ucsdet_setDeclaredEncoding
|| __TEXT.__text _ucsdet_setDetectableCharset
|| __TEXT.__text _ucsdet_setText
|| __TEXT.__text _ucurr_countCurrencies
|| __TEXT.__text _ucurr_forLocale
|| __TEXT.__text _ucurr_forLocaleAndDate
|| __TEXT.__text _ucurr_getDefaultFractionDigits
|| __TEXT.__text _ucurr_getDefaultFractionDigitsForUsage
|| __TEXT.__text _ucurr_getKeywordValuesForLocale
|| __TEXT.__text _ucurr_getName
|| __TEXT.__text _ucurr_getNumericCode
|| __TEXT.__text _ucurr_getPluralName
|| __TEXT.__text _ucurr_getRoundingIncrement
|| __TEXT.__text _ucurr_getRoundingIncrementForUsage
|| __TEXT.__text _ucurr_isAvailable
|| __TEXT.__text _ucurr_openISOCurrencies
|| __TEXT.__text _udat_adoptNumberFormat
|| __TEXT.__text _udat_adoptNumberFormatForFields
|| __TEXT.__text _udat_applyPattern
|| __TEXT.__text _udat_applyPatternRelative
|| __TEXT.__text _udat_clone
|| __TEXT.__text _udat_close
|| __TEXT.__text _udat_countAvailable
|| __TEXT.__text _udat_countSymbols
|| __TEXT.__text _udat_format
|| __TEXT.__text _udat_formatCalendar
|| __TEXT.__text _udat_formatCalendarForFields
|| __TEXT.__text _udat_formatForFields
|| __TEXT.__text _udat_get2DigitYearStart
|| __TEXT.__text _udat_getAvailable
|| __TEXT.__text _udat_getBooleanAttribute
|| __TEXT.__text _udat_getCalendar
|| __TEXT.__text _udat_getContext
|| __TEXT.__text _udat_getLocaleByType
|| __TEXT.__text _udat_getNumberFormat
|| __TEXT.__text _udat_getNumberFormatForField
|| __TEXT.__text _udat_getSymbols
|| __TEXT.__text _udat_isLenient
|| __TEXT.__text _udat_open
|| __TEXT.__text _udat_parse
|| __TEXT.__text _udat_parseCalendar
|| __TEXT.__text _udat_registerOpener
|| __TEXT.__text _udat_set2DigitYearStart
|| __TEXT.__text _udat_setBooleanAttribute
|| __TEXT.__text _udat_setCalendar
|| __TEXT.__text _udat_setContext
|| __TEXT.__text _udat_setLenient
|| __TEXT.__text _udat_setNumberFormat
|| __TEXT.__text _udat_setSymbols
|| __TEXT.__text _udat_toCalendarDateField
|| __TEXT.__text _udat_toPattern
|| __TEXT.__text _udat_toPatternRelativeDate
|| __TEXT.__text _udat_toPatternRelativeTime
|| __TEXT.__text _udat_unregisterOpener
|| __TEXT.__text _udata_close
|| __TEXT.__text _udata_closeSwapper
|| __TEXT.__text _udata_getInfo
|| __TEXT.__text _udata_getLength
|| __TEXT.__text _udata_getMemory
|| __TEXT.__text _udata_getRawMemory
|| __TEXT.__text _udata_open
|| __TEXT.__text _udata_openChoice
|| __TEXT.__text _udata_openSwapper
|| __TEXT.__text _udata_openSwapperForInputData
|| __TEXT.__text _udata_printError
|| __TEXT.__text _udata_readInt16
|| __TEXT.__text _udata_readInt32
|| __TEXT.__text _udata_setAppData
|| __TEXT.__text _udata_setCommonData
|| __TEXT.__text _udata_setFileAccess
|| __TEXT.__text _udata_swapDataHeader
|| __TEXT.__text _udata_swapInvStringBlock
|| __TEXT.__text _udatintv_close
|| __TEXT.__text _udatintv_format
|| __TEXT.__text _udatintv_open
|| __TEXT.__text _udatpg_addPattern
|| __TEXT.__text _udatpg_clone
|| __TEXT.__text _udatpg_close
|| __TEXT.__text _udatpg_getAppendItemFormat
|| __TEXT.__text _udatpg_getAppendItemName
|| __TEXT.__text _udatpg_getBaseSkeleton
|| __TEXT.__text _udatpg_getBestPattern
|| __TEXT.__text _udatpg_getBestPatternWithOptions
|| __TEXT.__text _udatpg_getDateTimeFormat
|| __TEXT.__text _udatpg_getDecimal
|| __TEXT.__text _udatpg_getFieldDisplayName
|| __TEXT.__text _udatpg_getPatternForSkeleton
|| __TEXT.__text _udatpg_getSkeleton
|| __TEXT.__text _udatpg_open
|| __TEXT.__text _udatpg_openBaseSkeletons
|| __TEXT.__text _udatpg_openEmpty
|| __TEXT.__text _udatpg_openSkeletons
|| __TEXT.__text _udatpg_replaceFieldTypes
|| __TEXT.__text _udatpg_replaceFieldTypesWithOptions
|| __TEXT.__text _udatpg_setAppendItemFormat
|| __TEXT.__text _udatpg_setAppendItemName
|| __TEXT.__text _udatpg_setDateTimeFormat
|| __TEXT.__text _udatpg_setDecimal
|| __TEXT.__text _udict_swap
|| __TEXT.__text _udtitvfmt_close
|| __TEXT.__text _udtitvfmt_closeResult
|| __TEXT.__text _udtitvfmt_format
|| __TEXT.__text _udtitvfmt_formatToResult
|| __TEXT.__text _udtitvfmt_getContext
|| __TEXT.__text _udtitvfmt_open
|| __TEXT.__text _udtitvfmt_openResult
|| __TEXT.__text _udtitvfmt_resultAsValue
|| __TEXT.__text _udtitvfmt_setAttribute
|| __TEXT.__text _udtitvfmt_setContext
|| __TEXT.__text _uenum_close
|| __TEXT.__text _uenum_count
|| __TEXT.__text _uenum_next
|| __TEXT.__text _uenum_nextDefault
|| __TEXT.__text _uenum_openCharStringsEnumeration
|| __TEXT.__text _uenum_openFromStringEnumeration
|| __TEXT.__text _uenum_openUCharStringsEnumeration
|| __TEXT.__text _uenum_reset
|| __TEXT.__text _uenum_unext
|| __TEXT.__text _uenum_unextDefault
|| __TEXT.__text _ufieldpositer_close
|| __TEXT.__text _ufieldpositer_next
|| __TEXT.__text _ufieldpositer_open
|| __TEXT.__text _ufmt_close
|| __TEXT.__text _ufmt_getArrayItemByIndex
|| __TEXT.__text _ufmt_getArrayLength
|| __TEXT.__text _ufmt_getDate
|| __TEXT.__text _ufmt_getDecNumChars
|| __TEXT.__text _ufmt_getDouble
|| __TEXT.__text _ufmt_getInt64
|| __TEXT.__text _ufmt_getLong
|| __TEXT.__text _ufmt_getObject
|| __TEXT.__text _ufmt_getType
|| __TEXT.__text _ufmt_getUChars
|| __TEXT.__text _ufmt_isNumeric
|| __TEXT.__text _ufmt_open
|| __TEXT.__text _ufmtval_getString
|| __TEXT.__text _ufmtval_nextPosition
|| __TEXT.__text _ugender_getInstance
|| __TEXT.__text _ugender_getListGender
|| __TEXT.__text _uhash_close
|| __TEXT.__text _uhash_compareCaselessUnicodeString
|| __TEXT.__text _uhash_compareChars
|| __TEXT.__text _uhash_compareIChars
|| __TEXT.__text _uhash_compareLong
|| __TEXT.__text _uhash_compareScriptSet
|| __TEXT.__text _uhash_compareUChars
|| __TEXT.__text _uhash_compareUnicodeString
|| __TEXT.__text _uhash_count
|| __TEXT.__text _uhash_deleteHashtable
|| __TEXT.__text _uhash_deleteScriptSet
|| __TEXT.__text _uhash_equals
|| __TEXT.__text _uhash_equalsScriptSet
|| __TEXT.__text _uhash_find
|| __TEXT.__text _uhash_get
|| __TEXT.__text _uhash_geti
|| __TEXT.__text _uhash_hashCaselessUnicodeString
|| __TEXT.__text _uhash_hashChars
|| __TEXT.__text _uhash_hashIChars
|| __TEXT.__text _uhash_hashLong
|| __TEXT.__text _uhash_hashScriptSet
|| __TEXT.__text _uhash_hashUChars
|| __TEXT.__text _uhash_hashUnicodeString
|| __TEXT.__text _uhash_iget
|| __TEXT.__text _uhash_igeti
|| __TEXT.__text _uhash_init
|| __TEXT.__text _uhash_initSize
|| __TEXT.__text _uhash_iput
|| __TEXT.__text _uhash_iputi
|| __TEXT.__text _uhash_iremove
|| __TEXT.__text _uhash_iremovei
|| __TEXT.__text _uhash_nextElement
|| __TEXT.__text _uhash_open
|| __TEXT.__text _uhash_openSize
|| __TEXT.__text _uhash_put
|| __TEXT.__text _uhash_puti
|| __TEXT.__text _uhash_remove
|| __TEXT.__text _uhash_removeAll
|| __TEXT.__text _uhash_removeElement
|| __TEXT.__text _uhash_removei
|| __TEXT.__text _uhash_setKeyComparator
|| __TEXT.__text _uhash_setKeyDeleter
|| __TEXT.__text _uhash_setKeyHasher
|| __TEXT.__text _uhash_setResizePolicy
|| __TEXT.__text _uhash_setValueComparator
|| __TEXT.__text _uhash_setValueDeleter
|| __TEXT.__text _uidna_IDNToASCII
|| __TEXT.__text _uidna_IDNToUnicode
|| __TEXT.__text _uidna_close
|| __TEXT.__text _uidna_compare
|| __TEXT.__text _uidna_labelToASCII
|| __TEXT.__text _uidna_labelToASCII_UTF8
|| __TEXT.__text _uidna_labelToUnicode
|| __TEXT.__text _uidna_labelToUnicodeUTF8
|| __TEXT.__text _uidna_nameToASCII
|| __TEXT.__text _uidna_nameToASCII_UTF8
|| __TEXT.__text _uidna_nameToUnicode
|| __TEXT.__text _uidna_nameToUnicodeUTF8
|| __TEXT.__text _uidna_openUTS46
|| __TEXT.__text _uidna_toASCII
|| __TEXT.__text _uidna_toUnicode
|| __TEXT.__text _uiter_current32
|| __TEXT.__text _uiter_getState
|| __TEXT.__text _uiter_next32
|| __TEXT.__text _uiter_previous32
|| __TEXT.__text _uiter_setCharacterIterator
|| __TEXT.__text _uiter_setReplaceable
|| __TEXT.__text _uiter_setState
|| __TEXT.__text _uiter_setString
|| __TEXT.__text _uiter_setUTF16BE
|| __TEXT.__text _uiter_setUTF8
|| __TEXT.__text _uldn_close
|| __TEXT.__text _uldn_getContext
|| __TEXT.__text _uldn_getDialectHandling
|| __TEXT.__text _uldn_getLocale
|| __TEXT.__text _uldn_keyDisplayName
|| __TEXT.__text _uldn_keyValueDisplayName
|| __TEXT.__text _uldn_languageDisplayName
|| __TEXT.__text _uldn_localeDisplayName
|| __TEXT.__text _uldn_open
|| __TEXT.__text _uldn_openForContext
|| __TEXT.__text _uldn_regionDisplayName
|| __TEXT.__text _uldn_scriptCodeDisplayName
|| __TEXT.__text _uldn_scriptDisplayName
|| __TEXT.__text _uldn_variantDisplayName
|| __TEXT.__text _ulist_addItemBeginList
|| __TEXT.__text _ulist_addItemEndList
|| __TEXT.__text _ulist_close_keyword_values_iterator
|| __TEXT.__text _ulist_containsString
|| __TEXT.__text _ulist_count_keyword_values
|| __TEXT.__text _ulist_createEmptyList
|| __TEXT.__text _ulist_deleteList
|| __TEXT.__text _ulist_getListFromEnum
|| __TEXT.__text _ulist_getListSize
|| __TEXT.__text _ulist_getNext
|| __TEXT.__text _ulist_next_keyword_value
|| __TEXT.__text _ulist_removeString
|| __TEXT.__text _ulist_resetList
|| __TEXT.__text _ulist_reset_keyword_values_iterator
|| __TEXT.__text _ulistfmt_close
|| __TEXT.__text _ulistfmt_closeResult
|| __TEXT.__text _ulistfmt_format
|| __TEXT.__text _ulistfmt_formatStringsToResult
|| __TEXT.__text _ulistfmt_open
|| __TEXT.__text _ulistfmt_openResult
|| __TEXT.__text _ulistfmt_resultAsValue
|| __TEXT.__text _uloc_acceptLanguage
|| __TEXT.__text _uloc_acceptLanguageFromHTTP
|| __TEXT.__text _uloc_addLikelySubtags
|| __TEXT.__text _uloc_canonicalize
|| __TEXT.__text _uloc_countAvailable
|| __TEXT.__text _uloc_forLanguageTag
|| __TEXT.__text _uloc_getAvailable
|| __TEXT.__text _uloc_getBaseName
|| __TEXT.__text _uloc_getCharacterOrientation
|| __TEXT.__text _uloc_getCountry
|| __TEXT.__text _uloc_getDefault
|| __TEXT.__text _uloc_getDisplayCountry
|| __TEXT.__text _uloc_getDisplayKeyword
|| __TEXT.__text _uloc_getDisplayKeywordValue
|| __TEXT.__text _uloc_getDisplayLanguage
|| __TEXT.__text _uloc_getDisplayName
|| __TEXT.__text _uloc_getDisplayScript
|| __TEXT.__text _uloc_getDisplayScriptInContext
|| __TEXT.__text _uloc_getDisplayVariant
|| __TEXT.__text _uloc_getISO3Country
|| __TEXT.__text _uloc_getISO3Language
|| __TEXT.__text _uloc_getISOCountries
|| __TEXT.__text _uloc_getISOLanguages
|| __TEXT.__text _uloc_getKeywordValue
|| __TEXT.__text _uloc_getLCID
|| __TEXT.__text _uloc_getLanguage
|| __TEXT.__text _uloc_getLineOrientation
|| __TEXT.__text _uloc_getLocaleForLCID
|| __TEXT.__text _uloc_getName
|| __TEXT.__text _uloc_getParent
|| __TEXT.__text _uloc_getScript
|| __TEXT.__text _uloc_getTableStringWithFallback
|| __TEXT.__text _uloc_getVariant
|| __TEXT.__text _uloc_isRightToLeft
|| __TEXT.__text _uloc_minimizeSubtags
|| __TEXT.__text _uloc_openKeywordList
|| __TEXT.__text _uloc_openKeywords
|| __TEXT.__text _uloc_setDefault
|| __TEXT.__text _uloc_setKeywordValue
|| __TEXT.__text _uloc_toLanguageTag
|| __TEXT.__text _uloc_toLegacyKey
|| __TEXT.__text _uloc_toLegacyType
|| __TEXT.__text _uloc_toUnicodeLocaleKey
|| __TEXT.__text _uloc_toUnicodeLocaleType
|| __TEXT.__text _ulocdata_close
|| __TEXT.__text _ulocdata_getCLDRVersion
|| __TEXT.__text _ulocdata_getDelimiter
|| __TEXT.__text _ulocdata_getExemplarSet
|| __TEXT.__text _ulocdata_getLocaleDisplayPattern
|| __TEXT.__text _ulocdata_getLocaleSeparator
|| __TEXT.__text _ulocdata_getMeasurementSystem
|| __TEXT.__text _ulocdata_getNoSubstitute
|| __TEXT.__text _ulocdata_getPaperSize
|| __TEXT.__text _ulocdata_open
|| __TEXT.__text _ulocdata_setNoSubstitute
|| __TEXT.__text _ulocimp_addLikelySubtags
|| __TEXT.__text _ulocimp_forLanguageTag
|| __TEXT.__text _ulocimp_getRegionForSupplementalData
|| __TEXT.__text _ulocimp_minimizeSubtags
|| __TEXT.__text _ulocimp_toLanguageTag
|| __TEXT.__text _umsg_applyPattern
|| __TEXT.__text _umsg_autoQuoteApostrophe
|| __TEXT.__text _umsg_clone
|| __TEXT.__text _umsg_close
|| __TEXT.__text _umsg_format
|| __TEXT.__text _umsg_getLocale
|| __TEXT.__text _umsg_open
|| __TEXT.__text _umsg_parse
|| __TEXT.__text _umsg_setLocale
|| __TEXT.__text _umsg_toPattern
|| __TEXT.__text _umsg_vformat
|| __TEXT.__text _umsg_vparse
|| __TEXT.__text _umtx_lock
|| __TEXT.__text _umtx_unlock
|| __TEXT.__text _umutablecptrie_buildImmutable
|| __TEXT.__text _umutablecptrie_clone
|| __TEXT.__text _umutablecptrie_close
|| __TEXT.__text _umutablecptrie_fromUCPMap
|| __TEXT.__text _umutablecptrie_fromUCPTrie
|| __TEXT.__text _umutablecptrie_get
|| __TEXT.__text _umutablecptrie_getRange
|| __TEXT.__text _umutablecptrie_open
|| __TEXT.__text _umutablecptrie_set
|| __TEXT.__text _umutablecptrie_setRange
|| __TEXT.__text _unorm2_append
|| __TEXT.__text _unorm2_close
|| __TEXT.__text _unorm2_composePair
|| __TEXT.__text _unorm2_getCombiningClass
|| __TEXT.__text _unorm2_getDecomposition
|| __TEXT.__text _unorm2_getInstance
|| __TEXT.__text _unorm2_getNFCInstance
|| __TEXT.__text _unorm2_getNFDInstance
|| __TEXT.__text _unorm2_getNFKCCasefoldInstance
|| __TEXT.__text _unorm2_getNFKCInstance
|| __TEXT.__text _unorm2_getNFKDInstance
|| __TEXT.__text _unorm2_getRawDecomposition
|| __TEXT.__text _unorm2_hasBoundaryAfter
|| __TEXT.__text _unorm2_hasBoundaryBefore
|| __TEXT.__text _unorm2_isInert
|| __TEXT.__text _unorm2_isNormalized
|| __TEXT.__text _unorm2_normalize
|| __TEXT.__text _unorm2_normalizeSecondAndAppend
|| __TEXT.__text _unorm2_openFiltered
|| __TEXT.__text _unorm2_quickCheck
|| __TEXT.__text _unorm2_spanQuickCheckYes
|| __TEXT.__text _unorm2_swap
|| __TEXT.__text _unorm_compare
|| __TEXT.__text _unorm_concatenate
|| __TEXT.__text _unorm_isNormalized
|| __TEXT.__text _unorm_isNormalizedWithOptions
|| __TEXT.__text _unorm_next
|| __TEXT.__text _unorm_normalize
|| __TEXT.__text _unorm_previous
|| __TEXT.__text _unorm_quickCheck
|| __TEXT.__text _unorm_quickCheckWithOptions
|| __TEXT.__text _unum_applyPattern
|| __TEXT.__text _unum_clone
|| __TEXT.__text _unum_close
|| __TEXT.__text _unum_countAvailable
|| __TEXT.__text _unum_format
|| __TEXT.__text _unum_formatDecimal
|| __TEXT.__text _unum_formatDouble
|| __TEXT.__text _unum_formatDoubleCurrency
|| __TEXT.__text _unum_formatDoubleForFields
|| __TEXT.__text _unum_formatInt64
|| __TEXT.__text _unum_formatUFormattable
|| __TEXT.__text _unum_getAttribute
|| __TEXT.__text _unum_getAvailable
|| __TEXT.__text _unum_getContext
|| __TEXT.__text _unum_getDoubleAttribute
|| __TEXT.__text _unum_getLocaleByType
|| __TEXT.__text _unum_getSymbol
|| __TEXT.__text _unum_getTextAttribute
|| __TEXT.__text _unum_open
|| __TEXT.__text _unum_parse
|| __TEXT.__text _unum_parseDecimal
|| __TEXT.__text _unum_parseDouble
|| __TEXT.__text _unum_parseDoubleCurrency
|| __TEXT.__text _unum_parseInt64
|| __TEXT.__text _unum_parseToUFormattable
|| __TEXT.__text _unum_setAttribute
|| __TEXT.__text _unum_setContext
|| __TEXT.__text _unum_setDoubleAttribute
|| __TEXT.__text _unum_setSymbol
|| __TEXT.__text _unum_setTextAttribute
|| __TEXT.__text _unum_toPattern
|| __TEXT.__text _unumf_close
|| __TEXT.__text _unumf_closeResult
|| __TEXT.__text _unumf_formatDecimal
|| __TEXT.__text _unumf_formatDouble
|| __TEXT.__text _unumf_formatInt
|| __TEXT.__text _unumf_openForSkeletonAndLocale
|| __TEXT.__text _unumf_openForSkeletonAndLocaleWithError
|| __TEXT.__text _unumf_openResult
|| __TEXT.__text _unumf_resultAsValue
|| __TEXT.__text _unumf_resultGetAllFieldPositions
|| __TEXT.__text _unumf_resultNextFieldPosition
|| __TEXT.__text _unumf_resultToString
|| __TEXT.__text _unumsys_close
|| __TEXT.__text _unumsys_getDescription
|| __TEXT.__text _unumsys_getName
|| __TEXT.__text _unumsys_getRadix
|| __TEXT.__text _unumsys_isAlgorithmic
|| __TEXT.__text _unumsys_open
|| __TEXT.__text _unumsys_openAvailableNames
|| __TEXT.__text _unumsys_openByName
|| __TEXT.__text _uplrule_close
|| __TEXT.__text _uplrule_open
|| __TEXT.__text _uplrule_select
|| __TEXT.__text _uplrule_selectDouble
|| __TEXT.__text _uplrules_close
|| __TEXT.__text _uplrules_getKeywords
|| __TEXT.__text _uplrules_open
|| __TEXT.__text _uplrules_openForType
|| __TEXT.__text _uplrules_select
|| __TEXT.__text _uplrules_selectFormatted
|| __TEXT.__text _uplrules_selectWithFormat
|| __TEXT.__text _uprv_add32_overflow
|| __TEXT.__text _uprv_aestrncpy
|| __TEXT.__text _uprv_asciitolower
|| __TEXT.__text _uprv_calloc
|| __TEXT.__text _uprv_ceil
|| __TEXT.__text _uprv_compareASCIIPropertyNames
|| __TEXT.__text _uprv_compareEBCDICPropertyNames
|| __TEXT.__text _uprv_compareInvEbcdicAsAscii
|| __TEXT.__text _uprv_convertToLCID
|| __TEXT.__text _uprv_convertToLCIDPlatform
|| __TEXT.__text _uprv_convertToPosix
|| __TEXT.__text _uprv_decContextClearStatus
|| __TEXT.__text _uprv_decContextDefault
|| __TEXT.__text _uprv_decContextGetRounding
|| __TEXT.__text _uprv_decContextGetStatus
|| __TEXT.__text _uprv_decContextRestoreStatus
|| __TEXT.__text _uprv_decContextSaveStatus
|| __TEXT.__text _uprv_decContextSetRounding
|| __TEXT.__text _uprv_decContextSetStatus
|| __TEXT.__text _uprv_decContextSetStatusFromString
|| __TEXT.__text _uprv_decContextSetStatusFromStringQuiet
|| __TEXT.__text _uprv_decContextSetStatusQuiet
|| __TEXT.__text _uprv_decContextStatusToString
|| __TEXT.__text _uprv_decContextTestSavedStatus
|| __TEXT.__text _uprv_decContextTestStatus
|| __TEXT.__text _uprv_decContextZeroStatus
|| __TEXT.__text _uprv_decNumberAbs
|| __TEXT.__text _uprv_decNumberAdd
|| __TEXT.__text _uprv_decNumberAnd
|| __TEXT.__text _uprv_decNumberClassToString
|| __TEXT.__text _uprv_decNumberCompare
|| __TEXT.__text _uprv_decNumberCompareSignal
|| __TEXT.__text _uprv_decNumberCompareTotal
|| __TEXT.__text _uprv_decNumberCompareTotalMag
|| __TEXT.__text _uprv_decNumberCopy
|| __TEXT.__text _uprv_decNumberCopyAbs
|| __TEXT.__text _uprv_decNumberCopyNegate
|| __TEXT.__text _uprv_decNumberCopySign
|| __TEXT.__text _uprv_decNumberDivide
|| __TEXT.__text _uprv_decNumberDivideInteger
|| __TEXT.__text _uprv_decNumberExp
|| __TEXT.__text _uprv_decNumberFMA
|| __TEXT.__text _uprv_decNumberFromInt32
|| __TEXT.__text _uprv_decNumberFromString
|| __TEXT.__text _uprv_decNumberFromUInt32
|| __TEXT.__text _uprv_decNumberGetBCD
|| __TEXT.__text _uprv_decNumberInvert
|| __TEXT.__text _uprv_decNumberIsNormal
|| __TEXT.__text _uprv_decNumberIsSubnormal
|| __TEXT.__text _uprv_decNumberLn
|| __TEXT.__text _uprv_decNumberLog10
|| __TEXT.__text _uprv_decNumberLogB
|| __TEXT.__text _uprv_decNumberMax
|| __TEXT.__text _uprv_decNumberMaxMag
|| __TEXT.__text _uprv_decNumberMin
|| __TEXT.__text _uprv_decNumberMinMag
|| __TEXT.__text _uprv_decNumberMinus
|| __TEXT.__text _uprv_decNumberMultiply
|| __TEXT.__text _uprv_decNumberNextMinus
|| __TEXT.__text _uprv_decNumberNextPlus
|| __TEXT.__text _uprv_decNumberNextToward
|| __TEXT.__text _uprv_decNumberNormalize
|| __TEXT.__text _uprv_decNumberOr
|| __TEXT.__text _uprv_decNumberPlus
|| __TEXT.__text _uprv_decNumberPower
|| __TEXT.__text _uprv_decNumberQuantize
|| __TEXT.__text _uprv_decNumberReduce
|| __TEXT.__text _uprv_decNumberRemainder
|| __TEXT.__text _uprv_decNumberRemainderNear
|| __TEXT.__text _uprv_decNumberRescale
|| __TEXT.__text _uprv_decNumberRotate
|| __TEXT.__text _uprv_decNumberSameQuantum
|| __TEXT.__text _uprv_decNumberScaleB
|| __TEXT.__text _uprv_decNumberSetBCD
|| __TEXT.__text _uprv_decNumberShift
|| __TEXT.__text _uprv_decNumberSquareRoot
|| __TEXT.__text _uprv_decNumberSubtract
|| __TEXT.__text _uprv_decNumberToEngString
|| __TEXT.__text _uprv_decNumberToInt32
|| __TEXT.__text _uprv_decNumberToIntegralExact
|| __TEXT.__text _uprv_decNumberToIntegralValue
|| __TEXT.__text _uprv_decNumberToString
|| __TEXT.__text _uprv_decNumberToUInt32
|| __TEXT.__text _uprv_decNumberTrim
|| __TEXT.__text _uprv_decNumberVersion
|| __TEXT.__text _uprv_decNumberXor
|| __TEXT.__text _uprv_decNumberZero
|| __TEXT.__text _uprv_deleteConditionalCE32
|| __TEXT.__text _uprv_deleteUObject
|| __TEXT.__text _uprv_dl_close
|| __TEXT.__text _uprv_dl_open
|| __TEXT.__text _uprv_dlsym_func
|| __TEXT.__text _uprv_eastrncpy
|| __TEXT.__text _uprv_ebcdicFromAscii
|| __TEXT.__text _uprv_ebcdicToLowercaseAscii
|| __TEXT.__text _uprv_ebcdictolower
|| __TEXT.__text _uprv_fabs
|| __TEXT.__text _uprv_floor
|| __TEXT.__text _uprv_fmax
|| __TEXT.__text _uprv_fmin
|| __TEXT.__text _uprv_fmod
|| __TEXT.__text _uprv_free
|| __TEXT.__text _uprv_getCharNameCharacters
|| __TEXT.__text _uprv_getDefaultLocaleID
|| __TEXT.__text _uprv_getInfinity
|| __TEXT.__text _uprv_getMaxCharNameLength
|| __TEXT.__text _uprv_getNaN
|| __TEXT.__text _uprv_getRawUTCtime
|| __TEXT.__text _uprv_getStaticCurrencyName
|| __TEXT.__text _uprv_getUTCtime
|| __TEXT.__text _uprv_int32Comparator
|| __TEXT.__text _uprv_isASCIILetter
|| __TEXT.__text _uprv_isInfinite
|| __TEXT.__text _uprv_isInvariantString
|| __TEXT.__text _uprv_isInvariantUString
|| __TEXT.__text _uprv_isNaN
|| __TEXT.__text _uprv_isNegativeInfinity
|| __TEXT.__text _uprv_isPositiveInfinity
|| __TEXT.__text _uprv_itou
|| __TEXT.__text _uprv_log
|| __TEXT.__text _uprv_malloc
|| __TEXT.__text _uprv_max
|| __TEXT.__text _uprv_maxMantissa
|| __TEXT.__text _uprv_maximumPtr
|| __TEXT.__text _uprv_min
|| __TEXT.__text _uprv_modf
|| __TEXT.__text _uprv_mul32_overflow
|| __TEXT.__text _uprv_parseCurrency
|| __TEXT.__text _uprv_pathIsAbsolute
|| __TEXT.__text _uprv_pow
|| __TEXT.__text _uprv_pow10
|| __TEXT.__text _uprv_realloc
|| __TEXT.__text _uprv_round
|| __TEXT.__text _uprv_sortArray
|| __TEXT.__text _uprv_stableBinarySearch
|| __TEXT.__text _uprv_strdup
|| __TEXT.__text _uprv_stricmp
|| __TEXT.__text _uprv_strndup
|| __TEXT.__text _uprv_strnicmp
|| __TEXT.__text _uprv_svc_hook
|| __TEXT.__text _uprv_syntaxError
|| __TEXT.__text _uprv_timezone
|| __TEXT.__text _uprv_toupper
|| __TEXT.__text _uprv_trunc
|| __TEXT.__text _uprv_tzname
|| __TEXT.__text _uprv_tzname_clear_cache
|| __TEXT.__text _uprv_tzset
|| __TEXT.__text _uprv_uint16Comparator
|| __TEXT.__text _uprv_uint32Comparator
|| __TEXT.__text _upvec_cloneArray
|| __TEXT.__text _upvec_close
|| __TEXT.__text _upvec_compact
|| __TEXT.__text _upvec_compactToUTrie2Handler
|| __TEXT.__text _upvec_compactToUTrie2WithRowIndexes
|| __TEXT.__text _upvec_getArray
|| __TEXT.__text _upvec_getRow
|| __TEXT.__text _upvec_getValue
|| __TEXT.__text _upvec_open
|| __TEXT.__text _upvec_setValue
|| __TEXT.__text _urbtok57_getBinaryRules
|| __TEXT.__text _urbtok57_openBinaryRules
|| __TEXT.__text _urbtok57_openBinaryRulesNoCopy
|| __TEXT.__text _urbtok57_openRules
|| __TEXT.__text _urbtok57_tokenize
|| __TEXT.__text _urbtok_getBinaryRules
|| __TEXT.__text _urbtok_open
|| __TEXT.__text _urbtok_openBinaryRules
|| __TEXT.__text _urbtok_openBinaryRulesNoCopy
|| __TEXT.__text _urbtok_openRules
|| __TEXT.__text _urbtok_swapBinaryRules
|| __TEXT.__text _urbtok_tokenize
|| __TEXT.__text _uregex_appendReplacement
|| __TEXT.__text _uregex_appendReplacementUText
|| __TEXT.__text _uregex_appendTail
|| __TEXT.__text _uregex_appendTailUText
|| __TEXT.__text _uregex_clone
|| __TEXT.__text _uregex_close
|| __TEXT.__text _uregex_end
|| __TEXT.__text _uregex_end64
|| __TEXT.__text _uregex_find
|| __TEXT.__text _uregex_find64
|| __TEXT.__text _uregex_findNext
|| __TEXT.__text _uregex_flags
|| __TEXT.__text _uregex_getFindProgressCallback
|| __TEXT.__text _uregex_getMatchCallback
|| __TEXT.__text _uregex_getStackLimit
|| __TEXT.__text _uregex_getText
|| __TEXT.__text _uregex_getTimeLimit
|| __TEXT.__text _uregex_getUText
|| __TEXT.__text _uregex_group
|| __TEXT.__text _uregex_groupCount
|| __TEXT.__text _uregex_groupNumberFromCName
|| __TEXT.__text _uregex_groupNumberFromName
|| __TEXT.__text _uregex_groupUText
|| __TEXT.__text _uregex_hasAnchoringBounds
|| __TEXT.__text _uregex_hasTransparentBounds
|| __TEXT.__text _uregex_hitEnd
|| __TEXT.__text _uregex_lookingAt
|| __TEXT.__text _uregex_lookingAt64
|| __TEXT.__text _uregex_matches
|| __TEXT.__text _uregex_matches64
|| __TEXT.__text _uregex_open
|| __TEXT.__text _uregex_openC
|| __TEXT.__text _uregex_openUText
|| __TEXT.__text _uregex_pattern
|| __TEXT.__text _uregex_patternUText
|| __TEXT.__text _uregex_refreshUText
|| __TEXT.__text _uregex_regionEnd
|| __TEXT.__text _uregex_regionEnd64
|| __TEXT.__text _uregex_regionStart
|| __TEXT.__text _uregex_regionStart64
|| __TEXT.__text _uregex_replaceAll
|| __TEXT.__text _uregex_replaceAllUText
|| __TEXT.__text _uregex_replaceFirst
|| __TEXT.__text _uregex_replaceFirstUText
|| __TEXT.__text _uregex_requireEnd
|| __TEXT.__text _uregex_reset
|| __TEXT.__text _uregex_reset64
|| __TEXT.__text _uregex_setFindProgressCallback
|| __TEXT.__text _uregex_setMatchCallback
|| __TEXT.__text _uregex_setRegion
|| __TEXT.__text _uregex_setRegion64
|| __TEXT.__text _uregex_setRegionAndStart
|| __TEXT.__text _uregex_setStackLimit
|| __TEXT.__text _uregex_setText
|| __TEXT.__text _uregex_setTimeLimit
|| __TEXT.__text _uregex_setUText
|| __TEXT.__text _uregex_split
|| __TEXT.__text _uregex_splitUText
|| __TEXT.__text _uregex_start
|| __TEXT.__text _uregex_start64
|| __TEXT.__text _uregex_useAnchoringBounds
|| __TEXT.__text _uregex_useTransparentBounds
|| __TEXT.__text _uregion_areEqual
|| __TEXT.__text _uregion_contains
|| __TEXT.__text _uregion_getAvailable
|| __TEXT.__text _uregion_getContainedRegions
|| __TEXT.__text _uregion_getContainedRegionsOfType
|| __TEXT.__text _uregion_getContainingRegion
|| __TEXT.__text _uregion_getContainingRegionOfType
|| __TEXT.__text _uregion_getNumericCode
|| __TEXT.__text _uregion_getPreferredValues
|| __TEXT.__text _uregion_getRegionCode
|| __TEXT.__text _uregion_getRegionFromCode
|| __TEXT.__text _uregion_getRegionFromNumericCode
|| __TEXT.__text _uregion_getType
|| __TEXT.__text _ureldatefmt_close
|| __TEXT.__text _ureldatefmt_closeResult
|| __TEXT.__text _ureldatefmt_combineDateAndTime
|| __TEXT.__text _ureldatefmt_format
|| __TEXT.__text _ureldatefmt_formatNumeric
|| __TEXT.__text _ureldatefmt_formatNumericToResult
|| __TEXT.__text _ureldatefmt_formatToResult
|| __TEXT.__text _ureldatefmt_open
|| __TEXT.__text _ureldatefmt_openResult
|| __TEXT.__text _ureldatefmt_resultAsValue
|| __TEXT.__text _ures_close
|| __TEXT.__text _ures_countArrayItems
|| __TEXT.__text _ures_findResource
|| __TEXT.__text _ures_findSubResource
|| __TEXT.__text _ures_getAllItemsWithFallback
|| __TEXT.__text _ures_getBinary
|| __TEXT.__text _ures_getByIndex
|| __TEXT.__text _ures_getByKey
|| __TEXT.__text _ures_getByKeyWithFallback
|| __TEXT.__text _ures_getFunctionalEquivalent
|| __TEXT.__text _ures_getInt
|| __TEXT.__text _ures_getIntVector
|| __TEXT.__text _ures_getKey
|| __TEXT.__text _ures_getKeywordValues
|| __TEXT.__text _ures_getLocale
|| __TEXT.__text _ures_getLocaleByType
|| __TEXT.__text _ures_getLocaleInternal
|| __TEXT.__text _ures_getNextResource
|| __TEXT.__text _ures_getNextString
|| __TEXT.__text _ures_getSize
|| __TEXT.__text _ures_getString
|| __TEXT.__text _ures_getStringByIndex
|| __TEXT.__text _ures_getStringByKey
|| __TEXT.__text _ures_getStringByKeyWithFallback
|| __TEXT.__text _ures_getType
|| __TEXT.__text _ures_getUInt
|| __TEXT.__text _ures_getUTF8String
|| __TEXT.__text _ures_getUTF8StringByIndex
|| __TEXT.__text _ures_getUTF8StringByKey
|| __TEXT.__text _ures_getVersion
|| __TEXT.__text _ures_getVersionByKey
|| __TEXT.__text _ures_getVersionNumber
|| __TEXT.__text _ures_getVersionNumberInternal
|| __TEXT.__text _ures_hasNext
|| __TEXT.__text _ures_initStackObject
|| __TEXT.__text _ures_open
|| __TEXT.__text _ures_openAvailableLocales
|| __TEXT.__text _ures_openDirect
|| __TEXT.__text _ures_openDirectFillIn
|| __TEXT.__text _ures_openFillIn
|| __TEXT.__text _ures_openNoDefault
|| __TEXT.__text _ures_openU
|| __TEXT.__text _ures_resetIterator
|| __TEXT.__text _ures_swap
|| __TEXT.__text _uscript_breaksBetweenLetters
|| __TEXT.__text _uscript_closeRun
|| __TEXT.__text _uscript_getCode
|| __TEXT.__text _uscript_getName
|| __TEXT.__text _uscript_getSampleString
|| __TEXT.__text _uscript_getScript
|| __TEXT.__text _uscript_getScriptExtensions
|| __TEXT.__text _uscript_getShortName
|| __TEXT.__text _uscript_getUsage
|| __TEXT.__text _uscript_hasScript
|| __TEXT.__text _uscript_isCased
|| __TEXT.__text _uscript_isRightToLeft
|| __TEXT.__text _uscript_nextRun
|| __TEXT.__text _uscript_openRun
|| __TEXT.__text _uscript_resetRun
|| __TEXT.__text _uscript_setRunText
|| __TEXT.__text _usearch_close
|| __TEXT.__text _usearch_first
|| __TEXT.__text _usearch_following
|| __TEXT.__text _usearch_getAttribute
|| __TEXT.__text _usearch_getBreakIterator
|| __TEXT.__text _usearch_getCollator
|| __TEXT.__text _usearch_getMatchedLength
|| __TEXT.__text _usearch_getMatchedStart
|| __TEXT.__text _usearch_getMatchedText
|| __TEXT.__text _usearch_getOffset
|| __TEXT.__text _usearch_getPattern
|| __TEXT.__text _usearch_getText
|| __TEXT.__text _usearch_last
|| __TEXT.__text _usearch_next
|| __TEXT.__text _usearch_open
|| __TEXT.__text _usearch_openFromCollator
|| __TEXT.__text _usearch_preceding
|| __TEXT.__text _usearch_previous
|| __TEXT.__text _usearch_reset
|| __TEXT.__text _usearch_search
|| __TEXT.__text _usearch_searchBackwards
|| __TEXT.__text _usearch_setAttribute
|| __TEXT.__text _usearch_setBreakIterator
|| __TEXT.__text _usearch_setCollator
|| __TEXT.__text _usearch_setOffset
|| __TEXT.__text _usearch_setPattern
|| __TEXT.__text _usearch_setText
|| __TEXT.__text _uset_add
|| __TEXT.__text _uset_addAll
|| __TEXT.__text _uset_addAllCodePoints
|| __TEXT.__text _uset_addRange
|| __TEXT.__text _uset_addString
|| __TEXT.__text _uset_applyIntPropertyValue
|| __TEXT.__text _uset_applyPattern
|| __TEXT.__text _uset_applyPropertyAlias
|| __TEXT.__text _uset_charAt
|| __TEXT.__text _uset_clear
|| __TEXT.__text _uset_clone
|| __TEXT.__text _uset_cloneAsThawed
|| __TEXT.__text _uset_close
|| __TEXT.__text _uset_closeOver
|| __TEXT.__text _uset_compact
|| __TEXT.__text _uset_complement
|| __TEXT.__text _uset_complementAll
|| __TEXT.__text _uset_contains
|| __TEXT.__text _uset_containsAll
|| __TEXT.__text _uset_containsAllCodePoints
|| __TEXT.__text _uset_containsNone
|| __TEXT.__text _uset_containsRange
|| __TEXT.__text _uset_containsSome
|| __TEXT.__text _uset_containsString
|| __TEXT.__text _uset_equals
|| __TEXT.__text _uset_freeze
|| __TEXT.__text _uset_getItem
|| __TEXT.__text _uset_getItemCount
|| __TEXT.__text _uset_getSerializedRange
|| __TEXT.__text _uset_getSerializedRangeCount
|| __TEXT.__text _uset_getSerializedSet
|| __TEXT.__text _uset_indexOf
|| __TEXT.__text _uset_isEmpty
|| __TEXT.__text _uset_isFrozen
|| __TEXT.__text _uset_open
|| __TEXT.__text _uset_openEmpty
|| __TEXT.__text _uset_openPattern
|| __TEXT.__text _uset_openPatternOptions
|| __TEXT.__text _uset_remove
|| __TEXT.__text _uset_removeAll
|| __TEXT.__text _uset_removeAllStrings
|| __TEXT.__text _uset_removeRange
|| __TEXT.__text _uset_removeString
|| __TEXT.__text _uset_resemblesPattern
|| __TEXT.__text _uset_retain
|| __TEXT.__text _uset_retainAll
|| __TEXT.__text _uset_serialize
|| __TEXT.__text _uset_serializedContains
|| __TEXT.__text _uset_set
|| __TEXT.__text _uset_setSerializedToOne
|| __TEXT.__text _uset_size
|| __TEXT.__text _uset_span
|| __TEXT.__text _uset_spanBack
|| __TEXT.__text _uset_spanBackUTF8
|| __TEXT.__text _uset_spanUTF8
|| __TEXT.__text _uset_toPattern
|| __TEXT.__text _uspoof_areConfusable
|| __TEXT.__text _uspoof_areConfusableUTF8
|| __TEXT.__text _uspoof_areConfusableUnicodeString
|| __TEXT.__text _uspoof_check
|| __TEXT.__text _uspoof_check2
|| __TEXT.__text _uspoof_check2UTF8
|| __TEXT.__text _uspoof_check2UnicodeString
|| __TEXT.__text _uspoof_checkUTF8
|| __TEXT.__text _uspoof_checkUnicodeString
|| __TEXT.__text _uspoof_clone
|| __TEXT.__text _uspoof_close
|| __TEXT.__text _uspoof_closeCheckResult
|| __TEXT.__text _uspoof_getAllowedChars
|| __TEXT.__text _uspoof_getAllowedLocales
|| __TEXT.__text _uspoof_getAllowedUnicodeSet
|| __TEXT.__text _uspoof_getCheckResultChecks
|| __TEXT.__text _uspoof_getCheckResultNumerics
|| __TEXT.__text _uspoof_getCheckResultRestrictionLevel
|| __TEXT.__text _uspoof_getChecks
|| __TEXT.__text _uspoof_getInclusionSet
|| __TEXT.__text _uspoof_getInclusionUnicodeSet
|| __TEXT.__text _uspoof_getRecommendedSet
|| __TEXT.__text _uspoof_getRecommendedUnicodeSet
|| __TEXT.__text _uspoof_getRestrictionLevel
|| __TEXT.__text _uspoof_getSkeleton
|| __TEXT.__text _uspoof_getSkeletonUTF8
|| __TEXT.__text _uspoof_open
|| __TEXT.__text _uspoof_openCheckResult
|| __TEXT.__text _uspoof_openFromSerialized
|| __TEXT.__text _uspoof_openFromSource
|| __TEXT.__text _uspoof_serialize
|| __TEXT.__text _uspoof_setAllowedChars
|| __TEXT.__text _uspoof_setAllowedLocales
|| __TEXT.__text _uspoof_setAllowedUnicodeSet
|| __TEXT.__text _uspoof_setChecks
|| __TEXT.__text _uspoof_setRestrictionLevel
|| __TEXT.__text _uspoof_swap
|| __TEXT.__text _usprep_close
|| __TEXT.__text _usprep_open
|| __TEXT.__text _usprep_openByType
|| __TEXT.__text _usprep_prepare
|| __TEXT.__text _usprep_swap
|| __TEXT.__text _ustr_hashCharsN
|| __TEXT.__text _ustr_hashICharsN
|| __TEXT.__text _ustr_hashUCharsN
|| __TEXT.__text _utext_char32At
|| __TEXT.__text _utext_clone
|| __TEXT.__text _utext_close
|| __TEXT.__text _utext_copy
|| __TEXT.__text _utext_current32
|| __TEXT.__text _utext_equals
|| __TEXT.__text _utext_extract
|| __TEXT.__text _utext_freeze
|| __TEXT.__text _utext_getNativeIndex
|| __TEXT.__text _utext_getPreviousNativeIndex
|| __TEXT.__text _utext_hasMetaData
|| __TEXT.__text _utext_isLengthExpensive
|| __TEXT.__text _utext_isWritable
|| __TEXT.__text _utext_moveIndex32
|| __TEXT.__text _utext_nativeLength
|| __TEXT.__text _utext_next32
|| __TEXT.__text _utext_next32From
|| __TEXT.__text _utext_openCharacterIterator
|| __TEXT.__text _utext_openConstUnicodeString
|| __TEXT.__text _utext_openReplaceable
|| __TEXT.__text _utext_openUChars
|| __TEXT.__text _utext_openUTF8
|| __TEXT.__text _utext_openUnicodeString
|| __TEXT.__text _utext_previous32
|| __TEXT.__text _utext_previous32From
|| __TEXT.__text _utext_replace
|| __TEXT.__text _utext_setNativeIndex
|| __TEXT.__text _utext_setup
|| __TEXT.__text _utf8_appendCharSafeBody
|| __TEXT.__text _utf8_back1SafeBody
|| __TEXT.__text _utf8_nextCharSafeBody
|| __TEXT.__text _utf8_prevCharSafeBody
|| __TEXT.__text _utmscale_fromInt64
|| __TEXT.__text _utmscale_getTimeScaleValue
|| __TEXT.__text _utmscale_toInt64
|| __TEXT.__text _utrace_data
|| __TEXT.__text _utrace_entry
|| __TEXT.__text _utrace_exit
|| __TEXT.__text _utrace_format
|| __TEXT.__text _utrace_functionName
|| __TEXT.__text _utrace_getFunctions
|| __TEXT.__text _utrace_getLevel
|| __TEXT.__text _utrace_setFunctions
|| __TEXT.__text _utrace_setLevel
|| __TEXT.__text _utrace_vformat
|| __TEXT.__text _utrans_clone
|| __TEXT.__text _utrans_close
|| __TEXT.__text _utrans_countAvailableIDs
|| __TEXT.__text _utrans_getAvailableID
|| __TEXT.__text _utrans_getID
|| __TEXT.__text _utrans_getSourceSet
|| __TEXT.__text _utrans_getUnicodeID
|| __TEXT.__text _utrans_open
|| __TEXT.__text _utrans_openIDs
|| __TEXT.__text _utrans_openInverse
|| __TEXT.__text _utrans_openU
|| __TEXT.__text _utrans_register
|| __TEXT.__text _utrans_setFilter
|| __TEXT.__text _utrans_stripRules
|| __TEXT.__text _utrans_toRules
|| __TEXT.__text _utrans_trans
|| __TEXT.__text _utrans_transIncremental
|| __TEXT.__text _utrans_transIncrementalUChars
|| __TEXT.__text _utrans_transUChars
|| __TEXT.__text _utrans_unregister
|| __TEXT.__text _utrans_unregisterID
|| __TEXT.__text _utrie2_clone
|| __TEXT.__text _utrie2_cloneAsThawed
|| __TEXT.__text _utrie2_close
|| __TEXT.__text _utrie2_enum
|| __TEXT.__text _utrie2_enumForLeadSurrogate
|| __TEXT.__text _utrie2_freeze
|| __TEXT.__text _utrie2_fromUTrie
|| __TEXT.__text _utrie2_get32
|| __TEXT.__text _utrie2_get32FromLeadSurrogateCodeUnit
|| __TEXT.__text _utrie2_internalU8NextIndex
|| __TEXT.__text _utrie2_internalU8PrevIndex
|| __TEXT.__text _utrie2_isFrozen
|| __TEXT.__text _utrie2_open
|| __TEXT.__text _utrie2_openDummy
|| __TEXT.__text _utrie2_openFromSerialized
|| __TEXT.__text _utrie2_serialize
|| __TEXT.__text _utrie2_set32
|| __TEXT.__text _utrie2_set32ForLeadSurrogateCodeUnit
|| __TEXT.__text _utrie2_setRange32
|| __TEXT.__text _utrie2_swap
|| __TEXT.__text _utrie_clone
|| __TEXT.__text _utrie_close
|| __TEXT.__text _utrie_defaultGetFoldingOffset
|| __TEXT.__text _utrie_enum
|| __TEXT.__text _utrie_get32
|| __TEXT.__text _utrie_getData
|| __TEXT.__text _utrie_open
|| __TEXT.__text _utrie_serialize
|| __TEXT.__text _utrie_set32
|| __TEXT.__text _utrie_setRange32
|| __TEXT.__text _utrie_swap
|| __TEXT.__text _utrie_swapAnyVersion
|| __TEXT.__text _utrie_unserialize
|| __TEXT.__text _utrie_unserializeDummy
|| __TEXT.__text _vzone_clone
|| __TEXT.__text _vzone_close
|| __TEXT.__text _vzone_countTransitionRules
|| __TEXT.__text _vzone_equals
|| __TEXT.__text _vzone_getDynamicClassID
|| __TEXT.__text _vzone_getLastModified
|| __TEXT.__text _vzone_getNextTransition
|| __TEXT.__text _vzone_getOffset
|| __TEXT.__text _vzone_getOffset2
|| __TEXT.__text _vzone_getOffset3
|| __TEXT.__text _vzone_getPreviousTransition
|| __TEXT.__text _vzone_getRawOffset
|| __TEXT.__text _vzone_getStaticClassID
|| __TEXT.__text _vzone_getTZURL
|| __TEXT.__text _vzone_hasSameRules
|| __TEXT.__text _vzone_inDaylightTime
|| __TEXT.__text _vzone_openData
|| __TEXT.__text _vzone_openID
|| __TEXT.__text _vzone_setLastModified
|| __TEXT.__text _vzone_setRawOffset
|| __TEXT.__text _vzone_setTZURL
|| __TEXT.__text _vzone_useDaylightTime
