|| __TEXT.__text _TelephonyBasebandPCITransportCreate
|| __TEXT.__text _TelephonyBasebandPCITransportDeregisterTimeEvent
|| __TEXT.__text _TelephonyBasebandPCITransportInitParameters
|| __TEXT.__text _TelephonyBasebandPCITransportMapRegion
|| __TEXT.__text _TelephonyBasebandPCITransportRegisterTimeEvent
|| __TEXT.__text _TelephonyBasebandPCITransportTimesync
|| __TEXT.__text _TelephonyBasebandPCITransportUnmapRegion
|| __TEXT.__text __ZN3pci5event8Listener4initEv
|| __TEXT.__text __ZN3pci5event8Listener6createEN8dispatch5blockIU13block_pointerFvNS0_4typeEONSt3__112basic_stringIcNS5_11char_traitsIcEENS5_9allocatorIcEEEEjEEEP11__CFRunLoop
|| __TEXT.__text __ZN3pci5event8Listener6notifyENSt3__14pairINS_9transport6kernel7variantEjEEPvS8_
|| __TEXT.__text __ZN3pci5event8Listener9notifyPDPENSt3__14pairINS_9transport6kernel7variantEjEEPv
|| __TEXT.__text __ZN3pci5event8ListenerC1EN8dispatch5blockIU13block_pointerFvNS0_4typeEONSt3__112basic_stringIcNS5_11char_traitsIcEENS5_9allocatorIcEEEEjEEEP11__CFRunLoop
|| __TEXT.__text __ZN3pci5event8ListenerC2EN8dispatch5blockIU13block_pointerFvNS0_4typeEONSt3__112basic_stringIcNS5_11char_traitsIcEENS5_9allocatorIcEEEEjEEEP11__CFRunLoop
|| __TEXT.__text __ZN3pci5event8ListenerD1Ev
|| __TEXT.__text __ZN3pci5event8ListenerD2Ev
|| __TEXT.__text __ZN3pci9transport13kernelControl6createEv
|| __TEXT.__text __ZN3pci9transport6kernel12probeVariantEv
|| __TEXT.__text __ZN3pci9transport6kernel13errorAsStringENSt3__14pairINS1_7variantEjEE
|| __TEXT.__text __ZN3pci9transport6kernel15errorAsUnsignedENSt3__14pairINS1_7variantEjEE
|| __TEXT.__text __ZN3pci9transport6kernel16isServicePresentEPKc
|| __TEXT.__text __ZN3pci9transport6kernel6createEv
|| __TEXT.__text __ZNK3pci9transport6kernel21getTimesyncBufferSizeEj
|| __TEXT.__text __ZNK3pci9transport6kernel22marshalTimesyncResultsEPvj
__ CoreFoundation: _CFArrayGetCount
__ CoreFoundation: _CFArrayGetValueAtIndex
__ CoreFoundation: _CFDictionaryGetTypeID
__ CoreFoundation: _CFDictionaryGetValue
__ CoreFoundation: _CFDictionarySetValue
__ CoreFoundation: _CFGetTypeID
__ CoreFoundation: _CFNumberGetTypeID
__ CoreFoundation: _CFRelease
__ CoreFoundation: _CFRetain
__ CoreFoundation: _CFRunLoopAddSource
__ CoreFoundation: _CFRunLoopGetCurrent
__ CoreFoundation: _CFRunLoopPerformBlock
__ CoreFoundation: _CFRunLoopRemoveSource
__ CoreFoundation: _CFRunLoopWakeUp
__ CoreFoundation: ___CFConstantStringClassReference
__ CoreFoundation: _kCFRunLoopDefaultMode
__ IOKit: _IONotificationPortCreate
__ IOKit: _IONotificationPortDestroy
__ IOKit: _IONotificationPortGetRunLoopSource
__ IOKit: _IOObjectRelease
__ IOKit: _IOServiceAddInterestNotification
__ IOKit: _IOServiceGetMatchingService
__ IOKit: _IOServiceMatching
__ IOKit: _kIOMasterPortDefault
__ libIOABP.dylib: __Z21getABPErrorTypeString12abpErrorType
__ libIOABP.dylib: __Z21getABPLinkStateString12abpLinkState
__ libIOABP.dylib: __Z24getABPAERErrorTypeString15abpAERErrorType
__ libIOABP.dylib: __ZN10IOABPClass10writeAsyncEPKvjPFvPviS2_ES2_
__ libIOABP.dylib: __ZN10IOABPClass12readRegisterEjPvPj
__ libIOABP.dylib: __ZN10IOABPClass13timeSyncAsyncEPvjPFvS0_iS0_ES0_
__ libIOABP.dylib: __ZN10IOABPClass14sendImageAsyncEPKvjPFvPviS2_S2_ES2_
__ libIOABP.dylib: __ZN10IOABPClass17abortChannelAsyncE12abpDirectionPFvPviES1_
__ libIOABP.dylib: __ZN10IOABPClass17startChannelAsyncE12abpDirectionPFvPviES1_
__ libIOABP.dylib: __ZN10IOABPClass4openEj
__ libIOABP.dylib: __ZN10IOABPClass4readEPvPj
__ libIOABP.dylib: __ZN10IOABPClass4stopEP16dispatch_group_s
__ libIOABP.dylib: __ZN10IOABPClass5closeEv
__ libIOABP.dylib: __ZN10IOABPClass5startEPKcP11__CFRunLoopU13block_pointerFvjES5_U13block_pointerFv12abpErrorTypejiE
__ libIOABP.dylib: __ZN10IOABPClass5startEPKcP16dispatch_queue_sU13block_pointerFvjES5_U13block_pointerFv12abpErrorTypejiE
__ libIOABP.dylib: __ZN10IOABPClass5writeEPKvj
__ libIOABP.dylib: __ZN10IOABPClass9readAsyncEPvjPFvS0_iS0_ES0_
__ libIOABP.dylib: __ZN10IOABPClass9sendImageEPKvjPj
__ libIOABP.dylib: __ZN10IOABPClassC1Ev
__ libIOABP.dylib: __ZN10IOABPClassD1Ev
__ libIOABP.dylib: __ZN17IOABPControlClass10loggerTuneEjjPvS0_
__ libIOABP.dylib: __ZN17IOABPControlClass13readLogsAsyncEPvjbPFvS0_iS0_ES0_
__ libIOABP.dylib: __ZN17IOABPControlClass21getLastKnownBootStageEPj
__ libIOABP.dylib: __ZN17IOABPControlClass24getLogInternalBufferSizeEPj
__ libIOABP.dylib: __ZN17IOABPControlClass25registerEventNotificationEP11__CFRunLoopU13block_pointerFv12abpErrorTypePvS3_E
__ libIOABP.dylib: __ZN17IOABPControlClass25registerEventNotificationEP16dispatch_queue_sU13block_pointerFv12abpErrorTypePvS3_E
__ libIOABP.dylib: __ZN17IOABPControlClass27deregisterEventNotificationEP16dispatch_group_s
__ libIOABP.dylib: __ZN17IOABPControlClass4openEP11__CFRunLoop
__ libIOABP.dylib: __ZN17IOABPControlClass4openEP16dispatch_queue_s
__ libIOABP.dylib: __ZN17IOABPControlClass4stopEv
__ libIOABP.dylib: __ZN17IOABPControlClass5closeEv
__ libIOABP.dylib: __ZN17IOABPControlClass5startEv
__ libIOABP.dylib: __ZN17IOABPControlClassC1Ev
__ libIOABP.dylib: __ZN17IOABPControlClassD1Ev
__ libIOACIPC.dylib: __Z23getACIPCErrorTypeStringj
__ libIOACIPC.dylib: __Z23getACIPCLinkStateStringj
__ libIOACIPC.dylib: __Z26getACIPCAERErrorTypeStringj
__ libIOACIPC.dylib: __ZN12IOACIPCClass10apiAdapterEj
__ libIOACIPC.dylib: __ZN12IOACIPCClass11unmapMemoryEt
__ libIOACIPC.dylib: __ZN12IOACIPCClass12notifyMemoryEtPKvj
__ libIOACIPC.dylib: __ZN12IOACIPCClass12readRegisterEjPvPj
__ libIOACIPC.dylib: __ZN12IOACIPCClass12updateMemoryEtjh
__ libIOACIPC.dylib: __ZN12IOACIPCClass14mapMemoryAsyncEtPKvjjhS1_jPFvPviES2_
__ libIOACIPC.dylib: __ZN12IOACIPCClass14sendImageAsyncEPKvjPFvPviS2_S2_ES2_j
__ libIOACIPC.dylib: __ZN12IOACIPCClass16getIOMMUPageSizeEPj
__ libIOACIPC.dylib: __ZN12IOACIPCClass16unmapMemoryAsyncEtPFvPviES0_
__ libIOACIPC.dylib: __ZN12IOACIPCClass17abortTransferRingEj
__ libIOACIPC.dylib: __ZN12IOACIPCClass17notifyMemoryAsyncEtPKvjPFvPviES2_
__ libIOACIPC.dylib: __ZN12IOACIPCClass17updateMemoryAsyncEtjhPFvPviES0_
__ libIOACIPC.dylib: __ZN12IOACIPCClass19getTransferRingInfoEj
__ libIOACIPC.dylib: __ZN12IOACIPCClass19queryTransferCreditEjPj
__ libIOACIPC.dylib: __ZN12IOACIPCClass21getCompletionRingInfoEj
__ libIOACIPC.dylib: __ZN12IOACIPCClass22abortTransferRingAsyncEjPFvPviES0_
__ libIOACIPC.dylib: __ZN12IOACIPCClass2ioEjPvPj14acipcDirection
__ libIOACIPC.dylib: __ZN12IOACIPCClass4openEj
__ libIOACIPC.dylib: __ZN12IOACIPCClass4stopEP16dispatch_group_s
__ libIOACIPC.dylib: __ZN12IOACIPCClass5closeEv
__ libIOACIPC.dylib: __ZN12IOACIPCClass5startEPK14__CFDictionaryP11__CFRunLoopU13block_pointerFvjES6_U13block_pointerFvjjiE
__ libIOACIPC.dylib: __ZN12IOACIPCClass5startEPK14__CFDictionaryP16dispatch_queue_sU13block_pointerFvjES6_U13block_pointerFvjjiE
__ libIOACIPC.dylib: __ZN12IOACIPCClass7ioAsyncEjPvjS0_jPFvS0_iS0_ES0_
__ libIOACIPC.dylib: __ZN12IOACIPCClass9mapMemoryEtPKvjjhS1_j
__ libIOACIPC.dylib: __ZN12IOACIPCClass9sendImageEPKvjPjj
__ libIOACIPC.dylib: __ZN12IOACIPCClassC2Ev
__ libIOACIPC.dylib: __ZN12IOACIPCClassD2Ev
__ libIOACIPC.dylib: __ZN19IOACIPCControlClass10loggerTuneEjjPvS0_
__ libIOACIPC.dylib: __ZN19IOACIPCControlClass13readLogsAsyncEPvjbPFvS0_iS0_ES0_
__ libIOACIPC.dylib: __ZN19IOACIPCControlClass21getLastKnownBootStageEPj
__ libIOACIPC.dylib: __ZN19IOACIPCControlClass24getLogInternalBufferSizeEPj
__ libIOACIPC.dylib: __ZN19IOACIPCControlClass25registerEventNotificationEP11__CFRunLoopU13block_pointerFvjPvS2_E
__ libIOACIPC.dylib: __ZN19IOACIPCControlClass25registerEventNotificationEP16dispatch_queue_sU13block_pointerFvjPvS2_E
__ libIOACIPC.dylib: __ZN19IOACIPCControlClass27deregisterEventNotificationEP16dispatch_group_s
__ libIOACIPC.dylib: __ZN19IOACIPCControlClass4openEP11__CFRunLoop
__ libIOACIPC.dylib: __ZN19IOACIPCControlClass4openEP16dispatch_queue_s
__ libIOACIPC.dylib: __ZN19IOACIPCControlClass4stopEv
__ libIOACIPC.dylib: __ZN19IOACIPCControlClass5closeEv
__ libIOACIPC.dylib: __ZN19IOACIPCControlClass5startEPK14__CFDictionary
__ libIOACIPC.dylib: __ZN19IOACIPCControlClassC1Ev
__ libIOACIPC.dylib: __ZN19IOACIPCControlClassD1Ev
__ libIOACIPC.dylib: __ZTI12IOACIPCClass
__ libIOACIPCICEBB.dylib: __ZN17IOACIPCICEBBClass13timesyncAsyncEjjPvjPFvS0_iS0_ES0_
__ libIOACIPCICEBB.dylib: __ZN17IOACIPCICEBBClass17registerTimeEventEjPFvPviPS0_jES0_
__ libIOACIPCICEBB.dylib: __ZN17IOACIPCICEBBClass19deregisterTimeEventEjPFvPviES0_
__ libSystem.B.dylib: __Block_copy
__ libSystem.B.dylib: __Block_object_assign
__ libSystem.B.dylib: __Block_object_dispose
__ libSystem.B.dylib: __Block_release
__ libSystem.B.dylib: __NSConcreteGlobalBlock
__ libSystem.B.dylib: __NSConcreteStackBlock
__ libSystem.B.dylib: __Unwind_Resume
__ libSystem.B.dylib: ___assert_rtn
__ libSystem.B.dylib: ___stack_chk_fail
__ libSystem.B.dylib: ___stack_chk_guard
__ libSystem.B.dylib: __os_log_debug_impl
__ libSystem.B.dylib: __os_log_impl
__ libSystem.B.dylib: _bzero
__ libSystem.B.dylib: _clock_gettime_nsec_np
__ libSystem.B.dylib: _dispatch_assert_queue$V2
__ libSystem.B.dylib: _dispatch_async
__ libSystem.B.dylib: _dispatch_group_create
__ libSystem.B.dylib: _dispatch_group_enter
__ libSystem.B.dylib: _dispatch_group_leave
__ libSystem.B.dylib: _dispatch_group_wait
__ libSystem.B.dylib: _dispatch_once
__ libSystem.B.dylib: _dispatch_queue_attr_make_with_qos_class
__ libSystem.B.dylib: _dispatch_queue_create_with_target$V2
__ libSystem.B.dylib: _dispatch_release
__ libSystem.B.dylib: _dispatch_retain
__ libSystem.B.dylib: _dispatch_semaphore_create
__ libSystem.B.dylib: _dispatch_semaphore_signal
__ libSystem.B.dylib: _dispatch_semaphore_wait
__ libSystem.B.dylib: _dispatch_time
__ libSystem.B.dylib: _dispatch_workloop_create
__ libSystem.B.dylib: _free
__ libSystem.B.dylib: _malloc
__ libSystem.B.dylib: _memcpy
__ libSystem.B.dylib: _memset
__ libSystem.B.dylib: _os_log_create
__ libSystem.B.dylib: _os_log_type_enabled
__ libSystem.B.dylib: _os_unfair_lock_assert_owner
__ libSystem.B.dylib: _os_unfair_lock_lock
__ libSystem.B.dylib: _os_unfair_lock_unlock
__ libSystem.B.dylib: _strcmp
__ libSystem.B.dylib: _usleep
__ libSystem.B.dylib: dyld_stub_binder
__ libTelephonyUtilDynamic.dylib: __TelephonyUtilDebugPrint
__ libTelephonyUtilDynamic.dylib: __TelephonyUtilDebugPrintBinaryVerbose
__ libTelephonyUtilDynamic.dylib: __TelephonyUtilDebugPrintError
__ libTelephonyUtilDynamic.dylib: __TelephonyUtilDebugPrintVerbose
__ libTelephonyUtilDynamic.dylib: __ZN3ctu16LogMessageBuffer10takeStringEv
__ libTelephonyUtilDynamic.dylib: __ZN3ctu16LogMessageBufferC1Ev
__ libTelephonyUtilDynamic.dylib: __ZN3ctu16LogMessageBufferD1Ev
__ libTelephonyUtilDynamic.dylib: __ZN3ctu2cf6assignERiPK10__CFNumber
__ libTelephonyUtilDynamic.dylib: __ZN3ctulsERNS_16LogMessageBufferEPKc
__ libTelephonyUtilDynamic.dylib: __ZN3ctulsERNS_16LogMessageBufferEPKv
__ libTelephonyUtilDynamic.dylib: __ZN3ctulsERNS_16LogMessageBufferEj
__ libc++.1.dylib: __ZNKSt3__119__shared_weak_count13__get_deleterERKSt9type_info
__ libc++.1.dylib: __ZNKSt3__121__basic_string_commonILb1EE20__throw_length_errorEv
__ libc++.1.dylib: __ZNKSt3__16locale9use_facetERNS0_2idE
__ libc++.1.dylib: __ZNKSt3__18ios_base6getlocEv
__ libc++.1.dylib: __ZNSt11logic_errorC2EPKc
__ libc++.1.dylib: __ZNSt12out_of_rangeD1Ev
__ libc++.1.dylib: __ZNSt3__112bad_weak_ptrD1Ev
__ libc++.1.dylib: __ZNSt3__112basic_stringIcNS_11char_traitsIcEENS_9allocatorIcEEE6resizeEmc
__ libc++.1.dylib: __ZNSt3__112basic_stringIcNS_11char_traitsIcEENS_9allocatorIcEEE9push_backEc
__ libc++.1.dylib: __ZNSt3__113basic_ostreamIcNS_11char_traitsIcEEE6sentryC1ERS3_
__ libc++.1.dylib: __ZNSt3__113basic_ostreamIcNS_11char_traitsIcEEE6sentryD1Ev
__ libc++.1.dylib: __ZNSt3__113basic_ostreamIcNS_11char_traitsIcEEED0Ev
__ libc++.1.dylib: __ZNSt3__113basic_ostreamIcNS_11char_traitsIcEEED1Ev
__ libc++.1.dylib: __ZNSt3__113basic_ostreamIcNS_11char_traitsIcEEED2Ev
__ libc++.1.dylib: __ZNSt3__113basic_ostreamIcNS_11char_traitsIcEEElsEi
__ libc++.1.dylib: __ZNSt3__115basic_streambufIcNS_11char_traitsIcEEE4syncEv
__ libc++.1.dylib: __ZNSt3__115basic_streambufIcNS_11char_traitsIcEEE5imbueERKNS_6localeE
__ libc++.1.dylib: __ZNSt3__115basic_streambufIcNS_11char_traitsIcEEE5uflowEv
__ libc++.1.dylib: __ZNSt3__115basic_streambufIcNS_11char_traitsIcEEE6setbufEPcl
__ libc++.1.dylib: __ZNSt3__115basic_streambufIcNS_11char_traitsIcEEE6xsgetnEPcl
__ libc++.1.dylib: __ZNSt3__115basic_streambufIcNS_11char_traitsIcEEE6xsputnEPKcl
__ libc++.1.dylib: __ZNSt3__115basic_streambufIcNS_11char_traitsIcEEE9showmanycEv
__ libc++.1.dylib: __ZNSt3__115basic_streambufIcNS_11char_traitsIcEEEC2Ev
__ libc++.1.dylib: __ZNSt3__115basic_streambufIcNS_11char_traitsIcEEED2Ev
__ libc++.1.dylib: __ZNSt3__119__shared_weak_count14__release_weakEv
__ libc++.1.dylib: __ZNSt3__119__shared_weak_count4lockEv
__ libc++.1.dylib: __ZNSt3__119__shared_weak_countD2Ev
__ libc++.1.dylib: __ZNSt3__15ctypeIcE2idE
__ libc++.1.dylib: __ZNSt3__15mutex4lockEv
__ libc++.1.dylib: __ZNSt3__15mutex6unlockEv
__ libc++.1.dylib: __ZNSt3__15mutexD1Ev
__ libc++.1.dylib: __ZNSt3__16localeD1Ev
__ libc++.1.dylib: __ZNSt3__18ios_base33__set_badbit_and_consider_rethrowEv
__ libc++.1.dylib: __ZNSt3__18ios_base4initEPv
__ libc++.1.dylib: __ZNSt3__18ios_base5clearEj
__ libc++.1.dylib: __ZNSt3__19basic_iosIcNS_11char_traitsIcEEED2Ev
__ libc++.1.dylib: __ZSt9terminatev
__ libc++.1.dylib: __ZTINSt3__112bad_weak_ptrE
__ libc++.1.dylib: __ZTINSt3__113basic_ostreamIcNS_11char_traitsIcEEEE
__ libc++.1.dylib: __ZTINSt3__115basic_streambufIcNS_11char_traitsIcEEEE
__ libc++.1.dylib: __ZTINSt3__119__shared_weak_countE
__ libc++.1.dylib: __ZTISt12out_of_range
__ libc++.1.dylib: __ZTVN10__cxxabiv117__class_type_infoE
__ libc++.1.dylib: __ZTVN10__cxxabiv120__si_class_type_infoE
__ libc++.1.dylib: __ZTVNSt3__112bad_weak_ptrE
__ libc++.1.dylib: __ZTVSt12out_of_range
__ libc++.1.dylib: __ZTv0_n24_NSt3__113basic_ostreamIcNS_11char_traitsIcEEED0Ev
__ libc++.1.dylib: __ZTv0_n24_NSt3__113basic_ostreamIcNS_11char_traitsIcEEED1Ev
__ libc++.1.dylib: __ZdlPv
__ libc++.1.dylib: __Znwm
__ libc++.1.dylib: ___cxa_allocate_exception
__ libc++.1.dylib: ___cxa_begin_catch
__ libc++.1.dylib: ___cxa_end_catch
__ libc++.1.dylib: ___cxa_free_exception
__ libc++.1.dylib: ___cxa_guard_abort
__ libc++.1.dylib: ___cxa_guard_acquire
__ libc++.1.dylib: ___cxa_guard_release
__ libc++.1.dylib: ___cxa_throw
__ libc++.1.dylib: ___gxx_personality_v0
