|| __DATA.__common _EncryptRoot
|| __DATA.__common _EnvelopedRoot
|| __DATA.__common _Mac0Root
|| __DATA.__common _MacRoot
|| __DATA.__common _RecipientRoot
|| __DATA.__common _Sign0Root
|| __DATA.__common _SignRoot
|| __DATA.__common _SignerRoot
|| __DATA.__common _event_debug_created_threadable_ctx_
|| __DATA.__common _event_debug_logging_mask_
|| __DATA.__common _event_debug_mode_on_
|| __DATA.__common _event_global_current_base_
|| __DATA.__common _evthread_cond_fns_
|| __DATA.__common _evthread_id_fn_
|| __DATA.__common _evthread_lock_debugging_enabled_
|| __DATA.__common _evthread_lock_fns_
|| __DATA.__common _mbedtls_cipher_supported
|| __DATA.__common _mbedtls_timing_alarmed
|| __DATA.__data _FUseCompressed
|| __DATA.__data __ZGVN3fmt2v76detail10basic_dataIvE32dragonbox_pow10_significands_128E
|| __DATA.__data __ZN3fmt2v724instantiate_format_floatE
|| __DATA.__data __ZN3fmt2v76detail10basic_dataIvE32dragonbox_pow10_significands_128E
|| __DATA.__data _evutil_memset_volatile_
|| __DATA.__data _mbedtls_test_ca_crt
|| __DATA.__data _mbedtls_test_ca_key
|| __DATA.__data _mbedtls_test_ca_pwd
|| __DATA.__data _mbedtls_test_cas
|| __DATA.__data _mbedtls_test_cas_der
|| __DATA.__data _mbedtls_test_cli_crt
|| __DATA.__data _mbedtls_test_cli_key
|| __DATA.__data _mbedtls_test_cli_pwd
|| __DATA.__data _mbedtls_test_srv_crt
|| __DATA.__data _mbedtls_test_srv_key
|| __DATA.__data _mbedtls_test_srv_pwd
|| __DATA.__objc_data _OBJC_CLASS_$_BorderAgentConnector
|| __DATA.__objc_data _OBJC_CLASS_$_BorderAgentFinder
|| __DATA.__objc_data _OBJC_METACLASS_$_BorderAgentConnector
|| __DATA.__objc_data _OBJC_METACLASS_$_BorderAgentFinder
|| __DATA_CONST.__const __ZTIN2ot12commissioner11DtlsSessionE
|| __DATA_CONST.__const __ZTIN2ot12commissioner13ProxyEndpointE
|| __DATA_CONST.__const __ZTIN2ot12commissioner16CommissionerImplE
|| __DATA_CONST.__const __ZTIN2ot12commissioner16CommissionerSafeE
|| __DATA_CONST.__const __ZTIN2ot12commissioner20CommissioningSession11RelaySocketE
|| __DATA_CONST.__const __ZTIN2ot12commissioner6SocketE
|| __DATA_CONST.__const __ZTIN2ot12commissioner7CborMapE
|| __DATA_CONST.__const __ZTIN2ot12commissioner9UdpSocketE
|| __DATA_CONST.__const __ZTIN3fmt2v712format_errorE
|| __DATA_CONST.__const __ZTIN3fmt2v712system_errorE
|| __DATA_CONST.__const __ZTVN2ot12commissioner11DtlsSessionE
|| __DATA_CONST.__const __ZTVN2ot12commissioner13ProxyEndpointE
|| __DATA_CONST.__const __ZTVN2ot12commissioner16CommissionerImplE
|| __DATA_CONST.__const __ZTVN2ot12commissioner16CommissionerSafeE
|| __DATA_CONST.__const __ZTVN2ot12commissioner20CommissioningSession11RelaySocketE
|| __DATA_CONST.__const __ZTVN2ot12commissioner6SocketE
|| __DATA_CONST.__const __ZTVN2ot12commissioner7CborMapE
|| __DATA_CONST.__const __ZTVN2ot12commissioner9UdpSocketE
|| __DATA_CONST.__const __ZTVN3fmt2v712format_errorE
|| __DATA_CONST.__const __ZTVN3fmt2v712system_errorE
|| __DATA_CONST.__const _kBorderAgentNotificationExistingCommissioner
|| __DATA_CONST.__const _kqops
|| __DATA_CONST.__const _mbedtls_cipher_definitions
|| __DATA_CONST.__const _mbedtls_ecdsa_info
|| __DATA_CONST.__const _mbedtls_eckey_info
|| __DATA_CONST.__const _mbedtls_eckeydh_info
|| __DATA_CONST.__const _mbedtls_md5_info
|| __DATA_CONST.__const _mbedtls_ripemd160_info
|| __DATA_CONST.__const _mbedtls_rsa_alt_info
|| __DATA_CONST.__const _mbedtls_rsa_info
|| __DATA_CONST.__const _mbedtls_sha1_info
|| __DATA_CONST.__const _mbedtls_sha224_info
|| __DATA_CONST.__const _mbedtls_sha256_info
|| __DATA_CONST.__const _mbedtls_sha384_info
|| __DATA_CONST.__const _mbedtls_sha512_info
|| __DATA_CONST.__const _nil_eventop
|| __DATA_CONST.__const _pollops
|| __DATA_CONST.__const _selectops
|| __TEXT.__const __ZN3fmt2v76detail10basic_dataIvE10hex_digitsE
|| __TEXT.__const __ZN3fmt2v76detail10basic_dataIvE11reset_colorE
|| __TEXT.__const __ZN3fmt2v76detail10basic_dataIvE12wreset_colorE
|| __TEXT.__const __ZN3fmt2v76detail10basic_dataIvE14powers_of_5_64E
|| __TEXT.__const __ZN3fmt2v76detail10basic_dataIvE15powers_of_10_64E
|| __TEXT.__const __ZN3fmt2v76detail10basic_dataIvE16background_colorE
|| __TEXT.__const __ZN3fmt2v76detail10basic_dataIvE16foreground_colorE
|| __TEXT.__const __ZN3fmt2v76detail10basic_dataIvE19left_padding_shiftsE
|| __TEXT.__const __ZN3fmt2v76detail10basic_dataIvE20right_padding_shiftsE
|| __TEXT.__const __ZN3fmt2v76detail10basic_dataIvE21grisu_pow10_exponentsE
|| __TEXT.__const __ZN3fmt2v76detail10basic_dataIvE23zero_or_powers_of_10_32E
|| __TEXT.__const __ZN3fmt2v76detail10basic_dataIvE23zero_or_powers_of_10_64E
|| __TEXT.__const __ZN3fmt2v76detail10basic_dataIvE24grisu_pow10_significandsE
|| __TEXT.__const __ZN3fmt2v76detail10basic_dataIvE25divtest_table_for_pow5_32E
|| __TEXT.__const __ZN3fmt2v76detail10basic_dataIvE25divtest_table_for_pow5_64E
|| __TEXT.__const __ZN3fmt2v76detail10basic_dataIvE27zero_or_powers_of_10_32_newE
|| __TEXT.__const __ZN3fmt2v76detail10basic_dataIvE27zero_or_powers_of_10_64_newE
|| __TEXT.__const __ZN3fmt2v76detail10basic_dataIvE31dragonbox_pow10_recovery_errorsE
|| __TEXT.__const __ZN3fmt2v76detail10basic_dataIvE31dragonbox_pow10_significands_64E
|| __TEXT.__const __ZN3fmt2v76detail10basic_dataIvE5signsE
|| __TEXT.__const __ZN3fmt2v76detail10basic_dataIvE6digitsE
|| __TEXT.__const __ZTSN2ot12commissioner11DtlsSessionE
|| __TEXT.__const __ZTSN2ot12commissioner13ProxyEndpointE
|| __TEXT.__const __ZTSN2ot12commissioner16CommissionerImplE
|| __TEXT.__const __ZTSN2ot12commissioner16CommissionerSafeE
|| __TEXT.__const __ZTSN2ot12commissioner20CommissioningSession11RelaySocketE
|| __TEXT.__const __ZTSN2ot12commissioner6SocketE
|| __TEXT.__const __ZTSN2ot12commissioner7CborMapE
|| __TEXT.__const __ZTSN2ot12commissioner9UdpSocketE
|| __TEXT.__const __ZTSN3fmt2v712format_errorE
|| __TEXT.__const __ZTSN3fmt2v712system_errorE
|| __TEXT.__const __ZZN3fmt2v76detail11utf8_decodeEPKcPjPiE4mins
|| __TEXT.__const __ZZN3fmt2v76detail11utf8_decodeEPKcPjPiE5masks
|| __TEXT.__const __ZZN3fmt2v76detail11utf8_decodeEPKcPjPiE6shiftc
|| __TEXT.__const __ZZN3fmt2v76detail11utf8_decodeEPKcPjPiE6shifte
|| __TEXT.__const __ZZN3fmt2v76detail11write_floatINS1_15buffer_appenderIcEENS1_14big_decimal_fpEcEET_S6_RKT0_RKNS0_18basic_format_specsIT1_EENS1_11float_specsESB_E4zero
|| __TEXT.__const __ZZN3fmt2v76detail11write_floatINS1_15buffer_appenderIcEENS1_9dragonbox10decimal_fpIdEEcEET_S8_RKT0_RKNS0_18basic_format_specsIT1_EENS1_11float_specsESD_E4zero
|| __TEXT.__const __ZZN3fmt2v76detail11write_floatINS1_15buffer_appenderIcEENS1_9dragonbox10decimal_fpIfEEcEET_S8_RKT0_RKNS0_18basic_format_specsIT1_EENS1_11float_specsESD_E4zero
|| __TEXT.__const __ZZN3fmt2v76detail11write_floatINSt3__120back_insert_iteratorINS1_6bufferIcEEEENS1_14big_decimal_fpEcEET_S9_RKT0_RKNS0_18basic_format_specsIT1_EENS1_11float_specsESE_E4zero
|| __TEXT.__const __ZZN3fmt2v76detail11write_floatINSt3__120back_insert_iteratorINS1_6bufferIcEEEENS1_9dragonbox10decimal_fpIdEEcEET_SB_RKT0_RKNS0_18basic_format_specsIT1_EENS1_11float_specsESG_E4zero
|| __TEXT.__const __ZZN3fmt2v76detail11write_floatINSt3__120back_insert_iteratorINS1_6bufferIcEEEENS1_9dragonbox10decimal_fpIfEEcEET_SB_RKT0_RKNS0_18basic_format_specsIT1_EENS1_11float_specsESG_E4zero
|| __TEXT.__const __ZZN3fmt2v76detail5writeIcNS1_15buffer_appenderIcEEdLi0EEET0_S5_T1_E5specs
|| __TEXT.__const __ZZN3fmt2v76detail5writeIcNS1_15buffer_appenderIcEEeLi0EEET0_S5_T1_E5specs
|| __TEXT.__const __ZZN3fmt2v76detail5writeIcNS1_15buffer_appenderIcEEfLi0EEET0_S5_T1_E5specs
|| __TEXT.__const __ZZN3fmt2v76detail5writeIcNSt3__120back_insert_iteratorINS1_6bufferIcEEEEdLi0EEET0_S8_T1_E5specs
|| __TEXT.__const __ZZN3fmt2v76detail5writeIcNSt3__120back_insert_iteratorINS1_6bufferIcEEEEeLi0EEET0_S8_T1_E5specs
|| __TEXT.__const __ZZN3fmt2v76detail5writeIcNSt3__120back_insert_iteratorINS1_6bufferIcEEEEfLi0EEET0_S8_T1_E5specs
|| __TEXT.__const __ZZN3fmt2v76detail5writeIcNSt3__120back_insert_iteratorINS3_12basic_stringIcNS3_11char_traitsIcEENS3_9allocatorIcEEEEEEdLi0EEET0_SC_T1_E5specs
|| __TEXT.__const __ZZN3fmt2v76detail5writeIcNSt3__120back_insert_iteratorINS3_12basic_stringIcNS3_11char_traitsIcEENS3_9allocatorIcEEEEEEeLi0EEET0_SC_T1_E5specs
|| __TEXT.__const __ZZN3fmt2v76detail5writeIcNSt3__120back_insert_iteratorINS3_12basic_stringIcNS3_11char_traitsIcEENS3_9allocatorIcEEEEEEfLi0EEET0_SC_T1_E5specs
|| __TEXT.__const __ZZN3fmt2v76detail9bsr2log10EiE4data
|| __TEXT.__const _mbedtls_test_ca_crt_ec
|| __TEXT.__const _mbedtls_test_ca_crt_ec_der
|| __TEXT.__const _mbedtls_test_ca_crt_ec_der_len
|| __TEXT.__const _mbedtls_test_ca_crt_ec_len
|| __TEXT.__const _mbedtls_test_ca_crt_ec_pem
|| __TEXT.__const _mbedtls_test_ca_crt_ec_pem_len
|| __TEXT.__const _mbedtls_test_ca_crt_len
|| __TEXT.__const _mbedtls_test_ca_crt_rsa
|| __TEXT.__const _mbedtls_test_ca_crt_rsa_len
|| __TEXT.__const _mbedtls_test_ca_crt_rsa_sha1
|| __TEXT.__const _mbedtls_test_ca_crt_rsa_sha1_der
|| __TEXT.__const _mbedtls_test_ca_crt_rsa_sha1_der_len
|| __TEXT.__const _mbedtls_test_ca_crt_rsa_sha1_len
|| __TEXT.__const _mbedtls_test_ca_crt_rsa_sha1_pem
|| __TEXT.__const _mbedtls_test_ca_crt_rsa_sha1_pem_len
|| __TEXT.__const _mbedtls_test_ca_crt_rsa_sha256
|| __TEXT.__const _mbedtls_test_ca_crt_rsa_sha256_der
|| __TEXT.__const _mbedtls_test_ca_crt_rsa_sha256_der_len
|| __TEXT.__const _mbedtls_test_ca_crt_rsa_sha256_len
|| __TEXT.__const _mbedtls_test_ca_crt_rsa_sha256_pem
|| __TEXT.__const _mbedtls_test_ca_crt_rsa_sha256_pem_len
|| __TEXT.__const _mbedtls_test_ca_key_ec
|| __TEXT.__const _mbedtls_test_ca_key_ec_der
|| __TEXT.__const _mbedtls_test_ca_key_ec_der_len
|| __TEXT.__const _mbedtls_test_ca_key_ec_len
|| __TEXT.__const _mbedtls_test_ca_key_ec_pem
|| __TEXT.__const _mbedtls_test_ca_key_ec_pem_len
|| __TEXT.__const _mbedtls_test_ca_key_len
|| __TEXT.__const _mbedtls_test_ca_key_rsa
|| __TEXT.__const _mbedtls_test_ca_key_rsa_der
|| __TEXT.__const _mbedtls_test_ca_key_rsa_der_len
|| __TEXT.__const _mbedtls_test_ca_key_rsa_len
|| __TEXT.__const _mbedtls_test_ca_key_rsa_pem
|| __TEXT.__const _mbedtls_test_ca_key_rsa_pem_len
|| __TEXT.__const _mbedtls_test_ca_pwd_ec
|| __TEXT.__const _mbedtls_test_ca_pwd_ec_der_len
|| __TEXT.__const _mbedtls_test_ca_pwd_ec_len
|| __TEXT.__const _mbedtls_test_ca_pwd_ec_pem
|| __TEXT.__const _mbedtls_test_ca_pwd_ec_pem_len
|| __TEXT.__const _mbedtls_test_ca_pwd_len
|| __TEXT.__const _mbedtls_test_ca_pwd_rsa
|| __TEXT.__const _mbedtls_test_ca_pwd_rsa_der_len
|| __TEXT.__const _mbedtls_test_ca_pwd_rsa_len
|| __TEXT.__const _mbedtls_test_ca_pwd_rsa_pem
|| __TEXT.__const _mbedtls_test_ca_pwd_rsa_pem_len
|| __TEXT.__const _mbedtls_test_cas_der_len
|| __TEXT.__const _mbedtls_test_cas_len
|| __TEXT.__const _mbedtls_test_cas_pem
|| __TEXT.__const _mbedtls_test_cas_pem_len
|| __TEXT.__const _mbedtls_test_cli_crt_ec
|| __TEXT.__const _mbedtls_test_cli_crt_ec_der
|| __TEXT.__const _mbedtls_test_cli_crt_ec_der_len
|| __TEXT.__const _mbedtls_test_cli_crt_ec_len
|| __TEXT.__const _mbedtls_test_cli_crt_ec_pem
|| __TEXT.__const _mbedtls_test_cli_crt_ec_pem_len
|| __TEXT.__const _mbedtls_test_cli_crt_len
|| __TEXT.__const _mbedtls_test_cli_crt_rsa
|| __TEXT.__const _mbedtls_test_cli_crt_rsa_der
|| __TEXT.__const _mbedtls_test_cli_crt_rsa_der_len
|| __TEXT.__const _mbedtls_test_cli_crt_rsa_len
|| __TEXT.__const _mbedtls_test_cli_crt_rsa_pem
|| __TEXT.__const _mbedtls_test_cli_crt_rsa_pem_len
|| __TEXT.__const _mbedtls_test_cli_key_ec
|| __TEXT.__const _mbedtls_test_cli_key_ec_der
|| __TEXT.__const _mbedtls_test_cli_key_ec_der_len
|| __TEXT.__const _mbedtls_test_cli_key_ec_len
|| __TEXT.__const _mbedtls_test_cli_key_ec_pem
|| __TEXT.__const _mbedtls_test_cli_key_ec_pem_len
|| __TEXT.__const _mbedtls_test_cli_key_len
|| __TEXT.__const _mbedtls_test_cli_key_rsa
|| __TEXT.__const _mbedtls_test_cli_key_rsa_der
|| __TEXT.__const _mbedtls_test_cli_key_rsa_der_len
|| __TEXT.__const _mbedtls_test_cli_key_rsa_len
|| __TEXT.__const _mbedtls_test_cli_key_rsa_pem
|| __TEXT.__const _mbedtls_test_cli_key_rsa_pem_len
|| __TEXT.__const _mbedtls_test_cli_pwd_ec
|| __TEXT.__const _mbedtls_test_cli_pwd_ec_len
|| __TEXT.__const _mbedtls_test_cli_pwd_ec_pem
|| __TEXT.__const _mbedtls_test_cli_pwd_ec_pem_len
|| __TEXT.__const _mbedtls_test_cli_pwd_len
|| __TEXT.__const _mbedtls_test_cli_pwd_rsa
|| __TEXT.__const _mbedtls_test_cli_pwd_rsa_len
|| __TEXT.__const _mbedtls_test_cli_pwd_rsa_pem
|| __TEXT.__const _mbedtls_test_cli_pwd_rsa_pem_len
|| __TEXT.__const _mbedtls_test_srv_crt_ec
|| __TEXT.__const _mbedtls_test_srv_crt_ec_der
|| __TEXT.__const _mbedtls_test_srv_crt_ec_der_len
|| __TEXT.__const _mbedtls_test_srv_crt_ec_len
|| __TEXT.__const _mbedtls_test_srv_crt_ec_pem
|| __TEXT.__const _mbedtls_test_srv_crt_ec_pem_len
|| __TEXT.__const _mbedtls_test_srv_crt_len
|| __TEXT.__const _mbedtls_test_srv_crt_rsa
|| __TEXT.__const _mbedtls_test_srv_crt_rsa_len
|| __TEXT.__const _mbedtls_test_srv_crt_rsa_sha1
|| __TEXT.__const _mbedtls_test_srv_crt_rsa_sha1_der
|| __TEXT.__const _mbedtls_test_srv_crt_rsa_sha1_der_len
|| __TEXT.__const _mbedtls_test_srv_crt_rsa_sha1_len
|| __TEXT.__const _mbedtls_test_srv_crt_rsa_sha1_pem
|| __TEXT.__const _mbedtls_test_srv_crt_rsa_sha1_pem_len
|| __TEXT.__const _mbedtls_test_srv_crt_rsa_sha256
|| __TEXT.__const _mbedtls_test_srv_crt_rsa_sha256_der
|| __TEXT.__const _mbedtls_test_srv_crt_rsa_sha256_der_len
|| __TEXT.__const _mbedtls_test_srv_crt_rsa_sha256_len
|| __TEXT.__const _mbedtls_test_srv_crt_rsa_sha256_pem
|| __TEXT.__const _mbedtls_test_srv_crt_rsa_sha256_pem_len
|| __TEXT.__const _mbedtls_test_srv_key_ec
|| __TEXT.__const _mbedtls_test_srv_key_ec_der
|| __TEXT.__const _mbedtls_test_srv_key_ec_der_len
|| __TEXT.__const _mbedtls_test_srv_key_ec_len
|| __TEXT.__const _mbedtls_test_srv_key_ec_pem
|| __TEXT.__const _mbedtls_test_srv_key_ec_pem_len
|| __TEXT.__const _mbedtls_test_srv_key_len
|| __TEXT.__const _mbedtls_test_srv_key_rsa
|| __TEXT.__const _mbedtls_test_srv_key_rsa_der
|| __TEXT.__const _mbedtls_test_srv_key_rsa_der_len
|| __TEXT.__const _mbedtls_test_srv_key_rsa_len
|| __TEXT.__const _mbedtls_test_srv_key_rsa_pem
|| __TEXT.__const _mbedtls_test_srv_key_rsa_pem_len
|| __TEXT.__const _mbedtls_test_srv_pwd_ec
|| __TEXT.__const _mbedtls_test_srv_pwd_ec_der_len
|| __TEXT.__const _mbedtls_test_srv_pwd_ec_len
|| __TEXT.__const _mbedtls_test_srv_pwd_ec_pem
|| __TEXT.__const _mbedtls_test_srv_pwd_ec_pem_len
|| __TEXT.__const _mbedtls_test_srv_pwd_len
|| __TEXT.__const _mbedtls_test_srv_pwd_rsa
|| __TEXT.__const _mbedtls_test_srv_pwd_rsa_der_len
|| __TEXT.__const _mbedtls_test_srv_pwd_rsa_len
|| __TEXT.__const _mbedtls_test_srv_pwd_rsa_pem
|| __TEXT.__const _mbedtls_test_srv_pwd_rsa_pem_len
|| __TEXT.__const _mbedtls_x509_crt_profile_default
|| __TEXT.__const _mbedtls_x509_crt_profile_next
|| __TEXT.__const _mbedtls_x509_crt_profile_suiteb
|| __TEXT.__text _AES_CCM_Decrypt
|| __TEXT.__text _AES_CCM_Encrypt
|| __TEXT.__text _BuildContextBytes
|| __TEXT.__text _BuildToBeSigned
|| __TEXT.__text _COSE_Decode
|| __TEXT.__text _COSE_Encode
|| __TEXT.__text _COSE_Encrypt_Free
|| __TEXT.__text _COSE_Encrypt_GetContent
|| __TEXT.__text _COSE_Encrypt_Init
|| __TEXT.__text _COSE_Encrypt_Init_From_Object
|| __TEXT.__text _COSE_Encrypt_SetContent
|| __TEXT.__text _COSE_Encrypt_SetExternal
|| __TEXT.__text _COSE_Encrypt_decrypt
|| __TEXT.__text _COSE_Encrypt_encrypt
|| __TEXT.__text _COSE_Encrypt_map_get_int
|| __TEXT.__text _COSE_Encrypt_map_put_int
|| __TEXT.__text _COSE_Enveloped_AddRecipient
|| __TEXT.__text _COSE_Enveloped_Free
|| __TEXT.__text _COSE_Enveloped_GetRecipient
|| __TEXT.__text _COSE_Enveloped_Init
|| __TEXT.__text _COSE_Enveloped_SetContent
|| __TEXT.__text _COSE_Enveloped_SetExternal
|| __TEXT.__text _COSE_Enveloped_decrypt
|| __TEXT.__text _COSE_Enveloped_encrypt
|| __TEXT.__text _COSE_Enveloped_map_get_int
|| __TEXT.__text _COSE_Enveloped_map_put_int
|| __TEXT.__text _COSE_Mac0_Free
|| __TEXT.__text _COSE_Mac0_Init
|| __TEXT.__text _COSE_Mac0_SetContent
|| __TEXT.__text _COSE_Mac0_SetExternal
|| __TEXT.__text _COSE_Mac0_encrypt
|| __TEXT.__text _COSE_Mac0_map_get_int
|| __TEXT.__text _COSE_Mac0_map_put_int
|| __TEXT.__text _COSE_Mac0_validate
|| __TEXT.__text _COSE_Mac_AddRecipient
|| __TEXT.__text _COSE_Mac_Free
|| __TEXT.__text _COSE_Mac_GetRecipient
|| __TEXT.__text _COSE_Mac_Init
|| __TEXT.__text _COSE_Mac_SetContent
|| __TEXT.__text _COSE_Mac_SetExternal
|| __TEXT.__text _COSE_Mac_encrypt
|| __TEXT.__text _COSE_Mac_map_get_int
|| __TEXT.__text _COSE_Mac_map_put_int
|| __TEXT.__text _COSE_Mac_validate
|| __TEXT.__text _COSE_Recipient_AddRecipient
|| __TEXT.__text _COSE_Recipient_Free
|| __TEXT.__text _COSE_Recipient_GetRecipient
|| __TEXT.__text _COSE_Recipient_Init
|| __TEXT.__text _COSE_Recipient_SetExternal
|| __TEXT.__text _COSE_Recipient_SetKey
|| __TEXT.__text _COSE_Recipient_SetKey_secret
|| __TEXT.__text _COSE_Recipient_SetSenderKey
|| __TEXT.__text _COSE_Recipient_from_shared_secret
|| __TEXT.__text _COSE_Recipient_map_get_int
|| __TEXT.__text _COSE_Recipient_map_put_int
|| __TEXT.__text _COSE_Sign0_Free
|| __TEXT.__text _COSE_Sign0_Init
|| __TEXT.__text _COSE_Sign0_SetContent
|| __TEXT.__text _COSE_Sign0_SetExternal
|| __TEXT.__text _COSE_Sign0_Sign
|| __TEXT.__text _COSE_Sign0_Sign_eckey
|| __TEXT.__text _COSE_Sign0_map_get_int
|| __TEXT.__text _COSE_Sign0_map_put_int
|| __TEXT.__text _COSE_Sign0_validate
|| __TEXT.__text _COSE_Sign0_validate_eckey
|| __TEXT.__text _COSE_Sign_AddSigner
|| __TEXT.__text _COSE_Sign_Free
|| __TEXT.__text _COSE_Sign_GetSigner
|| __TEXT.__text _COSE_Sign_Init
|| __TEXT.__text _COSE_Sign_SetContent
|| __TEXT.__text _COSE_Sign_Sign
|| __TEXT.__text _COSE_Sign_add_signer
|| __TEXT.__text _COSE_Sign_map_get_int
|| __TEXT.__text _COSE_Sign_map_put_int
|| __TEXT.__text _COSE_Sign_validate
|| __TEXT.__text _COSE_Signer_Free
|| __TEXT.__text _COSE_Signer_Init
|| __TEXT.__text _COSE_Signer_SetExternal
|| __TEXT.__text _COSE_Signer_SetKey
|| __TEXT.__text _COSE_Signer_map_get_int
|| __TEXT.__text _COSE_Signer_map_put_int
|| __TEXT.__text _COSE_get_cbor
|| __TEXT.__text _ECDSA_Sign
|| __TEXT.__text _ECDSA_Verify
|| __TEXT.__text _EVUTIL_ISALNUM_
|| __TEXT.__text _EVUTIL_ISALPHA_
|| __TEXT.__text _EVUTIL_ISDIGIT_
|| __TEXT.__text _EVUTIL_ISLOWER_
|| __TEXT.__text _EVUTIL_ISPRINT_
|| __TEXT.__text _EVUTIL_ISSPACE_
|| __TEXT.__text _EVUTIL_ISUPPER_
|| __TEXT.__text _EVUTIL_ISXDIGIT_
|| __TEXT.__text _EVUTIL_TOLOWER_
|| __TEXT.__text _EVUTIL_TOUPPER_
|| __TEXT.__text _HMAC_Create
|| __TEXT.__text _HMAC_Validate
|| __TEXT.__text _IsValidCOSEHandle
|| __TEXT.__text _IsValidEncryptHandle
|| __TEXT.__text _IsValidEnvelopedHandle
|| __TEXT.__text _IsValidMac0Handle
|| __TEXT.__text _IsValidMacHandle
|| __TEXT.__text _IsValidRecipientHandle
|| __TEXT.__text _IsValidSign0Handle
|| __TEXT.__text _IsValidSignHandle
|| __TEXT.__text _IsValidSignerHandle
|| __TEXT.__text __COSE_Encrypt_Build_AAD
|| __TEXT.__text __COSE_Encrypt_Init_From_Object
|| __TEXT.__text __COSE_Encrypt_Release
|| __TEXT.__text __COSE_Encrypt_SetContent
|| __TEXT.__text __COSE_Enveloped_Init_From_Object
|| __TEXT.__text __COSE_Enveloped_Release
|| __TEXT.__text __COSE_Enveloped_SetContent
|| __TEXT.__text __COSE_Enveloped_decrypt
|| __TEXT.__text __COSE_Enveloped_encrypt
|| __TEXT.__text __COSE_Init
|| __TEXT.__text __COSE_Init_From_Object
|| __TEXT.__text __COSE_InsertInList
|| __TEXT.__text __COSE_IsInList
|| __TEXT.__text __COSE_Mac0_Init_From_Object
|| __TEXT.__text __COSE_Mac0_Release
|| __TEXT.__text __COSE_Mac_Build_AAD
|| __TEXT.__text __COSE_Mac_Init_From_Object
|| __TEXT.__text __COSE_Mac_Release
|| __TEXT.__text __COSE_Mac_compute
|| __TEXT.__text __COSE_Mac_validate
|| __TEXT.__text __COSE_RecipientInfo_generateKey
|| __TEXT.__text __COSE_Recipient_Free
|| __TEXT.__text __COSE_Recipient_Init_From_Object
|| __TEXT.__text __COSE_Recipient_decrypt
|| __TEXT.__text __COSE_Recipient_encrypt
|| __TEXT.__text __COSE_Release
|| __TEXT.__text __COSE_RemoveFromList
|| __TEXT.__text __COSE_SetExternal
|| __TEXT.__text __COSE_Sign0_Init_From_Object
|| __TEXT.__text __COSE_Sign0_Release
|| __TEXT.__text __COSE_Sign_Init_From_Object
|| __TEXT.__text __COSE_Sign_Release
|| __TEXT.__text __COSE_Signer0_sign
|| __TEXT.__text __COSE_Signer0_validate
|| __TEXT.__text __COSE_SignerInfo_Free
|| __TEXT.__text __COSE_SignerInfo_Init
|| __TEXT.__text __COSE_SignerInfo_Init_From_Object
|| __TEXT.__text __COSE_Signer_sign
|| __TEXT.__text __COSE_Signer_validate
|| __TEXT.__text __COSE_array_replace
|| __TEXT.__text __COSE_arrayget_int
|| __TEXT.__text __COSE_encode_protected
|| __TEXT.__text __COSE_map_get_int
|| __TEXT.__text __COSE_map_get_str
|| __TEXT.__text __COSE_map_put
|| __TEXT.__text __MapFromCBOR
|| __TEXT.__text __ZN2ot12commissioner10InitLoggerENSt3__110shared_ptrINS0_6LoggerEEE
|| __TEXT.__text __ZN2ot12commissioner10JoinerInfoC1ENS0_10JoinerTypeEyRKNSt3__16vectorIhNS3_9allocatorIhEEEERKNS3_12basic_stringIcNS3_11char_traitsIcEENS5_IcEEEE
|| __TEXT.__text __ZN2ot12commissioner10JoinerInfoC2ENS0_10JoinerTypeEyRKNSt3__16vectorIhNS3_9allocatorIhEEEERKNS3_12basic_stringIcNS3_11char_traitsIcEENS5_IcEEEE
|| __TEXT.__text __ZN2ot12commissioner11DtlsSession10DisconnectENS0_5ErrorE
|| __TEXT.__text __ZN2ot12commissioner11DtlsSession10ShouldStopENS0_5ErrorE
|| __TEXT.__text __ZN2ot12commissioner11DtlsSession11FreeMbedtlsEv
|| __TEXT.__text __ZN2ot12commissioner11DtlsSession11HandleEventEs
|| __TEXT.__text __ZN2ot12commissioner11DtlsSession11InitMbedtlsEv
|| __TEXT.__text __ZN2ot12commissioner11DtlsSession20SetClientTransportIdEv
|| __TEXT.__text __ZN2ot12commissioner11DtlsSession22HandshakeTimerCallbackERNS0_5TimerE
|| __TEXT.__text __ZN2ot12commissioner11DtlsSession23HandleMbedtlsExportKeysEPKhS3_mmm
|| __TEXT.__text __ZN2ot12commissioner11DtlsSession23HandleMbedtlsExportKeysEPvPKhS4_mmm
|| __TEXT.__text __ZN2ot12commissioner11DtlsSession4InitERKNS0_10DtlsConfigE
|| __TEXT.__text __ZN2ot12commissioner11DtlsSession4ReadEv
|| __TEXT.__text __ZN2ot12commissioner11DtlsSession4SendERKNSt3__16vectorIhNS2_9allocatorIhEEEENS0_14MessageSubTypeE
|| __TEXT.__text __ZN2ot12commissioner11DtlsSession5ResetEv
|| __TEXT.__text __ZN2ot12commissioner11DtlsSession5WriteERKNSt3__16vectorIhNS2_9allocatorIhEEEENS0_14MessageSubTypeE
|| __TEXT.__text __ZN2ot12commissioner11DtlsSession7ConnectENSt3__18functionIFvRS1_NS0_5ErrorEEEE
|| __TEXT.__text __ZN2ot12commissioner11DtlsSession8TryWriteEv
|| __TEXT.__text __ZN2ot12commissioner11DtlsSession9DtlsTimer8GetDelayEPv
|| __TEXT.__text __ZN2ot12commissioner11DtlsSession9DtlsTimer8SetDelayEPvjj
|| __TEXT.__text __ZN2ot12commissioner11DtlsSession9HandshakeEv
|| __TEXT.__text __ZN2ot12commissioner11DtlsSession9ReconnectEv
|| __TEXT.__text __ZN2ot12commissioner11DtlsSessionC1EP10event_basebNSt3__110shared_ptrINS0_6SocketEEE
|| __TEXT.__text __ZN2ot12commissioner11DtlsSessionC2EP10event_basebNSt3__110shared_ptrINS0_6SocketEEE
|| __TEXT.__text __ZN2ot12commissioner11DtlsSessionD0Ev
|| __TEXT.__text __ZN2ot12commissioner11DtlsSessionD1Ev
|| __TEXT.__text __ZN2ot12commissioner11DtlsSessionD2Ev
|| __TEXT.__text __ZN2ot12commissioner11ProxyClient11HandleUdpRxERKNS0_4coap7MessageE
|| __TEXT.__text __ZN2ot12commissioner11ProxyClient11SendRequestERKNS0_4coap7MessageENSt3__18functionIFvPS4_NS0_5ErrorEEEERKNS0_7AddressEt
|| __TEXT.__text __ZN2ot12commissioner11ProxyClient16SendEmptyChangedERKNS0_4coap7MessageE
|| __TEXT.__text __ZN2ot12commissioner12Commissioner12GeneratePSKcERNSt3__16vectorIhNS2_9allocatorIhEEEERKNS2_12basic_stringIcNS2_11char_traitsIcEENS4_IcEEEESE_RKS6_
|| __TEXT.__text __ZN2ot12commissioner12Commissioner15ComputeJoinerIdEy
|| __TEXT.__text __ZN2ot12commissioner12Commissioner16GetMeshLocalAddrERNSt3__112basic_stringIcNS2_11char_traitsIcEENS2_9allocatorIcEEEERKS8_t
|| __TEXT.__text __ZN2ot12commissioner12Commissioner6CreateERKNS0_6ConfigEP10event_base
|| __TEXT.__text __ZN2ot12commissioner12Commissioner9AddJoinerERNSt3__16vectorIhNS2_9allocatorIhEEEERKS6_
|| __TEXT.__text __ZN2ot12commissioner12TokenManager11SignMessageERNSt3__16vectorIhNS2_9allocatorIhEEEERKNS0_4coap7MessageE
|| __TEXT.__text __ZN2ot12commissioner12TokenManager11VerifyTokenERNS0_7CborMapERKNSt3__16vectorIhNS4_9allocatorIhEEEERK18mbedtls_pk_context
|| __TEXT.__text __ZN2ot12commissioner12TokenManager12RequestTokenENSt3__18functionIFvPKNS2_6vectorIhNS2_9allocatorIhEEEENS0_5ErrorEEEERKNS2_12basic_stringIcNS2_11char_traitsIcEENS5_IcEEEEt
|| __TEXT.__text __ZN2ot12commissioner12TokenManager14MoveMbedtlsKeyER18mbedtls_pk_contextS3_
|| __TEXT.__text __ZN2ot12commissioner12TokenManager14ParsePublicKeyER18mbedtls_pk_contextRKNSt3__16vectorIhNS4_9allocatorIhEEEE
|| __TEXT.__text __ZN2ot12commissioner12TokenManager15ParsePrivateKeyER18mbedtls_pk_contextRKNSt3__16vectorIhNS4_9allocatorIhEEEE
|| __TEXT.__text __ZN2ot12commissioner12TokenManager15VerifySignatureERKNSt3__16vectorIhNS2_9allocatorIhEEEERKNS0_4coap7MessageE
|| __TEXT.__text __ZN2ot12commissioner12TokenManager16MakeTokenRequestERNSt3__16vectorIhNS2_9allocatorIhEEEERK18mbedtls_pk_contextRKNS2_12basic_stringIcNS2_11char_traitsIcEENS4_IcEEEESH_
|| __TEXT.__text __ZN2ot12commissioner12TokenManager16SendTokenRequestENSt3__18functionIFvPKNS2_6vectorIhNS2_9allocatorIhEEEENS0_5ErrorEEEE
|| __TEXT.__text __ZN2ot12commissioner12TokenManager21PrepareSigningContentERNSt3__16vectorIhNS2_9allocatorIhEEEERKNS0_4coap7MessageE
|| __TEXT.__text __ZN2ot12commissioner12TokenManager4InitERKNS0_6ConfigE
|| __TEXT.__text __ZN2ot12commissioner12TokenManager8SetTokenERKNSt3__16vectorIhNS2_9allocatorIhEEEERK18mbedtls_pk_context
|| __TEXT.__text __ZN2ot12commissioner12TokenManager8SetTokenERKNSt3__16vectorIhNS2_9allocatorIhEEEES8_
|| __TEXT.__text __ZN2ot12commissioner12TokenManagerC1EP10event_base
|| __TEXT.__text __ZN2ot12commissioner12TokenManagerC2EP10event_base
|| __TEXT.__text __ZN2ot12commissioner12TokenManagerD1Ev
|| __TEXT.__text __ZN2ot12commissioner12TokenManagerD2Ev
|| __TEXT.__text __ZN2ot12commissioner12otPbkdf2CmacEPKhtS2_tjtPh
|| __TEXT.__text __ZN2ot12commissioner13ErrorToStringERKNS0_5ErrorE
|| __TEXT.__text __ZN2ot12commissioner13GetDtlsConfigERKNS0_6ConfigE
|| __TEXT.__text __ZN2ot12commissioner13ProxyEndpoint4SendERKNSt3__16vectorIhNS2_9allocatorIhEEEENS0_14MessageSubTypeE
|| __TEXT.__text __ZN2ot12commissioner16CommissionerImpl10DisconnectEv
|| __TEXT.__text __ZN2ot12commissioner16CommissionerImpl10EnergyScanENSt3__18functionIFvNS0_5ErrorEEEEjhttRKNS2_12basic_stringIcNS2_11char_traitsIcEENS2_9allocatorIcEEEE
|| __TEXT.__text __ZN2ot12commissioner16CommissionerImpl10PanIdQueryENSt3__18functionIFvNS0_5ErrorEEEEjtRKNS2_12basic_stringIcNS2_11char_traitsIcEENS2_9allocatorIcEEEE
|| __TEXT.__text __ZN2ot12commissioner16CommissionerImpl11HandleRlyRxERKNS0_4coap7MessageE
|| __TEXT.__text __ZN2ot12commissioner16CommissionerImpl11SignRequestERNS0_4coap7MessageENS0_3tlv5ScopeE
|| __TEXT.__text __ZN2ot12commissioner16CommissionerImpl12RequestTokenENSt3__18functionIFvPKNS2_6vectorIhNS2_9allocatorIhEEEENS0_5ErrorEEEERKNS2_12basic_stringIcNS2_11char_traitsIcEENS5_IcEEEEt
|| __TEXT.__text __ZN2ot12commissioner16CommissionerImpl12SendPetitionENSt3__18functionIFvPKNS2_12basic_stringIcNS2_11char_traitsIcEENS2_9allocatorIcEEEENS0_5ErrorEEEE
|| __TEXT.__text __ZN2ot12commissioner16CommissionerImpl13AbortRequestsEv
|| __TEXT.__text __ZN2ot12commissioner16CommissionerImpl13AnnounceBeginENSt3__18functionIFvNS0_5ErrorEEEEjhtRKNS2_12basic_stringIcNS2_11char_traitsIcEENS2_9allocatorIcEEEE
|| __TEXT.__text __ZN2ot12commissioner16CommissionerImpl13GetBbrDatasetENSt3__18functionIFvPKNS0_10BbrDatasetENS0_5ErrorEEEEt
|| __TEXT.__text __ZN2ot12commissioner16CommissionerImpl13LoggingConfigEv
|| __TEXT.__text __ZN2ot12commissioner16CommissionerImpl13SendKeepAliveERNS0_5TimerEb
|| __TEXT.__text __ZN2ot12commissioner16CommissionerImpl13SetBbrDatasetENSt3__18functionIFvNS0_5ErrorEEEERKNS0_10BbrDatasetE
|| __TEXT.__text __ZN2ot12commissioner16CommissionerImpl14CommandMigrateENSt3__18functionIFvNS0_5ErrorEEEERKNS2_12basic_stringIcNS2_11char_traitsIcEENS2_9allocatorIcEEEESE_
|| __TEXT.__text __ZN2ot12commissioner16CommissionerImpl14ValidateConfigERKNS0_6ConfigE
|| __TEXT.__text __ZN2ot12commissioner16CommissionerImpl15CommandReenrollENSt3__18functionIFvNS0_5ErrorEEEERKNS2_12basic_stringIcNS2_11char_traitsIcEENS2_9allocatorIcEEEE
|| __TEXT.__text __ZN2ot12commissioner16CommissionerImpl15MakeChannelMaskERNSt3__16vectorIhNS2_9allocatorIhEEEEj
|| __TEXT.__text __ZN2ot12commissioner16CommissionerImpl16DecodeBbrDatasetERNS0_10BbrDatasetERKNS0_4coap7MessageE
|| __TEXT.__text __ZN2ot12commissioner16CommissionerImpl16EncodeBbrDatasetERNS0_4coap7MessageERKNS0_10BbrDatasetE
|| __TEXT.__text __ZN2ot12commissioner16CommissionerImpl16GetActiveDatasetENSt3__18functionIFvPKNS0_24ActiveOperationalDatasetENS0_5ErrorEEEEt
|| __TEXT.__text __ZN2ot12commissioner16CommissionerImpl16SendProxyMessageENSt3__18functionIFvNS0_5ErrorEEEERKNS2_12basic_stringIcNS2_11char_traitsIcEENS2_9allocatorIcEEEESE_
|| __TEXT.__text __ZN2ot12commissioner16CommissionerImpl16SetActiveDatasetENSt3__18functionIFvNS0_5ErrorEEEERKNS0_24ActiveOperationalDatasetE
|| __TEXT.__text __ZN2ot12commissioner16CommissionerImpl17DecodeChannelMaskERNSt3__16vectorINS0_16ChannelMaskEntryENS2_9allocatorIS4_EEEERKNS3_IhNS5_IhEEEE
|| __TEXT.__text __ZN2ot12commissioner16CommissionerImpl17EncodeChannelMaskERNSt3__16vectorIhNS2_9allocatorIhEEEERKNS3_INS0_16ChannelMaskEntryENS4_IS8_EEEE
|| __TEXT.__text __ZN2ot12commissioner16CommissionerImpl17GetBbrDatasetTlvsEt
|| __TEXT.__text __ZN2ot12commissioner16CommissionerImpl17GetPendingDatasetENSt3__18functionIFvPKNS0_25PendingOperationalDatasetENS0_5ErrorEEEEt
|| __TEXT.__text __ZN2ot12commissioner16CommissionerImpl17SetPendingDatasetENSt3__18functionIFvNS0_5ErrorEEEERKNS0_25PendingOperationalDatasetE
|| __TEXT.__text __ZN2ot12commissioner16CommissionerImpl18CommandDomainResetENSt3__18functionIFvNS0_5ErrorEEEERKNS2_12basic_stringIcNS2_11char_traitsIcEENS2_9allocatorIcEEEE
|| __TEXT.__text __ZN2ot12commissioner16CommissionerImpl18HandleEnergyReportERKNS0_4coap7MessageE
|| __TEXT.__text __ZN2ot12commissioner16CommissionerImpl19HandlePanIdConflictERKNS0_4coap7MessageE
|| __TEXT.__text __ZN2ot12commissioner16CommissionerImpl19HandleStateResponseEPKNS0_4coap7MessageENS0_5ErrorE
|| __TEXT.__text __ZN2ot12commissioner16CommissionerImpl20HandleDatasetChangedERKNS0_4coap7MessageE
|| __TEXT.__text __ZN2ot12commissioner16CommissionerImpl22GetCommissionerDatasetENSt3__18functionIFvPKNS0_19CommissionerDatasetENS0_5ErrorEEEEt
|| __TEXT.__text __ZN2ot12commissioner16CommissionerImpl22SetCommissionerDatasetENSt3__18functionIFvNS0_5ErrorEEEERKNS0_19CommissionerDatasetE
|| __TEXT.__text __ZN2ot12commissioner16CommissionerImpl22SetEnergyReportHandlerENSt3__18functionIFvPKNS2_12basic_stringIcNS2_11char_traitsIcEENS2_9allocatorIcEEEEPKNS2_6vectorINS0_16ChannelMaskEntryENS7_ISD_EEEEPKNSC_IhNS7_IhEEEENS0_5ErrorEEEE
|| __TEXT.__text __ZN2ot12commissioner16CommissionerImpl22SetJoinerInfoRequesterENSt3__18functionIFPKNS0_10JoinerInfoENS0_10JoinerTypeERKNS2_6vectorIhNS2_9allocatorIhEEEEEEE
|| __TEXT.__text __ZN2ot12commissioner16CommissionerImpl23SetCommissioningHandlerENSt3__18functionIFbRKNS0_10JoinerInfoERKNS2_12basic_stringIcNS2_11char_traitsIcEENS2_9allocatorIcEEEESE_SE_RKNS2_6vectorIhNSA_IhEEEESE_SJ_EEE
|| __TEXT.__text __ZN2ot12commissioner16CommissionerImpl23SetPanIdConflictHandlerENSt3__18functionIFvPKNS2_12basic_stringIcNS2_11char_traitsIcEENS2_9allocatorIcEEEEPKNS2_6vectorINS0_16ChannelMaskEntryENS7_ISD_EEEEPKtNS0_5ErrorEEEE
|| __TEXT.__text __ZN2ot12commissioner16CommissionerImpl23SetSecurePendingDatasetENSt3__18functionIFvNS0_5ErrorEEEERKNS2_12basic_stringIcNS2_11char_traitsIcEENS2_9allocatorIcEEEEjRKNS0_25PendingOperationalDatasetE
|| __TEXT.__text __ZN2ot12commissioner16CommissionerImpl24SetDatasetChangedHandlerENSt3__18functionIFvNS0_5ErrorEEEE
|| __TEXT.__text __ZN2ot12commissioner16CommissionerImpl25DecodeCommissionerDatasetERNS0_19CommissionerDatasetERKNS0_4coap7MessageE
|| __TEXT.__text __ZN2ot12commissioner16CommissionerImpl25EncodeCommissionerDatasetERNS0_4coap7MessageERKNS0_19CommissionerDatasetE
|| __TEXT.__text __ZN2ot12commissioner16CommissionerImpl25RegisterMulticastListenerENSt3__18functionIFvPKhNS0_5ErrorEEEERKNS2_12basic_stringIcNS2_11char_traitsIcEENS2_9allocatorIcEEEERKNS2_6vectorISE_NSC_ISE_EEEEj
|| __TEXT.__text __ZN2ot12commissioner16CommissionerImpl26GetCommissionerDatasetTlvsEt
|| __TEXT.__text __ZN2ot12commissioner16CommissionerImpl30DecodeActiveOperationalDatasetERNS0_24ActiveOperationalDatasetERKNS0_4coap7MessageE
|| __TEXT.__text __ZN2ot12commissioner16CommissionerImpl30EncodeActiveOperationalDatasetERNS0_4coap7MessageERKNS0_24ActiveOperationalDatasetE
|| __TEXT.__text __ZN2ot12commissioner16CommissionerImpl31DecodePendingOperationalDatasetERNS0_25PendingOperationalDatasetERKNS0_4coap7MessageE
|| __TEXT.__text __ZN2ot12commissioner16CommissionerImpl31EncodePendingOperationalDatasetERNS0_4coap7MessageERKNS0_25PendingOperationalDatasetE
|| __TEXT.__text __ZN2ot12commissioner16CommissionerImpl31GetActiveOperationalDatasetTlvsEt
|| __TEXT.__text __ZN2ot12commissioner16CommissionerImpl31HandleCommissioningSessionTimerERNS0_5TimerE
|| __TEXT.__text __ZN2ot12commissioner16CommissionerImpl32GetPendingOperationalDatasetTlvsEt
|| __TEXT.__text __ZN2ot12commissioner16CommissionerImpl4InitERKNS0_6ConfigE
|| __TEXT.__text __ZN2ot12commissioner16CommissionerImpl4StopEv
|| __TEXT.__text __ZN2ot12commissioner16CommissionerImpl5StartEv
|| __TEXT.__text __ZN2ot12commissioner16CommissionerImpl6ResignENSt3__18functionIFvNS0_5ErrorEEEE
|| __TEXT.__text __ZN2ot12commissioner16CommissionerImpl7ConnectENSt3__18functionIFvNS0_5ErrorEEEERKNS2_12basic_stringIcNS2_11char_traitsIcEENS2_9allocatorIcEEEEt
|| __TEXT.__text __ZN2ot12commissioner16CommissionerImpl8PetitionENSt3__18functionIFvPKNS2_12basic_stringIcNS2_11char_traitsIcEENS2_9allocatorIcEEEENS0_5ErrorEEEERSA_t
|| __TEXT.__text __ZN2ot12commissioner16CommissionerImpl8SetTokenERKNSt3__16vectorIhNS2_9allocatorIhEEEES8_
|| __TEXT.__text __ZN2ot12commissioner16CommissionerImplC1EP10event_base
|| __TEXT.__text __ZN2ot12commissioner16CommissionerImplC2EP10event_base
|| __TEXT.__text __ZN2ot12commissioner16CommissionerImplD0Ev
|| __TEXT.__text __ZN2ot12commissioner16CommissionerImplD1Ev
|| __TEXT.__text __ZN2ot12commissioner16CommissionerImplD2Ev
|| __TEXT.__text __ZN2ot12commissioner16CommissionerSafe10DisconnectEv
|| __TEXT.__text __ZN2ot12commissioner16CommissionerSafe10EnergyScanENSt3__18functionIFvNS0_5ErrorEEEEjhttRKNS2_12basic_stringIcNS2_11char_traitsIcEENS2_9allocatorIcEEEE
|| __TEXT.__text __ZN2ot12commissioner16CommissionerSafe10EnergyScanEjhttRKNSt3__112basic_stringIcNS2_11char_traitsIcEENS2_9allocatorIcEEEE
|| __TEXT.__text __ZN2ot12commissioner16CommissionerSafe10PanIdQueryENSt3__18functionIFvNS0_5ErrorEEEEjtRKNS2_12basic_stringIcNS2_11char_traitsIcEENS2_9allocatorIcEEEE
|| __TEXT.__text __ZN2ot12commissioner16CommissionerSafe10PanIdQueryEjtRKNSt3__112basic_stringIcNS2_11char_traitsIcEENS2_9allocatorIcEEEE
|| __TEXT.__text __ZN2ot12commissioner16CommissionerSafe12RequestTokenENSt3__18functionIFvPKNS2_6vectorIhNS2_9allocatorIhEEEENS0_5ErrorEEEERKNS2_12basic_stringIcNS2_11char_traitsIcEENS5_IcEEEEt
|| __TEXT.__text __ZN2ot12commissioner16CommissionerSafe12RequestTokenERNSt3__16vectorIhNS2_9allocatorIhEEEERKNS2_12basic_stringIcNS2_11char_traitsIcEENS4_IcEEEEt
|| __TEXT.__text __ZN2ot12commissioner16CommissionerSafe13AbortRequestsEv
|| __TEXT.__text __ZN2ot12commissioner16CommissionerSafe13AnnounceBeginENSt3__18functionIFvNS0_5ErrorEEEEjhtRKNS2_12basic_stringIcNS2_11char_traitsIcEENS2_9allocatorIcEEEE
|| __TEXT.__text __ZN2ot12commissioner16CommissionerSafe13AnnounceBeginEjhtRKNSt3__112basic_stringIcNS2_11char_traitsIcEENS2_9allocatorIcEEEE
|| __TEXT.__text __ZN2ot12commissioner16CommissionerSafe13GetBbrDatasetENSt3__18functionIFvPKNS0_10BbrDatasetENS0_5ErrorEEEEt
|| __TEXT.__text __ZN2ot12commissioner16CommissionerSafe13GetBbrDatasetERNS0_10BbrDatasetEt
|| __TEXT.__text __ZN2ot12commissioner16CommissionerSafe13SetBbrDatasetENSt3__18functionIFvNS0_5ErrorEEEERKNS0_10BbrDatasetE
|| __TEXT.__text __ZN2ot12commissioner16CommissionerSafe13SetBbrDatasetERKNS0_10BbrDatasetE
|| __TEXT.__text __ZN2ot12commissioner16CommissionerSafe14CommandMigrateENSt3__18functionIFvNS0_5ErrorEEEERKNS2_12basic_stringIcNS2_11char_traitsIcEENS2_9allocatorIcEEEESE_
|| __TEXT.__text __ZN2ot12commissioner16CommissionerSafe14CommandMigrateERKNSt3__112basic_stringIcNS2_11char_traitsIcEENS2_9allocatorIcEEEESA_
|| __TEXT.__text __ZN2ot12commissioner16CommissionerSafe15CommandReenrollENSt3__18functionIFvNS0_5ErrorEEEERKNS2_12basic_stringIcNS2_11char_traitsIcEENS2_9allocatorIcEEEE
|| __TEXT.__text __ZN2ot12commissioner16CommissionerSafe15CommandReenrollERKNSt3__112basic_stringIcNS2_11char_traitsIcEENS2_9allocatorIcEEEE
|| __TEXT.__text __ZN2ot12commissioner16CommissionerSafe15EventBaseHolder3GetEv
|| __TEXT.__text __ZN2ot12commissioner16CommissionerSafe15EventBaseHolderC1Ev
|| __TEXT.__text __ZN2ot12commissioner16CommissionerSafe15EventBaseHolderC2Ev
|| __TEXT.__text __ZN2ot12commissioner16CommissionerSafe15EventBaseHolderD1Ev
|| __TEXT.__text __ZN2ot12commissioner16CommissionerSafe15EventBaseHolderD2Ev
|| __TEXT.__text __ZN2ot12commissioner16CommissionerSafe15PopAsyncRequestEv
|| __TEXT.__text __ZN2ot12commissioner16CommissionerSafe16GetActiveDatasetENSt3__18functionIFvPKNS0_24ActiveOperationalDatasetENS0_5ErrorEEEEt
|| __TEXT.__text __ZN2ot12commissioner16CommissionerSafe16GetActiveDatasetERNS0_24ActiveOperationalDatasetEt
|| __TEXT.__text __ZN2ot12commissioner16CommissionerSafe16PushAsyncRequestEONSt3__18functionIFvvEEE
|| __TEXT.__text __ZN2ot12commissioner16CommissionerSafe16SetActiveDatasetENSt3__18functionIFvNS0_5ErrorEEEERKNS0_24ActiveOperationalDatasetE
|| __TEXT.__text __ZN2ot12commissioner16CommissionerSafe16SetActiveDatasetERKNS0_24ActiveOperationalDatasetE
|| __TEXT.__text __ZN2ot12commissioner16CommissionerSafe17GetPendingDatasetENSt3__18functionIFvPKNS0_25PendingOperationalDatasetENS0_5ErrorEEEEt
|| __TEXT.__text __ZN2ot12commissioner16CommissionerSafe17GetPendingDatasetERNS0_25PendingOperationalDatasetEt
|| __TEXT.__text __ZN2ot12commissioner16CommissionerSafe17SetPendingDatasetENSt3__18functionIFvNS0_5ErrorEEEERKNS0_25PendingOperationalDatasetE
|| __TEXT.__text __ZN2ot12commissioner16CommissionerSafe17SetPendingDatasetERKNS0_25PendingOperationalDatasetE
|| __TEXT.__text __ZN2ot12commissioner16CommissionerSafe18CommandDomainResetENSt3__18functionIFvNS0_5ErrorEEEERKNS2_12basic_stringIcNS2_11char_traitsIcEENS2_9allocatorIcEEEE
|| __TEXT.__text __ZN2ot12commissioner16CommissionerSafe18CommandDomainResetERKNSt3__112basic_stringIcNS2_11char_traitsIcEENS2_9allocatorIcEEEE
|| __TEXT.__text __ZN2ot12commissioner16CommissionerSafe22GetCommissionerDatasetENSt3__18functionIFvPKNS0_19CommissionerDatasetENS0_5ErrorEEEEt
|| __TEXT.__text __ZN2ot12commissioner16CommissionerSafe22GetCommissionerDatasetERNS0_19CommissionerDatasetEt
|| __TEXT.__text __ZN2ot12commissioner16CommissionerSafe22SetCommissionerDatasetENSt3__18functionIFvNS0_5ErrorEEEERKNS0_19CommissionerDatasetE
|| __TEXT.__text __ZN2ot12commissioner16CommissionerSafe22SetCommissionerDatasetERKNS0_19CommissionerDatasetE
|| __TEXT.__text __ZN2ot12commissioner16CommissionerSafe22SetEnergyReportHandlerENSt3__18functionIFvPKNS2_12basic_stringIcNS2_11char_traitsIcEENS2_9allocatorIcEEEEPKNS2_6vectorINS0_16ChannelMaskEntryENS7_ISD_EEEEPKNSC_IhNS7_IhEEEENS0_5ErrorEEEE
|| __TEXT.__text __ZN2ot12commissioner16CommissionerSafe22SetJoinerInfoRequesterENSt3__18functionIFPKNS0_10JoinerInfoENS0_10JoinerTypeERKNS2_6vectorIhNS2_9allocatorIhEEEEEEE
|| __TEXT.__text __ZN2ot12commissioner16CommissionerSafe23SetCommissioningHandlerENSt3__18functionIFbRKNS0_10JoinerInfoERKNS2_12basic_stringIcNS2_11char_traitsIcEENS2_9allocatorIcEEEESE_SE_RKNS2_6vectorIhNSA_IhEEEESE_SJ_EEE
|| __TEXT.__text __ZN2ot12commissioner16CommissionerSafe23SetPanIdConflictHandlerENSt3__18functionIFvPKNS2_12basic_stringIcNS2_11char_traitsIcEENS2_9allocatorIcEEEEPKNS2_6vectorINS0_16ChannelMaskEntryENS7_ISD_EEEEPKtNS0_5ErrorEEEE
|| __TEXT.__text __ZN2ot12commissioner16CommissionerSafe23SetSecurePendingDatasetENSt3__18functionIFvNS0_5ErrorEEEERKNS2_12basic_stringIcNS2_11char_traitsIcEENS2_9allocatorIcEEEEjRKNS0_25PendingOperationalDatasetE
|| __TEXT.__text __ZN2ot12commissioner16CommissionerSafe23SetSecurePendingDatasetERKNSt3__112basic_stringIcNS2_11char_traitsIcEENS2_9allocatorIcEEEEjRKNS0_25PendingOperationalDatasetE
|| __TEXT.__text __ZN2ot12commissioner16CommissionerSafe24SetDatasetChangedHandlerENSt3__18functionIFvNS0_5ErrorEEEE
|| __TEXT.__text __ZN2ot12commissioner16CommissionerSafe25RegisterMulticastListenerENSt3__18functionIFvPKhNS0_5ErrorEEEERKNS2_12basic_stringIcNS2_11char_traitsIcEENS2_9allocatorIcEEEERKNS2_6vectorISE_NSC_ISE_EEEEj
|| __TEXT.__text __ZN2ot12commissioner16CommissionerSafe25RegisterMulticastListenerERhRKNSt3__112basic_stringIcNS3_11char_traitsIcEENS3_9allocatorIcEEEERKNS3_6vectorIS9_NS7_IS9_EEEEj
|| __TEXT.__text __ZN2ot12commissioner16CommissionerSafe4InitERKNS0_6ConfigE
|| __TEXT.__text __ZN2ot12commissioner16CommissionerSafe4StopEv
|| __TEXT.__text __ZN2ot12commissioner16CommissionerSafe5StartEv
|| __TEXT.__text __ZN2ot12commissioner16CommissionerSafe6InvokeEisPv
|| __TEXT.__text __ZN2ot12commissioner16CommissionerSafe6ResignENSt3__18functionIFvNS0_5ErrorEEEE
|| __TEXT.__text __ZN2ot12commissioner16CommissionerSafe6ResignEv
|| __TEXT.__text __ZN2ot12commissioner16CommissionerSafe7ConnectENSt3__18functionIFvNS0_5ErrorEEEERKNS2_12basic_stringIcNS2_11char_traitsIcEENS2_9allocatorIcEEEEt
|| __TEXT.__text __ZN2ot12commissioner16CommissionerSafe7ConnectERKNSt3__112basic_stringIcNS2_11char_traitsIcEENS2_9allocatorIcEEEEt
|| __TEXT.__text __ZN2ot12commissioner16CommissionerSafe8PetitionENSt3__18functionIFvPKNS2_12basic_stringIcNS2_11char_traitsIcEENS2_9allocatorIcEEEENS0_5ErrorEEEERSA_t
|| __TEXT.__text __ZN2ot12commissioner16CommissionerSafe8PetitionERNSt3__112basic_stringIcNS2_11char_traitsIcEENS2_9allocatorIcEEEERKS8_t
|| __TEXT.__text __ZN2ot12commissioner16CommissionerSafe8SetTokenERKNSt3__16vectorIhNS2_9allocatorIhEEEES8_
|| __TEXT.__text __ZN2ot12commissioner16CommissionerSafeC1Ev
|| __TEXT.__text __ZN2ot12commissioner16CommissionerSafeC2Ev
|| __TEXT.__text __ZN2ot12commissioner16CommissionerSafeD0Ev
|| __TEXT.__text __ZN2ot12commissioner16CommissionerSafeD1Ev
|| __TEXT.__text __ZN2ot12commissioner16CommissionerSafeD2Ev
|| __TEXT.__text __ZN2ot12commissioner17TimePointToStringERKNSt3__16chrono10time_pointINS2_12system_clockENS2_8durationIxNS1_5ratioILl1ELl1000000EEEEEEE
|| __TEXT.__text __ZN2ot12commissioner18ComputeBloomFilterERNSt3__16vectorIhNS1_9allocatorIhEEEERKS5_
|| __TEXT.__text __ZN2ot12commissioner18Ipv6PrefixToStringENSt3__16vectorIhNS1_9allocatorIhEEEE
|| __TEXT.__text __ZN2ot12commissioner20CommissioningSession11RelaySocket21RecvJoinerDtlsRecordsERKNSt3__16vectorIhNS3_9allocatorIhEEEE
|| __TEXT.__text __ZN2ot12commissioner20CommissioningSession11RelaySocket4SendEPKhm
|| __TEXT.__text __ZN2ot12commissioner20CommissioningSession11RelaySocket7ReceiveEPhm
|| __TEXT.__text __ZN2ot12commissioner20CommissioningSession11RelaySocketC1EOS2_
|| __TEXT.__text __ZN2ot12commissioner20CommissioningSession11RelaySocketC1ERS1_RKNS0_7AddressEtS6_t
|| __TEXT.__text __ZN2ot12commissioner20CommissioningSession11RelaySocketC2EOS2_
|| __TEXT.__text __ZN2ot12commissioner20CommissioningSession11RelaySocketC2ERS1_RKNS0_7AddressEtS6_t
|| __TEXT.__text __ZN2ot12commissioner20CommissioningSession13HandleJoinFinERKNS0_4coap7MessageE
|| __TEXT.__text __ZN2ot12commissioner20CommissioningSession19SendJoinFinResponseERKNS0_4coap7MessageEb
|| __TEXT.__text __ZN2ot12commissioner20CommissioningSession21RecvJoinerDtlsRecordsERKNSt3__16vectorIhNS2_9allocatorIhEEEE
|| __TEXT.__text __ZN2ot12commissioner20CommissioningSession4StopEv
|| __TEXT.__text __ZN2ot12commissioner20CommissioningSession5StartENSt3__18functionIFvRS1_NS0_5ErrorEEEE
|| __TEXT.__text __ZN2ot12commissioner20CommissioningSession9SendRlyTxERKNSt3__16vectorIhNS2_9allocatorIhEEEEb
|| __TEXT.__text __ZN2ot12commissioner20CommissioningSessionC1ERNS0_16CommissionerImplERKNS0_10JoinerInfoEttRKNSt3__16vectorIhNS7_9allocatorIhEEEERKNS0_7AddressEtSG_t
|| __TEXT.__text __ZN2ot12commissioner20CommissioningSessionC2ERNS0_16CommissionerImplERKNS0_10JoinerInfoEttRKNSt3__16vectorIhNS7_9allocatorIhEEEERKNS0_7AddressEtSG_t
|| __TEXT.__text __ZN2ot12commissioner20Ipv6PrefixFromStringERNSt3__16vectorIhNS1_9allocatorIhEEEERKNS1_12basic_stringIcNS1_11char_traitsIcEENS3_IcEEEE
|| __TEXT.__text __ZN2ot12commissioner3LogENS0_8LogLevelERKNSt3__112basic_stringIcNS2_11char_traitsIcEENS2_9allocatorIcEEEE
|| __TEXT.__text __ZN2ot12commissioner3tlv13IsExtendedTlvENS1_4TypeE
|| __TEXT.__text __ZN2ot12commissioner3tlv18IsDatasetParameterEbNS1_4TypeE
|| __TEXT.__text __ZN2ot12commissioner3tlv3Tlv11DeserializeERNS0_5ErrorERmRKNSt3__16vectorIhNS6_9allocatorIhEEEENS1_5ScopeE
|| __TEXT.__text __ZN2ot12commissioner3tlv3Tlv8GetValueEv
|| __TEXT.__text __ZN2ot12commissioner3tlv3Tlv8SetValueEPKhm
|| __TEXT.__text __ZN2ot12commissioner3tlv3Tlv8SetValueERKNSt3__16vectorIhNS3_9allocatorIhEEEE
|| __TEXT.__text __ZN2ot12commissioner3tlv3TlvC1ENS1_4TypeENS1_5ScopeE
|| __TEXT.__text __ZN2ot12commissioner3tlv3TlvC1ENS1_4TypeERKNSt3__112basic_stringIcNS4_11char_traitsIcEENS4_9allocatorIcEEEENS1_5ScopeE
|| __TEXT.__text __ZN2ot12commissioner3tlv3TlvC1ENS1_4TypeERKNSt3__16vectorIhNS4_9allocatorIhEEEENS1_5ScopeE
|| __TEXT.__text __ZN2ot12commissioner3tlv3TlvC1ENS1_4TypeEaNS1_5ScopeE
|| __TEXT.__text __ZN2ot12commissioner3tlv3TlvC1ENS1_4TypeEhNS1_5ScopeE
|| __TEXT.__text __ZN2ot12commissioner3tlv3TlvC1ENS1_4TypeEjNS1_5ScopeE
|| __TEXT.__text __ZN2ot12commissioner3tlv3TlvC1ENS1_4TypeEtNS1_5ScopeE
|| __TEXT.__text __ZN2ot12commissioner3tlv3TlvC1ENS1_4TypeEyNS1_5ScopeE
|| __TEXT.__text __ZN2ot12commissioner3tlv3TlvC2ENS1_4TypeENS1_5ScopeE
|| __TEXT.__text __ZN2ot12commissioner3tlv3TlvC2ENS1_4TypeERKNSt3__112basic_stringIcNS4_11char_traitsIcEENS4_9allocatorIcEEEENS1_5ScopeE
|| __TEXT.__text __ZN2ot12commissioner3tlv3TlvC2ENS1_4TypeERKNSt3__16vectorIhNS4_9allocatorIhEEEENS1_5ScopeE
|| __TEXT.__text __ZN2ot12commissioner3tlv3TlvC2ENS1_4TypeEaNS1_5ScopeE
|| __TEXT.__text __ZN2ot12commissioner3tlv3TlvC2ENS1_4TypeEhNS1_5ScopeE
|| __TEXT.__text __ZN2ot12commissioner3tlv3TlvC2ENS1_4TypeEjNS1_5ScopeE
|| __TEXT.__text __ZN2ot12commissioner3tlv3TlvC2ENS1_4TypeEtNS1_5ScopeE
|| __TEXT.__text __ZN2ot12commissioner3tlv3TlvC2ENS1_4TypeEyNS1_5ScopeE
|| __TEXT.__text __ZN2ot12commissioner3tlv6GetTlvENS1_4TypeERKNSt3__16vectorIhNS3_9allocatorIhEEEENS1_5ScopeE
|| __TEXT.__text __ZN2ot12commissioner3tlv9GetTlvSetERNSt3__13mapINS1_4TypeENS2_10shared_ptrINS1_3TlvEEENS2_4lessIS4_EENS2_9allocatorINS2_4pairIKS4_S7_EEEEEERKNS2_6vectorIhNSA_IhEEEENS1_5ScopeE
|| __TEXT.__text __ZN2ot12commissioner4coap4Coap10RetransmitERNS0_5TimerE
|| __TEXT.__text __ZN2ot12commissioner4coap4Coap11AddResourceERKNS1_8ResourceE
|| __TEXT.__text __ZN2ot12commissioner4coap4Coap11SendRequestERKNS1_7MessageENSt3__18functionIFvPS4_NS0_5ErrorEEEE
|| __TEXT.__text __ZN2ot12commissioner4coap4Coap12SendResponseERKNS1_7MessageERS3_
|| __TEXT.__text __ZN2ot12commissioner4coap4Coap13AbortRequestsEv
|| __TEXT.__text __ZN2ot12commissioner4coap4Coap13HandleRequestERKNS1_7MessageE
|| __TEXT.__text __ZN2ot12commissioner4coap4Coap13RequestHolderC1ENSt3__110shared_ptrINS1_7MessageEEENS4_8functionIFvPKS6_NS0_5ErrorEEEE
|| __TEXT.__text __ZN2ot12commissioner4coap4Coap13RequestHolderC2ENSt3__110shared_ptrINS1_7MessageEEENS4_8functionIFvPKS6_NS0_5ErrorEEEE
|| __TEXT.__text __ZN2ot12commissioner4coap4Coap13RequestsCache14TryRetartTimerEv
|| __TEXT.__text __ZN2ot12commissioner4coap4Coap13RequestsCache3PutENSt3__110shared_ptrINS1_7MessageEEENS4_8functionIFvPKS6_NS0_5ErrorEEEE
|| __TEXT.__text __ZN2ot12commissioner4coap4Coap13RequestsCache3PutERKNS2_13RequestHolderE
|| __TEXT.__text __ZN2ot12commissioner4coap4Coap13RequestsCache5ClearEv
|| __TEXT.__text __ZN2ot12commissioner4coap4Coap13RequestsCache9EliminateERKNS2_13RequestHolderE
|| __TEXT.__text __ZN2ot12commissioner4coap4Coap13RequestsCache9EliminateEv
|| __TEXT.__text __ZN2ot12commissioner4coap4Coap14HandleResponseERKNS1_7MessageE
|| __TEXT.__text __ZN2ot12commissioner4coap4Coap14ReceiveMessageERNS0_8EndpointENSt3__110shared_ptrINS1_7MessageEEENS0_5ErrorE
|| __TEXT.__text __ZN2ot12commissioner4coap4Coap14RemoveResourceERKNS1_8ResourceE
|| __TEXT.__text __ZN2ot12commissioner4coap4Coap14ResponsesCache5ClearEv
|| __TEXT.__text __ZN2ot12commissioner4coap4Coap14ResponsesCache9EliminateEv
|| __TEXT.__text __ZN2ot12commissioner4coap4Coap16SendEmptyMessageENS1_4TypeERKNS1_7MessageE
|| __TEXT.__text __ZN2ot12commissioner4coap4Coap17SetDefaultHandlerENSt3__18functionIFvRKNS1_7MessageEEEE
|| __TEXT.__text __ZN2ot12commissioner4coap4Coap18SendHeaderResponseENS1_4CodeERKNS1_7MessageE
|| __TEXT.__text __ZN2ot12commissioner4coap4Coap19FinalizeTransactionERKNS2_13RequestHolderEPKNS1_7MessageENS0_5ErrorE
|| __TEXT.__text __ZN2ot12commissioner4coap4Coap25ClearRequestsAndResponsesEv
|| __TEXT.__text __ZN2ot12commissioner4coap4Coap4SendERKNS1_7MessageE
|| __TEXT.__text __ZN2ot12commissioner4coap4Coap7ReceiveERNS0_8EndpointERKNSt3__16vectorIhNS5_9allocatorIhEEEE
|| __TEXT.__text __ZN2ot12commissioner4coap4CoapC1EP10event_baseRNS0_8EndpointE
|| __TEXT.__text __ZN2ot12commissioner4coap4CoapC2EP10event_baseRNS0_8EndpointE
|| __TEXT.__text __ZN2ot12commissioner4coap7Message10SetUriPathERKNSt3__112basic_stringIcNS3_11char_traitsIcEENS3_9allocatorIcEEEE
|| __TEXT.__text __ZN2ot12commissioner4coap7Message11DeserializeERNS0_5ErrorERKNSt3__16vectorIhNS5_9allocatorIhEEEE
|| __TEXT.__text __ZN2ot12commissioner4coap7Message11DeserializeERNS1_10OptionTypeERNS1_11OptionValueEtRKNSt3__16vectorIhNS7_9allocatorIhEEEERm
|| __TEXT.__text __ZN2ot12commissioner4coap7Message11DeserializeERNS2_6HeaderERKNSt3__16vectorIhNS5_9allocatorIhEEEERm
|| __TEXT.__text __ZN2ot12commissioner4coap7Message12AppendOptionENS1_10OptionTypeERKNS1_11OptionValueE
|| __TEXT.__text __ZN2ot12commissioner4coap7Message12SplitUriPathERNSt3__14listINS3_12basic_stringIcNS3_11char_traitsIcEENS3_9allocatorIcEEEENS8_ISA_EEEERKSA_
|| __TEXT.__text __ZN2ot12commissioner4coap7Message13IsValidOptionENS1_10OptionTypeERKNS1_11OptionValueE
|| __TEXT.__text __ZN2ot12commissioner4coap7Message16IsCriticalOptionENS1_10OptionTypeE
|| __TEXT.__text __ZN2ot12commissioner4coap7Message16NormalizeUriPathERNSt3__112basic_stringIcNS3_11char_traitsIcEENS3_9allocatorIcEEEE
|| __TEXT.__text __ZN2ot12commissioner4coap7Message8SetTokenERKNSt3__16vectorIhNS3_9allocatorIhEEEE
|| __TEXT.__text __ZN2ot12commissioner4coap7Message8SetTokenEh
|| __TEXT.__text __ZN2ot12commissioner4coap7MessageC1ENS1_4TypeENS1_4CodeE
|| __TEXT.__text __ZN2ot12commissioner4coap7MessageC1Ev
|| __TEXT.__text __ZN2ot12commissioner4coap7MessageC2ENS1_4TypeENS1_4CodeE
|| __TEXT.__text __ZN2ot12commissioner4coap7MessageC2Ev
|| __TEXT.__text __ZN2ot12commissioner4cose11MakeCoseKeyERNSt3__16vectorIhNS2_9allocatorIhEEEERK18mbedtls_pk_contextRKS6_
|| __TEXT.__text __ZN2ot12commissioner4cose12Sign1Message10GetPayloadERm
|| __TEXT.__text __ZN2ot12commissioner4cose12Sign1Message10SetContentERKNSt3__16vectorIhNS3_9allocatorIhEEEE
|| __TEXT.__text __ZN2ot12commissioner4cose12Sign1Message11DeserializeERS2_RKNSt3__16vectorIhNS4_9allocatorIhEEEE
|| __TEXT.__text __ZN2ot12commissioner4cose12Sign1Message12AddAttributeEiP7cn_cbori
|| __TEXT.__text __ZN2ot12commissioner4cose12Sign1Message12AddAttributeEiRKNSt3__16vectorIhNS3_9allocatorIhEEEEi
|| __TEXT.__text __ZN2ot12commissioner4cose12Sign1Message12AddAttributeEiii
|| __TEXT.__text __ZN2ot12commissioner4cose12Sign1Message15SetExternalDataERKNSt3__16vectorIhNS3_9allocatorIhEEEE
|| __TEXT.__text __ZN2ot12commissioner4cose12Sign1Message4FreeEv
|| __TEXT.__text __ZN2ot12commissioner4cose12Sign1Message4InitEi
|| __TEXT.__text __ZN2ot12commissioner4cose12Sign1Message4SignERK18mbedtls_pk_context
|| __TEXT.__text __ZN2ot12commissioner4cose12Sign1Message8ValidateERK18mbedtls_pk_context
|| __TEXT.__text __ZN2ot12commissioner4cose12Sign1Message8ValidateERKNS0_7CborMapE
|| __TEXT.__text __ZN2ot12commissioner4cose12Sign1Message9SerializeERNSt3__16vectorIhNS3_9allocatorIhEEEE
|| __TEXT.__text __ZN2ot12commissioner4cose12Sign1MessageC1Ev
|| __TEXT.__text __ZN2ot12commissioner4cose12Sign1MessageC2Ev
|| __TEXT.__text __ZN2ot12commissioner5Crc166UpdateEh
|| __TEXT.__text __ZN2ot12commissioner5Crc16C1ENS1_10PolynomialE
|| __TEXT.__text __ZN2ot12commissioner5Crc16C2ENS1_10PolynomialE
|| __TEXT.__text __ZN2ot12commissioner5utils3HexERKNSt3__16vectorIhNS2_9allocatorIhEEEE
|| __TEXT.__text __ZN2ot12commissioner5utils3HexERNSt3__16vectorIhNS2_9allocatorIhEEEERKNS2_12basic_stringIcNS2_11char_traitsIcEENS4_IcEEEE
|| __TEXT.__text __ZN2ot12commissioner5utils6EncodeIaEENSt3__16vectorIhNS3_9allocatorIhEEEET_
|| __TEXT.__text __ZN2ot12commissioner5utils6EncodeIaEEvRNSt3__16vectorIhNS3_9allocatorIhEEEET_
|| __TEXT.__text __ZN2ot12commissioner5utils6EncodeIhEENSt3__16vectorIhNS3_9allocatorIhEEEET_
|| __TEXT.__text __ZN2ot12commissioner5utils6EncodeIhEEvRNSt3__16vectorIhNS3_9allocatorIhEEEET_
|| __TEXT.__text __ZN2ot12commissioner6GetTlvENS0_3tlv4TypeERKNS0_4coap7MessageENS1_5ScopeE
|| __TEXT.__text __ZN2ot12commissioner6Sha2565StartEv
|| __TEXT.__text __ZN2ot12commissioner6Sha2566FinishEPh
|| __TEXT.__text __ZN2ot12commissioner6Sha2566UpdateEPKht
|| __TEXT.__text __ZN2ot12commissioner6Sha256C1Ev
|| __TEXT.__text __ZN2ot12commissioner6Sha256C2Ev
|| __TEXT.__text __ZN2ot12commissioner6Sha256D1Ev
|| __TEXT.__text __ZN2ot12commissioner6Sha256D2Ev
|| __TEXT.__text __ZN2ot12commissioner6Socket11HandleEventEisPv
|| __TEXT.__text __ZN2ot12commissioner6Socket4SendEPvPKhm
|| __TEXT.__text __ZN2ot12commissioner6Socket5ResetEv
|| __TEXT.__text __ZN2ot12commissioner6Socket7ReceiveEPvPhm
|| __TEXT.__text __ZN2ot12commissioner6SocketC2EP10event_base
|| __TEXT.__text __ZN2ot12commissioner6SocketD0Ev
|| __TEXT.__text __ZN2ot12commissioner6SocketD1Ev
|| __TEXT.__text __ZN2ot12commissioner6SocketD2Ev
|| __TEXT.__text __ZN2ot12commissioner6random10non_crypto9GetUint32Ev
|| __TEXT.__text __ZN2ot12commissioner7Address10FromStringERKNSt3__112basic_stringIcNS2_11char_traitsIcEENS2_9allocatorIcEEEE
|| __TEXT.__text __ZN2ot12commissioner7Address3SetERK16sockaddr_storage
|| __TEXT.__text __ZN2ot12commissioner7Address3SetERKNSt3__112basic_stringIcNS2_11char_traitsIcEENS2_9allocatorIcEEEE
|| __TEXT.__text __ZN2ot12commissioner7CborMap3PutEiPKc
|| __TEXT.__text __ZN2ot12commissioner7CborMap3PutEiPKhm
|| __TEXT.__text __ZN2ot12commissioner7CborMap3PutEiRKS1_
|| __TEXT.__text __ZN2ot12commissioner7CborMap3PutEii
|| __TEXT.__text __ZN2ot12commissioner7CborMap4InitEv
|| __TEXT.__text __ZN2ot12commissioner9AppendTlvERNS0_4coap7MessageERKNS0_3tlv3TlvE
|| __TEXT.__text __ZN2ot12commissioner9CborValue11DeserializeERS1_PKhm
|| __TEXT.__text __ZN2ot12commissioner9CborValue4FreeEv
|| __TEXT.__text __ZN2ot12commissioner9CborValue4MoveERS1_S2_
|| __TEXT.__text __ZN2ot12commissioner9CborValueC2Ev
|| __TEXT.__text __ZN2ot12commissioner9GetLoggerEv
|| __TEXT.__text __ZN2ot12commissioner9GetTlvSetERNSt3__13mapINS0_3tlv4TypeENS1_10shared_ptrINS3_3TlvEEENS1_4lessIS4_EENS1_9allocatorINS1_4pairIKS4_S7_EEEEEERKNS0_4coap7MessageENS3_5ScopeE
|| __TEXT.__text __ZN2ot12commissioner9Timestamp3CurEv
|| __TEXT.__text __ZN2ot12commissioner9Timestamp6DecodeEy
|| __TEXT.__text __ZN2ot12commissioner9UdpSocket15SetEventHandlerENSt3__18functionIFvsEEE
|| __TEXT.__text __ZN2ot12commissioner9UdpSocket4BindERKNSt3__112basic_stringIcNS2_11char_traitsIcEENS2_9allocatorIcEEEEt
|| __TEXT.__text __ZN2ot12commissioner9UdpSocket4SendEPKhm
|| __TEXT.__text __ZN2ot12commissioner9UdpSocket5ResetEv
|| __TEXT.__text __ZN2ot12commissioner9UdpSocket7ConnectERKNSt3__112basic_stringIcNS2_11char_traitsIcEENS2_9allocatorIcEEEEt
|| __TEXT.__text __ZN2ot12commissioner9UdpSocket7ReceiveEPhm
|| __TEXT.__text __ZN2ot12commissioner9UdpSocketC1EOS1_
|| __TEXT.__text __ZN2ot12commissioner9UdpSocketC1EP10event_base
|| __TEXT.__text __ZN2ot12commissioner9UdpSocketC2EOS1_
|| __TEXT.__text __ZN2ot12commissioner9UdpSocketC2EP10event_base
|| __TEXT.__text __ZN2ot12commissioner9UdpSocketD0Ev
|| __TEXT.__text __ZN2ot12commissioner9UdpSocketD1Ev
|| __TEXT.__text __ZN2ot12commissioner9UdpSocketD2Ev
|| __TEXT.__text __ZN3fmt2v712format_errorD0Ev
|| __TEXT.__text __ZN3fmt2v712format_errorD1Ev
|| __TEXT.__text __ZN3fmt2v712format_errorD2Ev
|| __TEXT.__text __ZN3fmt2v712system_error4initEiNS0_17basic_string_viewIcEENS0_11format_argsE
|| __TEXT.__text __ZN3fmt2v712system_errorD0Ev
|| __TEXT.__text __ZN3fmt2v712system_errorD1Ev
|| __TEXT.__text __ZN3fmt2v712system_errorD2Ev
|| __TEXT.__text __ZN3fmt2v719format_system_errorERNS0_6detail6bufferIcEEiNS0_17basic_string_viewIcEE
|| __TEXT.__text __ZN3fmt2v719report_system_errorEiNS0_17basic_string_viewIcEE
|| __TEXT.__text __ZN3fmt2v76detail10locale_refC1INSt3__16localeEEERKT_
|| __TEXT.__text __ZN3fmt2v76detail10locale_refC2INSt3__16localeEEERKT_
|| __TEXT.__text __ZN3fmt2v76detail10vformat_toIcEENS0_20basic_format_contextINSt3__120back_insert_iteratorINS1_6bufferIT_EEEES7_E8iteratorERS8_NS0_17basic_string_viewIS7_EENS0_17basic_format_argsINS3_INS5_INS6_INS0_13type_identityIS7_E4typeEEEEESI_EEEE
|| __TEXT.__text __ZN3fmt2v76detail10vformat_toIcEEvRNS1_6bufferIT_EENS0_17basic_string_viewIS4_EENS0_17basic_format_argsINS0_20basic_format_contextINS1_15buffer_appenderINS0_13type_identityIS4_E4typeEEESE_EEEENS1_10locale_refE
|| __TEXT.__text __ZN3fmt2v76detail11assert_failEPKciS3_
|| __TEXT.__text __ZN3fmt2v76detail12count_digitsILj4ENS1_16fallback_uintptrEEEiT0_
|| __TEXT.__text __ZN3fmt2v76detail12format_floatIdEEiT_iNS1_11float_specsERNS1_6bufferIcEE
|| __TEXT.__text __ZN3fmt2v76detail12format_floatIeEEiT_iNS1_11float_specsERNS1_6bufferIcEE
|| __TEXT.__text __ZN3fmt2v76detail12report_errorEPFvRNS1_6bufferIcEEiNS0_17basic_string_viewIcEEEiS6_
|| __TEXT.__text __ZN3fmt2v76detail13error_handler8on_errorEPKc
|| __TEXT.__text __ZN3fmt2v76detail13grouping_implIcEENSt3__112basic_stringIcNS3_11char_traitsIcEENS3_9allocatorIcEEEENS1_10locale_refE
|| __TEXT.__text __ZN3fmt2v76detail13grouping_implIwEENSt3__112basic_stringIcNS3_11char_traitsIcEENS3_9allocatorIcEEEENS1_10locale_refE
|| __TEXT.__text __ZN3fmt2v76detail13utf8_to_utf16C1ENS0_17basic_string_viewIcEE
|| __TEXT.__text __ZN3fmt2v76detail13utf8_to_utf16C2ENS0_17basic_string_viewIcEE
|| __TEXT.__text __ZN3fmt2v76detail14snprintf_floatIdEEiT_iNS1_11float_specsERNS1_6bufferIcEE
|| __TEXT.__text __ZN3fmt2v76detail14snprintf_floatIeEEiT_iNS1_11float_specsERNS1_6bufferIcEE
|| __TEXT.__text __ZN3fmt2v76detail17format_error_codeERNS1_6bufferIcEEiNS0_17basic_string_viewIcEE
|| __TEXT.__text __ZN3fmt2v76detail18decimal_point_implIcEET_NS1_10locale_refE
|| __TEXT.__text __ZN3fmt2v76detail18decimal_point_implIwEET_NS1_10locale_refE
|| __TEXT.__text __ZN3fmt2v76detail18thousands_sep_implIcEET_NS1_10locale_refE
|| __TEXT.__text __ZN3fmt2v76detail18thousands_sep_implIwEET_NS1_10locale_refE
|| __TEXT.__text __ZN3fmt2v76detail6bufferIcE6appendIcEEvPKT_S7_
|| __TEXT.__text __ZN3fmt2v76detail6bufferIwE6appendIwEEvPKT_S7_
|| __TEXT.__text __ZN3fmt2v76detail7vformatENS0_17basic_string_viewIcEENS0_11format_argsE
|| __TEXT.__text __ZN3fmt2v76detail9dragonbox10to_decimalIdEENS2_10decimal_fpIT_EES5_
|| __TEXT.__text __ZN3fmt2v76detail9dragonbox10to_decimalIfEENS2_10decimal_fpIT_EES5_
|| __TEXT.__text __ZN3fmt2v76vprintENS0_17basic_string_viewIcEENS0_11format_argsE
|| __TEXT.__text __ZN3fmt2v76vprintEP7__sFILENS0_17basic_string_viewIcEENS0_11format_argsE
|| __TEXT.__text __ZNK2ot12commissioner11DtlsSession14GetStateStringEv
|| __TEXT.__text __ZNK2ot12commissioner12TokenManager12GetPublicKeyERNS0_7CborMapE
|| __TEXT.__text __ZNK2ot12commissioner16CommissionerImpl12GetSessionIdEv
|| __TEXT.__text __ZNK2ot12commissioner16CommissionerImpl13GetDomainNameEv
|| __TEXT.__text __ZNK2ot12commissioner16CommissionerImpl8GetStateEv
|| __TEXT.__text __ZNK2ot12commissioner16CommissionerImpl8IsActiveEv
|| __TEXT.__text __ZNK2ot12commissioner16CommissionerImpl9GetConfigEv
|| __TEXT.__text __ZNK2ot12commissioner16CommissionerImpl9IsCcmModeEv
|| __TEXT.__text __ZNK2ot12commissioner16CommissionerSafe12GetSessionIdEv
|| __TEXT.__text __ZNK2ot12commissioner16CommissionerSafe13GetDomainNameEv
|| __TEXT.__text __ZNK2ot12commissioner16CommissionerSafe8GetStateEv
|| __TEXT.__text __ZNK2ot12commissioner16CommissionerSafe8IsActiveEv
|| __TEXT.__text __ZNK2ot12commissioner16CommissionerSafe9GetConfigEv
|| __TEXT.__text __ZNK2ot12commissioner16CommissionerSafe9IsCcmModeEv
|| __TEXT.__text __ZNK2ot12commissioner3tlv3Tlv14GetTotalLengthEv
|| __TEXT.__text __ZNK2ot12commissioner3tlv3Tlv14GetValueAsInt8Ev
|| __TEXT.__text __ZNK2ot12commissioner3tlv3Tlv15GetValueAsUint8Ev
|| __TEXT.__text __ZNK2ot12commissioner3tlv3Tlv16GetValueAsStringEv
|| __TEXT.__text __ZNK2ot12commissioner3tlv3Tlv16GetValueAsUint16Ev
|| __TEXT.__text __ZNK2ot12commissioner3tlv3Tlv7GetTypeEv
|| __TEXT.__text __ZNK2ot12commissioner3tlv3Tlv7IsValidEv
|| __TEXT.__text __ZNK2ot12commissioner3tlv3Tlv8GetValueEv
|| __TEXT.__text __ZNK2ot12commissioner3tlv3Tlv9GetLengthEv
|| __TEXT.__text __ZNK2ot12commissioner3tlv3Tlv9SerializeERNSt3__16vectorIhNS3_9allocatorIhEEEE
|| __TEXT.__text __ZNK2ot12commissioner4coap4Coap13RequestsCache5MatchERKNS1_7MessageE
|| __TEXT.__text __ZNK2ot12commissioner4coap4Coap14ResponsesCache5MatchERKNS1_7MessageE
|| __TEXT.__text __ZNK2ot12commissioner4coap7Message12IsTokenEqualERKS2_
|| __TEXT.__text __ZNK2ot12commissioner4coap7Message15GetHeaderLengthEv
|| __TEXT.__text __ZNK2ot12commissioner4coap7Message16GetContentFormatERNS1_13ContentFormatE
|| __TEXT.__text __ZNK2ot12commissioner4coap7Message6Header7IsValidEv
|| __TEXT.__text __ZNK2ot12commissioner4coap7Message9GetAcceptERNS1_13ContentFormatE
|| __TEXT.__text __ZNK2ot12commissioner4coap7Message9GetOptionENS1_10OptionTypeE
|| __TEXT.__text __ZNK2ot12commissioner4coap7Message9GetOptionERNSt3__112basic_stringIcNS3_11char_traitsIcEENS3_9allocatorIcEEEENS1_10OptionTypeE
|| __TEXT.__text __ZNK2ot12commissioner4coap7Message9GetOptionERNSt3__16vectorIhNS3_9allocatorIhEEEENS1_10OptionTypeE
|| __TEXT.__text __ZNK2ot12commissioner4coap7Message9GetOptionERjNS1_10OptionTypeE
|| __TEXT.__text __ZNK2ot12commissioner4coap7Message9SerializeENS1_10OptionTypeERKNS1_11OptionValueEtRNSt3__16vectorIhNS7_9allocatorIhEEEE
|| __TEXT.__text __ZNK2ot12commissioner4coap7Message9SerializeERKNS2_6HeaderERNSt3__16vectorIhNS6_9allocatorIhEEEE
|| __TEXT.__text __ZNK2ot12commissioner4coap7Message9SerializeERNSt3__16vectorIhNS3_9allocatorIhEEEE
|| __TEXT.__text __ZNK2ot12commissioner7Address8ToStringERNSt3__112basic_stringIcNS2_11char_traitsIcEENS2_9allocatorIcEEEE
|| __TEXT.__text __ZNK2ot12commissioner7CborMap3GetEiRPKcRm
|| __TEXT.__text __ZNK2ot12commissioner7CborMap3GetEiRPKhRm
|| __TEXT.__text __ZNK2ot12commissioner7CborMap3GetEiRS1_
|| __TEXT.__text __ZNK2ot12commissioner7CborMap3GetEiRi
|| __TEXT.__text __ZNK2ot12commissioner9CborValue9SerializeEPhRmm
|| __TEXT.__text __ZNK2ot12commissioner9Timestamp6EncodeEv
|| __TEXT.__text __ZNK2ot12commissioner9UdpSocket11GetPeerAddrEv
|| __TEXT.__text __ZNK2ot12commissioner9UdpSocket11GetPeerPortEv
|| __TEXT.__text __ZNK2ot12commissioner9UdpSocket12GetLocalAddrEv
|| __TEXT.__text __ZNK2ot12commissioner9UdpSocket12GetLocalPortEv
|| __TEXT.__text __ZNK3fmt2v76detail10locale_ref3getINSt3__16localeEEET_v
|| __TEXT.__text __encoder_breaker
|| __TEXT.__text __encoder_visitor
|| __TEXT.__text __visit
|| __TEXT.__text _cn_cbor_array_append
|| __TEXT.__text _cn_cbor_array_create
|| __TEXT.__text _cn_cbor_array_replace
|| __TEXT.__text _cn_cbor_bool_create
|| __TEXT.__text _cn_cbor_clone
|| __TEXT.__text _cn_cbor_data_create
|| __TEXT.__text _cn_cbor_decode
|| __TEXT.__text _cn_cbor_encode_size
|| __TEXT.__text _cn_cbor_encoder_write
|| __TEXT.__text _cn_cbor_free
|| __TEXT.__text _cn_cbor_index
|| __TEXT.__text _cn_cbor_int_create
|| __TEXT.__text _cn_cbor_map_create
|| __TEXT.__text _cn_cbor_map_put
|| __TEXT.__text _cn_cbor_mapget_int
|| __TEXT.__text _cn_cbor_mapget_string
|| __TEXT.__text _cn_cbor_mapput_int
|| __TEXT.__text _cn_cbor_mapput_string
|| __TEXT.__text _cn_cbor_null_create
|| __TEXT.__text _cn_cbor_string_create
|| __TEXT.__text _cn_cbor_tag_create
|| __TEXT.__text _eckey_from_cbor
|| __TEXT.__text _eckey_release
|| __TEXT.__text _event_active
|| __TEXT.__text _event_active_later_
|| __TEXT.__text _event_active_later_nolock_
|| __TEXT.__text _event_active_nolock_
|| __TEXT.__text _event_add
|| __TEXT.__text _event_add_nolock_
|| __TEXT.__text _event_assign
|| __TEXT.__text _event_base_active_by_fd
|| __TEXT.__text _event_base_active_by_signal
|| __TEXT.__text _event_base_add_virtual_
|| __TEXT.__text _event_base_assert_ok_
|| __TEXT.__text _event_base_assert_ok_nolock_
|| __TEXT.__text _event_base_del_virtual_
|| __TEXT.__text _event_base_dispatch
|| __TEXT.__text _event_base_dump_events
|| __TEXT.__text _event_base_foreach_event
|| __TEXT.__text _event_base_foreach_event_nolock_
|| __TEXT.__text _event_base_free
|| __TEXT.__text _event_base_free_nofinalize
|| __TEXT.__text _event_base_get_features
|| __TEXT.__text _event_base_get_max_events
|| __TEXT.__text _event_base_get_method
|| __TEXT.__text _event_base_get_npriorities
|| __TEXT.__text _event_base_get_num_events
|| __TEXT.__text _event_base_get_running_event
|| __TEXT.__text _event_base_gettimeofday_cached
|| __TEXT.__text _event_base_got_break
|| __TEXT.__text _event_base_got_exit
|| __TEXT.__text _event_base_init_common_timeout
|| __TEXT.__text _event_base_loop
|| __TEXT.__text _event_base_loopbreak
|| __TEXT.__text _event_base_loopcontinue
|| __TEXT.__text _event_base_loopexit
|| __TEXT.__text _event_base_new
|| __TEXT.__text _event_base_new_with_config
|| __TEXT.__text _event_base_once
|| __TEXT.__text _event_base_priority_init
|| __TEXT.__text _event_base_set
|| __TEXT.__text _event_base_start_iocp_
|| __TEXT.__text _event_base_stop_iocp_
|| __TEXT.__text _event_base_update_cache_time
|| __TEXT.__text _event_callback_activate_
|| __TEXT.__text _event_callback_activate_later_nolock_
|| __TEXT.__text _event_callback_activate_nolock_
|| __TEXT.__text _event_callback_cancel_
|| __TEXT.__text _event_callback_cancel_nolock_
|| __TEXT.__text _event_callback_finalize_
|| __TEXT.__text _event_callback_finalize_many_
|| __TEXT.__text _event_callback_finalize_nolock_
|| __TEXT.__text _event_callback_init_
|| __TEXT.__text _event_changelist_add_
|| __TEXT.__text _event_changelist_del_
|| __TEXT.__text _event_changelist_freemem_
|| __TEXT.__text _event_changelist_init_
|| __TEXT.__text _event_changelist_remove_all_
|| __TEXT.__text _event_config_avoid_method
|| __TEXT.__text _event_config_free
|| __TEXT.__text _event_config_new
|| __TEXT.__text _event_config_require_features
|| __TEXT.__text _event_config_set_flag
|| __TEXT.__text _event_config_set_max_dispatch_interval
|| __TEXT.__text _event_config_set_num_cpus_hint
|| __TEXT.__text _event_debug_map_HT_CLEAR
|| __TEXT.__text _event_debug_map_HT_GROW
|| __TEXT.__text _event_debug_map_HT_REP_IS_BAD_
|| __TEXT.__text _event_debug_unassign
|| __TEXT.__text _event_debugx_
|| __TEXT.__text _event_deferred_cb_cancel_
|| __TEXT.__text _event_deferred_cb_init_
|| __TEXT.__text _event_deferred_cb_schedule_
|| __TEXT.__text _event_deferred_cb_set_priority_
|| __TEXT.__text _event_del
|| __TEXT.__text _event_del_block
|| __TEXT.__text _event_del_noblock
|| __TEXT.__text _event_del_nolock_
|| __TEXT.__text _event_disable_debug_mode
|| __TEXT.__text _event_dispatch
|| __TEXT.__text _event_enable_debug_logging
|| __TEXT.__text _event_enable_debug_mode
|| __TEXT.__text _event_err
|| __TEXT.__text _event_errx
|| __TEXT.__text _event_finalize
|| __TEXT.__text _event_free
|| __TEXT.__text _event_free_finalize
|| __TEXT.__text _event_get_assignment
|| __TEXT.__text _event_get_base
|| __TEXT.__text _event_get_callback
|| __TEXT.__text _event_get_callback_arg
|| __TEXT.__text _event_get_events
|| __TEXT.__text _event_get_fd
|| __TEXT.__text _event_get_method
|| __TEXT.__text _event_get_priority
|| __TEXT.__text _event_get_struct_event_size
|| __TEXT.__text _event_get_supported_methods
|| __TEXT.__text _event_get_version
|| __TEXT.__text _event_get_version_number
|| __TEXT.__text _event_gettime_monotonic
|| __TEXT.__text _event_global_setup_locks_
|| __TEXT.__text _event_init
|| __TEXT.__text _event_initialized
|| __TEXT.__text _event_kq_add_notify_event_
|| __TEXT.__text _event_kq_notify_base_
|| __TEXT.__text _event_logv_
|| __TEXT.__text _event_loop
|| __TEXT.__text _event_loopbreak
|| __TEXT.__text _event_loopexit
|| __TEXT.__text _event_mm_calloc_
|| __TEXT.__text _event_mm_free_
|| __TEXT.__text _event_mm_malloc_
|| __TEXT.__text _event_mm_realloc_
|| __TEXT.__text _event_mm_strdup_
|| __TEXT.__text _event_msgx
|| __TEXT.__text _event_new
|| __TEXT.__text _event_once
|| __TEXT.__text _event_pending
|| __TEXT.__text _event_priority_init
|| __TEXT.__text _event_priority_set
|| __TEXT.__text _event_reinit
|| __TEXT.__text _event_remove_timer
|| __TEXT.__text _event_remove_timer_nolock_
|| __TEXT.__text _event_self_cbarg
|| __TEXT.__text _event_set
|| __TEXT.__text _event_set_fatal_callback
|| __TEXT.__text _event_set_log_callback
|| __TEXT.__text _event_set_mem_functions
|| __TEXT.__text _event_sock_err
|| __TEXT.__text _event_sock_warn
|| __TEXT.__text _event_warn
|| __TEXT.__text _event_warnx
|| __TEXT.__text _evmap_check_integrity_
|| __TEXT.__text _evmap_delete_all_
|| __TEXT.__text _evmap_foreach_event_
|| __TEXT.__text _evmap_io_active_
|| __TEXT.__text _evmap_io_add_
|| __TEXT.__text _evmap_io_clear_
|| __TEXT.__text _evmap_io_del_
|| __TEXT.__text _evmap_io_get_fdinfo_
|| __TEXT.__text _evmap_io_initmap_
|| __TEXT.__text _evmap_reinit_
|| __TEXT.__text _evmap_signal_active_
|| __TEXT.__text _evmap_signal_add_
|| __TEXT.__text _evmap_signal_clear_
|| __TEXT.__text _evmap_signal_del_
|| __TEXT.__text _evmap_signal_initmap_
|| __TEXT.__text _evsig_dealloc_
|| __TEXT.__text _evsig_free_globals_
|| __TEXT.__text _evsig_global_setup_locks_
|| __TEXT.__text _evsig_init_
|| __TEXT.__text _evsig_restore_handler_
|| __TEXT.__text _evsig_set_base_
|| __TEXT.__text _evsig_set_handler_
|| __TEXT.__text _evthread_debug_get_real_lock_
|| __TEXT.__text _evthread_enable_lock_debugging
|| __TEXT.__text _evthread_enable_lock_debuging
|| __TEXT.__text _evthread_get_condition_callbacks
|| __TEXT.__text _evthread_get_lock_callbacks
|| __TEXT.__text _evthread_is_debug_lock_held_
|| __TEXT.__text _evthread_make_base_notifiable
|| __TEXT.__text _evthread_set_condition_callbacks
|| __TEXT.__text _evthread_set_id_callback
|| __TEXT.__text _evthread_set_lock_callbacks
|| __TEXT.__text _evthread_setup_global_lock_
|| __TEXT.__text _evthread_use_pthreads
|| __TEXT.__text _evthread_use_pthreads_with_flags
|| __TEXT.__text _evthreadimpl_disable_lock_debugging_
|| __TEXT.__text _evutil_accept4_
|| __TEXT.__text _evutil_addrinfo_append_
|| __TEXT.__text _evutil_adjust_hints_for_addrconfig_
|| __TEXT.__text _evutil_ascii_strcasecmp
|| __TEXT.__text _evutil_ascii_strncasecmp
|| __TEXT.__text _evutil_closesocket
|| __TEXT.__text _evutil_configure_monotonic_time
|| __TEXT.__text _evutil_configure_monotonic_time_
|| __TEXT.__text _evutil_date_rfc1123
|| __TEXT.__text _evutil_ersatz_socketpair_
|| __TEXT.__text _evutil_eventfd_
|| __TEXT.__text _evutil_format_sockaddr_port_
|| __TEXT.__text _evutil_free_globals_
|| __TEXT.__text _evutil_free_secure_rng_globals_
|| __TEXT.__text _evutil_freeaddrinfo
|| __TEXT.__text _evutil_gai_strerror
|| __TEXT.__text _evutil_getaddrinfo
|| __TEXT.__text _evutil_getaddrinfo_async_
|| __TEXT.__text _evutil_getaddrinfo_cancel_async_
|| __TEXT.__text _evutil_getaddrinfo_common_
|| __TEXT.__text _evutil_getenv_
|| __TEXT.__text _evutil_gettime_monotonic
|| __TEXT.__text _evutil_gettime_monotonic_
|| __TEXT.__text _evutil_global_setup_locks_
|| __TEXT.__text _evutil_hex_char_to_int_
|| __TEXT.__text _evutil_inet_ntop
|| __TEXT.__text _evutil_inet_pton
|| __TEXT.__text _evutil_inet_pton_scope
|| __TEXT.__text _evutil_make_internal_pipe_
|| __TEXT.__text _evutil_make_listen_socket_ipv6only
|| __TEXT.__text _evutil_make_listen_socket_reuseable
|| __TEXT.__text _evutil_make_listen_socket_reuseable_port
|| __TEXT.__text _evutil_make_socket_closeonexec
|| __TEXT.__text _evutil_make_socket_nonblocking
|| __TEXT.__text _evutil_make_tcp_listen_socket_deferred
|| __TEXT.__text _evutil_memclear_
|| __TEXT.__text _evutil_monotonic_timer_free
|| __TEXT.__text _evutil_monotonic_timer_new
|| __TEXT.__text _evutil_new_addrinfo_
|| __TEXT.__text _evutil_open_closeonexec_
|| __TEXT.__text _evutil_parse_sockaddr_port
|| __TEXT.__text _evutil_read_file_
|| __TEXT.__text _evutil_rtrim_lws_
|| __TEXT.__text _evutil_secure_rng_add_bytes
|| __TEXT.__text _evutil_secure_rng_get_bytes
|| __TEXT.__text _evutil_secure_rng_global_setup_locks_
|| __TEXT.__text _evutil_secure_rng_init
|| __TEXT.__text _evutil_secure_rng_set_urandom_device_file
|| __TEXT.__text _evutil_set_evdns_getaddrinfo_cancel_fn_
|| __TEXT.__text _evutil_set_evdns_getaddrinfo_fn_
|| __TEXT.__text _evutil_snprintf
|| __TEXT.__text _evutil_sockaddr_cmp
|| __TEXT.__text _evutil_sockaddr_is_loopback_
|| __TEXT.__text _evutil_socket_
|| __TEXT.__text _evutil_socket_connect_
|| __TEXT.__text _evutil_socket_finished_connecting_
|| __TEXT.__text _evutil_socketpair
|| __TEXT.__text _evutil_strtoll
|| __TEXT.__text _evutil_tv_to_msec_
|| __TEXT.__text _evutil_usleep_
|| __TEXT.__text _evutil_v4addr_is_local_
|| __TEXT.__text _evutil_v6addr_is_local_
|| __TEXT.__text _evutil_vsnprintf
|| __TEXT.__text _evutil_weakrand_
|| __TEXT.__text _evutil_weakrand_range_
|| __TEXT.__text _evutil_weakrand_seed_
|| __TEXT.__text _libevent_global_shutdown
|| __TEXT.__text _mbedtls_aes_cmac_prf_128
|| __TEXT.__text _mbedtls_aes_crypt_cbc
|| __TEXT.__text _mbedtls_aes_crypt_cfb128
|| __TEXT.__text _mbedtls_aes_crypt_cfb8
|| __TEXT.__text _mbedtls_aes_crypt_ctr
|| __TEXT.__text _mbedtls_aes_crypt_ecb
|| __TEXT.__text _mbedtls_aes_crypt_ofb
|| __TEXT.__text _mbedtls_aes_crypt_xts
|| __TEXT.__text _mbedtls_aes_decrypt
|| __TEXT.__text _mbedtls_aes_encrypt
|| __TEXT.__text _mbedtls_aes_free
|| __TEXT.__text _mbedtls_aes_init
|| __TEXT.__text _mbedtls_aes_self_test
|| __TEXT.__text _mbedtls_aes_setkey_dec
|| __TEXT.__text _mbedtls_aes_setkey_enc
|| __TEXT.__text _mbedtls_aes_xts_free
|| __TEXT.__text _mbedtls_aes_xts_init
|| __TEXT.__text _mbedtls_aes_xts_setkey_dec
|| __TEXT.__text _mbedtls_aes_xts_setkey_enc
|| __TEXT.__text _mbedtls_arc4_crypt
|| __TEXT.__text _mbedtls_arc4_free
|| __TEXT.__text _mbedtls_arc4_init
|| __TEXT.__text _mbedtls_arc4_self_test
|| __TEXT.__text _mbedtls_arc4_setup
|| __TEXT.__text _mbedtls_asn1_find_named_data
|| __TEXT.__text _mbedtls_asn1_free_named_data
|| __TEXT.__text _mbedtls_asn1_free_named_data_list
|| __TEXT.__text _mbedtls_asn1_get_alg
|| __TEXT.__text _mbedtls_asn1_get_alg_null
|| __TEXT.__text _mbedtls_asn1_get_bitstring
|| __TEXT.__text _mbedtls_asn1_get_bitstring_null
|| __TEXT.__text _mbedtls_asn1_get_bool
|| __TEXT.__text _mbedtls_asn1_get_int
|| __TEXT.__text _mbedtls_asn1_get_len
|| __TEXT.__text _mbedtls_asn1_get_mpi
|| __TEXT.__text _mbedtls_asn1_get_sequence_of
|| __TEXT.__text _mbedtls_asn1_get_tag
|| __TEXT.__text _mbedtls_asn1_store_named_data
|| __TEXT.__text _mbedtls_asn1_write_algorithm_identifier
|| __TEXT.__text _mbedtls_asn1_write_bitstring
|| __TEXT.__text _mbedtls_asn1_write_bool
|| __TEXT.__text _mbedtls_asn1_write_ia5_string
|| __TEXT.__text _mbedtls_asn1_write_int
|| __TEXT.__text _mbedtls_asn1_write_len
|| __TEXT.__text _mbedtls_asn1_write_mpi
|| __TEXT.__text _mbedtls_asn1_write_null
|| __TEXT.__text _mbedtls_asn1_write_octet_string
|| __TEXT.__text _mbedtls_asn1_write_oid
|| __TEXT.__text _mbedtls_asn1_write_printable_string
|| __TEXT.__text _mbedtls_asn1_write_raw_buffer
|| __TEXT.__text _mbedtls_asn1_write_tag
|| __TEXT.__text _mbedtls_asn1_write_tagged_string
|| __TEXT.__text _mbedtls_asn1_write_utf8_string
|| __TEXT.__text _mbedtls_base64_decode
|| __TEXT.__text _mbedtls_base64_encode
|| __TEXT.__text _mbedtls_base64_self_test
|| __TEXT.__text _mbedtls_blowfish_crypt_cbc
|| __TEXT.__text _mbedtls_blowfish_crypt_cfb64
|| __TEXT.__text _mbedtls_blowfish_crypt_ctr
|| __TEXT.__text _mbedtls_blowfish_crypt_ecb
|| __TEXT.__text _mbedtls_blowfish_free
|| __TEXT.__text _mbedtls_blowfish_init
|| __TEXT.__text _mbedtls_blowfish_setkey
|| __TEXT.__text _mbedtls_camellia_crypt_cbc
|| __TEXT.__text _mbedtls_camellia_crypt_cfb128
|| __TEXT.__text _mbedtls_camellia_crypt_ctr
|| __TEXT.__text _mbedtls_camellia_crypt_ecb
|| __TEXT.__text _mbedtls_camellia_free
|| __TEXT.__text _mbedtls_camellia_init
|| __TEXT.__text _mbedtls_camellia_self_test
|| __TEXT.__text _mbedtls_camellia_setkey_dec
|| __TEXT.__text _mbedtls_camellia_setkey_enc
|| __TEXT.__text _mbedtls_ccm_auth_decrypt
|| __TEXT.__text _mbedtls_ccm_encrypt_and_tag
|| __TEXT.__text _mbedtls_ccm_free
|| __TEXT.__text _mbedtls_ccm_init
|| __TEXT.__text _mbedtls_ccm_self_test
|| __TEXT.__text _mbedtls_ccm_setkey
|| __TEXT.__text _mbedtls_ccm_star_auth_decrypt
|| __TEXT.__text _mbedtls_ccm_star_encrypt_and_tag
|| __TEXT.__text _mbedtls_chacha20_crypt
|| __TEXT.__text _mbedtls_chacha20_free
|| __TEXT.__text _mbedtls_chacha20_init
|| __TEXT.__text _mbedtls_chacha20_self_test
|| __TEXT.__text _mbedtls_chacha20_setkey
|| __TEXT.__text _mbedtls_chacha20_starts
|| __TEXT.__text _mbedtls_chacha20_update
|| __TEXT.__text _mbedtls_chachapoly_auth_decrypt
|| __TEXT.__text _mbedtls_chachapoly_encrypt_and_tag
|| __TEXT.__text _mbedtls_chachapoly_finish
|| __TEXT.__text _mbedtls_chachapoly_free
|| __TEXT.__text _mbedtls_chachapoly_init
|| __TEXT.__text _mbedtls_chachapoly_self_test
|| __TEXT.__text _mbedtls_chachapoly_setkey
|| __TEXT.__text _mbedtls_chachapoly_starts
|| __TEXT.__text _mbedtls_chachapoly_update
|| __TEXT.__text _mbedtls_chachapoly_update_aad
|| __TEXT.__text _mbedtls_cipher_auth_decrypt
|| __TEXT.__text _mbedtls_cipher_auth_encrypt
|| __TEXT.__text _mbedtls_cipher_check_tag
|| __TEXT.__text _mbedtls_cipher_cmac
|| __TEXT.__text _mbedtls_cipher_cmac_finish
|| __TEXT.__text _mbedtls_cipher_cmac_reset
|| __TEXT.__text _mbedtls_cipher_cmac_starts
|| __TEXT.__text _mbedtls_cipher_cmac_update
|| __TEXT.__text _mbedtls_cipher_crypt
|| __TEXT.__text _mbedtls_cipher_finish
|| __TEXT.__text _mbedtls_cipher_free
|| __TEXT.__text _mbedtls_cipher_info_from_string
|| __TEXT.__text _mbedtls_cipher_info_from_type
|| __TEXT.__text _mbedtls_cipher_info_from_values
|| __TEXT.__text _mbedtls_cipher_init
|| __TEXT.__text _mbedtls_cipher_list
|| __TEXT.__text _mbedtls_cipher_reset
|| __TEXT.__text _mbedtls_cipher_set_iv
|| __TEXT.__text _mbedtls_cipher_set_padding_mode
|| __TEXT.__text _mbedtls_cipher_setkey
|| __TEXT.__text _mbedtls_cipher_setup
|| __TEXT.__text _mbedtls_cipher_update
|| __TEXT.__text _mbedtls_cipher_update_ad
|| __TEXT.__text _mbedtls_cipher_write_tag
|| __TEXT.__text _mbedtls_cmac_self_test
|| __TEXT.__text _mbedtls_ctr_drbg_free
|| __TEXT.__text _mbedtls_ctr_drbg_init
|| __TEXT.__text _mbedtls_ctr_drbg_random
|| __TEXT.__text _mbedtls_ctr_drbg_random_with_add
|| __TEXT.__text _mbedtls_ctr_drbg_reseed
|| __TEXT.__text _mbedtls_ctr_drbg_seed
|| __TEXT.__text _mbedtls_ctr_drbg_seed_entropy_len
|| __TEXT.__text _mbedtls_ctr_drbg_self_test
|| __TEXT.__text _mbedtls_ctr_drbg_set_entropy_len
|| __TEXT.__text _mbedtls_ctr_drbg_set_prediction_resistance
|| __TEXT.__text _mbedtls_ctr_drbg_set_reseed_interval
|| __TEXT.__text _mbedtls_ctr_drbg_update
|| __TEXT.__text _mbedtls_ctr_drbg_update_ret
|| __TEXT.__text _mbedtls_ctr_drbg_update_seed_file
|| __TEXT.__text _mbedtls_ctr_drbg_write_seed_file
|| __TEXT.__text _mbedtls_debug_print_buf
|| __TEXT.__text _mbedtls_debug_print_crt
|| __TEXT.__text _mbedtls_debug_print_ecp
|| __TEXT.__text _mbedtls_debug_print_mpi
|| __TEXT.__text _mbedtls_debug_print_msg
|| __TEXT.__text _mbedtls_debug_print_ret
|| __TEXT.__text _mbedtls_debug_printf_ecdh
|| __TEXT.__text _mbedtls_debug_set_threshold
|| __TEXT.__text _mbedtls_des3_crypt_cbc
|| __TEXT.__text _mbedtls_des3_crypt_ecb
|| __TEXT.__text _mbedtls_des3_free
|| __TEXT.__text _mbedtls_des3_init
|| __TEXT.__text _mbedtls_des3_set2key_dec
|| __TEXT.__text _mbedtls_des3_set2key_enc
|| __TEXT.__text _mbedtls_des3_set3key_dec
|| __TEXT.__text _mbedtls_des3_set3key_enc
|| __TEXT.__text _mbedtls_des_crypt_cbc
|| __TEXT.__text _mbedtls_des_crypt_ecb
|| __TEXT.__text _mbedtls_des_free
|| __TEXT.__text _mbedtls_des_init
|| __TEXT.__text _mbedtls_des_key_check_key_parity
|| __TEXT.__text _mbedtls_des_key_check_weak
|| __TEXT.__text _mbedtls_des_key_set_parity
|| __TEXT.__text _mbedtls_des_self_test
|| __TEXT.__text _mbedtls_des_setkey
|| __TEXT.__text _mbedtls_des_setkey_dec
|| __TEXT.__text _mbedtls_des_setkey_enc
|| __TEXT.__text _mbedtls_dhm_calc_secret
|| __TEXT.__text _mbedtls_dhm_free
|| __TEXT.__text _mbedtls_dhm_init
|| __TEXT.__text _mbedtls_dhm_make_params
|| __TEXT.__text _mbedtls_dhm_make_public
|| __TEXT.__text _mbedtls_dhm_parse_dhm
|| __TEXT.__text _mbedtls_dhm_parse_dhmfile
|| __TEXT.__text _mbedtls_dhm_read_params
|| __TEXT.__text _mbedtls_dhm_read_public
|| __TEXT.__text _mbedtls_dhm_self_test
|| __TEXT.__text _mbedtls_dhm_set_group
|| __TEXT.__text _mbedtls_ecdh_calc_secret
|| __TEXT.__text _mbedtls_ecdh_compute_shared
|| __TEXT.__text _mbedtls_ecdh_free
|| __TEXT.__text _mbedtls_ecdh_gen_public
|| __TEXT.__text _mbedtls_ecdh_get_params
|| __TEXT.__text _mbedtls_ecdh_init
|| __TEXT.__text _mbedtls_ecdh_make_params
|| __TEXT.__text _mbedtls_ecdh_make_public
|| __TEXT.__text _mbedtls_ecdh_read_params
|| __TEXT.__text _mbedtls_ecdh_read_public
|| __TEXT.__text _mbedtls_ecdh_setup
|| __TEXT.__text _mbedtls_ecdsa_free
|| __TEXT.__text _mbedtls_ecdsa_from_keypair
|| __TEXT.__text _mbedtls_ecdsa_genkey
|| __TEXT.__text _mbedtls_ecdsa_init
|| __TEXT.__text _mbedtls_ecdsa_read_signature
|| __TEXT.__text _mbedtls_ecdsa_read_signature_restartable
|| __TEXT.__text _mbedtls_ecdsa_sign
|| __TEXT.__text _mbedtls_ecdsa_sign_det
|| __TEXT.__text _mbedtls_ecdsa_verify
|| __TEXT.__text _mbedtls_ecdsa_write_signature
|| __TEXT.__text _mbedtls_ecdsa_write_signature_det
|| __TEXT.__text _mbedtls_ecdsa_write_signature_restartable
|| __TEXT.__text _mbedtls_ecjpake_check
|| __TEXT.__text _mbedtls_ecjpake_derive_secret
|| __TEXT.__text _mbedtls_ecjpake_free
|| __TEXT.__text _mbedtls_ecjpake_init
|| __TEXT.__text _mbedtls_ecjpake_read_round_one
|| __TEXT.__text _mbedtls_ecjpake_read_round_two
|| __TEXT.__text _mbedtls_ecjpake_self_test
|| __TEXT.__text _mbedtls_ecjpake_setup
|| __TEXT.__text _mbedtls_ecjpake_write_round_one
|| __TEXT.__text _mbedtls_ecjpake_write_round_two
|| __TEXT.__text _mbedtls_ecp_check_privkey
|| __TEXT.__text _mbedtls_ecp_check_pub_priv
|| __TEXT.__text _mbedtls_ecp_check_pubkey
|| __TEXT.__text _mbedtls_ecp_copy
|| __TEXT.__text _mbedtls_ecp_curve_info_from_grp_id
|| __TEXT.__text _mbedtls_ecp_curve_info_from_name
|| __TEXT.__text _mbedtls_ecp_curve_info_from_tls_id
|| __TEXT.__text _mbedtls_ecp_curve_list
|| __TEXT.__text _mbedtls_ecp_gen_key
|| __TEXT.__text _mbedtls_ecp_gen_keypair
|| __TEXT.__text _mbedtls_ecp_gen_keypair_base
|| __TEXT.__text _mbedtls_ecp_gen_privkey
|| __TEXT.__text _mbedtls_ecp_group_copy
|| __TEXT.__text _mbedtls_ecp_group_free
|| __TEXT.__text _mbedtls_ecp_group_init
|| __TEXT.__text _mbedtls_ecp_group_load
|| __TEXT.__text _mbedtls_ecp_grp_id_list
|| __TEXT.__text _mbedtls_ecp_is_zero
|| __TEXT.__text _mbedtls_ecp_keypair_free
|| __TEXT.__text _mbedtls_ecp_keypair_init
|| __TEXT.__text _mbedtls_ecp_mul
|| __TEXT.__text _mbedtls_ecp_mul_restartable
|| __TEXT.__text _mbedtls_ecp_muladd
|| __TEXT.__text _mbedtls_ecp_muladd_restartable
|| __TEXT.__text _mbedtls_ecp_point_cmp
|| __TEXT.__text _mbedtls_ecp_point_free
|| __TEXT.__text _mbedtls_ecp_point_init
|| __TEXT.__text _mbedtls_ecp_point_read_binary
|| __TEXT.__text _mbedtls_ecp_point_read_string
|| __TEXT.__text _mbedtls_ecp_point_write_binary
|| __TEXT.__text _mbedtls_ecp_self_test
|| __TEXT.__text _mbedtls_ecp_set_zero
|| __TEXT.__text _mbedtls_ecp_tls_read_group
|| __TEXT.__text _mbedtls_ecp_tls_read_group_id
|| __TEXT.__text _mbedtls_ecp_tls_read_point
|| __TEXT.__text _mbedtls_ecp_tls_write_group
|| __TEXT.__text _mbedtls_ecp_tls_write_point
|| __TEXT.__text _mbedtls_entropy_add_source
|| __TEXT.__text _mbedtls_entropy_free
|| __TEXT.__text _mbedtls_entropy_func
|| __TEXT.__text _mbedtls_entropy_gather
|| __TEXT.__text _mbedtls_entropy_init
|| __TEXT.__text _mbedtls_entropy_self_test
|| __TEXT.__text _mbedtls_entropy_update_manual
|| __TEXT.__text _mbedtls_entropy_update_seed_file
|| __TEXT.__text _mbedtls_entropy_write_seed_file
|| __TEXT.__text _mbedtls_gcm_auth_decrypt
|| __TEXT.__text _mbedtls_gcm_crypt_and_tag
|| __TEXT.__text _mbedtls_gcm_finish
|| __TEXT.__text _mbedtls_gcm_free
|| __TEXT.__text _mbedtls_gcm_init
|| __TEXT.__text _mbedtls_gcm_self_test
|| __TEXT.__text _mbedtls_gcm_setkey
|| __TEXT.__text _mbedtls_gcm_starts
|| __TEXT.__text _mbedtls_gcm_update
|| __TEXT.__text _mbedtls_hardclock_poll
|| __TEXT.__text _mbedtls_hmac_drbg_free
|| __TEXT.__text _mbedtls_hmac_drbg_init
|| __TEXT.__text _mbedtls_hmac_drbg_random
|| __TEXT.__text _mbedtls_hmac_drbg_random_with_add
|| __TEXT.__text _mbedtls_hmac_drbg_reseed
|| __TEXT.__text _mbedtls_hmac_drbg_seed
|| __TEXT.__text _mbedtls_hmac_drbg_seed_buf
|| __TEXT.__text _mbedtls_hmac_drbg_self_test
|| __TEXT.__text _mbedtls_hmac_drbg_set_entropy_len
|| __TEXT.__text _mbedtls_hmac_drbg_set_prediction_resistance
|| __TEXT.__text _mbedtls_hmac_drbg_set_reseed_interval
|| __TEXT.__text _mbedtls_hmac_drbg_update
|| __TEXT.__text _mbedtls_hmac_drbg_update_ret
|| __TEXT.__text _mbedtls_hmac_drbg_update_seed_file
|| __TEXT.__text _mbedtls_hmac_drbg_write_seed_file
|| __TEXT.__text _mbedtls_internal_aes_decrypt
|| __TEXT.__text _mbedtls_internal_aes_encrypt
|| __TEXT.__text _mbedtls_internal_md5_process
|| __TEXT.__text _mbedtls_internal_ripemd160_process
|| __TEXT.__text _mbedtls_internal_sha1_process
|| __TEXT.__text _mbedtls_internal_sha256_process
|| __TEXT.__text _mbedtls_internal_sha512_process
|| __TEXT.__text _mbedtls_md
|| __TEXT.__text _mbedtls_md5
|| __TEXT.__text _mbedtls_md5_clone
|| __TEXT.__text _mbedtls_md5_finish
|| __TEXT.__text _mbedtls_md5_finish_ret
|| __TEXT.__text _mbedtls_md5_free
|| __TEXT.__text _mbedtls_md5_init
|| __TEXT.__text _mbedtls_md5_process
|| __TEXT.__text _mbedtls_md5_ret
|| __TEXT.__text _mbedtls_md5_self_test
|| __TEXT.__text _mbedtls_md5_starts
|| __TEXT.__text _mbedtls_md5_starts_ret
|| __TEXT.__text _mbedtls_md5_update
|| __TEXT.__text _mbedtls_md5_update_ret
|| __TEXT.__text _mbedtls_md_clone
|| __TEXT.__text _mbedtls_md_file
|| __TEXT.__text _mbedtls_md_finish
|| __TEXT.__text _mbedtls_md_free
|| __TEXT.__text _mbedtls_md_get_name
|| __TEXT.__text _mbedtls_md_get_size
|| __TEXT.__text _mbedtls_md_get_type
|| __TEXT.__text _mbedtls_md_hmac
|| __TEXT.__text _mbedtls_md_hmac_finish
|| __TEXT.__text _mbedtls_md_hmac_reset
|| __TEXT.__text _mbedtls_md_hmac_starts
|| __TEXT.__text _mbedtls_md_hmac_update
|| __TEXT.__text _mbedtls_md_info_from_string
|| __TEXT.__text _mbedtls_md_info_from_type
|| __TEXT.__text _mbedtls_md_init
|| __TEXT.__text _mbedtls_md_init_ctx
|| __TEXT.__text _mbedtls_md_list
|| __TEXT.__text _mbedtls_md_process
|| __TEXT.__text _mbedtls_md_setup
|| __TEXT.__text _mbedtls_md_starts
|| __TEXT.__text _mbedtls_md_update
|| __TEXT.__text _mbedtls_mpi_add_abs
|| __TEXT.__text _mbedtls_mpi_add_int
|| __TEXT.__text _mbedtls_mpi_add_mpi
|| __TEXT.__text _mbedtls_mpi_bitlen
|| __TEXT.__text _mbedtls_mpi_cmp_abs
|| __TEXT.__text _mbedtls_mpi_cmp_int
|| __TEXT.__text _mbedtls_mpi_cmp_mpi
|| __TEXT.__text _mbedtls_mpi_copy
|| __TEXT.__text _mbedtls_mpi_div_int
|| __TEXT.__text _mbedtls_mpi_div_mpi
|| __TEXT.__text _mbedtls_mpi_exp_mod
|| __TEXT.__text _mbedtls_mpi_fill_random
|| __TEXT.__text _mbedtls_mpi_free
|| __TEXT.__text _mbedtls_mpi_gcd
|| __TEXT.__text _mbedtls_mpi_gen_prime
|| __TEXT.__text _mbedtls_mpi_get_bit
|| __TEXT.__text _mbedtls_mpi_grow
|| __TEXT.__text _mbedtls_mpi_init
|| __TEXT.__text _mbedtls_mpi_inv_mod
|| __TEXT.__text _mbedtls_mpi_is_prime
|| __TEXT.__text _mbedtls_mpi_is_prime_ext
|| __TEXT.__text _mbedtls_mpi_lsb
|| __TEXT.__text _mbedtls_mpi_lset
|| __TEXT.__text _mbedtls_mpi_mod_int
|| __TEXT.__text _mbedtls_mpi_mod_mpi
|| __TEXT.__text _mbedtls_mpi_mul_int
|| __TEXT.__text _mbedtls_mpi_mul_mpi
|| __TEXT.__text _mbedtls_mpi_read_binary
|| __TEXT.__text _mbedtls_mpi_read_file
|| __TEXT.__text _mbedtls_mpi_read_string
|| __TEXT.__text _mbedtls_mpi_safe_cond_assign
|| __TEXT.__text _mbedtls_mpi_safe_cond_swap
|| __TEXT.__text _mbedtls_mpi_self_test
|| __TEXT.__text _mbedtls_mpi_set_bit
|| __TEXT.__text _mbedtls_mpi_shift_l
|| __TEXT.__text _mbedtls_mpi_shift_r
|| __TEXT.__text _mbedtls_mpi_shrink
|| __TEXT.__text _mbedtls_mpi_size
|| __TEXT.__text _mbedtls_mpi_sub_abs
|| __TEXT.__text _mbedtls_mpi_sub_int
|| __TEXT.__text _mbedtls_mpi_sub_mpi
|| __TEXT.__text _mbedtls_mpi_swap
|| __TEXT.__text _mbedtls_mpi_write_binary
|| __TEXT.__text _mbedtls_mpi_write_file
|| __TEXT.__text _mbedtls_mpi_write_string
|| __TEXT.__text _mbedtls_net_accept
|| __TEXT.__text _mbedtls_net_bind
|| __TEXT.__text _mbedtls_net_connect
|| __TEXT.__text _mbedtls_net_free
|| __TEXT.__text _mbedtls_net_init
|| __TEXT.__text _mbedtls_net_poll
|| __TEXT.__text _mbedtls_net_recv
|| __TEXT.__text _mbedtls_net_recv_timeout
|| __TEXT.__text _mbedtls_net_send
|| __TEXT.__text _mbedtls_net_set_block
|| __TEXT.__text _mbedtls_net_set_nonblock
|| __TEXT.__text _mbedtls_net_usleep
|| __TEXT.__text _mbedtls_oid_get_attr_short_name
|| __TEXT.__text _mbedtls_oid_get_cipher_alg
|| __TEXT.__text _mbedtls_oid_get_ec_grp
|| __TEXT.__text _mbedtls_oid_get_extended_key_usage
|| __TEXT.__text _mbedtls_oid_get_md_alg
|| __TEXT.__text _mbedtls_oid_get_md_hmac
|| __TEXT.__text _mbedtls_oid_get_numeric_string
|| __TEXT.__text _mbedtls_oid_get_oid_by_ec_grp
|| __TEXT.__text _mbedtls_oid_get_oid_by_md
|| __TEXT.__text _mbedtls_oid_get_oid_by_pk_alg
|| __TEXT.__text _mbedtls_oid_get_oid_by_sig_alg
|| __TEXT.__text _mbedtls_oid_get_pk_alg
|| __TEXT.__text _mbedtls_oid_get_pkcs12_pbe_alg
|| __TEXT.__text _mbedtls_oid_get_sig_alg
|| __TEXT.__text _mbedtls_oid_get_sig_alg_desc
|| __TEXT.__text _mbedtls_oid_get_x509_ext_type
|| __TEXT.__text _mbedtls_pem_free
|| __TEXT.__text _mbedtls_pem_init
|| __TEXT.__text _mbedtls_pem_read_buffer
|| __TEXT.__text _mbedtls_pem_write_buffer
|| __TEXT.__text _mbedtls_pk_can_do
|| __TEXT.__text _mbedtls_pk_check_pair
|| __TEXT.__text _mbedtls_pk_debug
|| __TEXT.__text _mbedtls_pk_decrypt
|| __TEXT.__text _mbedtls_pk_encrypt
|| __TEXT.__text _mbedtls_pk_free
|| __TEXT.__text _mbedtls_pk_get_bitlen
|| __TEXT.__text _mbedtls_pk_get_name
|| __TEXT.__text _mbedtls_pk_get_type
|| __TEXT.__text _mbedtls_pk_info_from_type
|| __TEXT.__text _mbedtls_pk_init
|| __TEXT.__text _mbedtls_pk_load_file
|| __TEXT.__text _mbedtls_pk_parse_key
|| __TEXT.__text _mbedtls_pk_parse_keyfile
|| __TEXT.__text _mbedtls_pk_parse_public_key
|| __TEXT.__text _mbedtls_pk_parse_public_keyfile
|| __TEXT.__text _mbedtls_pk_parse_subpubkey
|| __TEXT.__text _mbedtls_pk_setup
|| __TEXT.__text _mbedtls_pk_setup_rsa_alt
|| __TEXT.__text _mbedtls_pk_sign
|| __TEXT.__text _mbedtls_pk_sign_restartable
|| __TEXT.__text _mbedtls_pk_verify
|| __TEXT.__text _mbedtls_pk_verify_ext
|| __TEXT.__text _mbedtls_pk_verify_restartable
|| __TEXT.__text _mbedtls_pkcs12_derivation
|| __TEXT.__text _mbedtls_pkcs12_pbe
|| __TEXT.__text _mbedtls_pkcs12_pbe_sha1_rc4_128
|| __TEXT.__text _mbedtls_pkcs5_pbes2
|| __TEXT.__text _mbedtls_pkcs5_pbkdf2_hmac
|| __TEXT.__text _mbedtls_pkcs5_self_test
|| __TEXT.__text _mbedtls_platform_entropy_poll
|| __TEXT.__text _mbedtls_platform_gmtime_r
|| __TEXT.__text _mbedtls_platform_zeroize
|| __TEXT.__text _mbedtls_poly1305_finish
|| __TEXT.__text _mbedtls_poly1305_free
|| __TEXT.__text _mbedtls_poly1305_init
|| __TEXT.__text _mbedtls_poly1305_mac
|| __TEXT.__text _mbedtls_poly1305_self_test
|| __TEXT.__text _mbedtls_poly1305_starts
|| __TEXT.__text _mbedtls_poly1305_update
|| __TEXT.__text _mbedtls_ripemd160
|| __TEXT.__text _mbedtls_ripemd160_clone
|| __TEXT.__text _mbedtls_ripemd160_finish
|| __TEXT.__text _mbedtls_ripemd160_finish_ret
|| __TEXT.__text _mbedtls_ripemd160_free
|| __TEXT.__text _mbedtls_ripemd160_init
|| __TEXT.__text _mbedtls_ripemd160_process
|| __TEXT.__text _mbedtls_ripemd160_ret
|| __TEXT.__text _mbedtls_ripemd160_self_test
|| __TEXT.__text _mbedtls_ripemd160_starts
|| __TEXT.__text _mbedtls_ripemd160_starts_ret
|| __TEXT.__text _mbedtls_ripemd160_update
|| __TEXT.__text _mbedtls_ripemd160_update_ret
|| __TEXT.__text _mbedtls_rsa_check_privkey
|| __TEXT.__text _mbedtls_rsa_check_pub_priv
|| __TEXT.__text _mbedtls_rsa_check_pubkey
|| __TEXT.__text _mbedtls_rsa_complete
|| __TEXT.__text _mbedtls_rsa_copy
|| __TEXT.__text _mbedtls_rsa_deduce_crt
|| __TEXT.__text _mbedtls_rsa_deduce_primes
|| __TEXT.__text _mbedtls_rsa_deduce_private_exponent
|| __TEXT.__text _mbedtls_rsa_export
|| __TEXT.__text _mbedtls_rsa_export_crt
|| __TEXT.__text _mbedtls_rsa_export_raw
|| __TEXT.__text _mbedtls_rsa_free
|| __TEXT.__text _mbedtls_rsa_gen_key
|| __TEXT.__text _mbedtls_rsa_get_len
|| __TEXT.__text _mbedtls_rsa_import
|| __TEXT.__text _mbedtls_rsa_import_raw
|| __TEXT.__text _mbedtls_rsa_init
|| __TEXT.__text _mbedtls_rsa_pkcs1_decrypt
|| __TEXT.__text _mbedtls_rsa_pkcs1_encrypt
|| __TEXT.__text _mbedtls_rsa_pkcs1_sign
|| __TEXT.__text _mbedtls_rsa_pkcs1_verify
|| __TEXT.__text _mbedtls_rsa_private
|| __TEXT.__text _mbedtls_rsa_public
|| __TEXT.__text _mbedtls_rsa_rsaes_oaep_decrypt
|| __TEXT.__text _mbedtls_rsa_rsaes_oaep_encrypt
|| __TEXT.__text _mbedtls_rsa_rsaes_pkcs1_v15_decrypt
|| __TEXT.__text _mbedtls_rsa_rsaes_pkcs1_v15_encrypt
|| __TEXT.__text _mbedtls_rsa_rsassa_pkcs1_v15_sign
|| __TEXT.__text _mbedtls_rsa_rsassa_pkcs1_v15_verify
|| __TEXT.__text _mbedtls_rsa_rsassa_pss_sign
|| __TEXT.__text _mbedtls_rsa_rsassa_pss_verify
|| __TEXT.__text _mbedtls_rsa_rsassa_pss_verify_ext
|| __TEXT.__text _mbedtls_rsa_self_test
|| __TEXT.__text _mbedtls_rsa_set_padding
|| __TEXT.__text _mbedtls_rsa_validate_crt
|| __TEXT.__text _mbedtls_rsa_validate_params
|| __TEXT.__text _mbedtls_set_alarm
|| __TEXT.__text _mbedtls_sha1
|| __TEXT.__text _mbedtls_sha1_clone
|| __TEXT.__text _mbedtls_sha1_finish
|| __TEXT.__text _mbedtls_sha1_finish_ret
|| __TEXT.__text _mbedtls_sha1_free
|| __TEXT.__text _mbedtls_sha1_init
|| __TEXT.__text _mbedtls_sha1_process
|| __TEXT.__text _mbedtls_sha1_ret
|| __TEXT.__text _mbedtls_sha1_self_test
|| __TEXT.__text _mbedtls_sha1_starts
|| __TEXT.__text _mbedtls_sha1_starts_ret
|| __TEXT.__text _mbedtls_sha1_update
|| __TEXT.__text _mbedtls_sha1_update_ret
|| __TEXT.__text _mbedtls_sha256
|| __TEXT.__text _mbedtls_sha256_clone
|| __TEXT.__text _mbedtls_sha256_finish
|| __TEXT.__text _mbedtls_sha256_finish_ret
|| __TEXT.__text _mbedtls_sha256_free
|| __TEXT.__text _mbedtls_sha256_init
|| __TEXT.__text _mbedtls_sha256_process
|| __TEXT.__text _mbedtls_sha256_ret
|| __TEXT.__text _mbedtls_sha256_self_test
|| __TEXT.__text _mbedtls_sha256_starts
|| __TEXT.__text _mbedtls_sha256_starts_ret
|| __TEXT.__text _mbedtls_sha256_update
|| __TEXT.__text _mbedtls_sha256_update_ret
|| __TEXT.__text _mbedtls_sha512
|| __TEXT.__text _mbedtls_sha512_clone
|| __TEXT.__text _mbedtls_sha512_finish
|| __TEXT.__text _mbedtls_sha512_finish_ret
|| __TEXT.__text _mbedtls_sha512_free
|| __TEXT.__text _mbedtls_sha512_init
|| __TEXT.__text _mbedtls_sha512_process
|| __TEXT.__text _mbedtls_sha512_ret
|| __TEXT.__text _mbedtls_sha512_self_test
|| __TEXT.__text _mbedtls_sha512_starts
|| __TEXT.__text _mbedtls_sha512_starts_ret
|| __TEXT.__text _mbedtls_sha512_update
|| __TEXT.__text _mbedtls_sha512_update_ret
|| __TEXT.__text _mbedtls_ssl_check_cert_usage
|| __TEXT.__text _mbedtls_ssl_check_curve
|| __TEXT.__text _mbedtls_ssl_check_pending
|| __TEXT.__text _mbedtls_ssl_check_sig_hash
|| __TEXT.__text _mbedtls_ssl_ciphersuite_from_id
|| __TEXT.__text _mbedtls_ssl_ciphersuite_from_string
|| __TEXT.__text _mbedtls_ssl_ciphersuite_uses_ec
|| __TEXT.__text _mbedtls_ssl_ciphersuite_uses_psk
|| __TEXT.__text _mbedtls_ssl_close_notify
|| __TEXT.__text _mbedtls_ssl_conf_alpn_protocols
|| __TEXT.__text _mbedtls_ssl_conf_arc4_support
|| __TEXT.__text _mbedtls_ssl_conf_authmode
|| __TEXT.__text _mbedtls_ssl_conf_ca_chain
|| __TEXT.__text _mbedtls_ssl_conf_cbc_record_splitting
|| __TEXT.__text _mbedtls_ssl_conf_cert_profile
|| __TEXT.__text _mbedtls_ssl_conf_cert_req_ca_list
|| __TEXT.__text _mbedtls_ssl_conf_ciphersuites
|| __TEXT.__text _mbedtls_ssl_conf_ciphersuites_for_version
|| __TEXT.__text _mbedtls_ssl_conf_curves
|| __TEXT.__text _mbedtls_ssl_conf_dbg
|| __TEXT.__text _mbedtls_ssl_conf_dh_param
|| __TEXT.__text _mbedtls_ssl_conf_dh_param_bin
|| __TEXT.__text _mbedtls_ssl_conf_dh_param_ctx
|| __TEXT.__text _mbedtls_ssl_conf_dhm_min_bitlen
|| __TEXT.__text _mbedtls_ssl_conf_dtls_anti_replay
|| __TEXT.__text _mbedtls_ssl_conf_dtls_badmac_limit
|| __TEXT.__text _mbedtls_ssl_conf_dtls_cookies
|| __TEXT.__text _mbedtls_ssl_conf_encrypt_then_mac
|| __TEXT.__text _mbedtls_ssl_conf_endpoint
|| __TEXT.__text _mbedtls_ssl_conf_export_keys_cb
|| __TEXT.__text _mbedtls_ssl_conf_extended_master_secret
|| __TEXT.__text _mbedtls_ssl_conf_fallback
|| __TEXT.__text _mbedtls_ssl_conf_handshake_timeout
|| __TEXT.__text _mbedtls_ssl_conf_legacy_renegotiation
|| __TEXT.__text _mbedtls_ssl_conf_max_frag_len
|| __TEXT.__text _mbedtls_ssl_conf_max_version
|| __TEXT.__text _mbedtls_ssl_conf_min_version
|| __TEXT.__text _mbedtls_ssl_conf_own_cert
|| __TEXT.__text _mbedtls_ssl_conf_psk
|| __TEXT.__text _mbedtls_ssl_conf_psk_cb
|| __TEXT.__text _mbedtls_ssl_conf_read_timeout
|| __TEXT.__text _mbedtls_ssl_conf_renegotiation
|| __TEXT.__text _mbedtls_ssl_conf_renegotiation_enforced
|| __TEXT.__text _mbedtls_ssl_conf_renegotiation_period
|| __TEXT.__text _mbedtls_ssl_conf_rng
|| __TEXT.__text _mbedtls_ssl_conf_session_cache
|| __TEXT.__text _mbedtls_ssl_conf_session_tickets
|| __TEXT.__text _mbedtls_ssl_conf_session_tickets_cb
|| __TEXT.__text _mbedtls_ssl_conf_sig_hashes
|| __TEXT.__text _mbedtls_ssl_conf_sni
|| __TEXT.__text _mbedtls_ssl_conf_transport
|| __TEXT.__text _mbedtls_ssl_conf_truncated_hmac
|| __TEXT.__text _mbedtls_ssl_conf_verify
|| __TEXT.__text _mbedtls_ssl_config_defaults
|| __TEXT.__text _mbedtls_ssl_config_free
|| __TEXT.__text _mbedtls_ssl_config_init
|| __TEXT.__text _mbedtls_ssl_cookie_check
|| __TEXT.__text _mbedtls_ssl_cookie_free
|| __TEXT.__text _mbedtls_ssl_cookie_init
|| __TEXT.__text _mbedtls_ssl_cookie_set_timeout
|| __TEXT.__text _mbedtls_ssl_cookie_setup
|| __TEXT.__text _mbedtls_ssl_cookie_write
|| __TEXT.__text _mbedtls_ssl_derive_keys
|| __TEXT.__text _mbedtls_ssl_dtls_replay_check
|| __TEXT.__text _mbedtls_ssl_dtls_replay_update
|| __TEXT.__text _mbedtls_ssl_fetch_input
|| __TEXT.__text _mbedtls_ssl_flight_transmit
|| __TEXT.__text _mbedtls_ssl_flush_output
|| __TEXT.__text _mbedtls_ssl_free
|| __TEXT.__text _mbedtls_ssl_get_alpn_protocol
|| __TEXT.__text _mbedtls_ssl_get_bytes_avail
|| __TEXT.__text _mbedtls_ssl_get_ciphersuite
|| __TEXT.__text _mbedtls_ssl_get_ciphersuite_id
|| __TEXT.__text _mbedtls_ssl_get_ciphersuite_name
|| __TEXT.__text _mbedtls_ssl_get_ciphersuite_sig_alg
|| __TEXT.__text _mbedtls_ssl_get_ciphersuite_sig_pk_alg
|| __TEXT.__text _mbedtls_ssl_get_key_exchange_md_ssl_tls
|| __TEXT.__text _mbedtls_ssl_get_key_exchange_md_tls1_2
|| __TEXT.__text _mbedtls_ssl_get_max_frag_len
|| __TEXT.__text _mbedtls_ssl_get_max_out_record_payload
|| __TEXT.__text _mbedtls_ssl_get_peer_cert
|| __TEXT.__text _mbedtls_ssl_get_record_expansion
|| __TEXT.__text _mbedtls_ssl_get_session
|| __TEXT.__text _mbedtls_ssl_get_verify_result
|| __TEXT.__text _mbedtls_ssl_get_version
|| __TEXT.__text _mbedtls_ssl_handle_message_type
|| __TEXT.__text _mbedtls_ssl_handshake
|| __TEXT.__text _mbedtls_ssl_handshake_client_step
|| __TEXT.__text _mbedtls_ssl_handshake_free
|| __TEXT.__text _mbedtls_ssl_handshake_server_step
|| __TEXT.__text _mbedtls_ssl_handshake_step
|| __TEXT.__text _mbedtls_ssl_handshake_wrapup
|| __TEXT.__text _mbedtls_ssl_hash_from_md_alg
|| __TEXT.__text _mbedtls_ssl_init
|| __TEXT.__text _mbedtls_ssl_list_ciphersuites
|| __TEXT.__text _mbedtls_ssl_md_alg_from_hash
|| __TEXT.__text _mbedtls_ssl_optimize_checksum
|| __TEXT.__text _mbedtls_ssl_parse_certificate
|| __TEXT.__text _mbedtls_ssl_parse_change_cipher_spec
|| __TEXT.__text _mbedtls_ssl_parse_finished
|| __TEXT.__text _mbedtls_ssl_pk_alg_from_sig
|| __TEXT.__text _mbedtls_ssl_prepare_handshake_record
|| __TEXT.__text _mbedtls_ssl_psk_derive_premaster
|| __TEXT.__text _mbedtls_ssl_read
|| __TEXT.__text _mbedtls_ssl_read_record
|| __TEXT.__text _mbedtls_ssl_read_version
|| __TEXT.__text _mbedtls_ssl_recv_flight_completed
|| __TEXT.__text _mbedtls_ssl_renegotiate
|| __TEXT.__text _mbedtls_ssl_resend
|| __TEXT.__text _mbedtls_ssl_reset_checksum
|| __TEXT.__text _mbedtls_ssl_send_alert_message
|| __TEXT.__text _mbedtls_ssl_send_fatal_handshake_failure
|| __TEXT.__text _mbedtls_ssl_send_flight_completed
|| __TEXT.__text _mbedtls_ssl_session_free
|| __TEXT.__text _mbedtls_ssl_session_init
|| __TEXT.__text _mbedtls_ssl_session_reset
|| __TEXT.__text _mbedtls_ssl_set_bio
|| __TEXT.__text _mbedtls_ssl_set_calc_verify_md
|| __TEXT.__text _mbedtls_ssl_set_client_transport_id
|| __TEXT.__text _mbedtls_ssl_set_datagram_packing
|| __TEXT.__text _mbedtls_ssl_set_hostname
|| __TEXT.__text _mbedtls_ssl_set_hs_authmode
|| __TEXT.__text _mbedtls_ssl_set_hs_ca_chain
|| __TEXT.__text _mbedtls_ssl_set_hs_ecjpake_password
|| __TEXT.__text _mbedtls_ssl_set_hs_own_cert
|| __TEXT.__text _mbedtls_ssl_set_hs_psk
|| __TEXT.__text _mbedtls_ssl_set_mtu
|| __TEXT.__text _mbedtls_ssl_set_session
|| __TEXT.__text _mbedtls_ssl_set_timer_cb
|| __TEXT.__text _mbedtls_ssl_setup
|| __TEXT.__text _mbedtls_ssl_sig_from_pk
|| __TEXT.__text _mbedtls_ssl_sig_from_pk_alg
|| __TEXT.__text _mbedtls_ssl_sig_hash_set_add
|| __TEXT.__text _mbedtls_ssl_sig_hash_set_const_hash
|| __TEXT.__text _mbedtls_ssl_sig_hash_set_find
|| __TEXT.__text _mbedtls_ssl_transform_free
|| __TEXT.__text _mbedtls_ssl_update_handshake_status
|| __TEXT.__text _mbedtls_ssl_write
|| __TEXT.__text _mbedtls_ssl_write_certificate
|| __TEXT.__text _mbedtls_ssl_write_change_cipher_spec
|| __TEXT.__text _mbedtls_ssl_write_finished
|| __TEXT.__text _mbedtls_ssl_write_handshake_msg
|| __TEXT.__text _mbedtls_ssl_write_record
|| __TEXT.__text _mbedtls_ssl_write_version
|| __TEXT.__text _mbedtls_timing_get_delay
|| __TEXT.__text _mbedtls_timing_get_timer
|| __TEXT.__text _mbedtls_timing_hardclock
|| __TEXT.__text _mbedtls_timing_self_test
|| __TEXT.__text _mbedtls_timing_set_delay
|| __TEXT.__text _mbedtls_x509_crt_check_extended_key_usage
|| __TEXT.__text _mbedtls_x509_crt_check_key_usage
|| __TEXT.__text _mbedtls_x509_crt_free
|| __TEXT.__text _mbedtls_x509_crt_info
|| __TEXT.__text _mbedtls_x509_crt_init
|| __TEXT.__text _mbedtls_x509_crt_is_revoked
|| __TEXT.__text _mbedtls_x509_crt_parse
|| __TEXT.__text _mbedtls_x509_crt_parse_der
|| __TEXT.__text _mbedtls_x509_crt_parse_file
|| __TEXT.__text _mbedtls_x509_crt_parse_path
|| __TEXT.__text _mbedtls_x509_crt_verify
|| __TEXT.__text _mbedtls_x509_crt_verify_info
|| __TEXT.__text _mbedtls_x509_crt_verify_restartable
|| __TEXT.__text _mbedtls_x509_crt_verify_with_profile
|| __TEXT.__text _mbedtls_x509_dn_gets
|| __TEXT.__text _mbedtls_x509_get_alg
|| __TEXT.__text _mbedtls_x509_get_alg_null
|| __TEXT.__text _mbedtls_x509_get_ext
|| __TEXT.__text _mbedtls_x509_get_name
|| __TEXT.__text _mbedtls_x509_get_rsassa_pss_params
|| __TEXT.__text _mbedtls_x509_get_serial
|| __TEXT.__text _mbedtls_x509_get_sig
|| __TEXT.__text _mbedtls_x509_get_sig_alg
|| __TEXT.__text _mbedtls_x509_get_time
|| __TEXT.__text _mbedtls_x509_key_size_helper
|| __TEXT.__text _mbedtls_x509_self_test
|| __TEXT.__text _mbedtls_x509_serial_gets
|| __TEXT.__text _mbedtls_x509_sig_alg_gets
|| __TEXT.__text _mbedtls_x509_time_is_future
|| __TEXT.__text _mbedtls_x509_time_is_past
|| __TEXT.__text _rand_bytes
__ CoreFoundation: _OBJC_CLASS_$_NSData
__ CoreFoundation: _OBJC_CLASS_$_NSDate
__ CoreFoundation: _OBJC_CLASS_$_NSDictionary
__ CoreFoundation: _OBJC_CLASS_$_NSMutableArray
__ CoreFoundation: _OBJC_CLASS_$_NSMutableData
__ CoreFoundation: _OBJC_CLASS_$_NSMutableDictionary
__ CoreFoundation: ___CFConstantStringClassReference
__ Foundation: _NSLocalizedDescriptionKey
__ Foundation: _NSLocalizedFailureReasonErrorKey
__ Foundation: _NSLog
__ Foundation: _NSNetServicesErrorCode
__ Foundation: _OBJC_CLASS_$_NSError
__ Foundation: _OBJC_CLASS_$_NSNetService
__ Foundation: _OBJC_CLASS_$_NSNetServiceBrowser
__ Foundation: _OBJC_CLASS_$_NSNumber
__ Foundation: _OBJC_CLASS_$_NSScanner
__ Foundation: _OBJC_CLASS_$_NSString
__ libSystem.B.dylib: __Block_object_dispose
__ libSystem.B.dylib: __DefaultRuneLocale
__ libSystem.B.dylib: __NSConcreteGlobalBlock
__ libSystem.B.dylib: __NSConcreteStackBlock
__ libSystem.B.dylib: __Unwind_Resume
__ libSystem.B.dylib: ___assert_rtn
__ libSystem.B.dylib: ___chkstk_darwin
__ libSystem.B.dylib: ___cxa_atexit
__ libSystem.B.dylib: ___darwin_check_fd_set_overflow
__ libSystem.B.dylib: ___error
__ libSystem.B.dylib: ___maskrune
__ libSystem.B.dylib: ___memcpy_chk
__ libSystem.B.dylib: ___memset_chk
__ libSystem.B.dylib: ___stack_chk_fail
__ libSystem.B.dylib: ___stack_chk_guard
__ libSystem.B.dylib: ___stderrp
__ libSystem.B.dylib: ___stdoutp
__ libSystem.B.dylib: ___udivti3
__ libSystem.B.dylib: __dispatch_source_type_timer
__ libSystem.B.dylib: __os_log_debug_impl
__ libSystem.B.dylib: __os_log_error_impl
__ libSystem.B.dylib: __os_log_impl
__ libSystem.B.dylib: _abort
__ libSystem.B.dylib: _accept
__ libSystem.B.dylib: _alarm
__ libSystem.B.dylib: _arc4random
__ libSystem.B.dylib: _arc4random_addrandom
__ libSystem.B.dylib: _arc4random_buf
__ libSystem.B.dylib: _atoi
__ libSystem.B.dylib: _bind
__ libSystem.B.dylib: _bzero
__ libSystem.B.dylib: _calloc
__ libSystem.B.dylib: _clock_gettime
__ libSystem.B.dylib: _close
__ libSystem.B.dylib: _closedir
__ libSystem.B.dylib: _connect
__ libSystem.B.dylib: _dispatch_activate
__ libSystem.B.dylib: _dispatch_async
__ libSystem.B.dylib: _dispatch_get_global_queue
__ libSystem.B.dylib: _dispatch_once
__ libSystem.B.dylib: _dispatch_semaphore_create
__ libSystem.B.dylib: _dispatch_semaphore_signal
__ libSystem.B.dylib: _dispatch_semaphore_wait
__ libSystem.B.dylib: _dispatch_source_cancel
__ libSystem.B.dylib: _dispatch_source_create
__ libSystem.B.dylib: _dispatch_source_set_event_handler
__ libSystem.B.dylib: _dispatch_source_set_timer
__ libSystem.B.dylib: _dispatch_time
__ libSystem.B.dylib: _exit
__ libSystem.B.dylib: _fclose
__ libSystem.B.dylib: _fcntl
__ libSystem.B.dylib: _ferror
__ libSystem.B.dylib: _fgets
__ libSystem.B.dylib: _fopen
__ libSystem.B.dylib: _fprintf
__ libSystem.B.dylib: _fputc
__ libSystem.B.dylib: _fread
__ libSystem.B.dylib: _free
__ libSystem.B.dylib: _freeaddrinfo
__ libSystem.B.dylib: _freeifaddrs
__ libSystem.B.dylib: _fseek
__ libSystem.B.dylib: _fstat
__ libSystem.B.dylib: _ftell
__ libSystem.B.dylib: _fwrite
__ libSystem.B.dylib: _gai_strerror
__ libSystem.B.dylib: _getaddrinfo
__ libSystem.B.dylib: _getenv
__ libSystem.B.dylib: _getifaddrs
__ libSystem.B.dylib: _getpeername
__ libSystem.B.dylib: _getpid
__ libSystem.B.dylib: _getprotobynumber
__ libSystem.B.dylib: _getservbyname
__ libSystem.B.dylib: _getsockname
__ libSystem.B.dylib: _getsockopt
__ libSystem.B.dylib: _gettimeofday
__ libSystem.B.dylib: _gmtime_r
__ libSystem.B.dylib: _if_nametoindex
__ libSystem.B.dylib: _inet_ntop
__ libSystem.B.dylib: _inet_pton
__ libSystem.B.dylib: _issetugid
__ libSystem.B.dylib: _kevent
__ libSystem.B.dylib: _kqueue
__ libSystem.B.dylib: _ldexp
__ libSystem.B.dylib: _listen
__ libSystem.B.dylib: _localtime_r
__ libSystem.B.dylib: _malloc
__ libSystem.B.dylib: _memchr
__ libSystem.B.dylib: _memcmp
__ libSystem.B.dylib: _memcpy
__ libSystem.B.dylib: _memmove
__ libSystem.B.dylib: _memset
__ libSystem.B.dylib: _nanosleep
__ libSystem.B.dylib: _open
__ libSystem.B.dylib: _opendir
__ libSystem.B.dylib: _os_log_create
__ libSystem.B.dylib: _os_log_type_enabled
__ libSystem.B.dylib: _pipe
__ libSystem.B.dylib: _poll
__ libSystem.B.dylib: _printf
__ libSystem.B.dylib: _pthread_cond_broadcast
__ libSystem.B.dylib: _pthread_cond_destroy
__ libSystem.B.dylib: _pthread_cond_init
__ libSystem.B.dylib: _pthread_cond_signal
__ libSystem.B.dylib: _pthread_cond_timedwait
__ libSystem.B.dylib: _pthread_cond_wait
__ libSystem.B.dylib: _pthread_create
__ libSystem.B.dylib: _pthread_mutex_destroy
__ libSystem.B.dylib: _pthread_mutex_init
__ libSystem.B.dylib: _pthread_mutex_lock
__ libSystem.B.dylib: _pthread_mutex_trylock
__ libSystem.B.dylib: _pthread_mutex_unlock
__ libSystem.B.dylib: _pthread_mutexattr_init
__ libSystem.B.dylib: _pthread_mutexattr_setprotocol
__ libSystem.B.dylib: _pthread_mutexattr_settype
__ libSystem.B.dylib: _pthread_self
__ libSystem.B.dylib: _pthread_setspecific
__ libSystem.B.dylib: _putchar
__ libSystem.B.dylib: _puts
__ libSystem.B.dylib: _rand
__ libSystem.B.dylib: _read
__ libSystem.B.dylib: _readdir
__ libSystem.B.dylib: _realloc
__ libSystem.B.dylib: _recvfrom
__ libSystem.B.dylib: _select
__ libSystem.B.dylib: _setsockopt
__ libSystem.B.dylib: _shutdown
__ libSystem.B.dylib: _sigaction
__ libSystem.B.dylib: _signal
__ libSystem.B.dylib: _sleep
__ libSystem.B.dylib: _snprintf
__ libSystem.B.dylib: _socket
__ libSystem.B.dylib: _socketpair
__ libSystem.B.dylib: _sscanf
__ libSystem.B.dylib: _stat
__ libSystem.B.dylib: _strchr
__ libSystem.B.dylib: _strcmp
__ libSystem.B.dylib: _strdup
__ libSystem.B.dylib: _strerror
__ libSystem.B.dylib: _strerror_r
__ libSystem.B.dylib: _strlcpy
__ libSystem.B.dylib: _strlen
__ libSystem.B.dylib: _strstr
__ libSystem.B.dylib: _strtol
__ libSystem.B.dylib: _strtoll
__ libSystem.B.dylib: _strtoul
__ libSystem.B.dylib: _strtoull
__ libSystem.B.dylib: _time
__ libSystem.B.dylib: _vsnprintf
__ libSystem.B.dylib: _write
__ libc++.1.dylib: __ZNKSt13runtime_error4whatEv
__ libc++.1.dylib: __ZNKSt3__112basic_stringIcNS_11char_traitsIcEENS_9allocatorIcEEE4findEcm
__ libc++.1.dylib: __ZNKSt3__112basic_stringIcNS_11char_traitsIcEENS_9allocatorIcEEE7compareEmmPKcm
__ libc++.1.dylib: __ZNKSt3__115basic_stringbufIcNS_11char_traitsIcEENS_9allocatorIcEEE3strEv
__ libc++.1.dylib: __ZNKSt3__119__shared_weak_count13__get_deleterERKSt9type_info
__ libc++.1.dylib: __ZNKSt3__120__vector_base_commonILb1EE20__throw_length_errorEv
__ libc++.1.dylib: __ZNKSt3__121__basic_string_commonILb1EE20__throw_length_errorEv
__ libc++.1.dylib: __ZNKSt3__16locale9use_facetERNS0_2idE
__ libc++.1.dylib: __ZNKSt3__18ios_base6getlocEv
__ libc++.1.dylib: __ZNKSt3__18time_putIcNS_19ostreambuf_iteratorIcNS_11char_traitsIcEEEEE3putES4_RNS_8ios_baseEcPK2tmPKcSC_
__ libc++.1.dylib: __ZNKSt9exception4whatEv
__ libc++.1.dylib: __ZNSt11logic_errorC2EPKc
__ libc++.1.dylib: __ZNSt11logic_errorC2ERKS_
__ libc++.1.dylib: __ZNSt12length_errorD1Ev
__ libc++.1.dylib: __ZNSt13exception_ptrC1ERKS_
__ libc++.1.dylib: __ZNSt13exception_ptrD1Ev
__ libc++.1.dylib: __ZNSt13runtime_errorC1EPKc
__ libc++.1.dylib: __ZNSt13runtime_errorC1ERKNSt3__112basic_stringIcNS0_11char_traitsIcEENS0_9allocatorIcEEEE
__ libc++.1.dylib: __ZNSt13runtime_errorC2EPKc
__ libc++.1.dylib: __ZNSt13runtime_errorD1Ev
__ libc++.1.dylib: __ZNSt13runtime_errorD2Ev
__ libc++.1.dylib: __ZNSt13runtime_erroraSERKS_
__ libc++.1.dylib: __ZNSt3__112basic_stringIcNS_11char_traitsIcEENS_9allocatorIcEEE6appendEPKc
__ libc++.1.dylib: __ZNSt3__112basic_stringIcNS_11char_traitsIcEENS_9allocatorIcEEE6appendEPKcm
__ libc++.1.dylib: __ZNSt3__112basic_stringIcNS_11char_traitsIcEENS_9allocatorIcEEE6assignEPKc
__ libc++.1.dylib: __ZNSt3__112basic_stringIcNS_11char_traitsIcEENS_9allocatorIcEEE6resizeEmc
__ libc++.1.dylib: __ZNSt3__112basic_stringIcNS_11char_traitsIcEENS_9allocatorIcEEE7replaceEmmmc
__ libc++.1.dylib: __ZNSt3__112basic_stringIcNS_11char_traitsIcEENS_9allocatorIcEEE9push_backEc
__ libc++.1.dylib: __ZNSt3__112basic_stringIcNS_11char_traitsIcEENS_9allocatorIcEEEC1ERKS5_
__ libc++.1.dylib: __ZNSt3__112basic_stringIcNS_11char_traitsIcEENS_9allocatorIcEEEC1ERKS5_mmRKS4_
__ libc++.1.dylib: __ZNSt3__112basic_stringIcNS_11char_traitsIcEENS_9allocatorIcEEEaSERKS5_
__ libc++.1.dylib: __ZNSt3__112future_errorC1ENS_10error_codeE
__ libc++.1.dylib: __ZNSt3__112future_errorD1Ev
__ libc++.1.dylib: __ZNSt3__113basic_ostreamIcNS_11char_traitsIcEEE6sentryC1ERS3_
__ libc++.1.dylib: __ZNSt3__113basic_ostreamIcNS_11char_traitsIcEEE6sentryD1Ev
__ libc++.1.dylib: __ZNSt3__114__shared_countD2Ev
__ libc++.1.dylib: __ZNSt3__114basic_iostreamIcNS_11char_traitsIcEEED2Ev
__ libc++.1.dylib: __ZNSt3__115__thread_structC1Ev
__ libc++.1.dylib: __ZNSt3__115__thread_structD1Ev
__ libc++.1.dylib: __ZNSt3__115basic_streambufIcNS_11char_traitsIcEEEC2Ev
__ libc++.1.dylib: __ZNSt3__115basic_streambufIcNS_11char_traitsIcEEED2Ev
__ libc++.1.dylib: __ZNSt3__115future_categoryEv
__ libc++.1.dylib: __ZNSt3__117__assoc_sub_state10__sub_waitERNS_11unique_lockINS_5mutexEEE
__ libc++.1.dylib: __ZNSt3__117__assoc_sub_state13set_exceptionESt13exception_ptr
__ libc++.1.dylib: __ZNSt3__117__assoc_sub_state4waitEv
__ libc++.1.dylib: __ZNSt3__117__assoc_sub_state9__executeEv
__ libc++.1.dylib: __ZNSt3__118condition_variable10notify_allEv
__ libc++.1.dylib: __ZNSt3__118condition_variableD1Ev
__ libc++.1.dylib: __ZNSt3__119__shared_weak_count14__release_weakEv
__ libc++.1.dylib: __ZNSt3__119__shared_weak_countD2Ev
__ libc++.1.dylib: __ZNSt3__119__thread_local_dataEv
__ libc++.1.dylib: __ZNSt3__120__throw_system_errorEiPKc
__ libc++.1.dylib: __ZNSt3__15ctypeIcE2idE
__ libc++.1.dylib: __ZNSt3__15mutex4lockEv
__ libc++.1.dylib: __ZNSt3__15mutex6unlockEv
__ libc++.1.dylib: __ZNSt3__15mutexD1Ev
__ libc++.1.dylib: __ZNSt3__16chrono12system_clock3nowEv
__ libc++.1.dylib: __ZNSt3__16chrono12system_clock9to_time_tERKNS0_10time_pointIS1_NS0_8durationIxNS_5ratioILl1ELl1000000EEEEEEE
__ libc++.1.dylib: __ZNSt3__16futureIvED1Ev
__ libc++.1.dylib: __ZNSt3__16localeC1ERKS0_
__ libc++.1.dylib: __ZNSt3__16localeC1Ev
__ libc++.1.dylib: __ZNSt3__16localeD1Ev
__ libc++.1.dylib: __ZNSt3__16thread4joinEv
__ libc++.1.dylib: __ZNSt3__16threadD1Ev
__ libc++.1.dylib: __ZNSt3__17promiseIvE10get_futureEv
__ libc++.1.dylib: __ZNSt3__17promiseIvE9set_valueEv
__ libc++.1.dylib: __ZNSt3__17promiseIvEC1Ev
__ libc++.1.dylib: __ZNSt3__17promiseIvED1Ev
__ libc++.1.dylib: __ZNSt3__18ios_base33__set_badbit_and_consider_rethrowEv
__ libc++.1.dylib: __ZNSt3__18ios_base4initEPv
__ libc++.1.dylib: __ZNSt3__18ios_base5clearEj
__ libc++.1.dylib: __ZNSt3__18numpunctIcE2idE
__ libc++.1.dylib: __ZNSt3__18numpunctIwE2idE
__ libc++.1.dylib: __ZNSt3__18time_putIcNS_19ostreambuf_iteratorIcNS_11char_traitsIcEEEEE2idE
__ libc++.1.dylib: __ZNSt3__19basic_iosIcNS_11char_traitsIcEEED2Ev
__ libc++.1.dylib: __ZNSt3__19to_stringEi
__ libc++.1.dylib: __ZNSt3__19to_stringEm
__ libc++.1.dylib: __ZNSt3__1plIcNS_11char_traitsIcEENS_9allocatorIcEEEENS_12basic_stringIT_T0_T1_EEPKS6_RKS9_
__ libc++.1.dylib: __ZNSt9bad_allocC1Ev
__ libc++.1.dylib: __ZNSt9bad_allocD1Ev
__ libc++.1.dylib: __ZNSt9exceptionD2Ev
__ libc++.1.dylib: __ZSt17current_exceptionv
__ libc++.1.dylib: __ZSt17rethrow_exceptionSt13exception_ptr
__ libc++.1.dylib: __ZSt9terminatev
__ libc++.1.dylib: __ZTINSt3__112future_errorE
__ libc++.1.dylib: __ZTINSt3__117__assoc_sub_stateE
__ libc++.1.dylib: __ZTINSt3__119__shared_weak_countE
__ libc++.1.dylib: __ZTISt12length_error
__ libc++.1.dylib: __ZTISt13runtime_error
__ libc++.1.dylib: __ZTISt9bad_alloc
__ libc++.1.dylib: __ZTISt9exception
__ libc++.1.dylib: __ZTTNSt3__118basic_stringstreamIcNS_11char_traitsIcEENS_9allocatorIcEEEE
__ libc++.1.dylib: __ZTVN10__cxxabiv117__class_type_infoE
__ libc++.1.dylib: __ZTVN10__cxxabiv120__si_class_type_infoE
__ libc++.1.dylib: __ZTVN10__cxxabiv123__fundamental_type_infoE
__ libc++.1.dylib: __ZTVNSt3__112future_errorE
__ libc++.1.dylib: __ZTVNSt3__115basic_stringbufIcNS_11char_traitsIcEENS_9allocatorIcEEEE
__ libc++.1.dylib: __ZTVNSt3__117__assoc_sub_stateE
__ libc++.1.dylib: __ZTVNSt3__118basic_stringstreamIcNS_11char_traitsIcEENS_9allocatorIcEEEE
__ libc++.1.dylib: __ZTVSt12length_error
__ libc++.1.dylib: __ZdlPv
__ libc++.1.dylib: __Znwm
__ libc++.1.dylib: ___cxa_allocate_exception
__ libc++.1.dylib: ___cxa_begin_catch
__ libc++.1.dylib: ___cxa_end_catch
__ libc++.1.dylib: ___cxa_free_exception
__ libc++.1.dylib: ___cxa_guard_abort
__ libc++.1.dylib: ___cxa_guard_acquire
__ libc++.1.dylib: ___cxa_guard_release
__ libc++.1.dylib: ___cxa_pure_virtual
__ libc++.1.dylib: ___cxa_throw
__ libc++.1.dylib: ___gxx_personality_v0
__ libobjc.A.dylib: _OBJC_CLASS_$_NSObject
__ libobjc.A.dylib: _OBJC_METACLASS_$_NSObject
__ libobjc.A.dylib: __objc_empty_cache
__ libobjc.A.dylib: _objc_alloc
__ libobjc.A.dylib: _objc_autoreleaseReturnValue
__ libobjc.A.dylib: _objc_claimAutoreleasedReturnValue
__ libobjc.A.dylib: _objc_copyWeak
__ libobjc.A.dylib: _objc_destroyWeak
__ libobjc.A.dylib: _objc_enumerationMutation
__ libobjc.A.dylib: _objc_getProperty
__ libobjc.A.dylib: _objc_initWeak
__ libobjc.A.dylib: _objc_loadWeakRetained
__ libobjc.A.dylib: _objc_msgSend
__ libobjc.A.dylib: _objc_msgSendSuper2
__ libobjc.A.dylib: _objc_opt_class
__ libobjc.A.dylib: _objc_opt_isKindOfClass
__ libobjc.A.dylib: _objc_opt_new
__ libobjc.A.dylib: _objc_release
__ libobjc.A.dylib: _objc_release_x1
__ libobjc.A.dylib: _objc_release_x19
__ libobjc.A.dylib: _objc_release_x20
__ libobjc.A.dylib: _objc_release_x21
__ libobjc.A.dylib: _objc_release_x22
__ libobjc.A.dylib: _objc_release_x23
__ libobjc.A.dylib: _objc_release_x24
__ libobjc.A.dylib: _objc_release_x25
__ libobjc.A.dylib: _objc_release_x8
__ libobjc.A.dylib: _objc_release_x9
__ libobjc.A.dylib: _objc_retain
__ libobjc.A.dylib: _objc_retainAutorelease
__ libobjc.A.dylib: _objc_retainBlock
__ libobjc.A.dylib: _objc_retain_x1
__ libobjc.A.dylib: _objc_retain_x19
__ libobjc.A.dylib: _objc_retain_x2
__ libobjc.A.dylib: _objc_retain_x20
__ libobjc.A.dylib: _objc_retain_x21
__ libobjc.A.dylib: _objc_retain_x22
__ libobjc.A.dylib: _objc_retain_x25
__ libobjc.A.dylib: _objc_retain_x26
__ libobjc.A.dylib: _objc_retain_x3
__ libobjc.A.dylib: _objc_retain_x8
__ libobjc.A.dylib: _objc_retain_x9
__ libobjc.A.dylib: _objc_setProperty_atomic
__ libobjc.A.dylib: _objc_storeStrong
__ libobjc.A.dylib: _objc_storeWeak
__ libobjc.A.dylib: _objc_sync_enter
__ libobjc.A.dylib: _objc_sync_exit
__ libobjc.A.dylib: _objc_unsafeClaimAutoreleasedReturnValue
BorderAgentConnector : NSObject
 @property  NSNetService *netService

  // class methods
  +[BorderAgentConnector setLogLevel:]
  +[BorderAgentConnector setCommissioningTimeout:]
  +[BorderAgentConnector osLogToCommissionerLevel]
  +[BorderAgentConnector commissionerLogToOSLevel:]

  // instance methods
  -[BorderAgentConnector initWithNetService:]
  -[BorderAgentConnector setDataSet:]
  -[BorderAgentConnector stateString]
  -[BorderAgentConnector .cxx_construct]
  -[BorderAgentConnector dealloc]
  -[BorderAgentConnector .cxx_destruct]
  -[BorderAgentConnector setNetService:]
  -[BorderAgentConnector netService]
  -[BorderAgentConnector initWithNetService:commissionerName:queue:]
  -[BorderAgentConnector commissionDevice:CC:completionHandler:]
  -[BorderAgentConnector disconnectCommissioner]
  -[BorderAgentConnector resignCommmissioner]
  -[BorderAgentConnector connectToBorderAgentWithPSKC:completion:]
  -[BorderAgentConnector connectToBorderAgent:completion:]
  -[BorderAgentConnector setCommissioningTimeout:]
  -[BorderAgentConnector initWithNetService:commissionerName:]
  -[BorderAgentConnector registerNotification:block:]
  -[BorderAgentConnector unRegisterNotification:]
  -[BorderAgentConnector getIPAddress]
  -[BorderAgentConnector getPSKc:]
  -[BorderAgentConnector getConfig:]
  -[BorderAgentConnector setJoinerInfo:CC:]
  -[BorderAgentConnector connectToBorderAgent:]
  -[BorderAgentConnector commissionDevice:CC:]
  -[BorderAgentConnector petition:]
  -[BorderAgentConnector startCommissioning:]
  -[BorderAgentConnector startCommissioningTimer:]
  -[BorderAgentConnector stopCommissioningTimer]
  -[BorderAgentConnector commissioningComplete:]
  -[BorderAgentConnector isCommissionerValid]
  -[BorderAgentConnector errorWithCode:description:info:]
  -[BorderAgentConnector errorFromCode:]
  -[BorderAgentConnector errorFromCode:extraInfo:]


BorderAgentFinder : NSObject <NSNetServiceBrowserDelegate, NSNetServiceDelegate>
 @property  <BorderAgentListener> *delegate
 @property  unsigned long hash
 @property  Class superclass
 @property  NSString *description
 @property  NSString *debugDescription

  // instance methods
  -[BorderAgentFinder setDelegate:]
  -[BorderAgentFinder netServiceBrowser:didFindService:moreComing:]
  -[BorderAgentFinder delegate]
  -[BorderAgentFinder .cxx_destruct]
  -[BorderAgentFinder stop]
  -[BorderAgentFinder start]
  -[BorderAgentFinder netServiceBrowser:didRemoveService:moreComing:]
  -[BorderAgentFinder init]
  -[BorderAgentFinder netServiceDidResolveAddress:]
  -[BorderAgentFinder netService:didNotResolve:]
  -[BorderAgentFinder netServiceWillResolve:]
  -[BorderAgentFinder netServiceBrowserWillSearch:]
  -[BorderAgentFinder netServiceBrowserDidStopSearch:]
  -[BorderAgentFinder getNumberOfBorderAgents]
  -[BorderAgentFinder getBorderAgentAtIndex:]
  -[BorderAgentFinder getAgentDescription:]


01 00 0500 /System/Library/Frameworks/CoreFoundation.framework/CoreFoundation: NSData 
01 00 0500 /System/Library/Frameworks/CoreFoundation.framework/CoreFoundation: NSDate 
01 00 0500 /System/Library/Frameworks/CoreFoundation.framework/CoreFoundation: NSDictionary 
01 00 0100 /System/Library/Frameworks/Foundation.framework/Foundation: NSError 
01 00 0500 /System/Library/Frameworks/CoreFoundation.framework/CoreFoundation: NSMutableArray 
01 00 0500 /System/Library/Frameworks/CoreFoundation.framework/CoreFoundation: NSMutableData 
01 00 0500 /System/Library/Frameworks/CoreFoundation.framework/CoreFoundation: NSMutableDictionary 
01 00 0100 /System/Library/Frameworks/Foundation.framework/Foundation: NSNetService 
01 00 0100 /System/Library/Frameworks/Foundation.framework/Foundation: NSNetServiceBrowser 
01 00 0100 /System/Library/Frameworks/Foundation.framework/Foundation: NSNumber 
01 00 0200 /usr/lib/libobjc.A.dylib: NSObject 
01 00 0100 /System/Library/Frameworks/Foundation.framework/Foundation: NSScanner 
01 00 0100 /System/Library/Frameworks/Foundation.framework/Foundation: NSString 
