|| __DATA_CONST.__const __ZTIN5waipc8timesync15KalmanEstimatorE
|| __DATA_CONST.__const __ZTIN5waipc8timesync15LinearEstimatorE
|| __DATA_CONST.__const __ZTVN5waipc8timesync15KalmanEstimatorE
|| __DATA_CONST.__const __ZTVN5waipc8timesync15LinearEstimatorE
|| __TEXT.__const __ZTSN5waipc8timesync15KalmanEstimatorE
|| __TEXT.__const __ZTSN5waipc8timesync15LinearEstimatorE
|| __TEXT.__text __Z33BasebandVoice_getTimesyncOverridev
|| __TEXT.__text __Z33BasebandVoice_setTimesyncOverrideRKNSt3__110shared_ptrIN5waipc8timesync15BasebandServiceEEE
|| __TEXT.__text __Z38NetworkUplinkClock_getTimesyncOverridev
|| __TEXT.__text __Z38NetworkUplinkClock_setTimesyncOverrideRKNSt3__110shared_ptrIN5waipc8timesync15BasebandServiceEEE
|| __TEXT.__text __ZN5waipc13PCIeAudioLink16getZeroTimestampEy
|| __TEXT.__text __ZN5waipc13PCIeAudioLink19computeBufferLengthERKNS0_6configEPNS0_20bufferProtectionInfoE
|| __TEXT.__text __ZN5waipc13PCIeAudioLink4syncEPKNS_8timesync9EstimatorEy
|| __TEXT.__text __ZN5waipc13PCIeAudioLink8writeMixEyPKvjj
|| __TEXT.__text __ZN5waipc13PCIeAudioLink9readInputEyPvj
|| __TEXT.__text __ZN5waipc13PCIeAudioLinkC1ERKNS0_6configENSt3__110shared_ptrIvEEm
|| __TEXT.__text __ZN5waipc13PCIeAudioLinkC2ERKNS0_6configENSt3__110shared_ptrIvEEm
|| __TEXT.__text __ZN5waipc13PCIeAudioLinkD1Ev
|| __TEXT.__text __ZN5waipc13PCIeAudioLinkD2Ev
|| __TEXT.__text __ZN5waipc14MappableBufferC1Em
|| __TEXT.__text __ZN5waipc14MappableBufferC1EmPKNS_4util19VMProtectDescriptorEm
|| __TEXT.__text __ZN5waipc14MappableBufferC1Emi
|| __TEXT.__text __ZN5waipc14MappableBufferC2Em
|| __TEXT.__text __ZN5waipc14MappableBufferC2EmPKNS_4util19VMProtectDescriptorEm
|| __TEXT.__text __ZN5waipc14MappableBufferC2Emi
|| __TEXT.__text __ZN5waipc14MappableBufferD1Ev
|| __TEXT.__text __ZN5waipc14MappableBufferD2Ev
|| __TEXT.__text __ZN5waipc14SampleTimeline14updateTimesyncERKNS_8timesync15KalmanEstimatorEby
|| __TEXT.__text __ZN5waipc14SampleTimelineC1ERKNS0_6configEyy
|| __TEXT.__text __ZN5waipc14SampleTimelineC2ERKNS0_6configEyy
|| __TEXT.__text __ZN5waipc4util15GroupErrorTimer5startEPK10__CFString
|| __TEXT.__text __ZN5waipc4util15GroupErrorTimerC1EP16dispatch_queue_syP16dispatch_group_sU13block_pointerFvPK10__CFStringE
|| __TEXT.__text __ZN5waipc4util15GroupErrorTimerC2EP16dispatch_queue_syP16dispatch_group_sU13block_pointerFvPK10__CFStringE
|| __TEXT.__text __ZN5waipc4util15GroupErrorTimerD1Ev
|| __TEXT.__text __ZN5waipc4util15GroupErrorTimerD2Ev
|| __TEXT.__text __ZN5waipc4util15createStateDataEPKvPKcPP9__CFError
|| __TEXT.__text __ZN5waipc4util18TimestampConverter17defaultHostPeriodEv
|| __TEXT.__text __ZN5waipc4util22NonblockingEventSource10testcancelEv
|| __TEXT.__text __ZN5waipc4util22NonblockingEventSource6cancelEv
|| __TEXT.__text __ZN5waipc4util22NonblockingEventSource7triggerEj
|| __TEXT.__text __ZN5waipc4util22NonblockingEventSourceC1EP16dispatch_queue_sU13block_pointerFvjEU13block_pointerFvvE
|| __TEXT.__text __ZN5waipc4util22NonblockingEventSourceC2EP16dispatch_queue_sU13block_pointerFvjEU13block_pointerFvvE
|| __TEXT.__text __ZN5waipc4util22NonblockingEventSourceD1Ev
|| __TEXT.__text __ZN5waipc4util22NonblockingEventSourceD2Ev
|| __TEXT.__text __ZN5waipc4util22NonblockingEventSourcecvbEv
|| __TEXT.__text __ZN5waipc4util33createSerialQueueWithQosAndTargetEPKc11qos_class_tP16dispatch_queue_s
|| __TEXT.__text __ZN5waipc7logging9getLoggerENS0_8LoggerIDE
|| __TEXT.__text __ZN5waipc8timesync14BasebandConfig10getDefaultEv
|| __TEXT.__text __ZN5waipc8timesync15BasebandService12triggerResetEv
|| __TEXT.__text __ZN5waipc8timesync15BasebandService18triggerMeasurementEv
|| __TEXT.__text __ZN5waipc8timesync15BasebandService19addTimesyncObserverEU13block_pointerFvRKNS0_15KalmanEstimatorEbyE
|| __TEXT.__text __ZN5waipc8timesync15BasebandService20addTimestampObserverENS0_16BasebandProvider11timestampIdEU13block_pointerFvydyE
|| __TEXT.__text __ZN5waipc8timesync15BasebandService21addConnectionObserverEU13block_pointerFvbPK10__CFStringE
|| __TEXT.__text __ZN5waipc8timesync15BasebandService22addMeasurementObserverEU13block_pointerFvPKNS0_16BasebandProvider19timesyncMeasurementEmE
|| __TEXT.__text __ZN5waipc8timesync15BasebandService6createERKNS1_6configEP19dispatch_workloop_s
|| __TEXT.__text __ZN5waipc8timesync15BasebandService9mapBufferENS0_16BasebandProvider8bufferIdERKNSt3__110shared_ptrIvEEm
|| __TEXT.__text __ZN5waipc8timesync15BasebandServiceD1Ev
|| __TEXT.__text __ZN5waipc8timesync15BasebandServiceD2Ev
|| __TEXT.__text __ZN5waipc8timesync15KalmanEstimator11computeGainERKNS_4util6matrix6matrixIdLm2ELm2EEEd
|| __TEXT.__text __ZN5waipc8timesync15KalmanEstimator5fixedENS0_9Estimator9timestampES3_d
|| __TEXT.__text __ZN5waipc8timesync15KalmanEstimator6updateERKNS0_9Estimator11measurementE
|| __TEXT.__text __ZN5waipc8timesync15KalmanEstimatorC1ERKNS1_6configERKNS0_9Estimator11measurementE
|| __TEXT.__text __ZN5waipc8timesync15KalmanEstimatorC2ERKNS1_6configERKNS0_9Estimator11measurementE
|| __TEXT.__text __ZN5waipc8timesync15LinearEstimator14updateEstimateEv
|| __TEXT.__text __ZN5waipc8timesync15LinearEstimator6updateERKNS0_9Estimator11measurementE
|| __TEXT.__text __ZN5waipc8timesync15LinearEstimatorC1ERKNS1_6configERKNS0_9Estimator11measurementE
|| __TEXT.__text __ZN5waipc8timesync15LinearEstimatorC2ERKNS1_6configERKNS0_9Estimator11measurementE
|| __TEXT.__text __ZN5waipc9BlockRing10writeBlockEPv
|| __TEXT.__text __ZN5waipc9BlockRing11commitWriteEv
|| __TEXT.__text __ZN5waipc9BlockRing13readNextBlockEPv
|| __TEXT.__text __ZN5waipc9BlockRing15readLatestBlockEPv
|| __TEXT.__text __ZN5waipc9BlockRingC1EPNSt3__16atomicIjEEPvmj
|| __TEXT.__text __ZN5waipc9BlockRingC2EPNSt3__16atomicIjEEPvmj
|| __TEXT.__text __ZNK5waipc13PCIeAudioLink10getDLStateEv
|| __TEXT.__text __ZNK5waipc13PCIeAudioLink10getULStateEv
|| __TEXT.__text __ZNK5waipc13PCIeAudioLink18isPeripheralActiveEv
|| __TEXT.__text __ZNK5waipc13PCIeAudioLink20getDLAlignmentAnchorEv
|| __TEXT.__text __ZNK5waipc13PCIeAudioLink20getULAlignmentAnchorEv
|| __TEXT.__text __ZNK5waipc13PCIeAudioLink9dumpStateEv
|| __TEXT.__text __ZNK5waipc14SampleTimeline12nextHostTimeEy
|| __TEXT.__text __ZNK5waipc14SampleTimeline16currentTimestampEy
|| __TEXT.__text __ZNK5waipc14SampleTimeline16nextHostVarianceEy
|| __TEXT.__text __ZNK5waipc14SampleTimeline17timestampFromHostEy
|| __TEXT.__text __ZNK5waipc14SampleTimeline19timestampFromDeviceEy
|| __TEXT.__text __ZNK5waipc14SampleTimeline19timestampFromSampleEd
|| __TEXT.__text __ZNK5waipc14SampleTimeline9dumpStateEv
|| __TEXT.__text __ZNK5waipc4util15GroupErrorTimer10copyReasonEv
|| __TEXT.__text __ZNK5waipc4util15GroupErrorTimer9isRunningEv
|| __TEXT.__text __ZNK5waipc8timesync15BasebandService26timesyncMeasurementAdapter15measurementFromERKNS0_16BasebandProvider19timesyncMeasurementE
|| __TEXT.__text __ZNK5waipc8timesync15BasebandService9dumpStateEv
|| __TEXT.__text __ZNK5waipc8timesync15KalmanEstimator12deviceToHostENS0_9Estimator9timestampE
|| __TEXT.__text __ZNK5waipc8timesync15KalmanEstimator12hostToDeviceENS0_9Estimator9timestampE
|| __TEXT.__text __ZNK5waipc8timesync15KalmanEstimator15computeEstimateEd
|| __TEXT.__text __ZNK5waipc8timesync15KalmanEstimator20deviceToHostVarianceENS0_9Estimator9timestampE
|| __TEXT.__text __ZNK5waipc8timesync15KalmanEstimator9dumpStateEv
|| __TEXT.__text __ZNK5waipc8timesync15LinearEstimator12deviceToHostENS0_9Estimator9timestampE
|| __TEXT.__text __ZNK5waipc8timesync15LinearEstimator12hostToDeviceENS0_9Estimator9timestampE
|| __TEXT.__text __ZNK5waipc8timesync15LinearEstimator9dumpStateEv
|| __TEXT.__text __ZNK5waipc9BlockRing12getLiveIndexEv
|| __TEXT.__text __ZNK5waipc9BlockRing15getCurrentIndexEv
|| __TEXT.__text __ZNK5waipc9BlockRing17getNextWriteBlockEv
|| __TEXT.__text __ZNK5waipc9BlockRing9dumpStateEv
__ CoreFoundation: _CFArrayCreate
__ CoreFoundation: _CFDataGetBytePtr
__ CoreFoundation: _CFDataGetLength
__ CoreFoundation: _CFDataGetTypeID
__ CoreFoundation: _CFDictionaryCreate
__ CoreFoundation: _CFDictionaryGetTypeID
__ CoreFoundation: _CFErrorCreate
__ CoreFoundation: _CFGetTypeID
__ CoreFoundation: _CFNumberCreate
__ CoreFoundation: _CFPropertyListCreateData
__ CoreFoundation: _CFRelease
__ CoreFoundation: _CFRetain
__ CoreFoundation: _CFStringGetTypeID
__ CoreFoundation: ___CFConstantStringClassReference
__ CoreFoundation: _kCFAllocatorDefault
__ CoreFoundation: _kCFBooleanFalse
__ CoreFoundation: _kCFBooleanTrue
__ CoreFoundation: _kCFErrorDomainOSStatus
__ CoreFoundation: _kCFTypeArrayCallBacks
__ CoreFoundation: _kCFTypeDictionaryKeyCallBacks
__ CoreFoundation: _kCFTypeDictionaryValueCallBacks
__ libPCITransport.dylib: _TelephonyBasebandPCITransportCreate
__ libPCITransport.dylib: _TelephonyBasebandPCITransportInitParameters
__ libPCITransport.dylib: _TelephonyBasebandPCITransportMapRegion
__ libPCITransport.dylib: _TelephonyBasebandPCITransportRegisterTimeEvent
__ libPCITransport.dylib: _TelephonyBasebandPCITransportTimesync
__ libPCITransport.dylib: _TelephonyBasebandPCITransportUnmapRegion
__ libSystem.B.dylib: __Block_copy
__ libSystem.B.dylib: __Block_object_assign
__ libSystem.B.dylib: __Block_object_dispose
__ libSystem.B.dylib: __Block_release
__ libSystem.B.dylib: __NSConcreteGlobalBlock
__ libSystem.B.dylib: __NSConcreteStackBlock
__ libSystem.B.dylib: __Unwind_Resume
__ libSystem.B.dylib: ___assert_rtn
__ libSystem.B.dylib: ___stack_chk_fail
__ libSystem.B.dylib: ___stack_chk_guard
__ libSystem.B.dylib: __dispatch_source_type_mach_recv
__ libSystem.B.dylib: __dispatch_source_type_timer
__ libSystem.B.dylib: __os_log_debug_impl
__ libSystem.B.dylib: __os_log_default
__ libSystem.B.dylib: __os_log_disabled
__ libSystem.B.dylib: __os_log_impl
__ libSystem.B.dylib: __os_signpost_emit_with_name_impl
__ libSystem.B.dylib: _bzero
__ libSystem.B.dylib: _dispatch_activate
__ libSystem.B.dylib: _dispatch_after
__ libSystem.B.dylib: _dispatch_async
__ libSystem.B.dylib: _dispatch_group_create
__ libSystem.B.dylib: _dispatch_group_enter
__ libSystem.B.dylib: _dispatch_group_leave
__ libSystem.B.dylib: _dispatch_group_notify
__ libSystem.B.dylib: _dispatch_once
__ libSystem.B.dylib: _dispatch_queue_attr_make_with_qos_class
__ libSystem.B.dylib: _dispatch_queue_create_with_target$V2
__ libSystem.B.dylib: _dispatch_release
__ libSystem.B.dylib: _dispatch_retain
__ libSystem.B.dylib: _dispatch_source_cancel
__ libSystem.B.dylib: _dispatch_source_create
__ libSystem.B.dylib: _dispatch_source_set_cancel_handler
__ libSystem.B.dylib: _dispatch_source_set_event_handler
__ libSystem.B.dylib: _dispatch_source_set_timer
__ libSystem.B.dylib: _dispatch_source_testcancel
__ libSystem.B.dylib: _dispatch_time
__ libSystem.B.dylib: _feclearexcept
__ libSystem.B.dylib: _fetestexcept
__ libSystem.B.dylib: _free
__ libSystem.B.dylib: _mach_absolute_time
__ libSystem.B.dylib: _mach_continuous_time
__ libSystem.B.dylib: _mach_msg
__ libSystem.B.dylib: _mach_port_construct
__ libSystem.B.dylib: _mach_port_destruct
__ libSystem.B.dylib: _mach_task_self_
__ libSystem.B.dylib: _mach_timebase_info
__ libSystem.B.dylib: _mach_vm_allocate
__ libSystem.B.dylib: _mach_vm_deallocate
__ libSystem.B.dylib: _mach_vm_inherit
__ libSystem.B.dylib: _mach_vm_protect
__ libSystem.B.dylib: _malloc
__ libSystem.B.dylib: _memcpy
__ libSystem.B.dylib: _memmove
__ libSystem.B.dylib: _modf
__ libSystem.B.dylib: _nextafter
__ libSystem.B.dylib: _os_log_create
__ libSystem.B.dylib: _os_log_type_enabled
__ libSystem.B.dylib: _os_signpost_enabled
__ libSystem.B.dylib: _os_signpost_id_make_with_pointer
__ libSystem.B.dylib: _os_unfair_lock_assert_not_owner
__ libSystem.B.dylib: _os_unfair_lock_assert_owner
__ libSystem.B.dylib: _os_unfair_lock_lock
__ libSystem.B.dylib: _os_unfair_lock_trylock
__ libSystem.B.dylib: _os_unfair_lock_unlock
__ libSystem.B.dylib: _pow
__ libSystem.B.dylib: _strcmp
__ libSystem.B.dylib: _strlcpy
__ libSystem.B.dylib: _vm_page_mask
__ libTelephonyUtilDynamic.dylib: _TelephonyRadiosGetRadio
__ libTelephonyUtilDynamic.dylib: _TelephonyUtilTransportFree
__ libc++.1.dylib: __ZNKSt3__119__shared_weak_count13__get_deleterERKSt9type_info
__ libc++.1.dylib: __ZNKSt3__120__vector_base_commonILb1EE20__throw_length_errorEv
__ libc++.1.dylib: __ZNSt11logic_errorC2EPKc
__ libc++.1.dylib: __ZNSt12length_errorD1Ev
__ libc++.1.dylib: __ZNSt13runtime_errorC1EPKc
__ libc++.1.dylib: __ZNSt13runtime_errorD1Ev
__ libc++.1.dylib: __ZNSt3__112bad_weak_ptrD1Ev
__ libc++.1.dylib: __ZNSt3__119__shared_weak_count14__release_weakEv
__ libc++.1.dylib: __ZNSt3__119__shared_weak_count4lockEv
__ libc++.1.dylib: __ZNSt3__119__shared_weak_countD2Ev
__ libc++.1.dylib: __ZSt9terminatev
__ libc++.1.dylib: __ZTINSt3__112bad_weak_ptrE
__ libc++.1.dylib: __ZTINSt3__119__shared_weak_countE
__ libc++.1.dylib: __ZTISt12length_error
__ libc++.1.dylib: __ZTISt13runtime_error
__ libc++.1.dylib: __ZTVN10__cxxabiv117__class_type_infoE
__ libc++.1.dylib: __ZTVN10__cxxabiv120__si_class_type_infoE
__ libc++.1.dylib: __ZTVN10__cxxabiv121__vmi_class_type_infoE
__ libc++.1.dylib: __ZTVNSt3__112bad_weak_ptrE
__ libc++.1.dylib: __ZTVSt12length_error
__ libc++.1.dylib: __ZdaPv
__ libc++.1.dylib: __ZdlPv
__ libc++.1.dylib: __Znam
__ libc++.1.dylib: __Znwm
__ libc++.1.dylib: ___cxa_allocate_exception
__ libc++.1.dylib: ___cxa_begin_catch
__ libc++.1.dylib: ___cxa_free_exception
__ libc++.1.dylib: ___cxa_guard_acquire
__ libc++.1.dylib: ___cxa_guard_release
__ libc++.1.dylib: ___cxa_throw
__ libc++.1.dylib: ___gxx_personality_v0
