|| __TEXT.__text __ZN3awd7configs22ComponentConfigurationC1Ev
|| __TEXT.__text __ZN3awd7configs22ComponentConfigurationD1Ev
|| __TEXT.__text __ZN3awd7metrics14AWDNetworkTimeC1Ev
|| __TEXT.__text __ZN3awd7metrics15CommCenterStartC1Ev
|| __TEXT.__text __ZN3awd7metrics15MetricCCStwExitC1Ev
|| __TEXT.__text __ZN3awd7metrics15RatType_IsValidEi
|| __TEXT.__text __ZN3awd7metrics16CommCenterBundleC1Ev
|| __TEXT.__text __ZN3awd7metrics17Call_Type_IsValidEi
|| __TEXT.__text __ZN3awd7metrics17CommCenterSimInfoC1Ev
|| __TEXT.__text __ZN3awd7metrics18ATM_quietly_recallC1Ev
|| __TEXT.__text __ZN3awd7metrics18AssistedCellSearchC1Ev
|| __TEXT.__text __ZN3awd7metrics18CommCenter3GSwitchC1Ev
|| __TEXT.__text __ZN3awd7metrics18CommCenterNrSwitchC1Ev
|| __TEXT.__text __ZN3awd7metrics18MetricCCMMSSendEndC1Ev
|| __TEXT.__text __ZN3awd7metrics18MetricCCSMSSendEndC1Ev
|| __TEXT.__text __ZN3awd7metrics18MetricCCStwRequestC1Ev
|| __TEXT.__text __ZN3awd7metrics18SignalBarHistogramC1Ev
|| __TEXT.__text __ZN3awd7metrics18SoundUMB_REGUPDATEC1Ev
|| __TEXT.__text __ZN3awd7metrics18operator_info_3GPPC1Ev
|| __TEXT.__text __ZN3awd7metrics19CommCenterLTESwitchC1Ev
|| __TEXT.__text __ZN3awd7metrics19CommCenterVinylInfoC1Ev
|| __TEXT.__text __ZN3awd7metrics19MetricCCMMSRetStateC1Ev
|| __TEXT.__text __ZN3awd7metrics19MetricCCSMSReceivedC1Ev
|| __TEXT.__text __ZN3awd7metrics19MetricCCiPadPrepaidC1Ev
|| __TEXT.__text __ZN3awd7metrics19SRUMB_Attempt_CountC1Ev
|| __TEXT.__text __ZN3awd7metrics19VocoderType_IsValidEi
|| __TEXT.__text __ZN3awd7metrics19operator_info_3GPP2C1Ev
|| __TEXT.__text __ZN3awd7metrics20CommCenterNrSaSwitchC1Ev
|| __TEXT.__text __ZN3awd7metrics20CommCenterNrSwitchesC1Ev
|| __TEXT.__text __ZN3awd7metrics20MOMMSSendFailedCountC1Ev
|| __TEXT.__text __ZN3awd7metrics20MOSMSSendFailedCountC1Ev
|| __TEXT.__text __ZN3awd7metrics20MTMMSRecvFailedCountC1Ev
|| __TEXT.__text __ZN3awd7metrics20MTSMSRecvFailedCountC1Ev
|| __TEXT.__text __ZN3awd7metrics20MetricCCAirplaneModeC1Ev
|| __TEXT.__text __ZN3awd7metrics20MetricCCMMSFinishRetC1Ev
|| __TEXT.__text __ZN3awd7metrics20MetricCCMMSSendStartC1Ev
|| __TEXT.__text __ZN3awd7metrics20MetricCCSMSSendStartC1Ev
|| __TEXT.__text __ZN3awd7metrics21CommCenterEEMDurationC1Ev
|| __TEXT.__text __ZN3awd7metrics21CommCenterFullSimInfoC1Ev
|| __TEXT.__text __ZN3awd7metrics21CommCenterLTESwitchesC1Ev
|| __TEXT.__text __ZN3awd7metrics21CommCenterVinylChangeC1Ev
|| __TEXT.__text __ZN3awd7metrics21CommCenterVinylResultC1Ev
|| __TEXT.__text __ZN3awd7metrics21CommCenterVoLTESwitchC1Ev
|| __TEXT.__text __ZN3awd7metrics21MetricCCOutOfCoverageC1Ev
|| __TEXT.__text __ZN3awd7metrics22CommCenterAPSleepStateC1Ev
|| __TEXT.__text __ZN3awd7metrics22CommCenterAppDataUsageC1Ev
|| __TEXT.__text __ZN3awd7metrics22CommCenterBasebandBootC1Ev
|| __TEXT.__text __ZN3awd7metrics22CommCenterMobikeResultC1Ev
|| __TEXT.__text __ZN3awd7metrics22CommCenterNrSaSwitchesC1Ev
|| __TEXT.__text __ZN3awd7metrics22CommCenterSimPinChangeC1Ev
|| __TEXT.__text __ZN3awd7metrics22CommCenterSimPinUnlockC1Ev
|| __TEXT.__text __ZN3awd7metrics22CommCenterSimPukUnlockC1Ev
|| __TEXT.__text __ZN3awd7metrics22CommCenterSimTrayEventC1Ev
|| __TEXT.__text __ZN3awd7metrics22CommCenterVinylFailureC1Ev
|| __TEXT.__text __ZN3awd7metrics22CommCenterVoLTESwitch2C1Ev
|| __TEXT.__text __ZN3awd7metrics22DistortionType_IsValidEi
|| __TEXT.__text __ZN3awd7metrics22switch_state_t_IsValidEi
|| __TEXT.__text __ZN3awd7metrics23CCStwExitReason_IsValidEi
|| __TEXT.__text __ZN3awd7metrics23CommCenterAudioStatsIndC1Ev
|| __TEXT.__text __ZN3awd7metrics23CommCenterBundleDetailsC1Ev
|| __TEXT.__text __ZN3awd7metrics23CommCenterManageAccountC1Ev
|| __TEXT.__text __ZN3awd7metrics23CommCenterOperatingModeC1Ev
|| __TEXT.__text __ZN3awd7metrics23CommCenterSTKSelectItemC1Ev
|| __TEXT.__text __ZN3awd7metrics23CommCenterThumperSwitchC1Ev
|| __TEXT.__text __ZN3awd7metrics23MetricCCStwSuspendStateC1Ev
|| __TEXT.__text __ZN3awd7metrics23SpringBoardScreenChangeC1Ev
|| __TEXT.__text __ZN3awd7metrics24CCStwMessageType_IsValidEi
|| __TEXT.__text __ZN3awd7metrics24CallDirectionInd_IsValidEi
|| __TEXT.__text __ZN3awd7metrics24CommCenterDataUsageResetC1Ev
|| __TEXT.__text __ZN3awd7metrics24CommCenterIPSetupFailureC1Ev
|| __TEXT.__text __ZN3awd7metrics24CommCenterPNRSMSResponseC1Ev
|| __TEXT.__text __ZN3awd7metrics24CommCenterSimPinPromptUIC1Ev
|| __TEXT.__text __ZN3awd7metrics24CommCenterThumperAccountC1Ev
|| __TEXT.__text __ZN3awd7metrics24CommCenterThumperHandoffC1Ev
|| __TEXT.__text __ZN3awd7metrics24CommCenterThumperSwitch2C1Ev
|| __TEXT.__text __ZN3awd7metrics24MOMMSSendSuccessfulCountC1Ev
|| __TEXT.__text __ZN3awd7metrics24MOSMSSendSuccessfulCountC1Ev
|| __TEXT.__text __ZN3awd7metrics24MTMMSRecvSuccessfulCountC1Ev
|| __TEXT.__text __ZN3awd7metrics24MTSMSRecvSuccessfulCountC1Ev
|| __TEXT.__text __ZN3awd7metrics24MetricCCMMSNotifReceivedC1Ev
|| __TEXT.__text __ZN3awd7metrics24MetricCCPDPContextActEndC1Ev
|| __TEXT.__text __ZN3awd7metrics24MetricCCiPadDataPlanTypeC1Ev
|| __TEXT.__text __ZN3awd7metrics24MetricRatSelectionChangeC1Ev
|| __TEXT.__text __ZN3awd7metrics25CommCenterCallRedialDelayC1Ev
|| __TEXT.__text __ZN3awd7metrics25CommCenterCellularProfileC1Ev
|| __TEXT.__text __ZN3awd7metrics25CommCenterIPAddressChangeC1Ev
|| __TEXT.__text __ZN3awd7metrics25CommCenterIPv6APNFallbackC1Ev
|| __TEXT.__text __ZN3awd7metrics25CommCenterIPv6SetupStaticC1Ev
|| __TEXT.__text __ZN3awd7metrics25CommCenterNrDisableStatusC1Ev
|| __TEXT.__text __ZN3awd7metrics25CommCenterOperatorRoamingC1Ev
|| __TEXT.__text __ZN3awd7metrics25CommCenterPNRAttemptCountC1Ev
|| __TEXT.__text __ZN3awd7metrics25CommCenterXCAPQueryResultC1Ev
|| __TEXT.__text __ZN3awd7metrics25MetricCCNetworkTimeUpdateC1Ev
|| __TEXT.__text __ZN3awd7metrics25MetricCCSignalStrengthC2KC1Ev
|| __TEXT.__text __ZN3awd7metrics25MetricCCSignalStrengthGSMC1Ev
|| __TEXT.__text __ZN3awd7metrics25SoundUMB_ATM_REG_DurationC1Ev
|| __TEXT.__text __ZN3awd7metrics26AssistedCellSearchNrRecordC1Ev
|| __TEXT.__text __ZN3awd7metrics26CCStwRequestReason_IsValidEi
|| __TEXT.__text __ZN3awd7metrics26CCStwSuspendReason_IsValidEi
|| __TEXT.__text __ZN3awd7metrics26CCStwTransportType_IsValidEi
|| __TEXT.__text __ZN3awd7metrics26CommCenterBasebandFilePushC1Ev
|| __TEXT.__text __ZN3awd7metrics26CommCenterBundleUpdateInfoC1Ev
|| __TEXT.__text __ZN3awd7metrics26CommCenterFileType_IsValidEi
|| __TEXT.__text __ZN3awd7metrics26CommCenterNetworkSelectionC1Ev
|| __TEXT.__text __ZN3awd7metrics26CommCenterOperatorsRoamingC1Ev
|| __TEXT.__text __ZN3awd7metrics26CommCenterPNRSMSSendResultC1Ev
|| __TEXT.__text __ZN3awd7metrics26DataSentOnInternetCtxCountC1Ev
|| __TEXT.__text __ZN3awd7metrics26MetricCCPDPContextActStartC1Ev
|| __TEXT.__text __ZN3awd7metrics26MetricCCStwMessageIncomingC1Ev
|| __TEXT.__text __ZN3awd7metrics26MetricCCStwMessageOutgoingC1Ev
|| __TEXT.__text __ZN3awd7metrics26SpringBoardLockStateChangeC1Ev
|| __TEXT.__text __ZN3awd7metrics27AssistedCellSearchLteRecordC1Ev
|| __TEXT.__text __ZN3awd7metrics27CommCenterBundleUpdateCheckC1Ev
|| __TEXT.__text __ZN3awd7metrics27CommCenterDataRoamingSwitchC1Ev
|| __TEXT.__text __ZN3awd7metrics27CommCenterDynamicDataSwitchC1Ev
|| __TEXT.__text __ZN3awd7metrics27CommCenterNetworkSelectionsC1Ev
|| __TEXT.__text __ZN3awd7metrics27CommCenterNrDisableStatusesC1Ev
|| __TEXT.__text __ZN3awd7metrics27CommCenterWiFiCallingSwitchC1Ev
|| __TEXT.__text __ZN3awd7metrics27VVMNotificationsRecvedCountC1Ev
|| __TEXT.__text __ZN3awd7metrics28AssistedCellSearchEvdoRecordC1Ev
|| __TEXT.__text __ZN3awd7metrics28AssistedCellSearchOneXRecordC1Ev
|| __TEXT.__text __ZN3awd7metrics28AssistedCellSearchUMTSRecordC1Ev
|| __TEXT.__text __ZN3awd7metrics28CommCenterBundleUpdateFailedC1Ev
|| __TEXT.__text __ZN3awd7metrics28CommCenterCellularDataSwitchC1Ev
|| __TEXT.__text __ZN3awd7metrics28CommCenterDataUsageAppSwitchC1Ev
|| __TEXT.__text __ZN3awd7metrics28CommCenterEntitlementRequestC1Ev
|| __TEXT.__text __ZN3awd7metrics28CommCenterLASDDownloadResultC1Ev
|| __TEXT.__text __ZN3awd7metrics28CommCenterPDPContextHandoverC1Ev
|| __TEXT.__text __ZN3awd7metrics28CommCenterSaveDataModeSwitchC1Ev
|| __TEXT.__text __ZN3awd7metrics28CommCenterThumperHomeCarrierC1Ev
|| __TEXT.__text __ZN3awd7metrics28CommCenterVinylActiveProfileC1Ev
|| __TEXT.__text __ZN3awd7metrics28CommCenterVinylDeleteProfileC1Ev
|| __TEXT.__text __ZN3awd7metrics28CommCenterVinylDriverFailureC1Ev
|| __TEXT.__text __ZN3awd7metrics28CommCenterVoiceRoamingSwitchC1Ev
|| __TEXT.__text __ZN3awd7metrics28CommCenterWiFiCallingSwitch2C1Ev
|| __TEXT.__text __ZN3awd7metrics28DataRecvedOnInternetCtxCountC1Ev
|| __TEXT.__text __ZN3awd7metrics28MetricCCPDPContextDeactivateC1Ev
|| __TEXT.__text __ZN3awd7metrics28RemotePlanSignupFlow_IsValidEi
|| __TEXT.__text __ZN3awd7metrics29AssistedCellSearchUMTSSuccessC1Ev
|| __TEXT.__text __ZN3awd7metrics29CommCenterAudioDistortionInfoC1Ev
|| __TEXT.__text __ZN3awd7metrics29CommCenterBasebandBoot_InputsC1Ev
|| __TEXT.__text __ZN3awd7metrics29CommCenterCellularPlanFailureC1Ev
|| __TEXT.__text __ZN3awd7metrics29CommCenterDataUsagePaneViewedC1Ev
|| __TEXT.__text __ZN3awd7metrics29CommCenterDataUsageUnexpectedC1Ev
|| __TEXT.__text __ZN3awd7metrics29CommCenterEntitlementResponseC1Ev
|| __TEXT.__text __ZN3awd7metrics29CommCenterLASDScheduledUpdateC1Ev
|| __TEXT.__text __ZN3awd7metrics29CommCenterSmartDataModeSwitchC1Ev
|| __TEXT.__text __ZN3awd7metrics29CommCenterVinylInstallDetailsC1Ev
|| __TEXT.__text __ZN3awd7metrics29SignalBarFluctuationHistogramC1Ev
|| __TEXT.__text __ZN3awd7metrics30CommCenterBundleUpdateDeclinedC1Ev
|| __TEXT.__text __ZN3awd7metrics30CommCenterCellularPlanIDSErrorC1Ev
|| __TEXT.__text __ZN3awd7metrics30CommCenterDataUsageRecentNDaysC1Ev
|| __TEXT.__text __ZN3awd7metrics30CommCenterDataUsageWhileOnCallC1Ev
|| __TEXT.__text __ZN3awd7metrics30CommCenterOperatingMode_InputsC1Ev
|| __TEXT.__text __ZN3awd7metrics30CommCenterSaveDataModeSettingsC1Ev
|| __TEXT.__text __ZN3awd7metrics30CommCenterServerActivityReportC1Ev
|| __TEXT.__text __ZN3awd7metrics30MetricCCActivationPushTokenRegC1Ev
|| __TEXT.__text __ZN3awd7metrics31CommCenterBundleUpdateCheckInfoC1Ev
|| __TEXT.__text __ZN3awd7metrics31CommCenterBundleUpdateInstalledC1Ev
|| __TEXT.__text __ZN3awd7metrics31CommCenterGSMCellBroadcastEventC1Ev
|| __TEXT.__text __ZN3awd7metrics31CommCenterIntlCDMARoamingSwitchC1Ev
|| __TEXT.__text __ZN3awd7metrics31CommCenterSimAuthenticateResultC1Ev
|| __TEXT.__text __ZN3awd7metrics31CommCenterSmartDataModeSettingsC1Ev
|| __TEXT.__text __ZN3awd7metrics31CommCenterVinylInfo_ProfileInfoC1Ev
|| __TEXT.__text __ZN3awd7metrics32CommCenterCDMACellBroadcastEventC1Ev
|| __TEXT.__text __ZN3awd7metrics32CommCenterDataUsageEmptyBundleIdC1Ev
|| __TEXT.__text __ZN3awd7metrics32CommCenterDataUsageTetheringDataC1Ev
|| __TEXT.__text __ZN3awd7metrics32CommCenterFilePushReason_IsValidEi
|| __TEXT.__text __ZN3awd7metrics32CommCenterSMSNetworkNotificationC1Ev
|| __TEXT.__text __ZN3awd7metrics32CommCenterSubscriptionImeiChangeC1Ev
|| __TEXT.__text __ZN3awd7metrics32gsm_cell_broadcast_configurationC1Ev
|| __TEXT.__text __ZN3awd7metrics33CommCenterCellularPlanPlanExpiredC1Ev
|| __TEXT.__text __ZN3awd7metrics33CommCenterCellularSimType_IsValidEi
|| __TEXT.__text __ZN3awd7metrics33CommCenterDataUsageForAllProfilesC1Ev
|| __TEXT.__text __ZN3awd7metrics33CommCenterDataUsageThresholdAlertC1Ev
|| __TEXT.__text __ZN3awd7metrics33CommCenterPDPContextStateChangeV4C1Ev
|| __TEXT.__text __ZN3awd7metrics33CommCenterPDPContextStateChangeV6C1Ev
|| __TEXT.__text __ZN3awd7metrics33cdma_cell_broadcast_configurationC1Ev
|| __TEXT.__text __ZN3awd7metrics34CommCenterCellularPlanType_IsValidEi
|| __TEXT.__text __ZN3awd7metrics34CommCenterDataUsageAlertThresholdsC1Ev
|| __TEXT.__text __ZN3awd7metrics34CommCenterDataUsageSinceLastSampleC1Ev
|| __TEXT.__text __ZN3awd7metrics34CommCenterDataUsageWhileDisallowedC1Ev
|| __TEXT.__text __ZN3awd7metrics34CommCenterFDAssertionTimeHistogramC1Ev
|| __TEXT.__text __ZN3awd7metrics34MetricCCPushNotificationActivationC1Ev
|| __TEXT.__text __ZN3awd7metrics35CommCenterBundleUpdateCheckScheduleC1Ev
|| __TEXT.__text __ZN3awd7metrics35CommCenterCellularPlanProfileSwitchC1Ev
|| __TEXT.__text __ZN3awd7metrics35CommCenterCellularPlanPurchaseEventC1Ev
|| __TEXT.__text __ZN3awd7metrics35CommCenterCellularPlanSimSetupUsageC1Ev
|| __TEXT.__text __ZN3awd7metrics35CommCenterDataUsageThresholdReachedC1Ev
|| __TEXT.__text __ZN3awd7metrics35CommCenterDataUsageTopConsumingAppsC1Ev
|| __TEXT.__text __ZN3awd7metrics35CommCenterEntitlementActionResponseC1Ev
|| __TEXT.__text __ZN3awd7metrics35CommCenterTransferPlanListingStatusC1Ev
|| __TEXT.__text __ZN3awd7metrics35CommCenterUncipheredRadioConnectionC1Ev
|| __TEXT.__text __ZN3awd7metrics36CommCenterCellularPlanProfilesStatusC1Ev
|| __TEXT.__text __ZN3awd7metrics36CommCenterDebugXpcEntitlementsReportC1Ev
|| __TEXT.__text __ZN3awd7metrics36CommCenterPDPContextPreActivateStateC1Ev
|| __TEXT.__text __ZN3awd7metrics36RemotePlanSubscriptionStatus_IsValidEi
|| __TEXT.__text __ZN3awd7metrics37CommCenterCellBroadcastConfigurationsC1Ev
|| __TEXT.__text __ZN3awd7metrics37CommCenterDataUsageAccessBlockedAlertC1Ev
|| __TEXT.__text __ZN3awd7metrics38CCStwPreconditionsStatusReason_IsValidEi
|| __TEXT.__text __ZN3awd7metrics38CommCenterCellularPlanPurchaseCompleteC1Ev
|| __TEXT.__text __ZN3awd7metrics38CommCenterRemoteCellularPlanSignUpFlowC1Ev
|| __TEXT.__text __ZN3awd7metrics38CommCenterShortDeadPeerDetectionReportC1Ev
|| __TEXT.__text __ZN3awd7metrics39CommCenterBundleOverlayFileWriteFailureC1Ev
|| __TEXT.__text __ZN3awd7metrics39CommCenterCellularPlanTransferDurationsC1Ev
|| __TEXT.__text __ZN3awd7metrics39CommCenterDataUsageWhileOnCall_AppUsageC1Ev
|| __TEXT.__text __ZN3awd7metrics39CommCenterSimAuthenticationType_IsValidEi
|| __TEXT.__text __ZN3awd7metrics39CommCenter_Instruments_CellularFallbackC1Ev
|| __TEXT.__text __ZN3awd7metrics39CommCenter_Instruments_CellularFallbackD1Ev
|| __TEXT.__text __ZN3awd7metrics39CommCenter_Instruments_CellularLteRfAgcC1Ev
|| __TEXT.__text __ZN3awd7metrics39CommCenter_Instruments_CellularLteRfAgcD1Ev
|| __TEXT.__text __ZN3awd7metrics40CellularPlanPendingProfileStatus_IsValidEi
|| __TEXT.__text __ZN3awd7metrics40CommCenterCellularPlanBootstrapDataUsageC1Ev
|| __TEXT.__text __ZN3awd7metrics40CommCenterCellularPlanCloudUploadDetailsC1Ev
|| __TEXT.__text __ZN3awd7metrics40CommCenter_Instruments_CellularPsCallEndC1Ev
|| __TEXT.__text __ZN3awd7metrics40CommCenter_Instruments_CellularPsCallEndD1Ev
|| __TEXT.__text __ZN3awd7metrics41CommCenterCellularPlanFailureType_IsValidEi
|| __TEXT.__text __ZN3awd7metrics41CommCenterCellularPlanInstallType_IsValidEi
|| __TEXT.__text __ZN3awd7metrics41CommCenterDataUsageWhenPreferredSimChangeC1Ev
|| __TEXT.__text __ZN3awd7metrics42CommCenterCellularPlanMonitorModeCompletedC1Ev
|| __TEXT.__text __ZN3awd7metrics42CommCenterCellularPlanSourceTransferDetailC1Ev
|| __TEXT.__text __ZN3awd7metrics42CommCenterDataUsageRecentNDays_PerDayUsageC1Ev
|| __TEXT.__text __ZN3awd7metrics42CommCenterRemoteCellularPlanProfilesStatusC1Ev
|| __TEXT.__text __ZN3awd7metrics42CommCenter_Instruments_CellularLteRrcStateC1Ev
|| __TEXT.__text __ZN3awd7metrics42CommCenter_Instruments_CellularLteRrcStateD1Ev
|| __TEXT.__text __ZN3awd7metrics43CommCenterCellularPlanBootstrapProvisioningC1Ev
|| __TEXT.__text __ZN3awd7metrics43CommCenterDebugXpcEntitlementsReport_ReportC1Ev
|| __TEXT.__text __ZN3awd7metrics43CommCenterSMSPNRResponseNetworkTimeoutCountC1Ev
|| __TEXT.__text __ZN3awd7metrics43CommCenterSmartDataModeChangeReason_IsValidEi
|| __TEXT.__text __ZN3awd7metrics43CommCenter_Instruments_CellularIpThroughputC1Ev
|| __TEXT.__text __ZN3awd7metrics43CommCenter_Instruments_CellularIpThroughputD1Ev
|| __TEXT.__text __ZN3awd7metrics43CommCenter_Instruments_CellularWcdmaTxRxAgcC1Ev
|| __TEXT.__text __ZN3awd7metrics43CommCenter_Instruments_CellularWcdmaTxRxAgcD1Ev
|| __TEXT.__text __ZN3awd7metrics44CommCenterCellularPlanPendingProfileReleasedC1Ev
|| __TEXT.__text __ZN3awd7metrics44CommCenterCellularPlanProfileTransferDetailsC1Ev
|| __TEXT.__text __ZN3awd7metrics44CommCenterDataUsageSinceLastSample_UsageInfoC1Ev
|| __TEXT.__text __ZN3awd7metrics44CommCenter_Instruments_CellularPsCallConnectC1Ev
|| __TEXT.__text __ZN3awd7metrics44CommCenter_Instruments_CellularPsCallConnectD1Ev
|| __TEXT.__text __ZN3awd7metrics44CommCenter_Instruments_CellularServiceStatusC1Ev
|| __TEXT.__text __ZN3awd7metrics44CommCenter_Instruments_CellularServiceStatusD1Ev
|| __TEXT.__text __ZN3awd7metrics44CommCenter_Instruments_CellularWcdmaRrcStateC1Ev
|| __TEXT.__text __ZN3awd7metrics44CommCenter_Instruments_CellularWcdmaRrcStateD1Ev
|| __TEXT.__text __ZN3awd7metrics45CommCenter_Instruments_CellularLteRrcMsgEventC1Ev
|| __TEXT.__text __ZN3awd7metrics45CommCenter_Instruments_CellularLteRrcMsgEventD1Ev
|| __TEXT.__text __ZN3awd7metrics46CommCenterSubscriptionImeiChangeReason_IsValidEi
|| __TEXT.__text __ZN3awd7metrics47CommCenterTransferPlanListingStatus_ListingInfoC1Ev
|| __TEXT.__text __ZN3awd7metrics47CommCenter_Instruments_CellularWcdmaRrcMsgEventC1Ev
|| __TEXT.__text __ZN3awd7metrics47CommCenter_Instruments_CellularWcdmaRrcMsgEventD1Ev
|| __TEXT.__text __ZN3awd7metrics48CommCenterCellularPlanTransferPlanSource_IsValidEi
|| __TEXT.__text __ZN3awd7metrics48CommCenterDataUsageWhileOnCall_IPVersion_IsValidEi
|| __TEXT.__text __ZN3awd7metrics48CommCenterPhoneNumberRegistrationResponseDetailsC1Ev
|| __TEXT.__text __ZN3awd7metrics48CommCenter_Instruments_CellularWcdmaRbRateStatusC1Ev
|| __TEXT.__text __ZN3awd7metrics48CommCenter_Instruments_CellularWcdmaRbRateStatusD1Ev
|| __TEXT.__text __ZN3awd7metrics49CommCenterCellularPlanEntitlementPushNotificationC1Ev
|| __TEXT.__text __ZN3awd7metrics49CommCenterDataUsageEmptyBundleId_ProcessDataUsageC1Ev
|| __TEXT.__text __ZN3awd7metrics49CommCenter_Instruments_CellularEvdoAlmpConnClosedC1Ev
|| __TEXT.__text __ZN3awd7metrics49CommCenter_Instruments_CellularEvdoAlmpConnClosedD1Ev
|| __TEXT.__text __ZN3awd7metrics49CommCenter_Instruments_CellularEvdoAlmpConnOpenedC1Ev
|| __TEXT.__text __ZN3awd7metrics49CommCenter_Instruments_CellularEvdoAlmpConnOpenedD1Ev
|| __TEXT.__text __ZN3awd7metrics50CommCenterCellularPlanProvisioningOperationDetailsC1Ev
|| __TEXT.__text __ZN3awd7metrics50CommCenterDataUsageForAllProfiles_ProfileDataUsageC1Ev
|| __TEXT.__text __ZN3awd7metrics50CommCenterFDAssertionTimeHistogram_BucketHistogramC1Ev
|| __TEXT.__text __ZN3awd7metrics50CommCenterRemoteCellularPlanSignUpCallBackReceivedC1Ev
|| __TEXT.__text __ZN3awd7metrics50CommCenter_Instruments_CellularWcdmaMultiRabStatusC1Ev
|| __TEXT.__text __ZN3awd7metrics50CommCenter_Instruments_CellularWcdmaMultiRabStatusD1Ev
|| __TEXT.__text __ZN3awd7metrics51CellularPlanEntitlementPushNotificationType_IsValidEi
|| __TEXT.__text __ZN3awd7metrics53CommCenterCellularPlanSimProvisioningPushNotificationC1Ev
|| __TEXT.__text __ZN3awd7metrics55CommCenterDataUsageWhileOnCall_TranportProtocol_IsValidEi
|| __TEXT.__text __ZN3awd7metrics58CommCenterDataUsageRecentNDays_ProcessDataUsageRecentNDaysC1Ev
|| __TEXT.__text __ZN3awd7metrics60CommCenterEntitlementResponse_CommCenter5GEntitlementDetailsC1Ev
|| __TEXT.__text __ZN3awd7metrics64CommCenterRemoteCellularPlanProfilesStatus_RemotePlanProfileInfoC1Ev
|| __TEXT.__text __ZN3awd7metrics67CommCenterCellularPlanProfileTransferDetails_RemotePlanTransferInfoC1Ev
|| __TEXT.__text __ZN3awd7metrics69CommCenterEntitlementActionResponse_CommCenterEntitlementTypeResponseC1Ev
|| __TEXT.__text __ZN3awd7metrics81CommCenterEntitlementResponse_CommCenter5GEntitlementDetails_CC5GPlanType_IsValidEi
|| __TEXT.__text __ZN3awd7metrics89CommCenterEntitlementResponse_CommCenter5GEntitlementDetails_CC5GPlanSupportedRAT_IsValidEi
__ libSystem.B.dylib: __Unwind_Resume
__ libSystem.B.dylib: ___assert_rtn
__ libSystem.B.dylib: _memcpy
__ libSystem.B.dylib: _strlen
__ libc++.1.dylib: __ZNKSt3__121__basic_string_commonILb1EE20__throw_length_errorEv
__ libc++.1.dylib: __ZNSt3__112basic_stringIcNS_11char_traitsIcEENS_9allocatorIcEEEaSERKS5_
__ libc++.1.dylib: __ZSt9terminatev
__ libc++.1.dylib: __ZTVN10__cxxabiv120__si_class_type_infoE
__ libc++.1.dylib: __ZdaPv
__ libc++.1.dylib: __ZdlPv
__ libc++.1.dylib: __Znam
__ libc++.1.dylib: __Znwm
__ libc++.1.dylib: ___cxa_begin_catch
__ libc++.1.dylib: ___dynamic_cast
__ libc++.1.dylib: ___gxx_personality_v0
__ libprotobuf-lite.dylib: __ZN20wireless_diagnostics6google8protobuf11MessageLiteD2Ev
__ libprotobuf-lite.dylib: __ZN20wireless_diagnostics6google8protobuf2io16CodedInputStream15ReadTagFallbackEv
__ libprotobuf-lite.dylib: __ZN20wireless_diagnostics6google8protobuf2io16CodedInputStream20ReadVarint32FallbackEPj
__ libprotobuf-lite.dylib: __ZN20wireless_diagnostics6google8protobuf2io16CodedInputStream20ReadVarint64FallbackEPy
__ libprotobuf-lite.dylib: __ZN20wireless_diagnostics6google8protobuf2io16CodedInputStream26ReadLittleEndian32FallbackEPj
__ libprotobuf-lite.dylib: __ZN20wireless_diagnostics6google8protobuf2io16CodedInputStream26ReadLittleEndian64FallbackEPy
__ libprotobuf-lite.dylib: __ZN20wireless_diagnostics6google8protobuf2io16CodedInputStream8PopLimitEi
__ libprotobuf-lite.dylib: __ZN20wireless_diagnostics6google8protobuf2io16CodedInputStream9PushLimitEi
__ libprotobuf-lite.dylib: __ZN20wireless_diagnostics6google8protobuf2io17CodedOutputStream12VarintSize64Ey
__ libprotobuf-lite.dylib: __ZN20wireless_diagnostics6google8protobuf2io17CodedOutputStream20VarintSize32FallbackEj
__ libprotobuf-lite.dylib: __ZN20wireless_diagnostics6google8protobuf8internal10LogMessageC1ENS1_8LogLevelEPKci
__ libprotobuf-lite.dylib: __ZN20wireless_diagnostics6google8protobuf8internal10LogMessageD1Ev
__ libprotobuf-lite.dylib: __ZN20wireless_diagnostics6google8protobuf8internal10LogMessagelsEPKc
__ libprotobuf-lite.dylib: __ZN20wireless_diagnostics6google8protobuf8internal10OnShutdownEPFvvE
__ libprotobuf-lite.dylib: __ZN20wireless_diagnostics6google8protobuf8internal11LogFinisheraSERNS2_10LogMessageE
__ libprotobuf-lite.dylib: __ZN20wireless_diagnostics6google8protobuf8internal12kEmptyStringE
__ libprotobuf-lite.dylib: __ZN20wireless_diagnostics6google8protobuf8internal13VerifyVersionEiiPKc
__ libprotobuf-lite.dylib: __ZN20wireless_diagnostics6google8protobuf8internal14WireFormatLite10ReadStringEPNS1_2io16CodedInputStreamEPNSt3__112basic_stringIcNS7_11char_traitsIcEENS7_9allocatorIcEEEE
__ libprotobuf-lite.dylib: __ZN20wireless_diagnostics6google8protobuf8internal14WireFormatLite10WriteBytesEiRKNSt3__112basic_stringIcNS4_11char_traitsIcEENS4_9allocatorIcEEEEPNS1_2io17CodedOutputStreamE
__ libprotobuf-lite.dylib: __ZN20wireless_diagnostics6google8protobuf8internal14WireFormatLite10WriteFloatEifPNS1_2io17CodedOutputStreamE
__ libprotobuf-lite.dylib: __ZN20wireless_diagnostics6google8protobuf8internal14WireFormatLite10WriteInt32EiiPNS1_2io17CodedOutputStreamE
__ libprotobuf-lite.dylib: __ZN20wireless_diagnostics6google8protobuf8internal14WireFormatLite10WriteInt64EixPNS1_2io17CodedOutputStreamE
__ libprotobuf-lite.dylib: __ZN20wireless_diagnostics6google8protobuf8internal14WireFormatLite11WriteDoubleEidPNS1_2io17CodedOutputStreamE
__ libprotobuf-lite.dylib: __ZN20wireless_diagnostics6google8protobuf8internal14WireFormatLite11WriteSInt32EiiPNS1_2io17CodedOutputStreamE
__ libprotobuf-lite.dylib: __ZN20wireless_diagnostics6google8protobuf8internal14WireFormatLite11WriteSInt64EixPNS1_2io17CodedOutputStreamE
__ libprotobuf-lite.dylib: __ZN20wireless_diagnostics6google8protobuf8internal14WireFormatLite11WriteStringEiRKNSt3__112basic_stringIcNS4_11char_traitsIcEENS4_9allocatorIcEEEEPNS1_2io17CodedOutputStreamE
__ libprotobuf-lite.dylib: __ZN20wireless_diagnostics6google8protobuf8internal14WireFormatLite11WriteUInt32EijPNS1_2io17CodedOutputStreamE
__ libprotobuf-lite.dylib: __ZN20wireless_diagnostics6google8protobuf8internal14WireFormatLite11WriteUInt64EiyPNS1_2io17CodedOutputStreamE
__ libprotobuf-lite.dylib: __ZN20wireless_diagnostics6google8protobuf8internal14WireFormatLite12WriteMessageEiRKNS1_11MessageLiteEPNS1_2io17CodedOutputStreamE
__ libprotobuf-lite.dylib: __ZN20wireless_diagnostics6google8protobuf8internal14WireFormatLite22ReadPackedEnumNoInlineEPNS1_2io16CodedInputStreamEPFbiEPNS1_13RepeatedFieldIiEE
__ libprotobuf-lite.dylib: __ZN20wireless_diagnostics6google8protobuf8internal14WireFormatLite9ReadBytesEPNS1_2io16CodedInputStreamEPNSt3__112basic_stringIcNS7_11char_traitsIcEENS7_9allocatorIcEEEE
__ libprotobuf-lite.dylib: __ZN20wireless_diagnostics6google8protobuf8internal14WireFormatLite9SkipFieldEPNS1_2io16CodedInputStreamEj
__ libprotobuf-lite.dylib: __ZN20wireless_diagnostics6google8protobuf8internal14WireFormatLite9WriteBoolEibPNS1_2io17CodedOutputStreamE
__ libprotobuf-lite.dylib: __ZN20wireless_diagnostics6google8protobuf8internal14WireFormatLite9WriteEnumEiiPNS1_2io17CodedOutputStreamE
__ libprotobuf-lite.dylib: __ZN20wireless_diagnostics6google8protobuf8internal20RepeatedPtrFieldBase7ReserveEi
__ libprotobuf-lite.dylib: __ZN20wireless_diagnostics6google8protobuf8internal21StringTypeHandlerBase3NewEv
__ libprotobuf-lite.dylib: __ZN20wireless_diagnostics6google8protobuf8internal21StringTypeHandlerBase6DeleteEPNSt3__112basic_stringIcNS4_11char_traitsIcEENS4_9allocatorIcEEEE
__ libprotobuf-lite.dylib: __ZNK20wireless_diagnostics6google8protobuf11MessageLite25InitializationErrorStringEv
__ libprotobuf-lite.dylib: __ZNK20wireless_diagnostics6google8protobuf11MessageLite31SerializeWithCachedSizesToArrayEPh
__ libprotobuf-lite.dylib: __ZNK20wireless_diagnostics6google8protobuf2io16CodedInputStream15BytesUntilLimitEv
__ libprotobuf-lite.dylib: __ZTIN20wireless_diagnostics6google8protobuf11MessageLiteE
