|| __DATA_CONST.__const __ZTI19IBIDMSCommandDriver
|| __DATA_CONST.__const __ZTI19IBIP2PCommandDriver
|| __DATA_CONST.__const __ZTI20IBICallCommandDriver
|| __DATA_CONST.__const __ZTI22KCommandDriversFactory
|| __DATA_CONST.__const __ZTI27IBINetworkListCommandDriver
|| __DATA_CONST.__const __ZTI28IBICDMASettingsCommandDriver
|| __DATA_CONST.__const __ZTI28IBIWiFiSettingsCommandDriver
|| __DATA_CONST.__const __ZTI33IBIPreferredNetworksCommandDriver
|| __DATA_CONST.__const __ZTI40IBIPreferredNetworksFactoryCommandDriver
|| __DATA_CONST.__const __ZTIN20IBICallCommandDriver12DelegateBaseE
|| __DATA_CONST.__const __ZTIN3awd19IBIAwdCommandDriverE
|| __DATA_CONST.__const __ZTV19IBIDMSCommandDriver
|| __DATA_CONST.__const __ZTV19IBIP2PCommandDriver
|| __DATA_CONST.__const __ZTV20IBICallCommandDriver
|| __DATA_CONST.__const __ZTV22KCommandDriversFactory
|| __DATA_CONST.__const __ZTV27IBINetworkListCommandDriver
|| __DATA_CONST.__const __ZTV28IBICDMASettingsCommandDriver
|| __DATA_CONST.__const __ZTV28IBIWiFiSettingsCommandDriver
|| __DATA_CONST.__const __ZTV33IBIPreferredNetworksCommandDriver
|| __DATA_CONST.__const __ZTV40IBIPreferredNetworksFactoryCommandDriver
|| __DATA_CONST.__const __ZTVN20IBICallCommandDriver12DelegateBaseE
|| __DATA_CONST.__const __ZTVN3awd19IBIAwdCommandDriverE
|| __TEXT.__const __ZN25WiFiSettingsCommandDriver14BssidByteCountE
|| __TEXT.__const __ZTS19IBIDMSCommandDriver
|| __TEXT.__const __ZTS19IBIP2PCommandDriver
|| __TEXT.__const __ZTS20IBICallCommandDriver
|| __TEXT.__const __ZTS22KCommandDriversFactory
|| __TEXT.__const __ZTS27IBINetworkListCommandDriver
|| __TEXT.__const __ZTS28IBICDMASettingsCommandDriver
|| __TEXT.__const __ZTS28IBIWiFiSettingsCommandDriver
|| __TEXT.__const __ZTS33IBIPreferredNetworksCommandDriver
|| __TEXT.__const __ZTS40IBIPreferredNetworksFactoryCommandDriver
|| __TEXT.__const __ZTSN20IBICallCommandDriver12DelegateBaseE
|| __TEXT.__const __ZTSN3awd19IBIAwdCommandDriverE
|| __TEXT.__text __Z11parseIbiEriPKhS0_
|| __TEXT.__text __Z12parseIbiPlmnRK7IBIPlmn
|| __TEXT.__text __Z13convertIbiRatP8os_log_s6IBIRat19IBIRatInfoExtension
|| __TEXT.__text __Z15toIBICbLanguaget
|| __TEXT.__text __Z16parseIbiCellInfoRN13ServingSystem9GSMSystemEPKN3ctu11OsLogLoggerE6IBIRat19IBIRatInfoExtensionjjj7IBIPlmn
|| __TEXT.__text __Z18toIBISmsMsgWaitIndb
|| __TEXT.__text __Z19dataModesFromIbiRatPKN3ctu11OsLogLoggerE6IBIRatb
|| __TEXT.__text __Z19getEncryptionStatusRKN6AriSdk34ARI_IBICallPsSecurityStatusInd_SDKE
|| __TEXT.__text __Z19getEncryptionStatusRKN6AriSdk36ARI_IBICallPsSecurityStatusRspCb_SDKE
|| __TEXT.__text __Z19parseGsmIbiDataModeP8os_log_s6IBIRat19IBIRatInfoExtensionbbbb
|| __TEXT.__text __Z19sIsCallTypeBasebandRK8CallInfo
|| __TEXT.__text __Z21createMsgWaitingArraybh
|| __TEXT.__text __Z22getImsEmergencySupportRKN6AriSdk35ARI_IBINetRegistrationInfoIndCb_SDKE
|| __TEXT.__text __Z22getImsEmergencySupportRKN6AriSdk38ARI_IBINetGetRegistrationInfoRspCb_SDKE
|| __TEXT.__text __Z22parseIbiCdma1xCellInfoR13ServingSystemRK25IBINetCdma1xCellInfoParam
|| __TEXT.__text __Z23getCsRejectionCauseCodeRKN6AriSdk35ARI_IBINetRegistrationInfoIndCb_SDKE
|| __TEXT.__text __Z23getCsRejectionCauseCodeRKN6AriSdk38ARI_IBINetGetRegistrationInfoRspCb_SDKE
|| __TEXT.__text __Z23getPsRejectionCauseCodeRKN6AriSdk35ARI_IBINetRegistrationInfoIndCb_SDKE
|| __TEXT.__text __Z23getPsRejectionCauseCodeRKN6AriSdk38ARI_IBINetGetRegistrationInfoRspCb_SDKE
|| __TEXT.__text __Z23toAPBroadcast3GPPConfigRK18IBICbsMidRangeList
|| __TEXT.__text __Z24parseIbiCdmaEvdoCellInfoR13ServingSystemRK27IBINetCdmaEvdoCellInfoParamb
|| __TEXT.__text __Z24toIbiBroadcast3GPPConfigRKNSt3__16vectorIN3sms19BroadcastConfig3GPPENS_9allocatorIS2_EEEE
|| __TEXT.__text __Z27convertIbiNetworkNameSource20IBINetPlmnNameSource
|| __TEXT.__text __Z28convertIbiEmergencySetupType18EmergencySetupType
|| __TEXT.__text __Z28convertIbiEncodedNetworkNamePKN3ctu11OsLogLoggerEPKc20IBINetEncodingSchemePKvm
|| __TEXT.__text __Z28convertIbiRegistrationStatusPKN3ctu11OsLogLoggerE24IBINetRegistrationStatusb
|| __TEXT.__text __Z31convertIbiSmscAddressToPhoneNumRK17IBISimSmscAddress
|| __TEXT.__text __Z31convertPhoneNumToIbiSmscAddressRK14CSIPhoneNumber
|| __TEXT.__text __Z34isIbiRegistrationStatusFullServicePKN3ctu11OsLogLoggerE24IBINetRegistrationStatus
|| __TEXT.__text __Z9getIbiRatPKN3ctu11OsLogLoggerE21RadioAccessTechnology
|| __TEXT.__text __ZN19IBIDMSCommandDriver10initializeEv
|| __TEXT.__text __ZN19IBIDMSCommandDriver19sendReadImeiRequestEN16DMSCommandDriver11InformationE
|| __TEXT.__text __ZN19IBIDMSCommandDriver22handleReadImeiResponseEPKhjN16DMSCommandDriver11InformationE
|| __TEXT.__text __ZN19IBIDMSCommandDriver24handleClientStarted_syncEv
|| __TEXT.__text __ZN19IBIDMSCommandDriver24handleClientStopped_syncEv
|| __TEXT.__text __ZN19IBIDMSCommandDriver31sendIBISimFileGetCdmaAuxInfoReqEN16DMSCommandDriver11InformationEN10subscriber7SimSlotE
|| __TEXT.__text __ZN19IBIDMSCommandDriver35handleIBISimFileGetCdmaAuxInfoRspCbEPKhjN16DMSCommandDriver11InformationE
|| __TEXT.__text __ZN19IBIDMSCommandDriver3getEN10subscriber7SimSlotEN16DMSCommandDriver11InformationE
|| __TEXT.__text __ZN19IBIDMSCommandDriver4stopEv
|| __TEXT.__text __ZN19IBIDMSCommandDriver5startEv
|| __TEXT.__text __ZN19IBIDMSCommandDriver6createERKNSt3__110shared_ptrIK8RegistryEEN8dispatch5queueE
|| __TEXT.__text __ZN19IBIDMSCommandDriverC1ERKNSt3__110shared_ptrIK8RegistryEEN8dispatch5queueE
|| __TEXT.__text __ZN19IBIDMSCommandDriverC2ERKNSt3__110shared_ptrIK8RegistryEEN8dispatch5queueE
|| __TEXT.__text __ZN19IBIP2PCommandDriver23sendP2PCompanionMessageEPK10__CFNumberPK8__CFDatabRKNSt3__110shared_ptrI14P2PDeviceDescrEEU13block_pointerFvbbN3ctu2cf11CFSharedRefIK14__CFDictionaryEEE
|| __TEXT.__text __ZN19IBIP2PCommandDriver24handleClientStarted_syncEv
|| __TEXT.__text __ZN19IBIP2PCommandDriver24handleClientStopped_syncEv
|| __TEXT.__text __ZN19IBIP2PCommandDriver31handleP2PMessageIndication_syncEPKhj
|| __TEXT.__text __ZN19IBIP2PCommandDriver31handleP2PProximityStatusChangedEN10subscriber7SimSlotENSt3__110shared_ptrI14P2PDeviceDescrEE
|| __TEXT.__text __ZN19IBIP2PCommandDriver4initENSt3__18weak_ptrI24P2PCommandDriverObserverEE
|| __TEXT.__text __ZN19IBIP2PCommandDriver4stopEv
|| __TEXT.__text __ZN19IBIP2PCommandDriver5startEv
|| __TEXT.__text __ZN19IBIP2PCommandDriver6createENSt3__110shared_ptrIK8RegistryEEN8dispatch5queueE
|| __TEXT.__text __ZN19IBIP2PCommandDriverC1ERKNSt3__110shared_ptrIK8RegistryEEPKcS8_N8dispatch5queueE
|| __TEXT.__text __ZN19IBIP2PCommandDriverC2ERKNSt3__110shared_ptrIK8RegistryEEPKcS8_N8dispatch5queueE
|| __TEXT.__text __ZN19IBIP2PCommandDriverD0Ev
|| __TEXT.__text __ZN19IBIP2PCommandDriverD1Ev
|| __TEXT.__text __ZN19IBIP2PCommandDriverD2Ev
|| __TEXT.__text __ZN20IBICallCommandDriver10mergeCallsE20CallOperationContext
|| __TEXT.__text __ZN20IBICallCommandDriver10startOTASPEv
|| __TEXT.__text __ZN20IBICallCommandDriver11endAllCallsEN10subscriber7SimSlotE
|| __TEXT.__text __ZN20IBICallCommandDriver11endThisCallE8CallInfo
|| __TEXT.__text __ZN20IBICallCommandDriver12DelegateBaseD0Ev
|| __TEXT.__text __ZN20IBICallCommandDriver12DelegateBaseD1Ev
|| __TEXT.__text __ZN20IBICallCommandDriver12DelegateBaseD2Ev
|| __TEXT.__text __ZN20IBICallCommandDriver12endHeldCallsEv
|| __TEXT.__text __ZN20IBICallCommandDriver12stopDTMFToneERK8CallInfo15DtmfTypeSetting
|| __TEXT.__text __ZN20IBICallCommandDriver13prepareToDialE8CallInfo
|| __TEXT.__text __ZN20IBICallCommandDriver13startDTMFToneEcRK8CallInfo15DtmfTypeSetting
|| __TEXT.__text __ZN20IBICallCommandDriver14sendDTMFDigitsERKNSt3__16vectorIhNS0_9allocatorIhEEEERK8CallInfo
|| __TEXT.__text __ZN20IBICallCommandDriver15applyCallSourceERK8CallInfo
|| __TEXT.__text __ZN20IBICallCommandDriver15cleanupAllCallsEN10subscriber7SimSlotE
|| __TEXT.__text __ZN20IBICallCommandDriver15endCallInternalEjRK8CallInfo
|| __TEXT.__text __ZN20IBICallCommandDriver15sendToVoicemailE8CallInfo15VoicemailReason
|| __TEXT.__text __ZN20IBICallCommandDriver15sendUssdRequestERKNSt3__112basic_stringIcNS0_11char_traitsIcEENS0_9allocatorIcEEEEbN10subscriber7SimSlotENS0_8functionIFvRKN3ibi12UssdResponseEEEE
|| __TEXT.__text __ZN20IBICallCommandDriver16handleMediaReadyEv
|| __TEXT.__text __ZN20IBICallCommandDriver16handleRegisteredERKNSt3__13mapIN10subscriber7SimSlotE21RadioAccessTechnologyNS0_4lessIS3_EENS0_9allocatorINS0_4pairIKS3_S4_EEEEEE
|| __TEXT.__text __ZN20IBICallCommandDriver16sendEndCallAudioERK8CallInfo
|| __TEXT.__text __ZN20IBICallCommandDriver17cancelUssdSessionEN10subscriber7SimSlotE
|| __TEXT.__text __ZN20IBICallCommandDriver17endCallDueToSRVCCE8CallInfo
|| __TEXT.__text __ZN20IBICallCommandDriver17handleECBMChangedEb
|| __TEXT.__text __ZN20IBICallCommandDriver17isAbleToMakeCallsEbN10subscriber7SimSlotE
|| __TEXT.__text __ZN20IBICallCommandDriver17parseUssdResponseEPKhj
|| __TEXT.__text __ZN20IBICallCommandDriver17sendUSSDProcedureENSt3__112basic_stringIcNS0_11char_traitsIcEENS0_9allocatorIcEEEEN10subscriber7SimSlotE
|| __TEXT.__text __ZN20IBICallCommandDriver17sendUSSDUserReplyENSt3__112basic_stringIcNS0_11char_traitsIcEENS0_9allocatorIcEEEEN10subscriber7SimSlotE
|| __TEXT.__text __ZN20IBICallCommandDriver17setCallCapabilityEPKcbbN10subscriber7SimSlotE
|| __TEXT.__text __ZN20IBICallCommandDriver17setCallCapabilityEPKciN10subscriber7SimSlotE
|| __TEXT.__text __ZN20IBICallCommandDriver18answerIncomingCallE8CallInfo
|| __TEXT.__text __ZN20IBICallCommandDriver18enableVoicePrivacyEbN10subscriber7SimSlotE
|| __TEXT.__text __ZN20IBICallCommandDriver18handleUssdInd_syncEPKhj
|| __TEXT.__text __ZN20IBICallCommandDriver18validateUssdStringERKNSt3__112basic_stringIcNS0_11char_traitsIcEENS0_9allocatorIcEEEE
|| __TEXT.__text __ZN20IBICallCommandDriver19registerForCCEventsEv
|| __TEXT.__text __ZN20IBICallCommandDriver19sendCallWaitingToneEN10subscriber7SimSlotE
|| __TEXT.__text __ZN20IBICallCommandDriver19sendSRVCCCallConfigEN10subscriber7SimSlotE
|| __TEXT.__text __ZN20IBICallCommandDriver19sendStopContDtmfReqERK8CallInfo
|| __TEXT.__text __ZN20IBICallCommandDriver20holdUnHoldActiveCallEN3ctu2cf11CFSharedRefIK8__CFUUIDEE
|| __TEXT.__text __ZN20IBICallCommandDriver20sendStartContDtmfReqEcRK8CallInfo
|| __TEXT.__text __ZN20IBICallCommandDriver21reportDisconnectStatsERK8CallInfo
|| __TEXT.__text __ZN20IBICallCommandDriver21resetCallCapabilitiesEN10subscriber7SimSlotE
|| __TEXT.__text __ZN20IBICallCommandDriver21resetCallRelatedStateEN10subscriber7SimSlotE
|| __TEXT.__text __ZN20IBICallCommandDriver21sendVoiceBurstDtmfReqERKNSt3__16vectorIhNS0_9allocatorIhEEEERK8CallInfo
|| __TEXT.__text __ZN20IBICallCommandDriver22answerWaitingEndActiveEPi
|| __TEXT.__text __ZN20IBICallCommandDriver22answerWaitingHoldOtherEN3ctu2cf11CFSharedRefIK8__CFUUIDEE
|| __TEXT.__text __ZN20IBICallCommandDriver22handleHandoverInd_syncEPKhj
|| __TEXT.__text __ZN20IBICallCommandDriver22holdActiveCallInternalEj
|| __TEXT.__text __ZN20IBICallCommandDriver22registerForIndicationsEv
|| __TEXT.__text __ZN20IBICallCommandDriver23checkCallActiveWithFWIME20IBICallCsLineControlRK8CallInfo
|| __TEXT.__text __ZN20IBICallCommandDriver24checkIBICallCsSignalInfoE19IBICallCsSignalInfo
|| __TEXT.__text __ZN20IBICallCommandDriver24handleCallActiveInd_syncER8CallInfo15IBICallCsStatus
|| __TEXT.__text __ZN20IBICallCommandDriver24handleCallStatusInd_syncEPKhj
|| __TEXT.__text __ZN20IBICallCommandDriver24retrieveHeldCallInternalEj
|| __TEXT.__text __ZN20IBICallCommandDriver25createPrivateConversationE20CallOperationContext
|| __TEXT.__text __ZN20IBICallCommandDriver25fillUpC2KCallCapabilitiesEN10subscriber7SimSlotE
|| __TEXT.__text __ZN20IBICallCommandDriver25fillUpGSMCallCapabilitiesEN10subscriber7SimSlotE
|| __TEXT.__text __ZN20IBICallCommandDriver25handleCallingNameInd_syncEPKhj
|| __TEXT.__text __ZN20IBICallCommandDriver26answerIncomingCallInternalERK8CallInfo
|| __TEXT.__text __ZN20IBICallCommandDriver26createExplicitCallTransferEN10subscriber7SimSlotE
|| __TEXT.__text __ZN20IBICallCommandDriver26handleCallIncomingInd_syncEPKhj
|| __TEXT.__text __ZN20IBICallCommandDriver27handleCallHoldResponse_syncEPKhj
|| __TEXT.__text __ZN20IBICallCommandDriver27handleCallSwapResponse_syncEPKhj
|| __TEXT.__text __ZN20IBICallCommandDriver28handleCallMergeResponse_syncEPKhjRK20CallOperationContext
|| __TEXT.__text __ZN20IBICallCommandDriver28handleCallSetupResponse_syncEPKhjN3ctu2cf11CFSharedRefIK8__CFUUIDEEb
|| __TEXT.__text __ZN20IBICallCommandDriver28handlePsNotificationInd_syncEPKhj
|| __TEXT.__text __ZN20IBICallCommandDriver28setupDefaultCallCapabilitiesEN10subscriber7SimSlotE
|| __TEXT.__text __ZN20IBICallCommandDriver29fillUpDefaultCallCapabilitiesEN10subscriber7SimSlotE
|| __TEXT.__text __ZN20IBICallCommandDriver29handleCallAcceptResponse_syncEPKhj
|| __TEXT.__text __ZN20IBICallCommandDriver29validateCallCollisionScenarioEbjN10subscriber7SimSlotE
|| __TEXT.__text __ZN20IBICallCommandDriver30handleCallCsStopDtmfIndCb_syncEPKhj
|| __TEXT.__text __ZN20IBICallCommandDriver30handleCallDisconnectedInd_syncEPKhj
|| __TEXT.__text __ZN20IBICallCommandDriver30handleCallReleaseResponse_syncEPKhj
|| __TEXT.__text __ZN20IBICallCommandDriver31handleCallRetrieveResponse_syncEPKhj
|| __TEXT.__text __ZN20IBICallCommandDriver31handleCallTransferResponse_syncEPKhj
|| __TEXT.__text __ZN20IBICallCommandDriver32setNumTypeForTestEmergencyNumberER8CallInfo
|| __TEXT.__text __ZN20IBICallCommandDriver34handleCallCsSetPrefPrivacyInd_syncEPKhj
|| __TEXT.__text __ZN20IBICallCommandDriver34handleSessionTransferResponse_syncEPKhj
|| __TEXT.__text __ZN20IBICallCommandDriver34handleSplitMultipartyResponse_syncEPKhjRK20CallOperationContext
|| __TEXT.__text __ZN20IBICallCommandDriver35handleSetCallCapabilityTimerExpiredEPKcbN10subscriber7SimSlotE
|| __TEXT.__text __ZN20IBICallCommandDriver36handleOtaspCallStatusIndication_syncEPKhj
|| __TEXT.__text __ZN20IBICallCommandDriver42handleCallCsStatusIncomingIndications_syncE15IBICallCsStatusR8CallInfo
|| __TEXT.__text __ZN20IBICallCommandDriver45handleEmergencyCallIntermediateStatusInd_syncEPKhj
|| __TEXT.__text __ZN20IBICallCommandDriver4dialE8CallInfo
|| __TEXT.__text __ZN20IBICallCommandDriver4initENSt3__110shared_ptrI15IBIOTASPServiceEE
|| __TEXT.__text __ZN20IBICallCommandDriver56setPreferredWirelessTechnologyBasedOnCarrierCapabilitiesEN10subscriber7SimSlotE
|| __TEXT.__text __ZN20IBICallCommandDriver5startEv
|| __TEXT.__text __ZN20IBICallCommandDriver8shutdownEN8dispatch13group_sessionE
|| __TEXT.__text __ZN20IBICallCommandDriver9bootstrapEN8dispatch13group_sessionE
|| __TEXT.__text __ZN20IBICallCommandDriver9swapCallsEN3ctu2cf11CFSharedRefIK8__CFUUIDEE
|| __TEXT.__text __ZN20IBICallCommandDriverC1ERKNSt3__110shared_ptrIK8RegistryEEON8dispatch5queueENS1_INS_12DelegateBaseEEE
|| __TEXT.__text __ZN20IBICallCommandDriverC2ERKNSt3__110shared_ptrIK8RegistryEEON8dispatch5queueENS1_INS_12DelegateBaseEEE
|| __TEXT.__text __ZN20IBICallCommandDriverD0Ev
|| __TEXT.__text __ZN20IBICallCommandDriverD1Ev
|| __TEXT.__text __ZN20IBICallCommandDriverD2Ev
|| __TEXT.__text __ZN22KCommandDriversFactory21createATCommandDriverEN8dispatch5queueE
|| __TEXT.__text __ZN22KCommandDriversFactory22createAwdCommandDriverEN8dispatch8workloopE
|| __TEXT.__text __ZN22KCommandDriversFactory22createDMSCommandDriverEN8dispatch5queueEN3xpc8endpointE
|| __TEXT.__text __ZN22KCommandDriversFactory22createP2PCommandDriverEN8dispatch5queueE
|| __TEXT.__text __ZN22KCommandDriversFactory22createSimCommandDriverEN8dispatch5queueEN3xpc10connectionE
|| __TEXT.__text __ZN22KCommandDriversFactory22createSmsCommandDriverEN8dispatch5queueEN3xpc8endpointE
|| __TEXT.__text __ZN22KCommandDriversFactory22createStkCommandDriverEN8dispatch5queueENSt3__110shared_ptrI33STKCommandDriverDelegateInterfaceEE
|| __TEXT.__text __ZN22KCommandDriversFactory23createCallCommandDriverEN8dispatch5queueENSt3__110shared_ptrI34CallCommandDriverDelegateInterfaceEENS3_I28ServiceProvisioningInterfaceEE
|| __TEXT.__text __ZN22KCommandDriversFactory24createAudioCommandDriverEN8dispatch5queueE
|| __TEXT.__text __ZN22KCommandDriversFactory24createEmbmsCommandDriverEN8dispatch5queueE
|| __TEXT.__text __ZN22KCommandDriversFactory24createVinylCommandDriverEN3xpc10connectionE
|| __TEXT.__text __ZN22KCommandDriversFactory26createDesenseCommandDriverEN8dispatch5queueE
|| __TEXT.__text __ZN22KCommandDriversFactory27createDormancyCommandDriverEN8dispatch5queueEj
|| __TEXT.__text __ZN22KCommandDriversFactory28createAttachApnCommandDriverEN8dispatch5queueE
|| __TEXT.__text __ZN22KCommandDriversFactory28createCallAudioCommandDriverEN8dispatch5queueENSt3__110shared_ptrI32CallAudioDriverDelegateInterfaceEENS3_I33CallNotificationsHandlerInterfaceEE
|| __TEXT.__text __ZN22KCommandDriversFactory28createPhonebookCommandDriverEN8dispatch5queueE
|| __TEXT.__text __ZN22KCommandDriversFactory29createActivationCommandDriverEN8dispatch5queueE
|| __TEXT.__text __ZN22KCommandDriversFactory30createCellMonitorCommandDriverEN8dispatch5queueE
|| __TEXT.__text __ZN22KCommandDriversFactory30createDataFactoryCommandDriverEN8dispatch5queueE
|| __TEXT.__text __ZN22KCommandDriversFactory30createEnhancedLQMCommandDriverEN8dispatch5queueE
|| __TEXT.__text __ZN22KCommandDriversFactory30createNetworkListCommandDriverEN8dispatch5queueE
|| __TEXT.__text __ZN22KCommandDriversFactory31createAudioRoutingCommandDriverEN8dispatch5queueE
|| __TEXT.__text __ZN22KCommandDriversFactory31createCDMASettingsCommandDriverEN8dispatch5queueE
|| __TEXT.__text __ZN22KCommandDriversFactory31createSuppServicesCommandDriverEN8dispatch5queueE
|| __TEXT.__text __ZN22KCommandDriversFactory31createWiFiSettingsCommandDriverEN8dispatch5queueE
|| __TEXT.__text __ZN22KCommandDriversFactory33createSignalStrengthCommandDriverEN8dispatch5queueE
|| __TEXT.__text __ZN22KCommandDriversFactory35createBasebandSettingsCommandDriverEN8dispatch5queueE
|| __TEXT.__text __ZN22KCommandDriversFactory35createDataSubscriptionCommandDriverEN8dispatch5queueE
|| __TEXT.__text __ZN22KCommandDriversFactory36createPreferredNetworksCommandDriverEN8dispatch5queueE
|| __TEXT.__text __ZN22KCommandDriversFactory38createNetworkRegistrationCommandDriverEN8dispatch8workloopEN3xpc8endpointE
|| __TEXT.__text __ZN22KCommandDriversFactory6createEv
|| __TEXT.__text __ZN22KCommandDriversFactoryD0Ev
|| __TEXT.__text __ZN22KCommandDriversFactoryD1Ev
|| __TEXT.__text __ZN22KCommandDriversFactoryD2Ev
|| __TEXT.__text __ZN27IBINetworkListCommandDriver18performNetworkScanEN10subscriber7SimSlotEh
|| __TEXT.__text __ZN27IBINetworkListCommandDriver19applySelection_syncEN10subscriber7SimSlotE20NetworkSelectionMode19NetworkListOperatorN8dispatch13group_sessionE
|| __TEXT.__text __ZN27IBINetworkListCommandDriver21applyNetworkSelectionEN10subscriber7SimSlotE20NetworkSelectionMode19NetworkListOperatorh29CarrierSelectionAllowedReason
|| __TEXT.__text __ZN27IBINetworkListCommandDriver22parseScanResponse_syncEPKN3ctu11OsLogLoggerERK21IBINetPlmnScanList_V1
|| __TEXT.__text __ZN27IBINetworkListCommandDriver23handleScanResponse_syncEN10subscriber7SimSlotEPKhj
|| __TEXT.__text __ZN27IBINetworkListCommandDriver26getNetworkSelectionSettingEN10subscriber7SimSlotE
|| __TEXT.__text __ZN27IBINetworkListCommandDriver27handlePlmnModeBitIndicationEPhj
|| __TEXT.__text __ZN27IBINetworkListCommandDriver30handleManualPlmnModeIndicationEPhj
|| __TEXT.__text __ZN27IBINetworkListCommandDriver31handleIncrementalScanIndicationEPhj
|| __TEXT.__text __ZN27IBINetworkListCommandDriver32handleNetworkAttachResponse_syncEPKhjN10subscriber7SimSlotE20NetworkSelectionModeN8dispatch13group_sessionE
|| __TEXT.__text __ZN27IBINetworkListCommandDriver5startEv
|| __TEXT.__text __ZN27IBINetworkListCommandDriver6createERKNSt3__110shared_ptrIK8RegistryEEN8dispatch5queueE
|| __TEXT.__text __ZN27IBINetworkListCommandDriver8shutdownEN8dispatch13group_sessionE
|| __TEXT.__text __ZN27IBINetworkListCommandDriver9bootstrapEN8dispatch13group_sessionEN3xpc8endpointENSt3__110shared_ptrI41NetworkListCommandDriverDelegateInterfaceEE
|| __TEXT.__text __ZN27IBINetworkListCommandDriverC1ERKNSt3__110shared_ptrIK8RegistryEEN8dispatch5queueE
|| __TEXT.__text __ZN27IBINetworkListCommandDriverC2ERKNSt3__110shared_ptrIK8RegistryEEN8dispatch5queueE
|| __TEXT.__text __ZN27IBINetworkListCommandDriverD0Ev
|| __TEXT.__text __ZN27IBINetworkListCommandDriverD1Ev
|| __TEXT.__text __ZN27IBINetworkListCommandDriverD2Ev
|| __TEXT.__text __ZN28EmergencyCellSearchOperation19setE911SearchResultERK14E911StateReady
|| __TEXT.__text __ZN28EmergencyCellSearchOperationC1EPKN3ctu11OsLogLoggerENSt3__110shared_ptrI46NetworkRegistrationDriverEventHandlerInterfaceEE
|| __TEXT.__text __ZN28EmergencyCellSearchOperationC2EPKN3ctu11OsLogLoggerENSt3__110shared_ptrI46NetworkRegistrationDriverEventHandlerInterfaceEE
|| __TEXT.__text __ZN28EmergencyCellSearchOperationD1Ev
|| __TEXT.__text __ZN28EmergencyCellSearchOperationD2Ev
|| __TEXT.__text __ZN28IBICDMASettingsCommandDriver13resetCallBackEv
|| __TEXT.__text __ZN28IBICDMASettingsCommandDriver15dialSettingCallEN10subscriber7SimSlotERKNSt3__112basic_stringIcNS2_11char_traitsIcEENS2_9allocatorIcEEEENS2_8functionIFvvEEE
|| __TEXT.__text __ZN28IBICDMASettingsCommandDriver23handleVoiceDialCallRespEPKhj
|| __TEXT.__text __ZN28IBICDMASettingsCommandDriver30handleCallDisconnectedInd_syncEPKhj
|| __TEXT.__text __ZN28IBICDMASettingsCommandDriver4initEv
|| __TEXT.__text __ZN28IBICDMASettingsCommandDriver4stopEv
|| __TEXT.__text __ZN28IBICDMASettingsCommandDriver5startEv
|| __TEXT.__text __ZN28IBICDMASettingsCommandDriver6createERKNSt3__110shared_ptrIK8RegistryEEN8dispatch5queueE
|| __TEXT.__text __ZN28IBICDMASettingsCommandDriverC1ERKNSt3__110shared_ptrIK8RegistryEEN8dispatch5queueE
|| __TEXT.__text __ZN28IBICDMASettingsCommandDriverC2ERKNSt3__110shared_ptrIK8RegistryEEN8dispatch5queueE
|| __TEXT.__text __ZN28IBIWiFiSettingsCommandDriver15sendNetworkInfoENSt3__112basic_stringIcNS0_11char_traitsIcEENS0_9allocatorIcEEEES6_
|| __TEXT.__text __ZN28IBIWiFiSettingsCommandDriver4stopEN8dispatch13group_sessionE
|| __TEXT.__text __ZN28IBIWiFiSettingsCommandDriver5startEv
|| __TEXT.__text __ZN28IBIWiFiSettingsCommandDriver6createERKNSt3__110shared_ptrIK8RegistryEEN8dispatch5queueE
|| __TEXT.__text __ZN28IBIWiFiSettingsCommandDriver9bootstrapEN8dispatch13group_sessionEN3xpc10connectionENSt3__110shared_ptrI42WiFiSettingsCommandDriverDelegateInterfaceEE
|| __TEXT.__text __ZN28IBIWiFiSettingsCommandDriverC1ERKNSt3__110shared_ptrIK8RegistryEEN8dispatch5queueE
|| __TEXT.__text __ZN28IBIWiFiSettingsCommandDriverC2ERKNSt3__110shared_ptrIK8RegistryEEN8dispatch5queueE
|| __TEXT.__text __ZN33IBIPreferredNetworksCommandDriver20sendPreferredPlmnCRCEj
|| __TEXT.__text __ZN33IBIPreferredNetworksCommandDriver21sendPreferredPlmnListEhhRKNSt3__16vectorI16PlmnPriorityDataNS0_9allocatorIS2_EEEE
|| __TEXT.__text __ZN33IBIPreferredNetworksCommandDriver6createENSt3__110shared_ptrIK8RegistryEEN8dispatch5queueEN10subscriber7SimSlotENS1_IN3ibi6ClientEEE
|| __TEXT.__text __ZN33IBIPreferredNetworksCommandDriverC1ERKNSt3__110shared_ptrIK8RegistryEEN8dispatch5queueEN10subscriber7SimSlotENS1_IN3ibi6ClientEEE
|| __TEXT.__text __ZN33IBIPreferredNetworksCommandDriverC2ERKNSt3__110shared_ptrIK8RegistryEEN8dispatch5queueEN10subscriber7SimSlotENS1_IN3ibi6ClientEEE
|| __TEXT.__text __ZN33IBIPreferredNetworksCommandDriverD0Ev
|| __TEXT.__text __ZN33IBIPreferredNetworksCommandDriverD1Ev
|| __TEXT.__text __ZN33IBIPreferredNetworksCommandDriverD2Ev
|| __TEXT.__text __ZN3awd19IBIAwdCommandDriver12checkIn_syncENSt3__110shared_ptrINS_10AppContextEEE
|| __TEXT.__text __ZN3awd19IBIAwdCommandDriver13checkOut_syncENSt3__110shared_ptrINS_10AppContextEEE
|| __TEXT.__text __ZN3awd19IBIAwdCommandDriver24handleClientStarted_syncEv
|| __TEXT.__text __ZN3awd19IBIAwdCommandDriver24handleClientStopped_syncEv
|| __TEXT.__text __ZN3awd19IBIAwdCommandDriver5startEv
|| __TEXT.__text __ZN3awd19IBIAwdCommandDriver6createERKNSt3__110shared_ptrIK8RegistryEEON8dispatch8workloopE
|| __TEXT.__text __ZN3awd19IBIAwdCommandDriver8shutdownEN8dispatch13group_sessionE
|| __TEXT.__text __ZN3awd19IBIAwdCommandDriver9bootstrapEN8dispatch13group_sessionE
|| __TEXT.__text __ZN3awd19IBIAwdCommandDriverC1ERKNSt3__110shared_ptrIK8RegistryEEON8dispatch8workloopE
|| __TEXT.__text __ZN3awd19IBIAwdCommandDriverC2ERKNSt3__110shared_ptrIK8RegistryEEON8dispatch8workloopE
|| __TEXT.__text __ZN40IBIPreferredNetworksFactoryCommandDriver19createCommandDriverEN10subscriber7SimSlotE
|| __TEXT.__text __ZN40IBIPreferredNetworksFactoryCommandDriver24handleClientStarted_syncEv
|| __TEXT.__text __ZN40IBIPreferredNetworksFactoryCommandDriver24handleClientStopped_syncEv
|| __TEXT.__text __ZN40IBIPreferredNetworksFactoryCommandDriver29stopCommandDriverEventHandlerEv
|| __TEXT.__text __ZN40IBIPreferredNetworksFactoryCommandDriver30startCommandDriverEventHandlerEv
|| __TEXT.__text __ZN40IBIPreferredNetworksFactoryCommandDriver34bootstrapCommandDriverEventHandlerEv
|| __TEXT.__text __ZN40IBIPreferredNetworksFactoryCommandDriver6createENSt3__110shared_ptrIK8RegistryEEN8dispatch5queueE
|| __TEXT.__text __ZN40IBIPreferredNetworksFactoryCommandDriverC1ENSt3__110shared_ptrIK8RegistryEEN8dispatch5queueE
|| __TEXT.__text __ZN40IBIPreferredNetworksFactoryCommandDriverC2ENSt3__110shared_ptrIK8RegistryEEN8dispatch5queueE
|| __TEXT.__text __ZN40IBIPreferredNetworksFactoryCommandDriverD0Ev
|| __TEXT.__text __ZN40IBIPreferredNetworksFactoryCommandDriverD1Ev
|| __TEXT.__text __ZN40IBIPreferredNetworksFactoryCommandDriverD2Ev
|| __TEXT.__text __ZN8dormancy17IBIDormancyHelper4initEv
|| __TEXT.__text __ZN8dormancy17IBIDormancyHelper6createERKNSt3__110shared_ptrIK8RegistryEEN8dispatch5queueE
|| __TEXT.__text __ZN8dormancy17IBIDormancyHelperC1ERKNSt3__110shared_ptrIK8RegistryEEN8dispatch5queueE
|| __TEXT.__text __ZN8dormancy17IBIDormancyHelperC2ERKNSt3__110shared_ptrIK8RegistryEEN8dispatch5queueE
|| __TEXT.__text __ZN8dormancy17IBIDormancyHelperD1Ev
|| __TEXT.__text __ZN8dormancy17IBIDormancyHelperD2Ev
|| __TEXT.__text __ZNK20IBICallCommandDriver18findCallCapabilityEPKcN10subscriber7SimSlotE
|| __TEXT.__text __ZNK20IBICallCommandDriver18isMMIUSSDSupportedEN10subscriber7SimSlotE
|| __TEXT.__text __ZNK20IBICallCommandDriver19carrierSupportsCDMAEN10subscriber7SimSlotE
|| __TEXT.__text __ZNK20IBICallCommandDriver20updateWifiCallStatusERK9CallStateN10subscriber7SimSlotEb
|| __TEXT.__text __ZNK20IBICallCommandDriver21deviceTypeForInstanceEN10subscriber7SimSlotE
|| __TEXT.__text __ZNK20IBICallCommandDriver21updateVoLTECallStatusEN3nas13ImsCallStatusEN10subscriber7SimSlotE8CSIErrorb
|| __TEXT.__text __ZNK20IBICallCommandDriver22getAllCallCapabilitiesEN10subscriber7SimSlotE
|| __TEXT.__text __ZNK20IBICallCommandDriver23supportsCallSwapWhenMaxEN10subscriber7SimSlotE
|| __TEXT.__text __ZNK20IBICallCommandDriver24getCallCommandDriverTypeEv
|| __TEXT.__text __ZNK20IBICallCommandDriver28areVoiceCallsAllowedRightNowEv
|| __TEXT.__text __ZNK20IBICallCommandDriver30isUSSDFeatureSupportedByDriverEN10subscriber7SimSlotE
|| __TEXT.__text __ZNK20IBICallCommandDriver36getPreferredWirelessTechnologyForSimEN10subscriber7SimSlotE
|| __TEXT.__text __ZNK20IBICallCommandDriver9dumpStateEv
|| __TEXT.__text __ZNK28IBICDMASettingsCommandDriver7getNameEv
|| __TEXT.__text __ZNK33IBIPreferredNetworksCommandDriver7getNameEv
|| __TEXT.__text __ZNK3awd19IBIAwdCommandDriver19sendQueriableMetricENSt3__110shared_ptrINS_10AppContextEEEjjjN8dispatch5blockIU13block_pointerFvbEEE
|| __TEXT.__text __ZNK3awd19IBIAwdCommandDriver19sendQueriableMetricENSt3__110shared_ptrINS_10AppContextEEEjjjjjN8dispatch5blockIU13block_pointerFvbEEE
|| __TEXT.__text __ZNK3awd19IBIAwdCommandDriver20sendAddConfigurationENSt3__110shared_ptrINS_10AppContextEEENS_11PayloadTypeERKNS1_6vectorIhNS1_9allocatorIhEEEEN8dispatch5blockIU13block_pointerFvbEEE
|| __TEXT.__text __ZNK3awd19IBIAwdCommandDriver20sendUpdatePropertiesENSt3__110shared_ptrINS_10AppContextEEEN8dispatch5blockIU13block_pointerFvbEEE
|| __TEXT.__text __ZNK3awd19IBIAwdCommandDriver21sendGlobalSwitch_syncEb
|| __TEXT.__text __ZNK3awd19IBIAwdCommandDriver22sendClearConfigurationENSt3__110shared_ptrINS_10AppContextEEEN8dispatch5blockIU13block_pointerFvbEEE
|| __TEXT.__text __ZNK3awd19IBIAwdCommandDriver26sendEnableMetricSubmissionENSt3__110shared_ptrINS_10AppContextEEEbN8dispatch5blockIU13block_pointerFvbEEE
|| __TEXT.__text __ZNK3awd19IBIAwdCommandDriver30handleMetricSubmissionInd_syncEPKhj
|| __TEXT.__text __ZNK3awd19IBIAwdCommandDriver31handleTriggerSubmissionInd_syncEPKhj
|| __TEXT.__text __ZNK40IBIPreferredNetworksFactoryCommandDriver7getNameEv
|| __TEXT.__text __ZNK8dormancy17IBIDormancyHelper15requestDormancyEN10subscriber7SimSlotENSt3__110shared_ptrIN3ibi6ClientEEEbU13block_pointerFvbiE
|| __TEXT.__text __ZNK8dormancy17IBIDormancyHelper20requestDormancyStateEN10subscriber7SimSlotENSt3__110shared_ptrIN3ibi6ClientEEEU13block_pointerFvS2_14DormancyStatusRKNS3_12basic_stringIcNS3_11char_traitsIcEENS3_9allocatorIcEEEEE
|| __TEXT.__text __ZNK8dormancy17IBIDormancyHelper20requestDormancyStateENSt3__110shared_ptrI21DataInstanceICEClientEEU13block_pointerFvN10subscriber7SimSlotE14DormancyStatusRKNS1_12basic_stringIcNS1_11char_traitsIcEENS1_9allocatorIcEEEEE
|| __TEXT.__text __ZNK8dormancy17IBIDormancyHelper22sendPortFiltersRequestEN10subscriber7SimSlotENSt3__110shared_ptrIN3ibi6ClientEEENS4_I25InterfaceAppMapperServiceEEbRKNS3_3mapIiNS3_6vectorINS_6FilterENS3_9allocatorISC_EEEENS3_4lessIiEENSD_INS3_4pairIKiSF_EEEEEEU13block_pointerFvbiiE
|| __TEXT.__text __ZNK8dormancy17IBIDormancyHelper26regDormancyStateIndicationENSt3__110shared_ptrIN3ibi6ClientEEEU13block_pointerFvN10subscriber7SimSlotE14DormancyStatusRKNS1_12basic_stringIcNS1_11char_traitsIcEENS1_9allocatorIcEEEEE
|| __TEXT.__text __ZNK8dormancy17IBIDormancyHelper7addItemERNSt3__13mapIiNS1_6vectorINS_6FilterENS1_9allocatorIS4_EEEENS1_4lessIiEENS5_INS1_4pairIKiS7_EEEEEEj18DataProtocolFamily12ProtocolTypet
|| __TEXT.__text __ZThn24_N40IBIPreferredNetworksFactoryCommandDriverD0Ev
|| __TEXT.__text __ZThn24_N40IBIPreferredNetworksFactoryCommandDriverD1Ev
|| __TEXT.__text __ZThn40_N33IBIPreferredNetworksCommandDriverD0Ev
|| __TEXT.__text __ZThn40_N33IBIPreferredNetworksCommandDriverD1Ev
__ CoreFoundation: _CFArrayAppendValue
__ CoreFoundation: _CFArrayCreateMutable
__ CoreFoundation: _CFArrayGetCount
__ CoreFoundation: _CFArrayGetTypeID
__ CoreFoundation: _CFArrayGetValueAtIndex
__ CoreFoundation: _CFBooleanGetTypeID
__ CoreFoundation: _CFDataGetBytePtr
__ CoreFoundation: _CFDataGetLength
__ CoreFoundation: _CFDataGetTypeID
__ CoreFoundation: _CFDictionaryAddValue
__ CoreFoundation: _CFDictionaryCreateMutable
__ CoreFoundation: _CFDictionaryCreateMutableCopy
__ CoreFoundation: _CFDictionaryGetTypeID
__ CoreFoundation: _CFDictionaryGetValue
__ CoreFoundation: _CFDictionaryReplaceValue
__ CoreFoundation: _CFDictionarySetValue
__ CoreFoundation: _CFGetTypeID
__ CoreFoundation: _CFNumberCreate
__ CoreFoundation: _CFNumberGetTypeID
__ CoreFoundation: _CFPreferencesCopyValue
__ CoreFoundation: _CFRelease
__ CoreFoundation: _CFRetain
__ CoreFoundation: _CFStringGetTypeID
__ CoreFoundation: ___CFConstantStringClassReference
__ CoreFoundation: _kCFAllocatorDefault
__ CoreFoundation: _kCFBooleanFalse
__ CoreFoundation: _kCFBooleanTrue
__ CoreFoundation: _kCFPreferencesAnyHost
__ CoreFoundation: _kCFPreferencesCurrentUser
__ CoreFoundation: _kCFTypeArrayCallBacks
__ CoreFoundation: _kCFTypeDictionaryKeyCallBacks
__ CoreFoundation: _kCFTypeDictionaryValueCallBacks
__ libARI.dylib: __Z8asString11IBICbsCause
__ libARI.dylib: __Z8asString11IBINetError
__ libARI.dylib: __Z8asString13IBICellErrorT
__ libARI.dylib: __Z8asString13IBISsUssdType
__ libARI.dylib: __Z8asString14AriResult_enum
__ libARI.dylib: __Z8asString14IBIMessageMode
__ libARI.dylib: __Z8asString14IBISimPbResult
__ libARI.dylib: __Z8asString15IBICallCsStatus
__ libARI.dylib: __Z8asString15IBINetUserCause
__ libARI.dylib: __Z8asString15IBISimChvStatus
__ libARI.dylib: __Z8asString15IBISimPinStatus
__ libARI.dylib: __Z8asString16IBINetDuplexMode
__ libARI.dylib: __Z8asString16IBISimGenResType
__ libARI.dylib: __Z8asString16IBISimPbLocation
__ libARI.dylib: __Z8asString16IBISmsSendResult
__ libARI.dylib: __Z8asString17IBICallCsClirMode
__ libARI.dylib: __Z8asString18IBIPriGriWriteResp
__ libARI.dylib: __Z8asString18IBISimUpdateStatus
__ libARI.dylib: __Z8asString19IBICallCsErrorCause
__ libARI.dylib: __Z8asString19IBISimAccessAppType
__ libARI.dylib: __Z8asString19IBISimPbCacheStatus
__ libARI.dylib: __Z8asString20IBICdmaSmsErrorCause
__ libARI.dylib: __Z8asString20IBICommonReturnCodes
__ libARI.dylib: __Z8asString20IBISimAccessSimState
__ libARI.dylib: __Z8asString20IBISimPbLocationInfo
__ libARI.dylib: __Z8asString20IBISimTkEnvelopeType
__ libARI.dylib: __Z8asString20IBISsNetworkGsmCause
__ libARI.dylib: __Z8asString20IBISsOperationResult
__ libARI.dylib: __Z8asString22IBICallCsTtyDeviceMode
__ libARI.dylib: __Z8asString22IBISimPbUsimPbLocation
__ libARI.dylib: __Z8asString22IBISimTkProactiveCause
__ libARI.dylib: __Z8asString22IBISsNetworkErrorCause
__ libARI.dylib: __Z8asString23IBISimApduCmdResultType
__ libARI.dylib: __Z8asString23IBISsNetworkRejectCause
__ libARI.dylib: __Z8asString24IBINetRegistrationStatus
__ libARI.dylib: __Z8asString24IBISimTkProactiveCmdType
__ libARI.dylib: __Z8asString27IBICallCsVoimsSrvccHoStatus
__ libARI.dylib: __Z8asString27IBINetGetPlmnNameInfoResult
__ libARI.dylib: __Z8asString27IBISimTkProactiveCmdHandler
__ libARI.dylib: __Z8asString29IBINetEmergencyCellInfoResult
__ libARI.dylib: __Z8asString30IBICallPsNotificationIndicator
__ libARI.dylib: __Z8asString40IBICallCsEmergencyCallIntermediateStatus
__ libARI.dylib: __Z8asString6IBIRat
__ libARI.dylib: __ZN3Ari10MsgDefByIdEjj
__ libARI.dylib: __ZN3Ari11MsgNameByIdEj
__ libARI.dylib: __ZN3Ari3LogEjPKcz
__ libARI.dylib: __ZN6AriMsg10GetBufGmidEPKhm
__ libARI.dylib: __ZN6AriMsg6unpackEjPvmPbPm
__ libARI.dylib: __ZN6AriMsg9GetBufCtxEPKhm
__ libARI.dylib: __ZN6AriMsgC1EPKhj
__ libARI.dylib: __ZN6AriMsgD1Ev
__ libARI.dylib: __ZN6AriOsa10LogSrcInfoEPKcS1_
__ libARI.dylib: __ZN6AriSdk14ARI_AriACK_SDK6unpackEv
__ libARI.dylib: __ZN6AriSdk14ARI_AriACK_SDKC1EPKhj
__ libARI.dylib: __ZN6AriSdk14ARI_AriACK_SDKD1Ev
__ libARI.dylib: __ZN6AriSdk15ARI_AriNACK_SDK6unpackEv
__ libARI.dylib: __ZN6AriSdk15ARI_AriNACK_SDKC1EPKhj
__ libARI.dylib: __ZN6AriSdk15ARI_AriNACK_SDKC1Ev
__ libARI.dylib: __ZN6AriSdk15ARI_AriNACK_SDKD1Ev
__ libARI.dylib: __ZN6AriSdk20ARI_IBISimTkInit_SDKC1Ev
__ libARI.dylib: __ZN6AriSdk20ARI_IBISimTkInit_SDKD1Ev
__ libARI.dylib: __ZN6AriSdk21ARI_IBISsAbortReq_SDKC1Ev
__ libARI.dylib: __ZN6AriSdk21ARI_IBISsAbortReq_SDKD1Ev
__ libARI.dylib: __ZN6AriSdk22ARI_IBICbsMsgIndCb_SDK6unpackEv
__ libARI.dylib: __ZN6AriSdk22ARI_IBICbsMsgIndCb_SDKC1EPKhj
__ libARI.dylib: __ZN6AriSdk22ARI_IBICbsMsgIndCb_SDKD1Ev
__ libARI.dylib: __ZN6AriSdk22ARI_IBISsUssdIndCb_SDK6unpackEv
__ libARI.dylib: __ZN6AriSdk22ARI_IBISsUssdIndCb_SDKC1EPKhj
__ libARI.dylib: __ZN6AriSdk22ARI_IBISsUssdIndCb_SDKD1Ev
__ libARI.dylib: __ZN6AriSdk23ARI_CsiAwdsQueryReq_SDKC1Ev
__ libARI.dylib: __ZN6AriSdk23ARI_CsiAwdsQueryReq_SDKD1Ev
__ libARI.dylib: __ZN6AriSdk23ARI_IBICbsConfigReq_SDKC1Ev
__ libARI.dylib: __ZN6AriSdk23ARI_IBICbsConfigReq_SDKD1Ev
__ libARI.dylib: __ZN6AriSdk23ARI_IBISetFilterReq_SDKC1Ev
__ libARI.dylib: __ZN6AriSdk23ARI_IBISetFilterReq_SDKD1Ev
__ libARI.dylib: __ZN6AriSdk23ARI_IBISimGenPinReq_SDKC1Ev
__ libARI.dylib: __ZN6AriSdk23ARI_IBISimGenPinReq_SDKD1Ev
__ libARI.dylib: __ZN6AriSdk23ARI_IBISsAbortRspCb_SDK6unpackEv
__ libARI.dylib: __ZN6AriSdk23ARI_IBISsAbortRspCb_SDKC1EPKhj
__ libARI.dylib: __ZN6AriSdk23ARI_IBISsAbortRspCb_SDKD1Ev
__ libARI.dylib: __ZN6AriSdk23ARI_IBIVinylTapeReq_SDKC1Ev
__ libARI.dylib: __ZN6AriSdk23ARI_IBIVinylTapeReq_SDKD1Ev
__ libARI.dylib: __ZN6AriSdk24ARI_CsiSecGetSNUMReq_SDKC1Ev
__ libARI.dylib: __ZN6AriSdk24ARI_CsiSecGetSNUMReq_SDKD1Ev
__ libARI.dylib: __ZN6AriSdk24ARI_IBICallCsCrssReq_SDKC1Ev
__ libARI.dylib: __ZN6AriSdk24ARI_IBICallCsCrssReq_SDKD1Ev
__ libARI.dylib: __ZN6AriSdk24ARI_IBIMSimConfigReq_SDKC1Ev
__ libARI.dylib: __ZN6AriSdk24ARI_IBIMSimConfigReq_SDKD1Ev
__ libARI.dylib: __ZN6AriSdk24ARI_IBINetSetECBMReq_SDKC1Ev
__ libARI.dylib: __ZN6AriSdk24ARI_IBINetSetECBMReq_SDKD1Ev
__ libARI.dylib: __ZN6AriSdk24ARI_IBIP2PMsgPushReq_SDKC1Ev
__ libARI.dylib: __ZN6AriSdk24ARI_IBIP2PMsgPushReq_SDKD1Ev
__ libARI.dylib: __ZN6AriSdk24ARI_IBIPriRefreshReq_SDKC1Ev
__ libARI.dylib: __ZN6AriSdk24ARI_IBIPriRefreshReq_SDKD1Ev
__ libARI.dylib: __ZN6AriSdk24ARI_IBISmsSendReq_V2_SDKC1Ev
__ libARI.dylib: __ZN6AriSdk24ARI_IBISmsSendReq_V2_SDKD1Ev
__ libARI.dylib: __ZN6AriSdk25ARI_CsiAwdsQueryRspCb_SDK6unpackEv
__ libARI.dylib: __ZN6AriSdk25ARI_CsiAwdsQueryRspCb_SDKC1EPKhj
__ libARI.dylib: __ZN6AriSdk25ARI_CsiAwdsQueryRspCb_SDKD1Ev
__ libARI.dylib: __ZN6AriSdk25ARI_IBICallPsPdnStats_SDKC1Ev
__ libARI.dylib: __ZN6AriSdk25ARI_IBICallPsPdnStats_SDKD1Ev
__ libARI.dylib: __ZN6AriSdk25ARI_IBICbsConfigRspCb_SDK6unpackEv
__ libARI.dylib: __ZN6AriSdk25ARI_IBICbsConfigRspCb_SDKC1EPKhj
__ libARI.dylib: __ZN6AriSdk25ARI_IBICbsConfigRspCb_SDKD1Ev
__ libARI.dylib: __ZN6AriSdk25ARI_IBILapsFetchIndCb_SDK6unpackEv
__ libARI.dylib: __ZN6AriSdk25ARI_IBILapsFetchIndCb_SDKC1EPKhj
__ libARI.dylib: __ZN6AriSdk25ARI_IBILapsFetchIndCb_SDKD1Ev
__ libARI.dylib: __ZN6AriSdk25ARI_IBIPriWriteReq_V2_SDKC1Ev
__ libARI.dylib: __ZN6AriSdk25ARI_IBIPriWriteReq_V2_SDKD1Ev
__ libARI.dylib: __ZN6AriSdk25ARI_IBISetFilterRspCb_SDK6unpackEv
__ libARI.dylib: __ZN6AriSdk25ARI_IBISetFilterRspCb_SDKC1EPKhj
__ libARI.dylib: __ZN6AriSdk25ARI_IBISetFilterRspCb_SDKD1Ev
__ libARI.dylib: __ZN6AriSdk25ARI_IBISimGenPinRspCb_SDK6unpackEv
__ libARI.dylib: __ZN6AriSdk25ARI_IBISimGenPinRspCb_SDKC1EPKhj
__ libARI.dylib: __ZN6AriSdk25ARI_IBISimGenPinRspCb_SDKD1Ev
__ libARI.dylib: __ZN6AriSdk25ARI_IBISimGetEfSmsReq_SDKC1Ev
__ libARI.dylib: __ZN6AriSdk25ARI_IBISimGetEfSmsReq_SDKD1Ev
__ libARI.dylib: __ZN6AriSdk25ARI_IBIVinylGetEidReq_SDKC1Ev
__ libARI.dylib: __ZN6AriSdk25ARI_IBIVinylGetEidReq_SDKD1Ev
__ libARI.dylib: __ZN6AriSdk25ARI_IBIVinylTapeIndCb_SDK6unpackEv
__ libARI.dylib: __ZN6AriSdk25ARI_IBIVinylTapeIndCb_SDKC1EPKhj
__ libARI.dylib: __ZN6AriSdk25ARI_IBIVinylTapeIndCb_SDKD1Ev
__ libARI.dylib: __ZN6AriSdk25ARI_IBIVinylTapeRspCb_SDK6unpackEv
__ libARI.dylib: __ZN6AriSdk25ARI_IBIVinylTapeRspCb_SDKC1EPKhj
__ libARI.dylib: __ZN6AriSdk25ARI_IBIVinylTapeRspCb_SDKD1Ev
__ libARI.dylib: __ZN6AriSdk26ARI_CsiSecGetChipIdReq_SDKC1Ev
__ libARI.dylib: __ZN6AriSdk26ARI_CsiSecGetChipIdReq_SDKD1Ev
__ libARI.dylib: __ZN6AriSdk26ARI_CsiSecGetSNUMRspCb_SDK6unpackEv
__ libARI.dylib: __ZN6AriSdk26ARI_CsiSecGetSNUMRspCb_SDKC1EPKhj
__ libARI.dylib: __ZN6AriSdk26ARI_CsiSecGetSNUMRspCb_SDKD1Ev
__ libARI.dylib: __ZN6AriSdk26ARI_IBICallCsCrssRspCb_SDK6unpackEv
__ libARI.dylib: __ZN6AriSdk26ARI_IBICallCsCrssRspCb_SDKC1EPKhj
__ libARI.dylib: __ZN6AriSdk26ARI_IBICallCsCrssRspCb_SDKD1Ev
__ libARI.dylib: __ZN6AriSdk26ARI_IBICbsGetConfigReq_SDKC1Ev
__ libARI.dylib: __ZN6AriSdk26ARI_IBICbsGetConfigReq_SDKD1Ev
__ libARI.dylib: __ZN6AriSdk26ARI_IBIMSimConfigIndCb_SDK6unpackEv
__ libARI.dylib: __ZN6AriSdk26ARI_IBIMSimConfigIndCb_SDKC1EPKhj
__ libARI.dylib: __ZN6AriSdk26ARI_IBIMSimConfigIndCb_SDKD1Ev
__ libARI.dylib: __ZN6AriSdk26ARI_IBIMSimConfigRspCb_SDK6unpackEv
__ libARI.dylib: __ZN6AriSdk26ARI_IBIMSimConfigRspCb_SDKC1EPKhj
__ libARI.dylib: __ZN6AriSdk26ARI_IBIMSimConfigRspCb_SDKD1Ev
__ libARI.dylib: __ZN6AriSdk26ARI_IBINetAttachReq_V1_SDKC1Ev
__ libARI.dylib: __ZN6AriSdk26ARI_IBINetAttachReq_V1_SDKD1Ev
__ libARI.dylib: __ZN6AriSdk26ARI_IBINetSetECBMIndCb_SDK6unpackEv
__ libARI.dylib: __ZN6AriSdk26ARI_IBINetSetECBMIndCb_SDKC1EPKhj
__ libARI.dylib: __ZN6AriSdk26ARI_IBINetSetECBMIndCb_SDKD1Ev
__ libARI.dylib: __ZN6AriSdk26ARI_IBINetSetECBMRspCb_SDK6unpackEv
__ libARI.dylib: __ZN6AriSdk26ARI_IBINetSetECBMRspCb_SDKC1EPKhj
__ libARI.dylib: __ZN6AriSdk26ARI_IBINetSetECBMRspCb_SDKD1Ev
__ libARI.dylib: __ZN6AriSdk26ARI_IBIP2PMessageIndCb_SDK6unpackEv
__ libARI.dylib: __ZN6AriSdk26ARI_IBIP2PMessageIndCb_SDKC1EPKhj
__ libARI.dylib: __ZN6AriSdk26ARI_IBIP2PMessageIndCb_SDKD1Ev
__ libARI.dylib: __ZN6AriSdk26ARI_IBIP2PMsgPushRspCb_SDK6unpackEv
__ libARI.dylib: __ZN6AriSdk26ARI_IBIP2PMsgPushRspCb_SDKC1EPKhj
__ libARI.dylib: __ZN6AriSdk26ARI_IBIP2PMsgPushRspCb_SDKD1Ev
__ libARI.dylib: __ZN6AriSdk26ARI_IBIPriRefreshRspCb_SDK6unpackEv
__ libARI.dylib: __ZN6AriSdk26ARI_IBIPriRefreshRspCb_SDKC1EPKhj
__ libARI.dylib: __ZN6AriSdk26ARI_IBIPriRefreshRspCb_SDKD1Ev
__ libARI.dylib: __ZN6AriSdk26ARI_IBISimAccessFcpReq_SDKC1Ev
__ libARI.dylib: __ZN6AriSdk26ARI_IBISimAccessFcpReq_SDKD1Ev
__ libARI.dylib: __ZN6AriSdk26ARI_IBISimEccListIndCb_SDK6unpackEv
__ libARI.dylib: __ZN6AriSdk26ARI_IBISimEccListIndCb_SDKC1EPKhj
__ libARI.dylib: __ZN6AriSdk26ARI_IBISimEccListIndCb_SDKD1Ev
__ libARI.dylib: __ZN6AriSdk26ARI_IBISimHwEventIndCb_SDK6unpackEv
__ libARI.dylib: __ZN6AriSdk26ARI_IBISimHwEventIndCb_SDKC1EPKhj
__ libARI.dylib: __ZN6AriSdk26ARI_IBISimHwEventIndCb_SDKD1Ev
__ libARI.dylib: __ZN6AriSdk26ARI_IBISimMsgListIndCb_SDK6unpackEv
__ libARI.dylib: __ZN6AriSdk26ARI_IBISimMsgListIndCb_SDKC1EPKhj
__ libARI.dylib: __ZN6AriSdk26ARI_IBISimMsgListIndCb_SDKD1Ev
__ libARI.dylib: __ZN6AriSdk26ARI_IBISmsSendRspCb_V2_SDK6unpackEv
__ libARI.dylib: __ZN6AriSdk26ARI_IBISmsSendRspCb_V2_SDKC1EPKhj
__ libARI.dylib: __ZN6AriSdk26ARI_IBISmsSendRspCb_V2_SDKD1Ev
__ libARI.dylib: __ZN6AriSdk26ARI_IBISmsServiceIndCb_SDK6unpackEv
__ libARI.dylib: __ZN6AriSdk26ARI_IBISmsServiceIndCb_SDKC1EPKhj
__ libARI.dylib: __ZN6AriSdk26ARI_IBISmsServiceIndCb_SDKD1Ev
__ libARI.dylib: __ZN6AriSdk26ARI_IBIVinylGetDataReq_SDKC1Ev
__ libARI.dylib: __ZN6AriSdk26ARI_IBIVinylGetDataReq_SDKD1Ev
__ libARI.dylib: __ZN6AriSdk27ARI_CsiAwdsAddConfigReq_SDKC1Ev
__ libARI.dylib: __ZN6AriSdk27ARI_CsiAwdsAddConfigReq_SDKD1Ev
__ libARI.dylib: __ZN6AriSdk27ARI_CsiAwdsMetricSubInd_SDK6unpackEv
__ libARI.dylib: __ZN6AriSdk27ARI_CsiAwdsMetricSubInd_SDKC1EPKhj
__ libARI.dylib: __ZN6AriSdk27ARI_CsiAwdsMetricSubInd_SDKD1Ev
__ libARI.dylib: __ZN6AriSdk27ARI_CsiIceFilerWriteReq_SDKC1Ev
__ libARI.dylib: __ZN6AriSdk27ARI_CsiIceFilerWriteReq_SDKD1Ev
__ libARI.dylib: __ZN6AriSdk27ARI_CsiMsCpsReadImeiReq_SDKC1Ev
__ libARI.dylib: __ZN6AriSdk27ARI_CsiMsCpsReadImeiReq_SDKD1Ev
__ libARI.dylib: __ZN6AriSdk27ARI_IBICallPsRegisterFT_SDKC1Ev
__ libARI.dylib: __ZN6AriSdk27ARI_IBICallPsRegisterFT_SDKD1Ev
__ libARI.dylib: __ZN6AriSdk27ARI_IBIMSimGetConfigReq_SDKC1Ev
__ libARI.dylib: __ZN6AriSdk27ARI_IBIMSimGetConfigReq_SDKD1Ev
__ libARI.dylib: __ZN6AriSdk27ARI_IBINetBandStatusReq_SDKC1Ev
__ libARI.dylib: __ZN6AriSdk27ARI_IBINetBandStatusReq_SDKD1Ev
__ libARI.dylib: __ZN6AriSdk27ARI_IBINetCellInfoIndCb_SDK6unpackEv
__ libARI.dylib: __ZN6AriSdk27ARI_IBINetCellInfoIndCb_SDKC1EPKhj
__ libARI.dylib: __ZN6AriSdk27ARI_IBINetCellInfoIndCb_SDKD1Ev
__ libARI.dylib: __ZN6AriSdk27ARI_IBIPriWriteRspCb_V2_SDK6unpackEv
__ libARI.dylib: __ZN6AriSdk27ARI_IBIPriWriteRspCb_V2_SDKC1EPKhj
__ libARI.dylib: __ZN6AriSdk27ARI_IBIPriWriteRspCb_V2_SDKD1Ev
__ libARI.dylib: __ZN6AriSdk27ARI_IBISendApacsDataReq_SDKC1Ev
__ libARI.dylib: __ZN6AriSdk27ARI_IBISendApacsDataReq_SDKD1Ev
__ libARI.dylib: __ZN6AriSdk27ARI_IBISimGetEccListReq_SDKC1Ev
__ libARI.dylib: __ZN6AriSdk27ARI_IBISimGetEccListReq_SDKD1Ev
__ libARI.dylib: __ZN6AriSdk27ARI_IBISimGetEfSmsRspCb_SDK6unpackEv
__ libARI.dylib: __ZN6AriSdk27ARI_IBISimGetEfSmsRspCb_SDKC1EPKhj
__ libARI.dylib: __ZN6AriSdk27ARI_IBISimGetEfSmsRspCb_SDKD1Ev
__ libARI.dylib: __ZN6AriSdk27ARI_IBISimGetMsgListReq_SDKC1Ev
__ libARI.dylib: __ZN6AriSdk27ARI_IBISimGetMsgListReq_SDKD1Ev
__ libARI.dylib: __ZN6AriSdk27ARI_IBISmsIncomingIndCb_SDK6unpackEv
__ libARI.dylib: __ZN6AriSdk27ARI_IBISmsIncomingIndCb_SDKC1EPKhj
__ libARI.dylib: __ZN6AriSdk27ARI_IBISmsIncomingIndCb_SDKD1Ev
__ libARI.dylib: __ZN6AriSdk27ARI_IBISsCallForwardReq_SDKC1Ev
__ libARI.dylib: __ZN6AriSdk27ARI_IBISsCallForwardReq_SDKD1Ev
__ libARI.dylib: __ZN6AriSdk27ARI_IBISsCallWaitingReq_SDKC1Ev
__ libARI.dylib: __ZN6AriSdk27ARI_IBISsCallWaitingReq_SDKD1Ev
__ libARI.dylib: __ZN6AriSdk27ARI_IBIVinylGetEidRspCb_SDK6unpackEv
__ libARI.dylib: __ZN6AriSdk27ARI_IBIVinylGetEidRspCb_SDKC1EPKhj
__ libARI.dylib: __ZN6AriSdk27ARI_IBIVinylGetEidRspCb_SDKD1Ev
__ libARI.dylib: __ZN6AriSdk27ARI_IBIVinylTapeCapsReq_SDKC1Ev
__ libARI.dylib: __ZN6AriSdk27ARI_IBIVinylTapeCapsReq_SDKD1Ev
__ libARI.dylib: __ZN6AriSdk28ARI_CsiIceAntennaPrefReq_SDKC1Ev
__ libARI.dylib: __ZN6AriSdk28ARI_CsiIceAntennaPrefReq_SDKD1Ev
__ libARI.dylib: __ZN6AriSdk28ARI_CsiIceAudToneStopReq_SDKC1Ev
__ libARI.dylib: __ZN6AriSdk28ARI_CsiIceAudToneStopReq_SDKD1Ev
__ libARI.dylib: __ZN6AriSdk28ARI_CsiSecGetChipIdRspCb_SDK6unpackEv
__ libARI.dylib: __ZN6AriSdk28ARI_CsiSecGetChipIdRspCb_SDKC1EPKhj
__ libARI.dylib: __ZN6AriSdk28ARI_CsiSecGetChipIdRspCb_SDKD1Ev
__ libARI.dylib: __ZN6AriSdk28ARI_IBICallCsHoldCallReq_SDKC1Ev
__ libARI.dylib: __ZN6AriSdk28ARI_IBICallCsHoldCallReq_SDKD1Ev
__ libARI.dylib: __ZN6AriSdk28ARI_IBICallCsStopDtmfReq_SDKC1Ev
__ libARI.dylib: __ZN6AriSdk28ARI_IBICallCsStopDtmfReq_SDKD1Ev
__ libARI.dylib: __ZN6AriSdk28ARI_IBICallPsLqmQueryReq_SDKC1Ev
__ libARI.dylib: __ZN6AriSdk28ARI_IBICallPsLqmQueryReq_SDKD1Ev
__ libARI.dylib: __ZN6AriSdk28ARI_IBICallPsModifyIndCb_SDK6unpackEv
__ libARI.dylib: __ZN6AriSdk28ARI_IBICallPsModifyIndCb_SDKC1EPKhj
__ libARI.dylib: __ZN6AriSdk28ARI_IBICallPsModifyIndCb_SDKD1Ev
__ libARI.dylib: __ZN6AriSdk28ARI_IBICallPsResumeIndCb_SDK6unpackEv
__ libARI.dylib: __ZN6AriSdk28ARI_IBICallPsResumeIndCb_SDKC1EPKhj
__ libARI.dylib: __ZN6AriSdk28ARI_IBICallPsResumeIndCb_SDKD1Ev
__ libARI.dylib: __ZN6AriSdk28ARI_IBICbsGetConfigRspCb_SDK6unpackEv
__ libARI.dylib: __ZN6AriSdk28ARI_IBICbsGetConfigRspCb_SDKC1EPKhj
__ libARI.dylib: __ZN6AriSdk28ARI_IBICbsGetConfigRspCb_SDKD1Ev
__ libARI.dylib: __ZN6AriSdk28ARI_IBIMsSimSetSmsTagReq_SDKC1Ev
__ libARI.dylib: __ZN6AriSdk28ARI_IBIMsSimSetSmsTagReq_SDKD1Ev
__ libARI.dylib: __ZN6AriSdk28ARI_IBINetAttachRspCb_V1_SDK6unpackEv
__ libARI.dylib: __ZN6AriSdk28ARI_IBINetAttachRspCb_V1_SDKC1EPKhj
__ libARI.dylib: __ZN6AriSdk28ARI_IBINetAttachRspCb_V1_SDKD1Ev
__ libARI.dylib: __ZN6AriSdk28ARI_IBINetGetCellInfoReq_SDKC1Ev
__ libARI.dylib: __ZN6AriSdk28ARI_IBINetGetCellInfoReq_SDKD1Ev
__ libARI.dylib: __ZN6AriSdk28ARI_IBINetIceApStatusReq_SDKC1Ev
__ libARI.dylib: __ZN6AriSdk28ARI_IBINetIceApStatusReq_SDKD1Ev
__ libARI.dylib: __ZN6AriSdk28ARI_IBINetIceFdStatusReq_SDKC1Ev
__ libARI.dylib: __ZN6AriSdk28ARI_IBINetIceFdStatusReq_SDKD1Ev
__ libARI.dylib: __ZN6AriSdk28ARI_IBINetTimerInfoIndCb_SDK6unpackEv
__ libARI.dylib: __ZN6AriSdk28ARI_IBINetTimerInfoIndCb_SDKC1EPKhj
__ libARI.dylib: __ZN6AriSdk28ARI_IBINetTimerInfoIndCb_SDKD1Ev
__ libARI.dylib: __ZN6AriSdk28ARI_IBISimAccessFcpRspCb_SDK6unpackEv
__ libARI.dylib: __ZN6AriSdk28ARI_IBISimAccessFcpRspCb_SDKC1EPKhj
__ libARI.dylib: __ZN6AriSdk28ARI_IBISimAccessFcpRspCb_SDKD1Ev
__ libARI.dylib: __ZN6AriSdk28ARI_IBISimApplicationReq_SDKC1Ev
__ libARI.dylib: __ZN6AriSdk28ARI_IBISimApplicationReq_SDKD1Ev
__ libARI.dylib: __ZN6AriSdk28ARI_IBISimPbReadEntryReq_SDKC1Ev
__ libARI.dylib: __ZN6AriSdk28ARI_IBISimPbReadEntryReq_SDKD1Ev
__ libARI.dylib: __ZN6AriSdk28ARI_IBISimSetSmsTagRspCb_SDK6unpackEv
__ libARI.dylib: __ZN6AriSdk28ARI_IBISimSetSmsTagRspCb_SDKC1EPKhj
__ libARI.dylib: __ZN6AriSdk28ARI_IBISimSetSmsTagRspCb_SDKD1Ev
__ libARI.dylib: __ZN6AriSdk28ARI_IBISmsIncomingSmsAck_SDKC1Ev
__ libARI.dylib: __ZN6AriSdk28ARI_IBISmsIncomingSmsAck_SDKD1Ev
__ libARI.dylib: __ZN6AriSdk28ARI_IBISsExtendedUssdReq_SDKC1Ev
__ libARI.dylib: __ZN6AriSdk28ARI_IBISsExtendedUssdReq_SDKD1Ev
__ libARI.dylib: __ZN6AriSdk28ARI_IBIVinylGetDataRspCb_SDK6unpackEv
__ libARI.dylib: __ZN6AriSdk28ARI_IBIVinylGetDataRspCb_SDKC1EPKhj
__ libARI.dylib: __ZN6AriSdk28ARI_IBIVinylGetDataRspCb_SDKD1Ev
__ libARI.dylib: __ZN6AriSdk29ARI_CsiAwdsAddConfigRspCb_SDK6unpackEv
__ libARI.dylib: __ZN6AriSdk29ARI_CsiAwdsAddConfigRspCb_SDKC1EPKhj
__ libARI.dylib: __ZN6AriSdk29ARI_CsiAwdsAddConfigRspCb_SDKD1Ev
__ libARI.dylib: __ZN6AriSdk29ARI_CsiIceAudSetDeviceReq_SDKC1Ev
__ libARI.dylib: __ZN6AriSdk29ARI_CsiIceAudSetDeviceReq_SDKD1Ev
__ libARI.dylib: __ZN6AriSdk29ARI_CsiIceAudToneEndIndCb_SDK6unpackEv
__ libARI.dylib: __ZN6AriSdk29ARI_CsiIceAudToneEndIndCb_SDKC1EPKhj
__ libARI.dylib: __ZN6AriSdk29ARI_CsiIceAudToneEndIndCb_SDKD1Ev
__ libARI.dylib: __ZN6AriSdk29ARI_CsiIceAudToneStartReq_SDKC1Ev
__ libARI.dylib: __ZN6AriSdk29ARI_CsiIceAudToneStartReq_SDKD1Ev
__ libARI.dylib: __ZN6AriSdk29ARI_CsiIceFilerWriteRspCb_SDK6unpackEv
__ libARI.dylib: __ZN6AriSdk29ARI_CsiIceFilerWriteRspCb_SDKC1EPKhj
__ libARI.dylib: __ZN6AriSdk29ARI_CsiIceFilerWriteRspCb_SDKD1Ev
__ libARI.dylib: __ZN6AriSdk29ARI_CsiMsCpsReadImeiRspCb_SDK6unpackEv
__ libARI.dylib: __ZN6AriSdk29ARI_CsiMsCpsReadImeiRspCb_SDKC1EPKhj
__ libARI.dylib: __ZN6AriSdk29ARI_CsiMsCpsReadImeiRspCb_SDKD1Ev
__ libARI.dylib: __ZN6AriSdk29ARI_IBIApacsDataStatusReq_SDKC1Ev
__ libARI.dylib: __ZN6AriSdk29ARI_IBIApacsDataStatusReq_SDKD1Ev
__ libARI.dylib: __ZN6AriSdk29ARI_IBICallCsBurstDtmfReq_SDKC1Ev
__ libARI.dylib: __ZN6AriSdk29ARI_IBICallCsBurstDtmfReq_SDKD1Ev
__ libARI.dylib: __ZN6AriSdk29ARI_IBICallCsJoinCallsReq_SDKC1Ev
__ libARI.dylib: __ZN6AriSdk29ARI_IBICallCsJoinCallsReq_SDKD1Ev
__ libARI.dylib: __ZN6AriSdk29ARI_IBICallCsSplitMptyReq_SDKC1Ev
__ libARI.dylib: __ZN6AriSdk29ARI_IBICallCsSplitMptyReq_SDKD1Ev
__ libARI.dylib: __ZN6AriSdk29ARI_IBICallCsStartDtmfReq_SDKC1Ev
__ libARI.dylib: __ZN6AriSdk29ARI_IBICallCsStartDtmfReq_SDKD1Ev
__ libARI.dylib: __ZN6AriSdk29ARI_IBICallCsSwapCallsReq_SDKC1Ev
__ libARI.dylib: __ZN6AriSdk29ARI_IBICallCsSwapCallsReq_SDKD1Ev
__ libARI.dylib: __ZN6AriSdk29ARI_IBICallPsDeRegisterFT_SDKC1Ev
__ libARI.dylib: __ZN6AriSdk29ARI_IBICallPsDeRegisterFT_SDKD1Ev
__ libARI.dylib: __ZN6AriSdk29ARI_IBICallPsFlushDataReq_SDKC1Ev
__ libARI.dylib: __ZN6AriSdk29ARI_IBICallPsFlushDataReq_SDKD1Ev
__ libARI.dylib: __ZN6AriSdk29ARI_IBICallPsLqmDataIndCb_SDK6unpackEv
__ libARI.dylib: __ZN6AriSdk29ARI_IBICallPsLqmDataIndCb_SDKC1EPKhj
__ libARI.dylib: __ZN6AriSdk29ARI_IBICallPsLqmDataIndCb_SDKD1Ev
__ libARI.dylib: __ZN6AriSdk29ARI_IBICallPsSuspendIndCb_SDK6unpackEv
__ libARI.dylib: __ZN6AriSdk29ARI_IBICallPsSuspendIndCb_SDKC1EPKhj
__ libARI.dylib: __ZN6AriSdk29ARI_IBICallPsSuspendIndCb_SDKD1Ev
__ libARI.dylib: __ZN6AriSdk29ARI_IBICallPsUpdateNaiReq_SDKC1Ev
__ libARI.dylib: __ZN6AriSdk29ARI_IBICallPsUpdateNaiReq_SDKD1Ev
__ libARI.dylib: __ZN6AriSdk29ARI_IBIMSimGetConfigRspCb_SDK6unpackEv
__ libARI.dylib: __ZN6AriSdk29ARI_IBIMSimGetConfigRspCb_SDKC1EPKhj
__ libARI.dylib: __ZN6AriSdk29ARI_IBIMSimGetConfigRspCb_SDKD1Ev
__ libARI.dylib: __ZN6AriSdk29ARI_IBINetBandStatusRspCb_SDK6unpackEv
__ libARI.dylib: __ZN6AriSdk29ARI_IBINetBandStatusRspCb_SDKC1EPKhj
__ libARI.dylib: __ZN6AriSdk29ARI_IBINetBandStatusRspCb_SDKD1Ev
__ libARI.dylib: __ZN6AriSdk29ARI_IBISendApacsDataRspCb_SDK6unpackEv
__ libARI.dylib: __ZN6AriSdk29ARI_IBISendApacsDataRspCb_SDKC1EPKhj
__ libARI.dylib: __ZN6AriSdk29ARI_IBISendApacsDataRspCb_SDKD1Ev
__ libARI.dylib: __ZN6AriSdk29ARI_IBISetRtcEpochTimeReq_SDKC1Ev
__ libARI.dylib: __ZN6AriSdk29ARI_IBISetRtcEpochTimeReq_SDKD1Ev
__ libARI.dylib: __ZN6AriSdk29ARI_IBISimExtendedAuthReq_SDKC1Ev
__ libARI.dylib: __ZN6AriSdk29ARI_IBISimExtendedAuthReq_SDKD1Ev
__ libARI.dylib: __ZN6AriSdk29ARI_IBISimFullAccessIndCb_SDK6unpackEv
__ libARI.dylib: __ZN6AriSdk29ARI_IBISimFullAccessIndCb_SDKC1EPKhj
__ libARI.dylib: __ZN6AriSdk29ARI_IBISimFullAccessIndCb_SDKD1Ev
__ libARI.dylib: __ZN6AriSdk29ARI_IBISimGetEccListRspCb_SDK6unpackEv
__ libARI.dylib: __ZN6AriSdk29ARI_IBISimGetEccListRspCb_SDKC1EPKhj
__ libARI.dylib: __ZN6AriSdk29ARI_IBISimGetEccListRspCb_SDKD1Ev
__ libARI.dylib: __ZN6AriSdk29ARI_IBISimGetMsgListRspCb_SDK6unpackEv
__ libARI.dylib: __ZN6AriSdk29ARI_IBISimGetMsgListRspCb_SDKC1EPKhj
__ libARI.dylib: __ZN6AriSdk29ARI_IBISimGetMsgListRspCb_SDKD1Ev
__ libARI.dylib: __ZN6AriSdk29ARI_IBISimPbWriteEntryReq_SDKC1Ev
__ libARI.dylib: __ZN6AriSdk29ARI_IBISimPbWriteEntryReq_SDKD1Ev
__ libARI.dylib: __ZN6AriSdk29ARI_IBISimTkExecStkCmdRsp_SDKC1Ev
__ libARI.dylib: __ZN6AriSdk29ARI_IBISimTkExecStkCmdRsp_SDKD1Ev
__ libARI.dylib: __ZN6AriSdk29ARI_IBISimTkRefreshFcnRsp_SDKC1Ev
__ libARI.dylib: __ZN6AriSdk29ARI_IBISimTkRefreshFcnRsp_SDKD1Ev
__ libARI.dylib: __ZN6AriSdk29ARI_IBISmsDataDownloadReq_SDKC1Ev
__ libARI.dylib: __ZN6AriSdk29ARI_IBISmsDataDownloadReq_SDKD1Ev
__ libARI.dylib: __ZN6AriSdk29ARI_IBISsCallForwardRspCb_SDK6unpackEv
__ libARI.dylib: __ZN6AriSdk29ARI_IBISsCallForwardRspCb_SDKC1EPKhj
__ libARI.dylib: __ZN6AriSdk29ARI_IBISsCallForwardRspCb_SDKD1Ev
__ libARI.dylib: __ZN6AriSdk29ARI_IBISsCallWaitingRspCb_SDK6unpackEv
__ libARI.dylib: __ZN6AriSdk29ARI_IBISsCallWaitingRspCb_SDKC1EPKhj
__ libARI.dylib: __ZN6AriSdk29ARI_IBISsCallWaitingRspCb_SDKD1Ev
__ libARI.dylib: __ZN6AriSdk29ARI_IBIVinylLPASigningReq_SDKC1Ev
__ libARI.dylib: __ZN6AriSdk29ARI_IBIVinylLPASigningReq_SDKD1Ev
__ libARI.dylib: __ZN6AriSdk29ARI_IBIVinylTapeCapsRspCb_SDK6unpackEv
__ libARI.dylib: __ZN6AriSdk29ARI_IBIVinylTapeCapsRspCb_SDKC1EPKhj
__ libARI.dylib: __ZN6AriSdk29ARI_IBIVinylTapeCapsRspCb_SDKD1Ev
__ libARI.dylib: __ZN6AriSdk30ARI_CsiAwdsDeleteConfigReq_SDKC1Ev
__ libARI.dylib: __ZN6AriSdk30ARI_CsiAwdsDeleteConfigReq_SDKD1Ev
__ libARI.dylib: __ZN6AriSdk30ARI_CsiAwdsGlobalSwitchReq_SDKC1Ev
__ libARI.dylib: __ZN6AriSdk30ARI_CsiAwdsGlobalSwitchReq_SDKD1Ev
__ libARI.dylib: __ZN6AriSdk30ARI_CsiAwdsPiiLocConfigReq_SDKC1Ev
__ libARI.dylib: __ZN6AriSdk30ARI_CsiAwdsPiiLocConfigReq_SDKD1Ev
__ libARI.dylib: __ZN6AriSdk30ARI_CsiIceAntennaPrefRspCb_SDK6unpackEv
__ libARI.dylib: __ZN6AriSdk30ARI_CsiIceAntennaPrefRspCb_SDKC1EPKhj
__ libARI.dylib: __ZN6AriSdk30ARI_CsiIceAntennaPrefRspCb_SDKD1Ev
__ libARI.dylib: __ZN6AriSdk30ARI_IBICallCsAcceptCallReq_SDKC1Ev
__ libARI.dylib: __ZN6AriSdk30ARI_IBICallCsAcceptCallReq_SDKD1Ev
__ libARI.dylib: __ZN6AriSdk30ARI_IBICallCsAutoAnswerReq_SDKC1Ev
__ libARI.dylib: __ZN6AriSdk30ARI_IBICallCsAutoAnswerReq_SDKD1Ev
__ libARI.dylib: __ZN6AriSdk30ARI_IBICallCsHoldCallRspCb_SDK6unpackEv
__ libARI.dylib: __ZN6AriSdk30ARI_IBICallCsHoldCallRspCb_SDKC1EPKhj
__ libARI.dylib: __ZN6AriSdk30ARI_IBICallCsHoldCallRspCb_SDKD1Ev
__ libARI.dylib: __ZN6AriSdk30ARI_IBICallCsStopDtmfIndCb_SDK6unpackEv
__ libARI.dylib: __ZN6AriSdk30ARI_IBICallCsStopDtmfIndCb_SDKC1EPKhj
__ libARI.dylib: __ZN6AriSdk30ARI_IBICallCsStopDtmfIndCb_SDKD1Ev
__ libARI.dylib: __ZN6AriSdk30ARI_IBICallPsDropIPPackets_SDKC1Ev
__ libARI.dylib: __ZN6AriSdk30ARI_IBICallPsDropIPPackets_SDKD1Ev
__ libARI.dylib: __ZN6AriSdk30ARI_IBICallPsLqmQueryRsbCb_SDK6unpackEv
__ libARI.dylib: __ZN6AriSdk30ARI_IBICallPsLqmQueryRsbCb_SDKC1EPKhj
__ libARI.dylib: __ZN6AriSdk30ARI_IBICallPsLqmQueryRsbCb_SDKD1Ev
__ libARI.dylib: __ZN6AriSdk30ARI_IBICallPsVoLTECodecReq_SDKC1Ev
__ libARI.dylib: __ZN6AriSdk30ARI_IBICallPsVoLTECodecReq_SDKD1Ev
__ libARI.dylib: __ZN6AriSdk30ARI_IBINetGetCellInfoIndCb_SDK6unpackEv
__ libARI.dylib: __ZN6AriSdk30ARI_IBINetGetCellInfoIndCb_SDKC1EPKhj
__ libARI.dylib: __ZN6AriSdk30ARI_IBINetGetCellInfoIndCb_SDKD1Ev
__ libARI.dylib: __ZN6AriSdk30ARI_IBINetIceApStatusRspCb_SDK6unpackEv
__ libARI.dylib: __ZN6AriSdk30ARI_IBINetIceApStatusRspCb_SDKC1EPKhj
__ libARI.dylib: __ZN6AriSdk30ARI_IBINetIceApStatusRspCb_SDKD1Ev
__ libARI.dylib: __ZN6AriSdk30ARI_IBINetIceFdReportIndCb_SDK6unpackEv
__ libARI.dylib: __ZN6AriSdk30ARI_IBINetIceFdReportIndCb_SDKC1EPKhj
__ libARI.dylib: __ZN6AriSdk30ARI_IBINetIceFdReportIndCb_SDKD1Ev
__ libARI.dylib: __ZN6AriSdk30ARI_IBINetIceFdStatusCnfCb_SDK6unpackEv
__ libARI.dylib: __ZN6AriSdk30ARI_IBINetIceFdStatusCnfCb_SDKC1EPKhj
__ libARI.dylib: __ZN6AriSdk30ARI_IBINetIceFdStatusCnfCb_SDKD1Ev
__ libARI.dylib: __ZN6AriSdk30ARI_IBINetNitzInfoIndCb_V1_SDK6unpackEv
__ libARI.dylib: __ZN6AriSdk30ARI_IBINetNitzInfoIndCb_V1_SDKC1EPKhj
__ libARI.dylib: __ZN6AriSdk30ARI_IBINetNitzInfoIndCb_V1_SDKD1Ev
__ libARI.dylib: __ZN6AriSdk30ARI_IBINetRadioSignalIndCb_SDK6unpackEv
__ libARI.dylib: __ZN6AriSdk30ARI_IBINetRadioSignalIndCb_SDKC1EPKhj
__ libARI.dylib: __ZN6AriSdk30ARI_IBINetRadioSignalIndCb_SDKD1Ev
__ libARI.dylib: __ZN6AriSdk30ARI_IBINetRatModeStatusReq_SDKC1Ev
__ libARI.dylib: __ZN6AriSdk30ARI_IBINetRatModeStatusReq_SDKD1Ev
__ libARI.dylib: __ZN6AriSdk30ARI_IBIPriWriteStatusIndCb_SDK6unpackEv
__ libARI.dylib: __ZN6AriSdk30ARI_IBIPriWriteStatusIndCb_SDKC1EPKhj
__ libARI.dylib: __ZN6AriSdk30ARI_IBIPriWriteStatusIndCb_SDKD1Ev
__ libARI.dylib: __ZN6AriSdk30ARI_IBISimAccessApduCmdReq_SDKC1Ev
__ libARI.dylib: __ZN6AriSdk30ARI_IBISimAccessApduCmdReq_SDKD1Ev
__ libARI.dylib: __ZN6AriSdk30ARI_IBISimApplicationRspCb_SDK6unpackEv
__ libARI.dylib: __ZN6AriSdk30ARI_IBISimApplicationRspCb_SDKC1EPKhj
__ libARI.dylib: __ZN6AriSdk30ARI_IBISimApplicationRspCb_SDKD1Ev
__ libARI.dylib: __ZN6AriSdk30ARI_IBISimPbCacheLoadIndCb_SDK6unpackEv
__ libARI.dylib: __ZN6AriSdk30ARI_IBISimPbCacheLoadIndCb_SDKC1EPKhj
__ libARI.dylib: __ZN6AriSdk30ARI_IBISimPbCacheLoadIndCb_SDKD1Ev
__ libARI.dylib: __ZN6AriSdk30ARI_IBISimPbLocationReq_V1_SDKC1Ev
__ libARI.dylib: __ZN6AriSdk30ARI_IBISimPbLocationReq_V1_SDKD1Ev
__ libARI.dylib: __ZN6AriSdk30ARI_IBISimPbReadEntryRspCb_SDK6unpackEv
__ libARI.dylib: __ZN6AriSdk30ARI_IBISimPbReadEntryRspCb_SDKC1EPKhj
__ libARI.dylib: __ZN6AriSdk30ARI_IBISimPbReadEntryRspCb_SDKD1Ev
__ libARI.dylib: __ZN6AriSdk30ARI_IBISimPlmnModeBitIndCb_SDK6unpackEv
__ libARI.dylib: __ZN6AriSdk30ARI_IBISimPlmnModeBitIndCb_SDKC1EPKhj
__ libARI.dylib: __ZN6AriSdk30ARI_IBISimPlmnModeBitIndCb_SDKD1Ev
__ libARI.dylib: __ZN6AriSdk30ARI_IBISimSmscAddressIndCb_SDK6unpackEv
__ libARI.dylib: __ZN6AriSdk30ARI_IBISimSmscAddressIndCb_SDKC1EPKhj
__ libARI.dylib: __ZN6AriSdk30ARI_IBISimSmscAddressIndCb_SDKD1Ev
__ libARI.dylib: __ZN6AriSdk30ARI_IBISmsGetMsgWaitIndReq_SDKC1Ev
__ libARI.dylib: __ZN6AriSdk30ARI_IBISmsGetMsgWaitIndReq_SDKD1Ev
__ libARI.dylib: __ZN6AriSdk30ARI_IBISmsSetMsgWaitIndReq_SDKC1Ev
__ libARI.dylib: __ZN6AriSdk30ARI_IBISmsSetMsgWaitIndReq_SDKD1Ev
__ libARI.dylib: __ZN6AriSdk30ARI_IBISsCallBarringReq_V1_SDKC1Ev
__ libARI.dylib: __ZN6AriSdk30ARI_IBISsCallBarringReq_V1_SDKD1Ev
__ libARI.dylib: __ZN6AriSdk30ARI_IBISsExtendedUssdRspCb_SDK6unpackEv
__ libARI.dylib: __ZN6AriSdk30ARI_IBISsExtendedUssdRspCb_SDKC1EPKhj
__ libARI.dylib: __ZN6AriSdk30ARI_IBISsExtendedUssdRspCb_SDKD1Ev
__ libARI.dylib: __ZN6AriSdk30ARI_IBISsIdentificationReq_SDKC1Ev
__ libARI.dylib: __ZN6AriSdk30ARI_IBISsIdentificationReq_SDKD1Ev
__ libARI.dylib: __ZN6AriSdk31ARI_CsiIceAudToneStopRespCb_SDK6unpackEv
__ libARI.dylib: __ZN6AriSdk31ARI_CsiIceAudToneStopRespCb_SDKC1EPKhj
__ libARI.dylib: __ZN6AriSdk31ARI_CsiIceAudToneStopRespCb_SDKD1Ev
__ libARI.dylib: __ZN6AriSdk31ARI_CsiIceAudVocoderInfoReq_SDKC1Ev
__ libARI.dylib: __ZN6AriSdk31ARI_CsiIceAudVocoderInfoReq_SDKD1Ev
__ libARI.dylib: __ZN6AriSdk31ARI_IBIApacsDataStatusRspCb_SDK6unpackEv
__ libARI.dylib: __ZN6AriSdk31ARI_IBIApacsDataStatusRspCb_SDKC1EPKhj
__ libARI.dylib: __ZN6AriSdk31ARI_IBIApacsDataStatusRspCb_SDKD1Ev
__ libARI.dylib: __ZN6AriSdk31ARI_IBICallCsBurstDtmfRspCb_SDK6unpackEv
__ libARI.dylib: __ZN6AriSdk31ARI_IBICallCsBurstDtmfRspCb_SDKC1EPKhj
__ libARI.dylib: __ZN6AriSdk31ARI_IBICallCsBurstDtmfRspCb_SDKD1Ev
__ libARI.dylib: __ZN6AriSdk31ARI_IBICallCsJoinCallsRspCb_SDK6unpackEv
__ libARI.dylib: __ZN6AriSdk31ARI_IBICallCsJoinCallsRspCb_SDKC1EPKhj
__ libARI.dylib: __ZN6AriSdk31ARI_IBICallCsJoinCallsRspCb_SDKD1Ev
__ libARI.dylib: __ZN6AriSdk31ARI_IBICallCsReleaseCallReq_SDKC1Ev
__ libARI.dylib: __ZN6AriSdk31ARI_IBICallCsReleaseCallReq_SDKD1Ev
__ libARI.dylib: __ZN6AriSdk31ARI_IBICallCsSetupCallRspCb_SDK6unpackEv
__ libARI.dylib: __ZN6AriSdk31ARI_IBICallCsSetupCallRspCb_SDKC1EPKhj
__ libARI.dylib: __ZN6AriSdk31ARI_IBICallCsSetupCallRspCb_SDKD1Ev
__ libARI.dylib: __ZN6AriSdk31ARI_IBICallCsSplitMptyRspCb_SDK6unpackEv
__ libARI.dylib: __ZN6AriSdk31ARI_IBICallCsSplitMptyRspCb_SDKC1EPKhj
__ libARI.dylib: __ZN6AriSdk31ARI_IBICallCsSplitMptyRspCb_SDKD1Ev
__ libARI.dylib: __ZN6AriSdk31ARI_IBICallCsStartDtmfRspCb_SDK6unpackEv
__ libARI.dylib: __ZN6AriSdk31ARI_IBICallCsStartDtmfRspCb_SDKC1EPKhj
__ libARI.dylib: __ZN6AriSdk31ARI_IBICallCsStartDtmfRspCb_SDKD1Ev
__ libARI.dylib: __ZN6AriSdk31ARI_IBICallCsSwapCallsRspCb_SDK6unpackEv
__ libARI.dylib: __ZN6AriSdk31ARI_IBICallCsSwapCallsRspCb_SDKC1EPKhj
__ libARI.dylib: __ZN6AriSdk31ARI_IBICallCsSwapCallsRspCb_SDKD1Ev
__ libARI.dylib: __ZN6AriSdk31ARI_IBICallPsFlushDataRspCb_SDK6unpackEv
__ libARI.dylib: __ZN6AriSdk31ARI_IBICallPsFlushDataRspCb_SDKC1EPKhj
__ libARI.dylib: __ZN6AriSdk31ARI_IBICallPsFlushDataRspCb_SDKD1Ev
__ libARI.dylib: __ZN6AriSdk31ARI_IBICallPsImsTestModeReq_SDKC1Ev
__ libARI.dylib: __ZN6AriSdk31ARI_IBICallPsImsTestModeReq_SDKD1Ev
__ libARI.dylib: __ZN6AriSdk31ARI_IBICallPsLqmRegisterReq_SDKC1Ev
__ libARI.dylib: __ZN6AriSdk31ARI_IBICallPsLqmRegisterReq_SDKD1Ev
__ libARI.dylib: __ZN6AriSdk31ARI_IBICallPsLteAttachIndCb_SDK6unpackEv
__ libARI.dylib: __ZN6AriSdk31ARI_IBICallPsLteAttachIndCb_SDKC1EPKhj
__ libARI.dylib: __ZN6AriSdk31ARI_IBICallPsLteAttachIndCb_SDKD1Ev
__ libARI.dylib: __ZN6AriSdk31ARI_IBICallPsUpdateNaiRspCb_SDK6unpackEv
__ libARI.dylib: __ZN6AriSdk31ARI_IBICallPsUpdateNaiRspCb_SDKC1EPKhj
__ libARI.dylib: __ZN6AriSdk31ARI_IBICallPsUpdateNaiRspCb_SDKD1Ev
__ libARI.dylib: __ZN6AriSdk31ARI_IBICallPsVoipAppInfoReq_SDKC1Ev
__ libARI.dylib: __ZN6AriSdk31ARI_IBICallPsVoipAppInfoReq_SDKD1Ev
__ libARI.dylib: __ZN6AriSdk31ARI_IBIMSimRemapStatusIndCb_SDK6unpackEv
__ libARI.dylib: __ZN6AriSdk31ARI_IBIMSimRemapStatusIndCb_SDKC1EPKhj
__ libARI.dylib: __ZN6AriSdk31ARI_IBIMSimRemapStatusIndCb_SDKD1Ev
__ libARI.dylib: __ZN6AriSdk31ARI_IBINetGetCellInfoRespCb_SDK6unpackEv
__ libARI.dylib: __ZN6AriSdk31ARI_IBINetGetCellInfoRespCb_SDKC1EPKhj
__ libARI.dylib: __ZN6AriSdk31ARI_IBINetGetCellInfoRespCb_SDKD1Ev
__ libARI.dylib: __ZN6AriSdk31ARI_IBINetSingleShotFdRspCb_SDK6unpackEv
__ libARI.dylib: __ZN6AriSdk31ARI_IBINetSingleShotFdRspCb_SDKC1EPKhj
__ libARI.dylib: __ZN6AriSdk31ARI_IBINetSingleShotFdRspCb_SDKD1Ev
__ libARI.dylib: __ZN6AriSdk31ARI_IBISendPreferredListReq_SDKC1Ev
__ libARI.dylib: __ZN6AriSdk31ARI_IBISendPreferredListReq_SDKD1Ev
__ libARI.dylib: __ZN6AriSdk31ARI_IBISetRtcEpochTimeRspCb_SDKC1EPKhj
__ libARI.dylib: __ZN6AriSdk31ARI_IBISetRtcEpochTimeRspCb_SDKD1Ev
__ libARI.dylib: __ZN6AriSdk31ARI_IBISimExtendedAuthRspCb_SDK6unpackEv
__ libARI.dylib: __ZN6AriSdk31ARI_IBISimExtendedAuthRspCb_SDKC1EPKhj
__ libARI.dylib: __ZN6AriSdk31ARI_IBISimExtendedAuthRspCb_SDKD1Ev
__ libARI.dylib: __ZN6AriSdk31ARI_IBISimFileReadBinaryReq_SDKC1Ev
__ libARI.dylib: __ZN6AriSdk31ARI_IBISimFileReadBinaryReq_SDKD1Ev
__ libARI.dylib: __ZN6AriSdk31ARI_IBISimGetPlmnModeBitReq_SDKC1Ev
__ libARI.dylib: __ZN6AriSdk31ARI_IBISimGetPlmnModeBitReq_SDKD1Ev
__ libARI.dylib: __ZN6AriSdk31ARI_IBISimGetSmscAddressReq_SDKC1Ev
__ libARI.dylib: __ZN6AriSdk31ARI_IBISimGetSmscAddressReq_SDKD1Ev
__ libARI.dylib: __ZN6AriSdk31ARI_IBISimPbWriteEntryRspCb_SDK6unpackEv
__ libARI.dylib: __ZN6AriSdk31ARI_IBISimPbWriteEntryRspCb_SDKC1EPKhj
__ libARI.dylib: __ZN6AriSdk31ARI_IBISimPbWriteEntryRspCb_SDKD1Ev
__ libARI.dylib: __ZN6AriSdk31ARI_IBISimSetSmscAddressReq_SDKC1Ev
__ libARI.dylib: __ZN6AriSdk31ARI_IBISimSetSmscAddressReq_SDKD1Ev
__ libARI.dylib: __ZN6AriSdk31ARI_IBISimTkExecStkCmdIndCb_SDK6unpackEv
__ libARI.dylib: __ZN6AriSdk31ARI_IBISimTkExecStkCmdIndCb_SDKC1EPKhj
__ libARI.dylib: __ZN6AriSdk31ARI_IBISimTkExecStkCmdIndCb_SDKD1Ev
__ libARI.dylib: __ZN6AriSdk31ARI_IBISimTkRefreshFcnIndCb_SDK6unpackEv
__ libARI.dylib: __ZN6AriSdk31ARI_IBISimTkRefreshFcnIndCb_SDKC1EPKhj
__ libARI.dylib: __ZN6AriSdk31ARI_IBISimTkRefreshFcnIndCb_SDKD1Ev
__ libARI.dylib: __ZN6AriSdk31ARI_IBISimTkRefreshQueryRsp_SDKC1Ev
__ libARI.dylib: __ZN6AriSdk31ARI_IBISimTkRefreshQueryRsp_SDKD1Ev
__ libARI.dylib: __ZN6AriSdk31ARI_IBISmsDataDownloadRspCb_SDK6unpackEv
__ libARI.dylib: __ZN6AriSdk31ARI_IBISmsDataDownloadRspCb_SDKC1EPKhj
__ libARI.dylib: __ZN6AriSdk31ARI_IBISmsDataDownloadRspCb_SDKD1Ev
__ libARI.dylib: __ZN6AriSdk31ARI_IBIVinylLPASigningRspCb_SDK6unpackEv
__ libARI.dylib: __ZN6AriSdk31ARI_IBIVinylLPASigningRspCb_SDKC1EPKhj
__ libARI.dylib: __ZN6AriSdk31ARI_IBIVinylLPASigningRspCb_SDKD1Ev
__ libARI.dylib: __ZN6AriSdk32ARI_CsiAwdsDeleteConfigRspCb_SDK6unpackEv
__ libARI.dylib: __ZN6AriSdk32ARI_CsiAwdsDeleteConfigRspCb_SDKC1EPKhj
__ libARI.dylib: __ZN6AriSdk32ARI_CsiAwdsDeleteConfigRspCb_SDKD1Ev
__ libARI.dylib: __ZN6AriSdk32ARI_CsiAwdsGlobalSwitchRspCb_SDK6unpackEv
__ libARI.dylib: __ZN6AriSdk32ARI_CsiAwdsGlobalSwitchRspCb_SDKC1EPKhj
__ libARI.dylib: __ZN6AriSdk32ARI_CsiAwdsGlobalSwitchRspCb_SDKD1Ev
__ libARI.dylib: __ZN6AriSdk32ARI_CsiAwdsPiiLocConfigRspCb_SDK6unpackEv
__ libARI.dylib: __ZN6AriSdk32ARI_CsiAwdsPiiLocConfigRspCb_SDKC1EPKhj
__ libARI.dylib: __ZN6AriSdk32ARI_CsiAwdsPiiLocConfigRspCb_SDKD1Ev
__ libARI.dylib: __ZN6AriSdk32ARI_CsiIceAudSetDeviceRespCb_SDK6unpackEv
__ libARI.dylib: __ZN6AriSdk32ARI_CsiIceAudSetDeviceRespCb_SDKC1EPKhj
__ libARI.dylib: __ZN6AriSdk32ARI_CsiIceAudSetDeviceRespCb_SDKD1Ev
__ libARI.dylib: __ZN6AriSdk32ARI_CsiIceAudToneStartRespCb_SDK6unpackEv
__ libARI.dylib: __ZN6AriSdk32ARI_CsiIceAudToneStartRespCb_SDKC1EPKhj
__ libARI.dylib: __ZN6AriSdk32ARI_CsiIceAudToneStartRespCb_SDKD1Ev
__ libARI.dylib: __ZN6AriSdk32ARI_IBICallCsAcceptCallRspCb_SDK6unpackEv
__ libARI.dylib: __ZN6AriSdk32ARI_IBICallCsAcceptCallRspCb_SDKC1EPKhj
__ libARI.dylib: __ZN6AriSdk32ARI_IBICallCsAcceptCallRspCb_SDKD1Ev
__ libARI.dylib: __ZN6AriSdk32ARI_IBICallCsAutoAnswerRspCb_SDK6unpackEv
__ libARI.dylib: __ZN6AriSdk32ARI_IBICallCsAutoAnswerRspCb_SDKC1EPKhj
__ libARI.dylib: __ZN6AriSdk32ARI_IBICallCsAutoAnswerRspCb_SDKD1Ev
__ libARI.dylib: __ZN6AriSdk32ARI_IBICallCsCallStatusIndCb_SDK6unpackEv
__ libARI.dylib: __ZN6AriSdk32ARI_IBICallCsCallStatusIndCb_SDKC1EPKhj
__ libARI.dylib: __ZN6AriSdk32ARI_IBICallCsCallStatusIndCb_SDKD1Ev
__ libARI.dylib: __ZN6AriSdk32ARI_IBICallCsRetrieveCallReq_SDKC1Ev
__ libARI.dylib: __ZN6AriSdk32ARI_IBICallCsRetrieveCallReq_SDKD1Ev
__ libARI.dylib: __ZN6AriSdk32ARI_IBICallPsStopDataCallReq_SDKC1Ev
__ libARI.dylib: __ZN6AriSdk32ARI_IBICallPsStopDataCallReq_SDKD1Ev
__ libARI.dylib: __ZN6AriSdk32ARI_IBICallPsVoLTECodecRspCb_SDK6unpackEv
__ libARI.dylib: __ZN6AriSdk32ARI_IBICallPsVoLTECodecRspCb_SDKC1EPKhj
__ libARI.dylib: __ZN6AriSdk32ARI_IBICallPsVoLTECodecRspCb_SDKD1Ev
__ libARI.dylib: __ZN6AriSdk32ARI_IBINetGetCurrCellInfoReq_SDKC1Ev
__ libARI.dylib: __ZN6AriSdk32ARI_IBINetGetCurrCellInfoReq_SDKD1Ev
__ libARI.dylib: __ZN6AriSdk32ARI_IBINetIceSingleShotFdReq_SDKC1Ev
__ libARI.dylib: __ZN6AriSdk32ARI_IBINetIceSingleShotFdReq_SDKD1Ev
__ libARI.dylib: __ZN6AriSdk32ARI_IBINetIncrementalScanReq_SDKC1Ev
__ libARI.dylib: __ZN6AriSdk32ARI_IBINetIncrementalScanReq_SDKD1Ev
__ libARI.dylib: __ZN6AriSdk32ARI_IBINetRatModeStatusIndCb_SDK6unpackEv
__ libARI.dylib: __ZN6AriSdk32ARI_IBINetRatModeStatusIndCb_SDKC1EPKhj
__ libARI.dylib: __ZN6AriSdk32ARI_IBINetRatModeStatusIndCb_SDKD1Ev
__ libARI.dylib: __ZN6AriSdk32ARI_IBINetRatModeStatusRspCb_SDK6unpackEv
__ libARI.dylib: __ZN6AriSdk32ARI_IBINetRatModeStatusRspCb_SDKC1EPKhj
__ libARI.dylib: __ZN6AriSdk32ARI_IBINetRatModeStatusRspCb_SDKD1Ev
__ libARI.dylib: __ZN6AriSdk32ARI_IBIP2PProximityStatusReq_SDKC1Ev
__ libARI.dylib: __ZN6AriSdk32ARI_IBIP2PProximityStatusReq_SDKD1Ev
__ libARI.dylib: __ZN6AriSdk32ARI_IBISimAccessApduCmdRspCb_SDK6unpackEv
__ libARI.dylib: __ZN6AriSdk32ARI_IBISimAccessApduCmdRspCb_SDKC1EPKhj
__ libARI.dylib: __ZN6AriSdk32ARI_IBISimAccessApduCmdRspCb_SDKD1Ev
__ libARI.dylib: __ZN6AriSdk32ARI_IBISimPbLocationIndCb_V1_SDK6unpackEv
__ libARI.dylib: __ZN6AriSdk32ARI_IBISimPbLocationIndCb_V1_SDKC1EPKhj
__ libARI.dylib: __ZN6AriSdk32ARI_IBISimPbLocationIndCb_V1_SDKD1Ev
__ libARI.dylib: __ZN6AriSdk32ARI_IBISimPbUsimPbReadyIndCb_SDK6unpackEv
__ libARI.dylib: __ZN6AriSdk32ARI_IBISimPbUsimPbReadyIndCb_SDKC1EPKhj
__ libARI.dylib: __ZN6AriSdk32ARI_IBISimPbUsimPbReadyIndCb_SDKD1Ev
__ libARI.dylib: __ZN6AriSdk32ARI_IBISimTkTerminalResponse_SDKC1Ev
__ libARI.dylib: __ZN6AriSdk32ARI_IBISimTkTerminalResponse_SDKD1Ev
__ libARI.dylib: __ZN6AriSdk32ARI_IBISmsGetMsgWaitIndRspCb_SDK6unpackEv
__ libARI.dylib: __ZN6AriSdk32ARI_IBISmsGetMsgWaitIndRspCb_SDKC1EPKhj
__ libARI.dylib: __ZN6AriSdk32ARI_IBISmsGetMsgWaitIndRspCb_SDKD1Ev
__ libARI.dylib: __ZN6AriSdk32ARI_IBISmsSetMsgWaitIndRspCb_SDK6unpackEv
__ libARI.dylib: __ZN6AriSdk32ARI_IBISmsSetMsgWaitIndRspCb_SDKC1EPKhj
__ libARI.dylib: __ZN6AriSdk32ARI_IBISmsSetMsgWaitIndRspCb_SDKD1Ev
__ libARI.dylib: __ZN6AriSdk32ARI_IBISsCallBarringRspCb_V1_SDK6unpackEv
__ libARI.dylib: __ZN6AriSdk32ARI_IBISsCallBarringRspCb_V1_SDKC1EPKhj
__ libARI.dylib: __ZN6AriSdk32ARI_IBISsCallBarringRspCb_V1_SDKD1Ev
__ libARI.dylib: __ZN6AriSdk32ARI_IBISsIdentificationRspCb_SDK6unpackEv
__ libARI.dylib: __ZN6AriSdk32ARI_IBISsIdentificationRspCb_SDKC1EPKhj
__ libARI.dylib: __ZN6AriSdk32ARI_IBISsIdentificationRspCb_SDKD1Ev
__ libARI.dylib: __ZN6AriSdk33ARI_CsiAwdsMetricSubSwitchReq_SDKC1Ev
__ libARI.dylib: __ZN6AriSdk33ARI_CsiAwdsMetricSubSwitchReq_SDKD1Ev
__ libARI.dylib: __ZN6AriSdk33ARI_CsiIceAudVocoderInfoIndCb_SDK6unpackEv
__ libARI.dylib: __ZN6AriSdk33ARI_CsiIceAudVocoderInfoIndCb_SDKC1EPKhj
__ libARI.dylib: __ZN6AriSdk33ARI_CsiIceAudVocoderInfoIndCb_SDKD1Ev
__ libARI.dylib: __ZN6AriSdk33ARI_IBICallCsOtaspStatusIndCb_SDK6unpackEv
__ libARI.dylib: __ZN6AriSdk33ARI_IBICallCsOtaspStatusIndCb_SDKC1EPKhj
__ libARI.dylib: __ZN6AriSdk33ARI_IBICallCsOtaspStatusIndCb_SDKD1Ev
__ libARI.dylib: __ZN6AriSdk33ARI_IBICallCsReleaseCallRspCb_SDK6unpackEv
__ libARI.dylib: __ZN6AriSdk33ARI_IBICallCsReleaseCallRspCb_SDKC1EPKhj
__ libARI.dylib: __ZN6AriSdk33ARI_IBICallCsReleaseCallRspCb_SDKD1Ev
__ libARI.dylib: __ZN6AriSdk33ARI_IBICallCsStopDtmfExtRspCb_SDK6unpackEv
__ libARI.dylib: __ZN6AriSdk33ARI_IBICallCsStopDtmfExtRspCb_SDKC1EPKhj
__ libARI.dylib: __ZN6AriSdk33ARI_IBICallCsStopDtmfExtRspCb_SDKD1Ev
__ libARI.dylib: __ZN6AriSdk33ARI_IBICallCsTransferCallsReq_SDKC1Ev
__ libARI.dylib: __ZN6AriSdk33ARI_IBICallCsTransferCallsReq_SDKD1Ev
__ libARI.dylib: __ZN6AriSdk33ARI_IBICallPsDataPathSetupReq_SDKC1Ev
__ libARI.dylib: __ZN6AriSdk33ARI_IBICallPsDataPathSetupReq_SDKD1Ev
__ libARI.dylib: __ZN6AriSdk33ARI_IBICallPsFDBackOffTimeInd_SDK6unpackEv
__ libARI.dylib: __ZN6AriSdk33ARI_IBICallPsFDBackOffTimeInd_SDKC1EPKhj
__ libARI.dylib: __ZN6AriSdk33ARI_IBICallPsFDBackOffTimeInd_SDKD1Ev
__ libARI.dylib: __ZN6AriSdk33ARI_IBICallPsImsTestModeIndCb_SDK6unpackEv
__ libARI.dylib: __ZN6AriSdk33ARI_IBICallPsImsTestModeIndCb_SDKC1EPKhj
__ libARI.dylib: __ZN6AriSdk33ARI_IBICallPsImsTestModeIndCb_SDKD1Ev
__ libARI.dylib: __ZN6AriSdk33ARI_IBICallPsImsTestModeRspCb_SDK6unpackEv
__ libARI.dylib: __ZN6AriSdk33ARI_IBICallPsImsTestModeRspCb_SDKC1EPKhj
__ libARI.dylib: __ZN6AriSdk33ARI_IBICallPsImsTestModeRspCb_SDKD1Ev
__ libARI.dylib: __ZN6AriSdk33ARI_IBICallPsLqmRegisterRspCb_SDK6unpackEv
__ libARI.dylib: __ZN6AriSdk33ARI_IBICallPsLqmRegisterRspCb_SDKC1EPKhj
__ libARI.dylib: __ZN6AriSdk33ARI_IBICallPsLqmRegisterRspCb_SDKD1Ev
__ libARI.dylib: __ZN6AriSdk33ARI_IBICallPsStartDataCallReq_SDKC1Ev
__ libARI.dylib: __ZN6AriSdk33ARI_IBICallPsStartDataCallReq_SDKD1Ev
__ libARI.dylib: __ZN6AriSdk33ARI_IBICallPsTrafficClassInfo_SDKC1Ev
__ libARI.dylib: __ZN6AriSdk33ARI_IBICallPsTrafficClassInfo_SDKD1Ev
__ libARI.dylib: __ZN6AriSdk33ARI_IBICallPsVoiceLQMStateInd_SDK6unpackEv
__ libARI.dylib: __ZN6AriSdk33ARI_IBICallPsVoiceLQMStateInd_SDKC1EPKhj
__ libARI.dylib: __ZN6AriSdk33ARI_IBICallPsVoiceLQMStateInd_SDKD1Ev
__ libARI.dylib: __ZN6AriSdk33ARI_IBICallPsVoipAppInfoRspCb_SDK6unpackEv
__ libARI.dylib: __ZN6AriSdk33ARI_IBICallPsVoipAppInfoRspCb_SDKC1EPKhj
__ libARI.dylib: __ZN6AriSdk33ARI_IBICallPsVoipAppInfoRspCb_SDKD1Ev
__ libARI.dylib: __ZN6AriSdk33ARI_IBINetConnectionInfoIndCb_SDK6unpackEv
__ libARI.dylib: __ZN6AriSdk33ARI_IBINetConnectionInfoIndCb_SDKC1EPKhj
__ libARI.dylib: __ZN6AriSdk33ARI_IBINetConnectionInfoIndCb_SDKD1Ev
__ libARI.dylib: __ZN6AriSdk33ARI_IBINetEmergencyCellEndReq_SDKC1Ev
__ libARI.dylib: __ZN6AriSdk33ARI_IBINetEmergencyCellEndReq_SDKD1Ev
__ libARI.dylib: __ZN6AriSdk33ARI_IBISendPreferredListRspCb_SDK6unpackEv
__ libARI.dylib: __ZN6AriSdk33ARI_IBISendPreferredListRspCb_SDKC1EPKhj
__ libARI.dylib: __ZN6AriSdk33ARI_IBISendPreferredListRspCb_SDKD1Ev
__ libARI.dylib: __ZN6AriSdk33ARI_IBISimAccessGetSimDataReq_SDKC1Ev
__ libARI.dylib: __ZN6AriSdk33ARI_IBISimAccessGetSimDataReq_SDKD1Ev
__ libARI.dylib: __ZN6AriSdk33ARI_IBISimAccessReadRecordReq_SDKC1Ev
__ libARI.dylib: __ZN6AriSdk33ARI_IBISimAccessReadRecordReq_SDKD1Ev
__ libARI.dylib: __ZN6AriSdk33ARI_IBISimCdmaFullAccessIndCb_SDK6unpackEv
__ libARI.dylib: __ZN6AriSdk33ARI_IBISimCdmaFullAccessIndCb_SDKC1EPKhj
__ libARI.dylib: __ZN6AriSdk33ARI_IBISimCdmaFullAccessIndCb_SDKD1Ev
__ libARI.dylib: __ZN6AriSdk33ARI_IBISimFileReadBinaryRspCb_SDK6unpackEv
__ libARI.dylib: __ZN6AriSdk33ARI_IBISimFileReadBinaryRspCb_SDKC1EPKhj
__ libARI.dylib: __ZN6AriSdk33ARI_IBISimFileReadBinaryRspCb_SDKD1Ev
__ libARI.dylib: __ZN6AriSdk33ARI_IBISimFileUpdateBinaryReq_SDKC1Ev
__ libARI.dylib: __ZN6AriSdk33ARI_IBISimFileUpdateBinaryReq_SDKD1Ev
__ libARI.dylib: __ZN6AriSdk33ARI_IBISimGetPlmnModeBitRspCb_SDK6unpackEv
__ libARI.dylib: __ZN6AriSdk33ARI_IBISimGetPlmnModeBitRspCb_SDKC1EPKhj
__ libARI.dylib: __ZN6AriSdk33ARI_IBISimGetPlmnModeBitRspCb_SDKD1Ev
__ libARI.dylib: __ZN6AriSdk33ARI_IBISimGetSmscAddressRspCb_SDK6unpackEv
__ libARI.dylib: __ZN6AriSdk33ARI_IBISimGetSmscAddressRspCb_SDKC1EPKhj
__ libARI.dylib: __ZN6AriSdk33ARI_IBISimGetSmscAddressRspCb_SDKD1Ev
__ libARI.dylib: __ZN6AriSdk33ARI_IBISimSetSmscAddressRspCb_SDK6unpackEv
__ libARI.dylib: __ZN6AriSdk33ARI_IBISimSetSmscAddressRspCb_SDKC1EPKhj
__ libARI.dylib: __ZN6AriSdk33ARI_IBISimSetSmscAddressRspCb_SDKD1Ev
__ libARI.dylib: __ZN6AriSdk33ARI_IBISimTkProactiveCmdIndCb_SDK6unpackEv
__ libARI.dylib: __ZN6AriSdk33ARI_IBISimTkProactiveCmdIndCb_SDKC1EPKhj
__ libARI.dylib: __ZN6AriSdk33ARI_IBISimTkProactiveCmdIndCb_SDKD1Ev
__ libARI.dylib: __ZN6AriSdk33ARI_IBISimTkRefreshConfirmRsp_SDKC1Ev
__ libARI.dylib: __ZN6AriSdk33ARI_IBISimTkRefreshConfirmRsp_SDKD1Ev
__ libARI.dylib: __ZN6AriSdk33ARI_IBISimTkRefreshQueryIndCb_SDK6unpackEv
__ libARI.dylib: __ZN6AriSdk33ARI_IBISimTkRefreshQueryIndCb_SDKC1EPKhj
__ libARI.dylib: __ZN6AriSdk33ARI_IBISimTkRefreshQueryIndCb_SDKD1Ev
__ libARI.dylib: __ZN6AriSdk34ARI_CsiAwdsMetricSubTriggerInd_SDK6unpackEv
__ libARI.dylib: __ZN6AriSdk34ARI_CsiAwdsMetricSubTriggerInd_SDKC1EPKhj
__ libARI.dylib: __ZN6AriSdk34ARI_CsiAwdsMetricSubTriggerInd_SDKD1Ev
__ libARI.dylib: __ZN6AriSdk34ARI_CsiIceAudVocoderInfoRespCb_SDK6unpackEv
__ libARI.dylib: __ZN6AriSdk34ARI_CsiIceAudVocoderInfoRespCb_SDKC1EPKhj
__ libARI.dylib: __ZN6AriSdk34ARI_CsiIceAudVocoderInfoRespCb_SDKD1Ev
__ libARI.dylib: __ZN6AriSdk34ARI_IBICallCsDisconnectedIndCb_SDK6unpackEv
__ libARI.dylib: __ZN6AriSdk34ARI_IBICallCsDisconnectedIndCb_SDKC1EPKhj
__ libARI.dylib: __ZN6AriSdk34ARI_IBICallCsDisconnectedIndCb_SDKD1Ev
__ libARI.dylib: __ZN6AriSdk34ARI_IBICallCsIncomingCallIndCb_SDK6unpackEv
__ libARI.dylib: __ZN6AriSdk34ARI_IBICallCsIncomingCallIndCb_SDKC1EPKhj
__ libARI.dylib: __ZN6AriSdk34ARI_IBICallCsIncomingCallIndCb_SDKD1Ev
__ libARI.dylib: __ZN6AriSdk34ARI_IBICallCsRetrieveCallRspCb_SDK6unpackEv
__ libARI.dylib: __ZN6AriSdk34ARI_IBICallCsRetrieveCallRspCb_SDKC1EPKhj
__ libARI.dylib: __ZN6AriSdk34ARI_IBICallCsRetrieveCallRspCb_SDKD1Ev
__ libARI.dylib: __ZN6AriSdk34ARI_IBICallCsSetPrefPrivacyReq_SDKC1Ev
__ libARI.dylib: __ZN6AriSdk34ARI_IBICallCsSetPrefPrivacyReq_SDKD1Ev
__ libARI.dylib: __ZN6AriSdk34ARI_IBICallCsSetupVoiceCallReq_SDKC1Ev
__ libARI.dylib: __ZN6AriSdk34ARI_IBICallCsSetupVoiceCallReq_SDKD1Ev
__ libARI.dylib: __ZN6AriSdk34ARI_IBICallPsDataStallRegIndCb_SDK6unpackEv
__ libARI.dylib: __ZN6AriSdk34ARI_IBICallPsDataStallRegIndCb_SDKC1EPKhj
__ libARI.dylib: __ZN6AriSdk34ARI_IBICallPsDataStallRegIndCb_SDKD1Ev
__ libARI.dylib: __ZN6AriSdk34ARI_IBICallPsNotificationIndCb_SDK6unpackEv
__ libARI.dylib: __ZN6AriSdk34ARI_IBICallPsNotificationIndCb_SDKC1EPKhj
__ libARI.dylib: __ZN6AriSdk34ARI_IBICallPsNotificationIndCb_SDKD1Ev
__ libARI.dylib: __ZN6AriSdk34ARI_IBICallPsSecurityStatusInd_SDK6unpackEv
__ libARI.dylib: __ZN6AriSdk34ARI_IBICallPsSecurityStatusInd_SDKC1EPKhj
__ libARI.dylib: __ZN6AriSdk34ARI_IBICallPsSecurityStatusInd_SDKD1Ev
__ libARI.dylib: __ZN6AriSdk34ARI_IBICallPsSecurityStatusReq_SDKC1Ev
__ libARI.dylib: __ZN6AriSdk34ARI_IBICallPsSecurityStatusReq_SDKD1Ev
__ libARI.dylib: __ZN6AriSdk34ARI_IBICallPsStopDataCallRspCb_SDK6unpackEv
__ libARI.dylib: __ZN6AriSdk34ARI_IBICallPsStopDataCallRspCb_SDKC1EPKhj
__ libARI.dylib: __ZN6AriSdk34ARI_IBICallPsStopDataCallRspCb_SDKD1Ev
__ libARI.dylib: __ZN6AriSdk34ARI_IBIMsAccCurrentFreqInfoReq_SDKC1Ev
__ libARI.dylib: __ZN6AriSdk34ARI_IBIMsAccCurrentFreqInfoReq_SDKD1Ev
__ libARI.dylib: __ZN6AriSdk34ARI_IBIMsNetIceCsgAsfSearchReq_SDKC1Ev
__ libARI.dylib: __ZN6AriSdk34ARI_IBIMsNetIceCsgAsfSearchReq_SDKD1Ev
__ libARI.dylib: __ZN6AriSdk34ARI_IBINetGetCurrCellInfoRspCb_SDK6unpackEv
__ libARI.dylib: __ZN6AriSdk34ARI_IBINetGetCurrCellInfoRspCb_SDKC1EPKhj
__ libARI.dylib: __ZN6AriSdk34ARI_IBINetGetCurrCellInfoRspCb_SDKD1Ev
__ libARI.dylib: __ZN6AriSdk34ARI_IBINetGetPlmnNameInfoIndCb_SDK6unpackEv
__ libARI.dylib: __ZN6AriSdk34ARI_IBINetGetPlmnNameInfoIndCb_SDKC1EPKhj
__ libARI.dylib: __ZN6AriSdk34ARI_IBINetGetPlmnNameInfoIndCb_SDKD1Ev
__ libARI.dylib: __ZN6AriSdk34ARI_IBINetIncrementalScanIndCb_SDK6unpackEv
__ libARI.dylib: __ZN6AriSdk34ARI_IBINetIncrementalScanIndCb_SDKC1EPKhj
__ libARI.dylib: __ZN6AriSdk34ARI_IBINetIncrementalScanIndCb_SDKD1Ev
__ libARI.dylib: __ZN6AriSdk34ARI_IBINetIncrementalScanRspCb_SDK6unpackEv
__ libARI.dylib: __ZN6AriSdk34ARI_IBINetIncrementalScanRspCb_SDKC1EPKhj
__ libARI.dylib: __ZN6AriSdk34ARI_IBINetIncrementalScanRspCb_SDKD1Ev
__ libARI.dylib: __ZN6AriSdk34ARI_IBIP2PProximityStatusRspCb_SDK6unpackEv
__ libARI.dylib: __ZN6AriSdk34ARI_IBIP2PProximityStatusRspCb_SDKC1EPKhj
__ libARI.dylib: __ZN6AriSdk34ARI_IBIP2PProximityStatusRspCb_SDKD1Ev
__ libARI.dylib: __ZN6AriSdk34ARI_IBISimPbUsimPbSelectReq_V1_SDKC1Ev
__ libARI.dylib: __ZN6AriSdk34ARI_IBISimPbUsimPbSelectReq_V1_SDKD1Ev
__ libARI.dylib: __ZN6AriSdk34ARI_IBISimTkConfigureStkCmdReq_SDKC1Ev
__ libARI.dylib: __ZN6AriSdk34ARI_IBISimTkConfigureStkCmdReq_SDKD1Ev
__ libARI.dylib: __ZN6AriSdk34ARI_IBISimTkEnvelopeCommandReq_SDKC1Ev
__ libARI.dylib: __ZN6AriSdk34ARI_IBISimTkEnvelopeCommandReq_SDKD1Ev
__ libARI.dylib: __ZN6AriSdk35ARI_CsiAwdsMetricSubSwitchRspCb_SDK6unpackEv
__ libARI.dylib: __ZN6AriSdk35ARI_CsiAwdsMetricSubSwitchRspCb_SDKC1EPKhj
__ libARI.dylib: __ZN6AriSdk35ARI_CsiAwdsMetricSubSwitchRspCb_SDKD1Ev
__ libARI.dylib: __ZN6AriSdk35ARI_CsiIceAudSetAudioLoggingReq_SDKC1Ev
__ libARI.dylib: __ZN6AriSdk35ARI_CsiIceAudSetAudioLoggingReq_SDKD1Ev
__ libARI.dylib: __ZN6AriSdk35ARI_IBICallCsTransferCallsRspCb_SDK6unpackEv
__ libARI.dylib: __ZN6AriSdk35ARI_IBICallCsTransferCallsRspCb_SDKC1EPKhj
__ libARI.dylib: __ZN6AriSdk35ARI_IBICallCsTransferCallsRspCb_SDKD1Ev
__ libARI.dylib: __ZN6AriSdk35ARI_IBICallPsDataPathSetupRspCb_SDK6unpackEv
__ libARI.dylib: __ZN6AriSdk35ARI_IBICallPsDataPathSetupRspCb_SDKC1EPKhj
__ libARI.dylib: __ZN6AriSdk35ARI_IBICallPsDataPathSetupRspCb_SDKD1Ev
__ libARI.dylib: __ZN6AriSdk35ARI_IBICallPsStartDataCallRspCb_SDK6unpackEv
__ libARI.dylib: __ZN6AriSdk35ARI_IBICallPsStartDataCallRspCb_SDKC1EPKhj
__ libARI.dylib: __ZN6AriSdk35ARI_IBICallPsStartDataCallRspCb_SDKD1Ev
__ libARI.dylib: __ZN6AriSdk35ARI_IBIMSimSetCurrentDataSimReq_SDKC1Ev
__ libARI.dylib: __ZN6AriSdk35ARI_IBIMSimSetCurrentDataSimReq_SDKD1Ev
__ libARI.dylib: __ZN6AriSdk35ARI_IBIMSimSetCurrentDataSimRsp_SDK6unpackEv
__ libARI.dylib: __ZN6AriSdk35ARI_IBIMSimSetCurrentDataSimRsp_SDKC1EPKhj
__ libARI.dylib: __ZN6AriSdk35ARI_IBIMSimSetCurrentDataSimRsp_SDKD1Ev
__ libARI.dylib: __ZN6AriSdk35ARI_IBINetEmergencyCellEndRspCb_SDK6unpackEv
__ libARI.dylib: __ZN6AriSdk35ARI_IBINetEmergencyCellEndRspCb_SDKC1EPKhj
__ libARI.dylib: __ZN6AriSdk35ARI_IBINetEmergencyCellEndRspCb_SDKD1Ev
__ libARI.dylib: __ZN6AriSdk35ARI_IBINetGetEmergencyCellIndCb_SDK6unpackEv
__ libARI.dylib: __ZN6AriSdk35ARI_IBINetGetEmergencyCellIndCb_SDKC1EPKhj
__ libARI.dylib: __ZN6AriSdk35ARI_IBINetGetEmergencyCellIndCb_SDKD1Ev
__ libARI.dylib: __ZN6AriSdk35ARI_IBINetGetPlmnNameInfoReq_V1_SDKC1Ev
__ libARI.dylib: __ZN6AriSdk35ARI_IBINetGetPlmnNameInfoReq_V1_SDKD1Ev
__ libARI.dylib: __ZN6AriSdk35ARI_IBINetRatSwitchStatusReport_SDKC1Ev
__ libARI.dylib: __ZN6AriSdk35ARI_IBINetRatSwitchStatusReport_SDKD1Ev
__ libARI.dylib: __ZN6AriSdk35ARI_IBINetRegistrationInfoIndCb_SDK6unpackEv
__ libARI.dylib: __ZN6AriSdk35ARI_IBINetRegistrationInfoIndCb_SDKC1EPKhj
__ libARI.dylib: __ZN6AriSdk35ARI_IBINetRegistrationInfoIndCb_SDKD1Ev
__ libARI.dylib: __ZN6AriSdk35ARI_IBISimAccessGetSimDataIndCb_SDK6unpackEv
__ libARI.dylib: __ZN6AriSdk35ARI_IBISimAccessGetSimDataIndCb_SDKC1EPKhj
__ libARI.dylib: __ZN6AriSdk35ARI_IBISimAccessGetSimDataIndCb_SDKD1Ev
__ libARI.dylib: __ZN6AriSdk35ARI_IBISimAccessGetSimDataRspCb_SDK6unpackEv
__ libARI.dylib: __ZN6AriSdk35ARI_IBISimAccessGetSimDataRspCb_SDKC1EPKhj
__ libARI.dylib: __ZN6AriSdk35ARI_IBISimAccessGetSimDataRspCb_SDKD1Ev
__ libARI.dylib: __ZN6AriSdk35ARI_IBISimAccessReadRecordRspCb_SDK6unpackEv
__ libARI.dylib: __ZN6AriSdk35ARI_IBISimAccessReadRecordRspCb_SDKC1EPKhj
__ libARI.dylib: __ZN6AriSdk35ARI_IBISimAccessReadRecordRspCb_SDKD1Ev
__ libARI.dylib: __ZN6AriSdk35ARI_IBISimFileGetCdmaAuxInfoReq_SDKC1Ev
__ libARI.dylib: __ZN6AriSdk35ARI_IBISimFileGetCdmaAuxInfoReq_SDKD1Ev
__ libARI.dylib: __ZN6AriSdk35ARI_IBISimFileUpdateBinaryRspCb_SDK6unpackEv
__ libARI.dylib: __ZN6AriSdk35ARI_IBISimFileUpdateBinaryRspCb_SDKC1EPKhj
__ libARI.dylib: __ZN6AriSdk35ARI_IBISimFileUpdateBinaryRspCb_SDKD1Ev
__ libARI.dylib: __ZN6AriSdk35ARI_IBISimMsgWaitIndicatorIndCb_SDK6unpackEv
__ libARI.dylib: __ZN6AriSdk35ARI_IBISimMsgWaitIndicatorIndCb_SDKC1EPKhj
__ libARI.dylib: __ZN6AriSdk35ARI_IBISimMsgWaitIndicatorIndCb_SDKD1Ev
__ libARI.dylib: __ZN6AriSdk35ARI_IBISimPbGetLocationRspCb_V1_SDK6unpackEv
__ libARI.dylib: __ZN6AriSdk35ARI_IBISimPbGetLocationRspCb_V1_SDKC1EPKhj
__ libARI.dylib: __ZN6AriSdk35ARI_IBISimPbGetLocationRspCb_V1_SDKD1Ev
__ libARI.dylib: __ZN6AriSdk35ARI_IBISimTkRefreshConfirmIndCb_SDK6unpackEv
__ libARI.dylib: __ZN6AriSdk35ARI_IBISimTkRefreshConfirmIndCb_SDKC1EPKhj
__ libARI.dylib: __ZN6AriSdk35ARI_IBISimTkRefreshConfirmIndCb_SDKD1Ev
__ libARI.dylib: __ZN6AriSdk36ARI_IBICallCsSetPrefPrivacyIndCb_SDK6unpackEv
__ libARI.dylib: __ZN6AriSdk36ARI_IBICallCsSetPrefPrivacyIndCb_SDKC1EPKhj
__ libARI.dylib: __ZN6AriSdk36ARI_IBICallCsSetPrefPrivacyIndCb_SDKD1Ev
__ libARI.dylib: __ZN6AriSdk36ARI_IBICallCsSetPrefPrivacyRspCb_SDK6unpackEv
__ libARI.dylib: __ZN6AriSdk36ARI_IBICallCsSetPrefPrivacyRspCb_SDKC1EPKhj
__ libARI.dylib: __ZN6AriSdk36ARI_IBICallCsSetPrefPrivacyRspCb_SDKD1Ev
__ libARI.dylib: __ZN6AriSdk36ARI_IBICallCsSetTtyDeviceModeReq_SDKC1Ev
__ libARI.dylib: __ZN6AriSdk36ARI_IBICallCsSetTtyDeviceModeReq_SDKD1Ev
__ libARI.dylib: __ZN6AriSdk36ARI_IBICallPsActivateStatusIndCb_SDK6unpackEv
__ libARI.dylib: __ZN6AriSdk36ARI_IBICallPsActivateStatusIndCb_SDKC1EPKhj
__ libARI.dylib: __ZN6AriSdk36ARI_IBICallPsActivateStatusIndCb_SDKD1Ev
__ libARI.dylib: __ZN6AriSdk36ARI_IBICallPsDataTransferTimeReq_SDKC1Ev
__ libARI.dylib: __ZN6AriSdk36ARI_IBICallPsDataTransferTimeReq_SDKD1Ev
__ libARI.dylib: __ZN6AriSdk36ARI_IBICallPsSecurityStatusRspCb_SDK6unpackEv
__ libARI.dylib: __ZN6AriSdk36ARI_IBICallPsSecurityStatusRspCb_SDKC1EPKhj
__ libARI.dylib: __ZN6AriSdk36ARI_IBICallPsSecurityStatusRspCb_SDKD1Ev
__ libARI.dylib: __ZN6AriSdk36ARI_IBIMsAccCurrentFreqInfoIndCb_SDK6unpackEv
__ libARI.dylib: __ZN6AriSdk36ARI_IBIMsAccCurrentFreqInfoIndCb_SDKC1EPKhj
__ libARI.dylib: __ZN6AriSdk36ARI_IBIMsAccCurrentFreqInfoIndCb_SDKD1Ev
__ libARI.dylib: __ZN6AriSdk36ARI_IBIMsAccCurrentFreqInfoRspCb_SDK6unpackEv
__ libARI.dylib: __ZN6AriSdk36ARI_IBIMsAccCurrentFreqInfoRspCb_SDKC1EPKhj
__ libARI.dylib: __ZN6AriSdk36ARI_IBIMsAccCurrentFreqInfoRspCb_SDKD1Ev
__ libARI.dylib: __ZN6AriSdk36ARI_IBIMsNetIceCsgAsfSearchCnfCb_SDK6unpackEv
__ libARI.dylib: __ZN6AriSdk36ARI_IBIMsNetIceCsgAsfSearchCnfCb_SDKC1EPKhj
__ libARI.dylib: __ZN6AriSdk36ARI_IBIMsNetIceCsgAsfSearchCnfCb_SDKD1Ev
__ libARI.dylib: __ZN6AriSdk36ARI_IBINetEmergencyCellSearchReq_SDKC1Ev
__ libARI.dylib: __ZN6AriSdk36ARI_IBINetEmergencyCellSearchReq_SDKD1Ev
__ libARI.dylib: __ZN6AriSdk36ARI_IBINetGetRegistrationInfoReq_SDKC1Ev
__ libARI.dylib: __ZN6AriSdk36ARI_IBINetGetRegistrationInfoReq_SDKD1Ev
__ libARI.dylib: __ZN6AriSdk36ARI_IBINetIceManualPlmnModeIndCb_SDK6unpackEv
__ libARI.dylib: __ZN6AriSdk36ARI_IBINetIceManualPlmnModeIndCb_SDKC1EPKhj
__ libARI.dylib: __ZN6AriSdk36ARI_IBINetIceManualPlmnModeIndCb_SDKD1Ev
__ libARI.dylib: __ZN6AriSdk36ARI_IBINetNetworkModeChangeIndCb_SDK6unpackEv
__ libARI.dylib: __ZN6AriSdk36ARI_IBINetNetworkModeChangeIndCb_SDKC1EPKhj
__ libARI.dylib: __ZN6AriSdk36ARI_IBINetNetworkModeChangeIndCb_SDKD1Ev
__ libARI.dylib: __ZN6AriSdk36ARI_IBISimGetFullAccessStatusReq_SDKC1Ev
__ libARI.dylib: __ZN6AriSdk36ARI_IBISimGetFullAccessStatusReq_SDKD1Ev
__ libARI.dylib: __ZN6AriSdk36ARI_IBISimPbUsimPbSelectIndCb_V1_SDK6unpackEv
__ libARI.dylib: __ZN6AriSdk36ARI_IBISimPbUsimPbSelectIndCb_V1_SDKC1EPKhj
__ libARI.dylib: __ZN6AriSdk36ARI_IBISimPbUsimPbSelectIndCb_V1_SDKD1Ev
__ libARI.dylib: __ZN6AriSdk36ARI_IBISimPbUsimPbSelectRspCb_V1_SDK6unpackEv
__ libARI.dylib: __ZN6AriSdk36ARI_IBISimPbUsimPbSelectRspCb_V1_SDKC1EPKhj
__ libARI.dylib: __ZN6AriSdk36ARI_IBISimPbUsimPbSelectRspCb_V1_SDKD1Ev
__ libARI.dylib: __ZN6AriSdk36ARI_IBISimTkConfigureStkCmdRspCb_SDK6unpackEv
__ libARI.dylib: __ZN6AriSdk36ARI_IBISimTkConfigureStkCmdRspCb_SDKC1EPKhj
__ libARI.dylib: __ZN6AriSdk36ARI_IBISimTkConfigureStkCmdRspCb_SDKD1Ev
__ libARI.dylib: __ZN6AriSdk36ARI_IBISimTkEnvelopeCommandRspCb_SDK6unpackEv
__ libARI.dylib: __ZN6AriSdk36ARI_IBISimTkEnvelopeCommandRspCb_SDKC1EPKhj
__ libARI.dylib: __ZN6AriSdk36ARI_IBISimTkEnvelopeCommandRspCb_SDKD1Ev
__ libARI.dylib: __ZN6AriSdk37ARI_IBICallCsCallingNameInfoIndCb_SDK6unpackEv
__ libARI.dylib: __ZN6AriSdk37ARI_IBICallCsCallingNameInfoIndCb_SDKC1EPKhj
__ libARI.dylib: __ZN6AriSdk37ARI_IBICallCsCallingNameInfoIndCb_SDKD1Ev
__ libARI.dylib: __ZN6AriSdk37ARI_IBICallPsAttachApnConfigRspCb_SDK6unpackEv
__ libARI.dylib: __ZN6AriSdk37ARI_IBICallPsAttachApnConfigRspCb_SDKC1EPKhj
__ libARI.dylib: __ZN6AriSdk37ARI_IBICallPsAttachApnConfigRspCb_SDKD1Ev
__ libARI.dylib: __ZN6AriSdk37ARI_IBICallPsCriticalPsSessionReq_SDKC1Ev
__ libARI.dylib: __ZN6AriSdk37ARI_IBICallPsCriticalPsSessionReq_SDKD1Ev
__ libARI.dylib: __ZN6AriSdk37ARI_IBICallPsDataCallStoppedIndCb_SDK6unpackEv
__ libARI.dylib: __ZN6AriSdk37ARI_IBICallPsDataCallStoppedIndCb_SDKC1EPKhj
__ libARI.dylib: __ZN6AriSdk37ARI_IBICallPsDataCallStoppedIndCb_SDKD1Ev
__ libARI.dylib: __ZN6AriSdk37ARI_IBINetConfigureNetworkModeReq_SDKC1Ev
__ libARI.dylib: __ZN6AriSdk37ARI_IBINetConfigureNetworkModeReq_SDKD1Ev
__ libARI.dylib: __ZN6AriSdk37ARI_IBINetGetPlmnNameInfoRspCb_V1_SDK6unpackEv
__ libARI.dylib: __ZN6AriSdk37ARI_IBINetGetPlmnNameInfoRspCb_V1_SDKC1EPKhj
__ libARI.dylib: __ZN6AriSdk37ARI_IBINetGetPlmnNameInfoRspCb_V1_SDKD1Ev
__ libARI.dylib: __ZN6AriSdk37ARI_IBINetSetRadioSignalReporting_SDKC1Ev
__ libARI.dylib: __ZN6AriSdk37ARI_IBINetSetRadioSignalReporting_SDKD1Ev
__ libARI.dylib: __ZN6AriSdk37ARI_IBISimFileGetCdmaAuxInfoRspCb_SDK6unpackEv
__ libARI.dylib: __ZN6AriSdk37ARI_IBISimFileGetCdmaAuxInfoRspCb_SDKC1EPKhj
__ libARI.dylib: __ZN6AriSdk37ARI_IBISimFileGetCdmaAuxInfoRspCb_SDKD1Ev
__ libARI.dylib: __ZN6AriSdk37ARI_IBISimTkSetRequiredFcnListReq_SDKC1Ev
__ libARI.dylib: __ZN6AriSdk37ARI_IBISimTkSetRequiredFcnListReq_SDKD1Ev
__ libARI.dylib: __ZN6AriSdk37ARI_IBISmsDeliverySessionStatusCb_SDK6unpackEv
__ libARI.dylib: __ZN6AriSdk37ARI_IBISmsDeliverySessionStatusCb_SDKC1EPKhj
__ libARI.dylib: __ZN6AriSdk37ARI_IBISmsDeliverySessionStatusCb_SDKD1Ev
__ libARI.dylib: __ZN6AriSdk38ARI_CsiIceAudSetAudioLoggingRespCb_SDK6unpackEv
__ libARI.dylib: __ZN6AriSdk38ARI_CsiIceAudSetAudioLoggingRespCb_SDKC1EPKhj
__ libARI.dylib: __ZN6AriSdk38ARI_CsiIceAudSetAudioLoggingRespCb_SDKD1Ev
__ libARI.dylib: __ZN6AriSdk38ARI_CsiIceSecActivationRegisterReq_SDKC1Ev
__ libARI.dylib: __ZN6AriSdk38ARI_CsiIceSecActivationRegisterReq_SDKD1Ev
__ libARI.dylib: __ZN6AriSdk38ARI_IBICallCsSetTtyDeviceModeRspCb_SDK6unpackEv
__ libARI.dylib: __ZN6AriSdk38ARI_IBICallCsSetTtyDeviceModeRspCb_SDKC1EPKhj
__ libARI.dylib: __ZN6AriSdk38ARI_IBICallCsSetTtyDeviceModeRspCb_SDKD1Ev
__ libARI.dylib: __ZN6AriSdk38ARI_IBICallPsDataTransferTimeRspCb_SDK6unpackEv
__ libARI.dylib: __ZN6AriSdk38ARI_IBICallPsDataTransferTimeRspCb_SDKC1EPKhj
__ libARI.dylib: __ZN6AriSdk38ARI_IBICallPsDataTransferTimeRspCb_SDKD1Ev
__ libARI.dylib: __ZN6AriSdk38ARI_IBICallPsLTEAttachApnConfigReq_SDKC1Ev
__ libARI.dylib: __ZN6AriSdk38ARI_IBICallPsLTEAttachApnConfigReq_SDKD1Ev
__ libARI.dylib: __ZN6AriSdk38ARI_IBICallPsTrafficClassInfoRspCb_SDK6unpackEv
__ libARI.dylib: __ZN6AriSdk38ARI_IBICallPsTrafficClassInfoRspCb_SDKC1EPKhj
__ libARI.dylib: __ZN6AriSdk38ARI_IBICallPsTrafficClassInfoRspCb_SDKD1Ev
__ libARI.dylib: __ZN6AriSdk38ARI_IBINetEmergencyCellSearchRspCb_SDK6unpackEv
__ libARI.dylib: __ZN6AriSdk38ARI_IBINetEmergencyCellSearchRspCb_SDKC1EPKhj
__ libARI.dylib: __ZN6AriSdk38ARI_IBINetEmergencyCellSearchRspCb_SDKD1Ev
__ libARI.dylib: __ZN6AriSdk38ARI_IBINetGetRegistrationInfoRspCb_SDK6unpackEv
__ libARI.dylib: __ZN6AriSdk38ARI_IBINetGetRegistrationInfoRspCb_SDKC1EPKhj
__ libARI.dylib: __ZN6AriSdk38ARI_IBINetGetRegistrationInfoRspCb_SDKD1Ev
__ libARI.dylib: __ZN6AriSdk38ARI_IBISendPreferredPlmnVersionReq_SDKC1Ev
__ libARI.dylib: __ZN6AriSdk38ARI_IBISendPreferredPlmnVersionReq_SDKD1Ev
__ libARI.dylib: __ZN6AriSdk38ARI_IBISimGetFullAccessStatusRspCb_SDK6unpackEv
__ libARI.dylib: __ZN6AriSdk38ARI_IBISimGetFullAccessStatusRspCb_SDKC1EPKhj
__ libARI.dylib: __ZN6AriSdk38ARI_IBISimGetFullAccessStatusRspCb_SDKD1Ev
__ libARI.dylib: __ZN6AriSdk39ARI_CsiIceSecActivationTicketSetReq_SDKC1Ev
__ libARI.dylib: __ZN6AriSdk39ARI_CsiIceSecActivationTicketSetReq_SDKD1Ev
__ libARI.dylib: __ZN6AriSdk39ARI_IBICallPsCriticalPsSessionRspCb_SDK6unpackEv
__ libARI.dylib: __ZN6AriSdk39ARI_IBICallPsCriticalPsSessionRspCb_SDKC1EPKhj
__ libARI.dylib: __ZN6AriSdk39ARI_IBICallPsCriticalPsSessionRspCb_SDKD1Ev
__ libARI.dylib: __ZN6AriSdk39ARI_IBICallPsSetKeepaliveOffloadReq_SDKC1Ev
__ libARI.dylib: __ZN6AriSdk39ARI_IBICallPsSetKeepaliveOffloadReq_SDKD1Ev
__ libARI.dylib: __ZN6AriSdk39ARI_IBINetConfigureNetworkModeRspCb_SDK6unpackEv
__ libARI.dylib: __ZN6AriSdk39ARI_IBINetConfigureNetworkModeRspCb_SDKC1EPKhj
__ libARI.dylib: __ZN6AriSdk39ARI_IBINetConfigureNetworkModeRspCb_SDKD1Ev
__ libARI.dylib: __ZN6AriSdk39ARI_IBISimTkSetRequiredFcnListRspCb_SDK6unpackEv
__ libARI.dylib: __ZN6AriSdk39ARI_IBISimTkSetRequiredFcnListRspCb_SDKC1EPKhj
__ libARI.dylib: __ZN6AriSdk39ARI_IBISimTkSetRequiredFcnListRspCb_SDKD1Ev
__ libARI.dylib: __ZN6AriSdk39ARI_IBISmsConfirmSmsDataDownloadAck_SDKC1Ev
__ libARI.dylib: __ZN6AriSdk39ARI_IBISmsConfirmSmsDataDownloadAck_SDKD1Ev
__ libARI.dylib: __ZN6AriSdk39ARI_IBISmsSetSendMoreMessagesStatus_SDKC1Ev
__ libARI.dylib: __ZN6AriSdk39ARI_IBISmsSetSendMoreMessagesStatus_SDKD1Ev
__ libARI.dylib: __ZN6AriSdk40ARI_CsiIceSecActivationRegisterIndCb_SDK6unpackEv
__ libARI.dylib: __ZN6AriSdk40ARI_CsiIceSecActivationRegisterIndCb_SDKC1EPKhj
__ libARI.dylib: __ZN6AriSdk40ARI_CsiIceSecActivationRegisterIndCb_SDKD1Ev
__ libARI.dylib: __ZN6AriSdk40ARI_IBICallCsVoimsSessionTransferReq_SDKC1Ev
__ libARI.dylib: __ZN6AriSdk40ARI_IBICallCsVoimsSessionTransferReq_SDKD1Ev
__ libARI.dylib: __ZN6AriSdk40ARI_IBICallCsVoimsSrvccHoStatusIndCb_SDK6unpackEv
__ libARI.dylib: __ZN6AriSdk40ARI_IBICallCsVoimsSrvccHoStatusIndCb_SDKC1EPKhj
__ libARI.dylib: __ZN6AriSdk40ARI_IBICallCsVoimsSrvccHoStatusIndCb_SDKD1Ev
__ libARI.dylib: __ZN6AriSdk40ARI_IBINetIceCellularSwitchStatusReq_SDKC1Ev
__ libARI.dylib: __ZN6AriSdk40ARI_IBINetIceCellularSwitchStatusReq_SDKD1Ev
__ libARI.dylib: __ZN6AriSdk40ARI_IBINetRegisteredPlmnNameIndCb_V1_SDK6unpackEv
__ libARI.dylib: __ZN6AriSdk40ARI_IBINetRegisteredPlmnNameIndCb_V1_SDKC1EPKhj
__ libARI.dylib: __ZN6AriSdk40ARI_IBINetRegisteredPlmnNameIndCb_V1_SDKD1Ev
__ libARI.dylib: __ZN6AriSdk40ARI_IBISendPreferredPlmnVersionRspCb_SDK6unpackEv
__ libARI.dylib: __ZN6AriSdk40ARI_IBISendPreferredPlmnVersionRspCb_SDKC1EPKhj
__ libARI.dylib: __ZN6AriSdk40ARI_IBISendPreferredPlmnVersionRspCb_SDKD1Ev
__ libARI.dylib: __ZN6AriSdk40ARI_IBISimPbGetMetaInformationReq_V1_SDKC1Ev
__ libARI.dylib: __ZN6AriSdk40ARI_IBISimPbGetMetaInformationReq_V1_SDKD1Ev
__ libARI.dylib: __ZN6AriSdk41ARI_CsiIceSecActivationRegisterRespCb_SDK6unpackEv
__ libARI.dylib: __ZN6AriSdk41ARI_CsiIceSecActivationRegisterRespCb_SDKC1EPKhj
__ libARI.dylib: __ZN6AriSdk41ARI_CsiIceSecActivationRegisterRespCb_SDKD1Ev
__ libARI.dylib: __ZN6AriSdk41ARI_IBICallPsSetKeepaliveOffloadRspCb_SDK6unpackEv
__ libARI.dylib: __ZN6AriSdk41ARI_IBICallPsSetKeepaliveOffloadRspCb_SDKC1EPKhj
__ libARI.dylib: __ZN6AriSdk41ARI_IBICallPsSetKeepaliveOffloadRspCb_SDKD1Ev
__ libARI.dylib: __ZN6AriSdk41ARI_IBICallPsWiFiAssociationStatusReq_SDKC1Ev
__ libARI.dylib: __ZN6AriSdk41ARI_IBICallPsWiFiAssociationStatusReq_SDKD1Ev
__ libARI.dylib: __ZN6AriSdk42ARI_CsiIceSecActivationTicketSetRespCb_SDK6unpackEv
__ libARI.dylib: __ZN6AriSdk42ARI_CsiIceSecActivationTicketSetRespCb_SDKC1EPKhj
__ libARI.dylib: __ZN6AriSdk42ARI_CsiIceSecActivationTicketSetRespCb_SDKD1Ev
__ libARI.dylib: __ZN6AriSdk42ARI_IBICallCsVoimsSessionTransferRspCb_SDK6unpackEv
__ libARI.dylib: __ZN6AriSdk42ARI_IBICallCsVoimsSessionTransferRspCb_SDKC1EPKhj
__ libARI.dylib: __ZN6AriSdk42ARI_IBICallCsVoimsSessionTransferRspCb_SDKD1Ev
__ libARI.dylib: __ZN6AriSdk42ARI_IBINetDcImsProvideImsRegStatusInfo_SDKC1Ev
__ libARI.dylib: __ZN6AriSdk42ARI_IBINetDcImsProvideImsRegStatusInfo_SDKD1Ev
__ libARI.dylib: __ZN6AriSdk42ARI_IBINetIceCellularSwitchStatusRspCb_SDK6unpackEv
__ libARI.dylib: __ZN6AriSdk42ARI_IBINetIceCellularSwitchStatusRspCb_SDKC1EPKhj
__ libARI.dylib: __ZN6AriSdk42ARI_IBINetIceCellularSwitchStatusRspCb_SDKD1Ev
__ libARI.dylib: __ZN6AriSdk42ARI_IBISimPbGetMetaInformationIndCb_V1_SDK6unpackEv
__ libARI.dylib: __ZN6AriSdk42ARI_IBISimPbGetMetaInformationIndCb_V1_SDKC1EPKhj
__ libARI.dylib: __ZN6AriSdk42ARI_IBISimPbGetMetaInformationIndCb_V1_SDKD1Ev
__ libARI.dylib: __ZN6AriSdk42ARI_IBISimPbGetMetaInformationRspCb_V1_SDK6unpackEv
__ libARI.dylib: __ZN6AriSdk42ARI_IBISimPbGetMetaInformationRspCb_V1_SDKC1EPKhj
__ libARI.dylib: __ZN6AriSdk42ARI_IBISimPbGetMetaInformationRspCb_V1_SDKD1Ev
__ libARI.dylib: __ZN6AriSdk43ARI_IBICallPsWiFiAssociationStatusRspCb_SDK6unpackEv
__ libARI.dylib: __ZN6AriSdk43ARI_IBICallPsWiFiAssociationStatusRspCb_SDKC1EPKhj
__ libARI.dylib: __ZN6AriSdk43ARI_IBICallPsWiFiAssociationStatusRspCb_SDKD1Ev
__ libARI.dylib: __ZN6AriSdk43ARI_IBINetDcImsProvideImsRegStatusRspCb_SDK6unpackEv
__ libARI.dylib: __ZN6AriSdk43ARI_IBINetDcImsProvideImsRegStatusRspCb_SDKC1EPKhj
__ libARI.dylib: __ZN6AriSdk43ARI_IBINetDcImsProvideImsRegStatusRspCb_SDKD1Ev
__ libARI.dylib: __ZN6AriSdk44ARI_IBICallPsIPV6AddrFormationSuccessReq_SDKC1Ev
__ libARI.dylib: __ZN6AriSdk44ARI_IBICallPsIPV6AddrFormationSuccessReq_SDKD1Ev
__ libARI.dylib: __ZN6AriSdk44ARI_IBINetNetworkFeatureSupportInfoIndCb_SDK6unpackEv
__ libARI.dylib: __ZN6AriSdk44ARI_IBINetNetworkFeatureSupportInfoIndCb_SDKC1EPKhj
__ libARI.dylib: __ZN6AriSdk44ARI_IBINetNetworkFeatureSupportInfoIndCb_SDKD1Ev
__ libARI.dylib: __ZN6AriSdk45ARI_IBICallPsAllowMultiplePDNToSameApnReq_SDKC1Ev
__ libARI.dylib: __ZN6AriSdk45ARI_IBICallPsAllowMultiplePDNToSameApnReq_SDKD1Ev
__ libARI.dylib: __ZN6AriSdk45ARI_IBINetSetSystemSelectionPreferenceReq_SDKC1Ev
__ libARI.dylib: __ZN6AriSdk45ARI_IBINetSetSystemSelectionPreferenceReq_SDKD1Ev
__ libARI.dylib: __ZN6AriSdk46ARI_IBICallPsIPV6AddrFormationSuccessRspCb_SDK6unpackEv
__ libARI.dylib: __ZN6AriSdk46ARI_IBICallPsIPV6AddrFormationSuccessRspCb_SDKC1EPKhj
__ libARI.dylib: __ZN6AriSdk46ARI_IBICallPsIPV6AddrFormationSuccessRspCb_SDKD1Ev
__ libARI.dylib: __ZN6AriSdk47ARI_IBICallPsAllowMultiplePDNToSameApnRspCb_SDK6unpackEv
__ libARI.dylib: __ZN6AriSdk47ARI_IBICallPsAllowMultiplePDNToSameApnRspCb_SDKC1EPKhj
__ libARI.dylib: __ZN6AriSdk47ARI_IBICallPsAllowMultiplePDNToSameApnRspCb_SDKD1Ev
__ libARI.dylib: __ZN6AriSdk47ARI_IBINetSetSystemSelectionPreferenceRspCb_SDK6unpackEv
__ libARI.dylib: __ZN6AriSdk47ARI_IBINetSetSystemSelectionPreferenceRspCb_SDKC1EPKhj
__ libARI.dylib: __ZN6AriSdk47ARI_IBINetSetSystemSelectionPreferenceRspCb_SDKD1Ev
__ libARI.dylib: __ZN6AriSdk47ARI_IBINetSingleShotRadioSignalReportingReq_SDKC1Ev
__ libARI.dylib: __ZN6AriSdk47ARI_IBINetSingleShotRadioSignalReportingReq_SDKD1Ev
__ libARI.dylib: __ZN6AriSdk49ARI_IBINetDcSetVoiceDomainPreferenceConfigReq_SDKC1Ev
__ libARI.dylib: __ZN6AriSdk49ARI_IBINetDcSetVoiceDomainPreferenceConfigReq_SDKD1Ev
__ libARI.dylib: __ZN6AriSdk49ARI_IBINetSingleShotRadioSignalReportingRspCb_SDK6unpackEv
__ libARI.dylib: __ZN6AriSdk49ARI_IBINetSingleShotRadioSignalReportingRspCb_SDKC1EPKhj
__ libARI.dylib: __ZN6AriSdk49ARI_IBINetSingleShotRadioSignalReportingRspCb_SDKD1Ev
__ libARI.dylib: __ZN6AriSdk50ARI_IBINetSetRadioSignalReportingConfiguration_SDKC1Ev
__ libARI.dylib: __ZN6AriSdk50ARI_IBINetSetRadioSignalReportingConfiguration_SDKD1Ev
__ libARI.dylib: __ZN6AriSdk51ARI_IBINetDcSetVoiceDomainPreferenceConfigRspCb_SDK6unpackEv
__ libARI.dylib: __ZN6AriSdk51ARI_IBINetDcSetVoiceDomainPreferenceConfigRspCb_SDKC1EPKhj
__ libARI.dylib: __ZN6AriSdk51ARI_IBINetDcSetVoiceDomainPreferenceConfigRspCb_SDKD1Ev
__ libARI.dylib: __ZN6AriSdk53ARI_IBICallCsEmergencyCallIntermediateStatusIndCb_SDK6unpackEv
__ libARI.dylib: __ZN6AriSdk53ARI_IBICallCsEmergencyCallIntermediateStatusIndCb_SDKC1EPKhj
__ libARI.dylib: __ZN6AriSdk53ARI_IBICallCsEmergencyCallIntermediateStatusIndCb_SDKD1Ev
__ libARI.dylib: __ZN6AriSdk7MsgBase11getRawBytesERNSt3__110shared_ptrIKNS1_6vectorIhNS1_9allocatorIhEEEEEE
__ libARI.dylib: __ZN6AriSdk7MsgBase4sendEiU13block_pointerFiPhjE
__ libARI.dylib: __ZN7AriHost13RegIndicationEjiU13block_pointerFiPhjE
__ libARI.dylib: __ZN7AriHost14RegisterClientEPKcPiP16dispatch_queue_sj
__ libARI.dylib: __ZN7AriHost14SetMsgWakeableEjbiNSt3__18functionIFviEEE
__ libARI.dylib: __ZN7AriHost15DeregIndicationEji
__ libARI.dylib: __ZN7AriHost16DeregisterClientEi
__ libARI.dylib: __ZN7AriHost17SetRTEventHandlerEiNS_13ClientRTEventEU13block_pointerFiP16dispatch_group_sE
__ libARI.dylib: __ZN7AriHost7ExitTrxEib
__ libARI.dylib: __ZNK6AriMsg6unpackEjPvmPbPm
__ libARI.dylib: __ZNK6AriMsg7isValidEj
__ libARI.dylib: __ZNK6AriSdk7MsgBase7getGMIDEv
__ libARI.dylib: __ZTIN6AriSdk33ARI_CsiIceAudVocoderInfoIndCb_SDKE
__ libARI.dylib: __ZTIN6AriSdk34ARI_CsiIceAudVocoderInfoRespCb_SDKE
__ libARI.dylib: __ZTIN6AriSdk7MsgBaseE
__ libCommCenterBase.dylib: _CSIErrorString
__ libCommCenterBase.dylib: _CSIEventString
__ libCommCenterBase.dylib: __Z10createPLMNiib
__ libCommCenterBase.dylib: __Z11getCSIError22ERROR_3GPP_END_REASONS
__ libCommCenterBase.dylib: __Z11getDSReason22ERROR_3GPP_END_REASONS
__ libCommCenterBase.dylib: __Z12asStringBoolb
__ libCommCenterBase.dylib: __Z12decodeBufferPKvm16DataCodingScheme
__ libCommCenterBase.dylib: __Z12decodeStringRKNSt3__112basic_stringIcNS_11char_traitsIcEENS_9allocatorIcEEEERS5_
__ libCommCenterBase.dylib: __Z14sGetEmptyAddrsv
__ libCommCenterBase.dylib: __Z14shouldRetrySMSN10subscriber7SimSlotERKNSt3__110shared_ptrIK8RegistryEEi
__ libCommCenterBase.dylib: __Z15CSIboolAsStringb
__ libCommCenterBase.dylib: __Z16CSIDateToSecondsRK7CSIDate
__ libCommCenterBase.dylib: __Z16appendDataSoMaskRj14DataSoMaskBits
__ libCommCenterBase.dylib: __Z17ratSelectionAsStrh
__ libCommCenterBase.dylib: __Z18asStringDataSoMaskj
__ libCommCenterBase.dylib: __Z20asWirelessTechnology21RadioAccessTechnology
__ libCommCenterBase.dylib: __Z21gsmToCsiErrorWithCode18GsmFinalResultTypei
__ libCommCenterBase.dylib: __Z22attachApnLogDomainNameN10subscriber7SimSlotE
__ libCommCenterBase.dylib: __Z22numberContainsAlphabetRKNSt3__112basic_stringIcNS_11char_traitsIcEENS_9allocatorIcEEEE
__ libCommCenterBase.dylib: __Z25DevicePersistentCopyValuePK10__CFStringPKv
__ libCommCenterBase.dylib: __Z25decodeCbsDataCodingSchemei
__ libCommCenterBase.dylib: __Z25decodeSmsDataCodingSchemei
__ libCommCenterBase.dylib: __Z26WirelessTechnologyAsString18WirelessTechnology
__ libCommCenterBase.dylib: __Z26convertOtaspStatusToString11OtaspStatus
__ libCommCenterBase.dylib: __Z30decodePackedBCDExtendedAddressPKvm
__ libCommCenterBase.dylib: __Z30encodePackedBCDExtendedAddressRKNSt3__112basic_stringIcNS_11char_traitsIcEENS_9allocatorIcEEEE
__ libCommCenterBase.dylib: __Z7addMask22ExplicitIpv6ConfigMaskS_
__ libCommCenterBase.dylib: __Z8asString10RFBandType
__ libCommCenterBase.dylib: __Z8asString10Technology
__ libCommCenterBase.dylib: __Z8asString11AudioToneId
__ libCommCenterBase.dylib: __Z8asString11DSErrorType
__ libCommCenterBase.dylib: __Z8asString13PhoneBookType
__ libCommCenterBase.dylib: __Z8asString14LASDStatusHint
__ libCommCenterBase.dylib: __Z8asString16DataContextState
__ libCommCenterBase.dylib: __Z8asString16ProactiveCommand
__ libCommCenterBase.dylib: __Z8asString16STKEventListType
__ libCommCenterBase.dylib: __Z8asString16SetMaxRateSource
__ libCommCenterBase.dylib: __Z8asString17NetworkNameSource
__ libCommCenterBase.dylib: __Z8asString18DataProtocolFamily
__ libCommCenterBase.dylib: __Z8asString18RegistrationStatus
__ libCommCenterBase.dylib: __Z8asString18STKDriverEventType
__ libCommCenterBase.dylib: __Z8asString20NetworkSelectionMode
__ libCommCenterBase.dylib: __Z8asString20NotificationResponse
__ libCommCenterBase.dylib: __Z8asString21EnhancedLQMIndication
__ libCommCenterBase.dylib: __Z8asString21RadioAccessTechnology
__ libCommCenterBase.dylib: __Z8asString22CellularDataTechnology
__ libCommCenterBase.dylib: __Z8asString22ERROR_3GPP_END_REASONS
__ libCommCenterBase.dylib: __Z8asString22FrequencyReportingMode
__ libCommCenterBase.dylib: __Z8asString24AntennaSwitchCommandType
__ libCommCenterBase.dylib: __Z8asString24LteEmergencySupportState
__ libCommCenterBase.dylib: __Z8asString25SilentRedialOverIMSReason
__ libCommCenterBase.dylib: __Z8asString27DataContextDeactivateReason
__ libCommCenterBase.dylib: __Z8asString30NotificationAdditionalResponse
__ libCommCenterBase.dylib: __Z8asString4Type
__ libCommCenterBase.dylib: __Z8asString7CtmMode
__ libCommCenterBase.dylib: __Z8asString8CSIError
__ libCommCenterBase.dylib: __Z8asString8DataMode
__ libCommCenterBase.dylib: __Z8asString9CallState
__ libCommCenterBase.dylib: __Z8asString9FetchType
__ libCommCenterBase.dylib: __Z8asStringRKNSt3__16vectorI8DataModeNS_9allocatorIS1_EEEE
__ libCommCenterBase.dylib: __Z9isCdmaRat21RadioAccessTechnology
__ libCommCenterBase.dylib: __Z9printUuidN3ctu2cf11CFSharedRefIK8__CFUUIDEE
__ libCommCenterBase.dylib: __ZN10subscriber13isEsimCapableERKNS_15VinylCapabilityE
__ libCommCenterBase.dylib: __ZN10subscriber13simTypeToCardENS_7SimTypeE
__ libCommCenterBase.dylib: __ZN10subscriber14isValidSimSlotERKNSt3__110shared_ptrIK8RegistryEENS_7SimSlotE
__ libCommCenterBase.dylib: __ZN10subscriber16makeSimSlotRangeERKNSt3__110shared_ptrIK8RegistryEENS_7SimSlotE
__ libCommCenterBase.dylib: __ZN10subscriber17instanceAsSimSlotEj
__ libCommCenterBase.dylib: __ZN10subscriber17simSlotAsInstanceENS_7SimSlotE
__ libCommCenterBase.dylib: __ZN10subscriber8asStringENS_11SimFilePathE
__ libCommCenterBase.dylib: __ZN10subscriber8asStringENS_7SimCardE
__ libCommCenterBase.dylib: __ZN10subscriber8asStringENS_7SimSlotE
__ libCommCenterBase.dylib: __ZN10subscriber8asStringENS_7SimTypeE
__ libCommCenterBase.dylib: __ZN10subscriber8asStringENS_8AuthTypeE
__ libCommCenterBase.dylib: __ZN10subscriberlsERNSt3__113basic_ostreamIcNS0_11char_traitsIcEEEERKNS_7SimSlotE
__ libCommCenterBase.dylib: __ZN12OTASPService19handleNotRegisteredEv
__ libCommCenterBase.dylib: __ZN12OTASPService22setVisibleOTASPStartedEb
__ libCommCenterBase.dylib: __ZN12OTASPService25handleOtaspCallIndicationEbiN10subscriber7SimSlotE
__ libCommCenterBase.dylib: __ZN12OTASPServiceC2ERKNSt3__110shared_ptrIK8RegistryEEN8dispatch5queueERKNS1_I28ServiceProvisioningInterfaceEEPKc
__ libCommCenterBase.dylib: __ZN12OTASPServiceD2Ev
__ libCommCenterBase.dylib: __ZN13PDPMetricInfo5clearEv
__ libCommCenterBase.dylib: __ZN13PDPMetricInfoD1Ev
__ libCommCenterBase.dylib: __ZN13SmsPduEncoder10encodeTpduERKNSt3__112basic_stringIcNS0_11char_traitsIcEENS0_9allocatorIcEEEE
__ libCommCenterBase.dylib: __ZN13SmsPduEncoder11getContentsEPi
__ libCommCenterBase.dylib: __ZN13SmsPduEncoder16setServiceCenterERK14CSIPhoneNumber
__ libCommCenterBase.dylib: __ZN13SmsPduEncoderC1Eb
__ libCommCenterBase.dylib: __ZN13SmsPduEncoderD1Ev
__ libCommCenterBase.dylib: __ZN14ActivationInfoC1Ev
__ libCommCenterBase.dylib: __ZN14CSIPhoneNumberC1EPKc
__ libCommCenterBase.dylib: __ZN14CSIPhoneNumberC1ERKNSt3__112basic_stringIcNS0_11char_traitsIcEENS0_9allocatorIcEEEE
__ libCommCenterBase.dylib: __ZN14CSIPhoneNumberC1EiRKNSt3__112basic_stringIcNS0_11char_traitsIcEENS0_9allocatorIcEEEE
__ libCommCenterBase.dylib: __ZN14CSIPhoneNumberC1Ev
__ libCommCenterBase.dylib: __ZN14PBCapabilities10SecondNameC1Ev
__ libCommCenterBase.dylib: __ZN14PBCapabilities13HiddenRecordsC1Ev
__ libCommCenterBase.dylib: __ZN14PBCapabilities13PrimaryNumberC1Ev
__ libCommCenterBase.dylib: __ZN14PBCapabilities15AdditionaNumberC1Ev
__ libCommCenterBase.dylib: __ZN14PBCapabilities5EmailC1Ev
__ libCommCenterBase.dylib: __ZN14PBCapabilities6GroupsC1Ev
__ libCommCenterBase.dylib: __ZN15ChipInformationC1Ev
__ libCommCenterBase.dylib: __ZN16CSIPacketAddress12setPrefixLenEh
__ libCommCenterBase.dylib: __ZN16CSIPacketAddress14setIPv4AddressEj
__ libCommCenterBase.dylib: __ZN16CSIPacketAddress14setIPv6AddressEPKhm
__ libCommCenterBase.dylib: __ZN16CSIPacketAddress15applyMaskPrefixEj
__ libCommCenterBase.dylib: __ZN16CSIPacketAddressC1ERKS_
__ libCommCenterBase.dylib: __ZN16CSIPacketAddressC1Ev
__ libCommCenterBase.dylib: __ZN16CSIPacketAddressaSERKS_
__ libCommCenterBase.dylib: __ZN19NetworkListOperatorC1ERKNSt3__112basic_stringIcNS0_11char_traitsIcEENS0_9allocatorIcEEEE21RadioAccessTechnologyRK3MCCRK3MNC17NetworkNameSource
__ libCommCenterBase.dylib: __ZN19PersonalitySpecificD2Ev
__ libCommCenterBase.dylib: __ZN23PersonalitySpecificImplC2ERKNSt3__110shared_ptrIK15PersonalityInfoEE
__ libCommCenterBase.dylib: __ZN23PersonalitySpecificImplD0Ev
__ libCommCenterBase.dylib: __ZN23PersonalitySpecificImplD1Ev
__ libCommCenterBase.dylib: __ZN23PersonalitySpecificImplD2Ev
__ libCommCenterBase.dylib: __ZN30PreferredNetworksCommandDriver7setImsiERKNSt3__112basic_stringIcNS0_11char_traitsIcEENS0_9allocatorIcEEEE
__ libCommCenterBase.dylib: __ZN30PreferredNetworksCommandDriverC2ERKNSt3__110shared_ptrIK8RegistryEE
__ libCommCenterBase.dylib: __ZN30PreferredNetworksCommandDriverD2Ev
__ libCommCenterBase.dylib: __ZN31ES10TapeLoadBoundProfilePackage14getNextPayloadERNSt3__16vectorIhNS0_9allocatorIhEEEE
__ libCommCenterBase.dylib: __ZN31ES10TapeLoadBoundProfilePackageC1ENSt3__16vectorIhNS0_9allocatorIhEEEE
__ libCommCenterBase.dylib: __ZN3MCCC1Et
__ libCommCenterBase.dylib: __ZN3MCCC1Ev
__ libCommCenterBase.dylib: __ZN3MCCaSERKS_
__ libCommCenterBase.dylib: __ZN3MNCC1EtRK3MCC
__ libCommCenterBase.dylib: __ZN3MNCC1Ev
__ libCommCenterBase.dylib: __ZN3sms5Model12setMessageIDEt
__ libCommCenterBase.dylib: __ZN3sms8asStringENS_10SMSPduTypeE
__ libCommCenterBase.dylib: __ZN3sms8asStringENS_19MsgPduProcessStatusE
__ libCommCenterBase.dylib: __ZN42PreferredNetworksCommandDriverEventHandlerD2Ev
__ libCommCenterBase.dylib: __ZN4rest12ResetPayloadC1ENSt3__112basic_stringIcNS1_11char_traitsIcEENS1_9allocatorIcEEEEb
__ libCommCenterBase.dylib: __ZN4rest16write_rest_valueERKNS_12ResetPayloadE
__ libCommCenterBase.dylib: __ZN4rest19kDefaultDeviceTypesE
__ libCommCenterBase.dylib: __ZN6detail18createOsLogLoggersERKNSt3__110shared_ptrIK8RegistryEERKNS0_8functionIFKPKcN10subscriber7SimSlotEEEE
__ libCommCenterBase.dylib: __ZN6detail23createLoggerBaseLoggersERKNSt3__110shared_ptrIK8RegistryEERKNS0_8functionIFKPKcN10subscriber7SimSlotEEEE
__ libCommCenterBase.dylib: __ZN6detail23createUnknownLoggerBaseERKNSt3__110shared_ptrIK8RegistryEERKNS0_8functionIFKPKcN10subscriber7SimSlotEEEE
__ libCommCenterBase.dylib: __ZN6detail24createUnknownOsLogLoggerERKNSt3__18functionIFKPKcN10subscriber7SimSlotEEEE
__ libCommCenterBase.dylib: __ZN8CallInfo14kDefaultCallIdE
__ libCommCenterBase.dylib: __ZN9CSILoggerC1ERKN3ctu12OsLogContextE
__ libCommCenterBase.dylib: __ZN9CSILoggerD1Ev
__ libCommCenterBase.dylib: __ZN9DataUtils18getDataContextNameEN10subscriber7SimSlotEPKci
__ libCommCenterBase.dylib: __ZN9MCCAndMNCC1ERK3MCCRK3MNC
__ libCommCenterBase.dylib: __ZN9MCCAndMNCC1ERKNSt3__112basic_stringIcNS0_11char_traitsIcEENS0_9allocatorIcEEEE
__ libCommCenterBase.dylib: __ZN9MCCAndMNCC1Ett
__ libCommCenterBase.dylib: __ZNK14CSIPhoneNumber13getBaseNumberEv
__ libCommCenterBase.dylib: __ZNK14CSIPhoneNumber13getFullNumberEv
__ libCommCenterBase.dylib: __ZNK14CSIPhoneNumber16getTypeOfAddressEv
__ libCommCenterBase.dylib: __ZNK16CSIPacketAddress11isLinkLocalEv
__ libCommCenterBase.dylib: __ZNK16CSIPacketAddress12getPrefixLenEv
__ libCommCenterBase.dylib: __ZNK16CSIPacketAddress12maskToPrefixEv
__ libCommCenterBase.dylib: __ZNK16CSIPacketAddress13toLocalLinkIdEv
__ libCommCenterBase.dylib: __ZNK16CSIPacketAddress6toIPv6EPhm
__ libCommCenterBase.dylib: __ZNK16CSIPacketAddress8isZeroIPEv
__ libCommCenterBase.dylib: __ZNK16CSIPacketAddresscvNSt3__112basic_stringIcNS0_11char_traitsIcEENS0_9allocatorIcEEEEEv
__ libCommCenterBase.dylib: __ZNK16CSIPacketAddresseqERKS_
__ libCommCenterBase.dylib: __ZNK19NetworkListOperator16getCompositeNameEv
__ libCommCenterBase.dylib: __ZNK19NetworkListOperator6getMCCEv
__ libCommCenterBase.dylib: __ZNK19NetworkListOperator6getMNCEv
__ libCommCenterBase.dylib: __ZNK21DataBBResetThrottling10toThrottleEv
__ libCommCenterBase.dylib: __ZNK23PersonalitySpecificImpl13personalityIdEv
__ libCommCenterBase.dylib: __ZNK23PersonalitySpecificImpl15personalityInfoEv
__ libCommCenterBase.dylib: __ZNK23PersonalitySpecificImpl7simSlotEv
__ libCommCenterBase.dylib: __ZNK30PreferredNetworksCommandDriver9isImsiSetEv
__ libCommCenterBase.dylib: __ZNK3MCC11getIntValueEv
__ libCommCenterBase.dylib: __ZNK3MCC14getStringValueEv
__ libCommCenterBase.dylib: __ZNK3MCC5validEv
__ libCommCenterBase.dylib: __ZNK3MNC12isThreeDigitEv
__ libCommCenterBase.dylib: __ZNK3MNC15getIntegerWidthEv
__ libCommCenterBase.dylib: __ZNK3sms5Model12getMessageIDEv
__ libCommCenterBase.dylib: __ZNK8CallInfo24getCCDisconnectErrorCodeEv
__ libCommCenterBase.dylib: __ZNK8CallInfocvbEv
__ libCommCenterBase.dylib: __ZNK8Registry12getLogServerEv
__ libCommCenterBase.dylib: __ZNK8Registry13getServiceMapEv
__ libCommCenterBase.dylib: __ZNK8Registry15getTimerServiceEv
__ libCommCenterBase.dylib: __ZNK8Registry19getRadioPersonalityEv
__ libCommCenterBase.dylib: __ZNK8Registry24createXpcJetsamAssertionENSt3__112basic_stringIcNS0_11char_traitsIcEENS0_9allocatorIcEEEENS0_6chrono8durationIxNS0_5ratioILl1ELl1EEEEE
__ libCommCenterBase.dylib: __ZNK8Registry36createRestModuleOneTimeUseConnectionEv
__ libCommCenterBase.dylib: __ZNK9MCCAndMNC6getMccEv
__ libCommCenterBase.dylib: __ZNK9MCCAndMNC6getMncEv
__ libCommCenterBase.dylib: __ZNK9MCCAndMNCltERKS_
__ libCommCenterBase.dylib: __ZTI12OTASPService
__ libCommCenterBase.dylib: __ZTI17SettingsInterface
__ libCommCenterBase.dylib: __ZTI21RegistrationInterface
__ libCommCenterBase.dylib: __ZTI22CarrierBundleInterface
__ libCommCenterBase.dylib: __ZTI23PersonalitySpecificImpl
__ libCommCenterBase.dylib: __ZTI24CarrierSettingsInterface
__ libCommCenterBase.dylib: __ZTI25BasebandSettingsInterface
__ libCommCenterBase.dylib: __ZTI26DisallowedNumbersInterface
__ libCommCenterBase.dylib: __ZTI30PreferredNetworksCommandDriver
__ libCommCenterBase.dylib: __ZTI42PreferredNetworksCommandDriverEventHandler
__ libCommCenterBase.dylib: __ZTV13PDPMetricInfo
__ libCommCenterBase.dylib: __ZTV19PersonalitySpecific
__ libCommCenterBase.dylib: __ZTV42PreferredNetworksCommandDriverEventHandler
__ libCommCenterBase.dylib: _baseLog
__ libCommCenterBase.dylib: _k3GPP
__ libCommCenterBase.dylib: _kAddCallAllowedKey
__ libCommCenterBase.dylib: _kAllowedWhileRoaming
__ libCommCenterBase.dylib: _kAmbiguousCallListKey
__ libCommCenterBase.dylib: _kAmbiguousMultiPartyKey
__ libCommCenterBase.dylib: _kAuthPrefCHAP
__ libCommCenterBase.dylib: _kAuthPrefPAP
__ libCommCenterBase.dylib: _kCALL_IBI_CD_LOG_DOMAIN
__ libCommCenterBase.dylib: _kCALL_IBI_OTASP_LOG_DOMAIN
__ libCommCenterBase.dylib: _kCTQualityOfServiceDestinationIP
__ libCommCenterBase.dylib: _kCTQualityOfServiceDestinationPort
__ libCommCenterBase.dylib: _kCTQualityOfServiceDropOperation
__ libCommCenterBase.dylib: _kCTQualityOfServiceFamily
__ libCommCenterBase.dylib: _kCTQualityOfServiceFamilyIPv4
__ libCommCenterBase.dylib: _kCTQualityOfServiceFamilyIPv6
__ libCommCenterBase.dylib: _kCTQualityOfServiceOffsetBytes
__ libCommCenterBase.dylib: _kCTQualityOfServicePayloadType
__ libCommCenterBase.dylib: _kCTQualityOfServiceSourceIP
__ libCommCenterBase.dylib: _kCTQualityOfServiceSourcePort
__ libCommCenterBase.dylib: _kCTQualityOfServiceTimestampValue
__ libCommCenterBase.dylib: _kCTQualityOfServiceTransactionID
__ libCommCenterBase.dylib: _kCTQualityOfServiceUniqueTag
__ libCommCenterBase.dylib: _kCallerIdDefaultValue
__ libCommCenterBase.dylib: _kCtLoggingSystemName
__ libCommCenterBase.dylib: _kEndAndAnswerAllowedKey
__ libCommCenterBase.dylib: _kEndToneInProgressKey
__ libCommCenterBase.dylib: _kHoldAllowedKey
__ libCommCenterBase.dylib: _kIsConferenceSideBarBlockedKey
__ libCommCenterBase.dylib: _kMaxMultiPartyCallCountKey
__ libCommCenterBase.dylib: _kMaxSupportedCallCountKey
__ libCommCenterBase.dylib: _kMergeableKey
__ libCommCenterBase.dylib: _kSendDTMFInBursts
__ libCommCenterBase.dylib: _kSwappableKey
__ libCommCenterBase.dylib: _kVoicePrivacyKey
__ libCommCenterCommandDrivers.dylib: __Z16write_rest_valueRK17CSGSearchResponse
__ libCommCenterCommandDrivers.dylib: __Z18decodeOperatorNamePKN3ctu11OsLogLoggerERKNSt3__16vectorIhNS3_9allocatorIhEEEE16DataCodingScheme
__ libCommCenterCommandDrivers.dylib: __Z24convertMaskToBandsForRaty21RadioAccessTechnology
__ libCommCenterCommandDrivers.dylib: __Z8asString14DormancyStatus
__ libCommCenterCommandDrivers.dylib: __Z8asString8BandType
__ libCommCenterCommandDrivers.dylib: __Z8asString8FileType
__ libCommCenterCommandDrivers.dylib: __ZN10SelectItemD1Ev
__ libCommCenterCommandDrivers.dylib: __ZN10subscriber14getSimFilePathEPKN3ctu10LoggerBaseINSt3__110shared_ptrINS0_9LogServerEEEEENS_7SimTypeERKNS_6FileIdE
__ libCommCenterCommandDrivers.dylib: __ZN10subscriber14markNotPresentERNS_13SimDriverInfo7AppInfoE
__ libCommCenterCommandDrivers.dylib: __ZN10subscriber15isFileIdInvalidERKNS_6FileIdE
__ libCommCenterCommandDrivers.dylib: __ZN10subscriber16SimCommandDriver16handleSimHwEventENS_7SimSlotENS_20SimHwTrayEventStatusE
__ libCommCenterCommandDrivers.dylib: __ZN10subscriber16SimCommandDriver36updateAndNotifySimTrayStatusIfNeededENS_12SimTrayStateENS_7SimSlotE
__ libCommCenterCommandDrivers.dylib: __ZN10subscriber16SimCommandDriverC2ERKNSt3__110shared_ptrIK8RegistryEERKN8dispatch5queueEPKcNS1_8functionIFKSD_NS_7SimSlotEEEE
__ libCommCenterCommandDrivers.dylib: __ZN10subscriber16SimCommandDriverD2Ev
__ libCommCenterCommandDrivers.dylib: __ZN10subscriber16sim_driver_event10sim_activeE
__ libCommCenterCommandDrivers.dylib: __ZN10subscriber16sim_driver_event10sim_lockedE
__ libCommCenterCommandDrivers.dylib: __ZN10subscriber16sim_driver_event11pin_changedE
__ libCommCenterCommandDrivers.dylib: __ZN10subscriber16sim_driver_event11pin_successE
__ libCommCenterCommandDrivers.dylib: __ZN10subscriber16sim_driver_event11sim_blockedE
__ libCommCenterCommandDrivers.dylib: __ZN10subscriber16sim_driver_event11sim_missingE
__ libCommCenterCommandDrivers.dylib: __ZN10subscriber16sim_driver_event12driver_resetE
__ libCommCenterCommandDrivers.dylib: __ZN10subscriber16sim_driver_event12sim_detectedE
__ libCommCenterCommandDrivers.dylib: __ZN10subscriber16sim_driver_event13np_app_id_setE
__ libCommCenterCommandDrivers.dylib: __ZN10subscriber16sim_driver_event18pin_enable_changedE
__ libCommCenterCommandDrivers.dylib: __ZN10subscriber16sim_driver_event18sim_status_unknownE
__ libCommCenterCommandDrivers.dylib: __ZN10subscriber16sim_driver_event22pin_retry_count_updateE
__ libCommCenterCommandDrivers.dylib: __ZN10subscriber16sim_driver_event8sim_deadE
__ libCommCenterCommandDrivers.dylib: __ZN10subscriber19maybeMarkNotPresentERNS_13SimDriverInfo7AppInfoE
__ libCommCenterCommandDrivers.dylib: __ZN10subscriber5isSetEN16DMSCommandDriver11InformationES1_
__ libCommCenterCommandDrivers.dylib: __ZN10subscriber9getFileIdEPKN3ctu10LoggerBaseINSt3__110shared_ptrINS0_9LogServerEEEEENS_7SimTypeENS_11SimFilePathE
__ libCommCenterCommandDrivers.dylib: __ZN11DisplayTextD1Ev
__ libCommCenterCommandDrivers.dylib: __ZN11OpenChannelD1Ev
__ libCommCenterCommandDrivers.dylib: __ZN11ReceiveDataD1Ev
__ libCommCenterCommandDrivers.dylib: __ZN12CloseChannelD1Ev
__ libCommCenterCommandDrivers.dylib: __ZN13SelectionItemD1Ev
__ libCommCenterCommandDrivers.dylib: __ZN13SetupIdleTextD1Ev
__ libCommCenterCommandDrivers.dylib: __ZN15ATCommandDriver18handleCommand_syncENSt3__112basic_stringIcNS0_11char_traitsIcEENS0_9allocatorIcEEEENS0_8functionIFvN2at10ResultTypeEEEE
__ libCommCenterCommandDrivers.dylib: __ZN15ATCommandDriverC2ERKN8dispatch5queueERKNSt3__110shared_ptrIK8RegistryEEPKc
__ libCommCenterCommandDrivers.dylib: __ZN15ATCommandDriverD2Ev
__ libCommCenterCommandDrivers.dylib: __ZN15CallAudioDriver13stopLocalDtmfEv
__ libCommCenterCommandDrivers.dylib: __ZN15CallAudioDriver19playLocalDtmfDigitsERKNSt3__16vectorIhNS0_9allocatorIhEEEE
__ libCommCenterCommandDrivers.dylib: __ZN15CallAudioDriverC2ENSt3__110shared_ptrIK8RegistryEEN8dispatch5queueENS1_I32CallAudioDriverDelegateInterfaceEENS1_I33CallNotificationsHandlerInterfaceEEPKc
__ libCommCenterCommandDrivers.dylib: __ZN15CallAudioDriverD2Ev
__ libCommCenterCommandDrivers.dylib: __ZN16DMSCommandDriver10setImeiSvnEN10subscriber7SimSlotENSt3__112basic_stringIcNS2_11char_traitsIcEENS2_9allocatorIcEEEE
__ libCommCenterCommandDrivers.dylib: __ZN16DMSCommandDriver13setPrlVersionEN10subscriber7SimSlotEt
__ libCommCenterCommandDrivers.dylib: __ZN16DMSCommandDriver3getENS_11InformationE
__ libCommCenterCommandDrivers.dylib: __ZN16DMSCommandDriver4stopEv
__ libCommCenterCommandDrivers.dylib: __ZN16DMSCommandDriver5clearEN10subscriber7SimSlotENS_11InformationE
__ libCommCenterCommandDrivers.dylib: __ZN16DMSCommandDriver5startEv
__ libCommCenterCommandDrivers.dylib: __ZN16DMSCommandDriver6setMinEN10subscriber7SimSlotENSt3__112basic_stringIcNS2_11char_traitsIcEENS2_9allocatorIcEEEE
__ libCommCenterCommandDrivers.dylib: __ZN16DMSCommandDriver7setImeiEN10subscriber7SimSlotENSt3__112basic_stringIcNS2_11char_traitsIcEENS2_9allocatorIcEEEE
__ libCommCenterCommandDrivers.dylib: __ZN16DMSCommandDriver7setMeidEN3xpc6objectE
__ libCommCenterCommandDrivers.dylib: __ZN16DMSCommandDriverC2ERKNSt3__110shared_ptrIK8RegistryEEN8dispatch5queueEPKc
__ libCommCenterCommandDrivers.dylib: __ZN16DMSCommandDriverD2Ev
__ libCommCenterCommandDrivers.dylib: __ZN16P2PCommandDriverC2ERKNSt3__110shared_ptrIK8RegistryEEPKcS8_N8dispatch5queueE
__ libCommCenterCommandDrivers.dylib: __ZN16P2PCommandDriverD2Ev
__ libCommCenterCommandDrivers.dylib: __ZN16SendShortMessageD1Ev
__ libCommCenterCommandDrivers.dylib: __ZN17CallCommandDriver14endTheConfCallEN3ctu2cf11CFSharedRefIK8__CFUUIDEE
__ libCommCenterCommandDrivers.dylib: __ZN17CallCommandDriver20shouldMTCallContinueEbRK8CallInfo
__ libCommCenterCommandDrivers.dylib: __ZN17CallCommandDriver21computeClirValue_syncERK8CallInfo
__ libCommCenterCommandDrivers.dylib: __ZN17CallCommandDriver21handlePersonalityGoneERK13PersonalityID
__ libCommCenterCommandDrivers.dylib: __ZN17CallCommandDriver22handlePersonalityAddedERKNSt3__110shared_ptrIK15PersonalityInfoEE
__ libCommCenterCommandDrivers.dylib: __ZN17CallCommandDriver8shutdownEN8dispatch13group_sessionE
__ libCommCenterCommandDrivers.dylib: __ZN17CallCommandDriver9bootstrapEN8dispatch13group_sessionE
__ libCommCenterCommandDrivers.dylib: __ZN17CallCommandDriverC2ERKNSt3__110shared_ptrIK8RegistryEEN8dispatch5queueEPKcSA_
__ libCommCenterCommandDrivers.dylib: __ZN17CallCommandDriverD2Ev
__ libCommCenterCommandDrivers.dylib: __ZN17STK_CommandDriverD2Ev
__ libCommCenterCommandDrivers.dylib: __ZN18AudioCommandDriver9bootstrapEN8dispatch13group_sessionENSt3__110shared_ptrI35AudioCommandDriverDelegateInterfaceEENS_15ServerEndpointsE
__ libCommCenterCommandDrivers.dylib: __ZN18AudioCommandDriverC2ERKNSt3__110shared_ptrIK8RegistryEEN8dispatch5queueEPKc
__ libCommCenterCommandDrivers.dylib: __ZN18AudioCommandDriverD2Ev
__ libCommCenterCommandDrivers.dylib: __ZN18VinylCommandDriver27setDriverReadyCallback_syncEU13block_pointerFv16VinylDriverReadyN5boost8optionalIN10subscriber7SimSlotEEEE
__ libCommCenterCommandDrivers.dylib: __ZN18VinylCommandDriverC2ENSt3__110shared_ptrIN3ctu9LogServerEEEPKc
__ libCommCenterCommandDrivers.dylib: __ZN18VinylCommandDriverD2Ev
__ libCommCenterCommandDrivers.dylib: __ZN19CSISMSCommandDriver13clientStartedEN10subscriber7SimSlotE
__ libCommCenterCommandDrivers.dylib: __ZN19CSISMSCommandDriver13clientStoppedEN10subscriber7SimSlotE
__ libCommCenterCommandDrivers.dylib: __ZN19CSISMSCommandDriver20kUnknownMessageCountE
__ libCommCenterCommandDrivers.dylib: __ZN19CSISMSCommandDriver30kUnknownMessageCountIndicationE
__ libCommCenterCommandDrivers.dylib: __ZN19CSISMSCommandDriverC2ERKNSt3__110shared_ptrIK8RegistryEERKN8dispatch5queueEPKc
__ libCommCenterCommandDrivers.dylib: __ZN19CSISMSCommandDriverD2Ev
__ libCommCenterCommandDrivers.dylib: __ZN19FilePushTransaction6createEN10subscriber7SimSlotENSt3__18functionIFvS1_25FilePushTransactionResultEEE
__ libCommCenterCommandDrivers.dylib: __ZN19FilePushTransactionD1Ev
__ libCommCenterCommandDrivers.dylib: __ZN20DesenseCommandDriver23addSingleFrequencyToMapEyjjPNSt3__13mapIy11DesenseFreqNS0_4lessIyEENS0_9allocatorINS0_4pairIKyS2_EEEEEE
__ libCommCenterCommandDrivers.dylib: __ZN20DesenseCommandDriver9bootstrapENSt3__110shared_ptrI37DesenseCommandDriverDelegateInterfaceEEN3xpc8endpointEN8dispatch13group_sessionE
__ libCommCenterCommandDrivers.dylib: __ZN20DesenseCommandDriverC2ERKNSt3__110shared_ptrIK8RegistryEEN8dispatch5queueEPKcSA_
__ libCommCenterCommandDrivers.dylib: __ZN20DesenseCommandDriverD2Ev
__ libCommCenterCommandDrivers.dylib: __ZN20LanguageNotificationD1Ev
__ libCommCenterCommandDrivers.dylib: __ZN21CommandDriversFactory22createAQMCommandDriverEN8dispatch5queueE
__ libCommCenterCommandDrivers.dylib: __ZN21CommandDriversFactory4initERKNSt3__110shared_ptrI8RegistryEE
__ libCommCenterCommandDrivers.dylib: __ZN21CommandDriversFactoryC2Ev
__ libCommCenterCommandDrivers.dylib: __ZN21CommandDriversFactoryD2Ev
__ libCommCenterCommandDrivers.dylib: __ZN21DormancyCommandDriver13kNumInterfaceE
__ libCommCenterCommandDrivers.dylib: __ZN21DormancyCommandDriverC2ERKNSt3__110shared_ptrIK8RegistryEEPKcS8_N8dispatch5queueE
__ libCommCenterCommandDrivers.dylib: __ZN21DormancyCommandDriverD2Ev
__ libCommCenterCommandDrivers.dylib: __ZN21NetworkListScanResult11addOperatorEPKN3ctu11OsLogLoggerERK19NetworkListOperator
__ libCommCenterCommandDrivers.dylib: __ZN21NetworkListScanResult8setStateENS_5StateE
__ libCommCenterCommandDrivers.dylib: __ZN22AttachApnCommandDriver10start_syncEv
__ libCommCenterCommandDrivers.dylib: __ZN22AttachApnCommandDriver13shutdown_syncEv
__ libCommCenterCommandDrivers.dylib: __ZN22AttachApnCommandDriver14bootstrap_syncEv
__ libCommCenterCommandDrivers.dylib: __ZN22AttachApnCommandDriverC2ENSt3__110shared_ptrIK8RegistryEERKN8dispatch5queueEN10subscriber7SimSlotE
__ libCommCenterCommandDrivers.dylib: __ZN22AttachApnCommandDriverD2Ev
__ libCommCenterCommandDrivers.dylib: __ZN22BasebandSettingsDriver11readSegmentERKNSt3__110shared_ptrINS0_13basic_istreamIcNS0_11char_traitsIcEEEEEE
__ libCommCenterCommandDrivers.dylib: __ZN22BasebandSettingsDriver29reportFileTransferStatus_syncEN10subscriber7SimSlotE18FileTransferStatus8FileType
__ libCommCenterCommandDrivers.dylib: __ZN22BasebandSettingsDriver31handleFileTransferComplete_syncEv
__ libCommCenterCommandDrivers.dylib: __ZN22BasebandSettingsDriverC2ERKNSt3__110shared_ptrIK8RegistryEEN8dispatch5queueEPKcSA_NS0_8functionIFKSA_N10subscriber7SimSlotEEEE
__ libCommCenterCommandDrivers.dylib: __ZN22BasebandSettingsDriverD2Ev
__ libCommCenterCommandDrivers.dylib: __ZN22PhonebookCommandDriver10decodeNameERKNSt3__16vectorIhNS0_9allocatorIhEEEE
__ libCommCenterCommandDrivers.dylib: __ZN22PhonebookCommandDriverC2ERKNSt3__110shared_ptrIK8RegistryEEN8dispatch5queueEPKcSA_
__ libCommCenterCommandDrivers.dylib: __ZN22PhonebookCommandDriverD2Ev
__ libCommCenterCommandDrivers.dylib: __ZN22SetupEventIMSRegNotifyD1Ev
__ libCommCenterCommandDrivers.dylib: __ZN22SetupEventUserActivityD1Ev
__ libCommCenterCommandDrivers.dylib: __ZN23ActivationCommandDriver9parseImeiEPh
__ libCommCenterCommandDrivers.dylib: __ZN23ActivationCommandDriverC2ERKNSt3__110shared_ptrIK8RegistryEEN8dispatch5queueEPKcSA_
__ libCommCenterCommandDrivers.dylib: __ZN23ActivationCommandDriverD2Ev
__ libCommCenterCommandDrivers.dylib: __ZN24CellMonitorCommandDriverC2ERKNSt3__110shared_ptrIK8RegistryEEN8dispatch5queueEPKcSA_
__ libCommCenterCommandDrivers.dylib: __ZN24CellMonitorCommandDriverD2Ev
__ libCommCenterCommandDrivers.dylib: __ZN24EnhancedLQMCommandDriverC2ERKNSt3__110shared_ptrIK8RegistryEEN8dispatch5queueEPKcSA_
__ libCommCenterCommandDrivers.dylib: __ZN24EnhancedLQMCommandDriverD2Ev
__ libCommCenterCommandDrivers.dylib: __ZN24NetworkListCommandDriverC2ERKNSt3__110shared_ptrIK8RegistryEEN8dispatch5queueEPKcSA_
__ libCommCenterCommandDrivers.dylib: __ZN24NetworkListCommandDriverD2Ev
__ libCommCenterCommandDrivers.dylib: __ZN24ProvideLocalInfoLanguageD1Ev
__ libCommCenterCommandDrivers.dylib: __ZN25AudioRoutingCommandDriverC2ERKNSt3__110shared_ptrIK8RegistryEEN8dispatch5queueEPKcSA_
__ libCommCenterCommandDrivers.dylib: __ZN25AudioRoutingCommandDriverD2Ev
__ libCommCenterCommandDrivers.dylib: __ZN25CDMASettingsCommandDriverD2Ev
__ libCommCenterCommandDrivers.dylib: __ZN25InterfaceAppMapperService19addInterfaceMappingEji
__ libCommCenterCommandDrivers.dylib: __ZN25InterfaceAppMapperService22removeInterfaceMappingEj
__ libCommCenterCommandDrivers.dylib: __ZN25NetworkRegistrationDriver23sSecondsPerTimeZoneUnitE
__ libCommCenterCommandDrivers.dylib: __ZN25NetworkRegistrationDriverC2ERKNSt3__110shared_ptrIK8RegistryEEN8dispatch8workloopEPKcSA_
__ libCommCenterCommandDrivers.dylib: __ZN25NetworkRegistrationDriverD2Ev
__ libCommCenterCommandDrivers.dylib: __ZN25SetupCallUserConfirmationD1Ev
__ libCommCenterCommandDrivers.dylib: __ZN25SuppServicesCommandDriverC2EN8dispatch5queueEPKcRKNSt3__110shared_ptrIK8RegistryEE
__ libCommCenterCommandDrivers.dylib: __ZN25SuppServicesCommandDriverD2Ev
__ libCommCenterCommandDrivers.dylib: __ZN25WiFiSettingsCommandDriver10parseBssidENSt3__112basic_stringIcNS0_11char_traitsIcEENS0_9allocatorIcEEEERNS0_5arrayIhLm6EEE
__ libCommCenterCommandDrivers.dylib: __ZN25WiFiSettingsCommandDriverC2ERKNSt3__110shared_ptrIK8RegistryEEN8dispatch5queueEPKcSA_
__ libCommCenterCommandDrivers.dylib: __ZN25WiFiSettingsCommandDriverD2Ev
__ libCommCenterCommandDrivers.dylib: __ZN26BBDataFactoryCommandDriverD2Ev
__ libCommCenterCommandDrivers.dylib: __ZN26NetworkListSelectionResultC1ENS_6ResultE20NetworkSelectionMode
__ libCommCenterCommandDrivers.dylib: __ZN26SetupEventIdleScreenNotifyD1Ev
__ libCommCenterCommandDrivers.dylib: __ZN27SignalStrengthCommandDriverD2Ev
__ libCommCenterCommandDrivers.dylib: __ZN28BBDataCommandDriverInterfaceD0Ev
__ libCommCenterCommandDrivers.dylib: __ZN28BBDataCommandDriverInterfaceD1Ev
__ libCommCenterCommandDrivers.dylib: __ZN28BBDataCommandDriverInterfaceD2Ev
__ libCommCenterCommandDrivers.dylib: __ZN28BBDataContextDriverInterface11getObserverEv
__ libCommCenterCommandDrivers.dylib: __ZN28BBDataContextDriverInterfaceC2ENSt3__110shared_ptrI27BBDataContextDriverObserverEE
__ libCommCenterCommandDrivers.dylib: __ZN28BBDataContextDriverInterfaceD0Ev
__ libCommCenterCommandDrivers.dylib: __ZN28BBDataContextDriverInterfaceD1Ev
__ libCommCenterCommandDrivers.dylib: __ZN28BBDataContextDriverInterfaceD2Ev
__ libCommCenterCommandDrivers.dylib: __ZN29AttachApnCommandDriverFactoryD2Ev
__ libCommCenterCommandDrivers.dylib: __ZN30SetupEventLanguageSelectNotifyD1Ev
__ libCommCenterCommandDrivers.dylib: __ZN31BBDataCommandDriverEventHandlerD2Ev
__ libCommCenterCommandDrivers.dylib: __ZN33DataSubscriptionBaseCommandDriver23operationCompleted_syncEN10subscriber7SimSlotE
__ libCommCenterCommandDrivers.dylib: __ZN33DataSubscriptionBaseCommandDriver23sendDisableIccidCommandERKNSt3__112basic_stringIcNS0_11char_traitsIcEENS0_9allocatorIcEEEE
__ libCommCenterCommandDrivers.dylib: __ZN33DataSubscriptionBaseCommandDriver28queryCurrentDataSubscriptionENSt3__18functionIFvbN10subscriber7SimSlotEEEE
__ libCommCenterCommandDrivers.dylib: __ZN33DataSubscriptionBaseCommandDriver29changeDefaultDataSubscriptionEN10subscriber7SimSlotENSt3__18functionIFvbS1_EEE
__ libCommCenterCommandDrivers.dylib: __ZN33DataSubscriptionBaseCommandDriver30handleDisableIccidCommand_syncERKNSt3__112basic_stringIcNS0_11char_traitsIcEENS0_9allocatorIcEEEE
__ libCommCenterCommandDrivers.dylib: __ZN33DataSubscriptionBaseCommandDriverC2ERKNSt3__110shared_ptrIK8RegistryEERKN8dispatch5queueEPKcSC_
__ libCommCenterCommandDrivers.dylib: __ZN33DataSubscriptionBaseCommandDriverD2Ev
__ libCommCenterCommandDrivers.dylib: __ZN37NetworkListCommandDriverResponseErrorC1ENS_7CmdTypeENS_5ErrorE
__ libCommCenterCommandDrivers.dylib: __ZN3awd16AwdCommandDriverC2EONSt3__110shared_ptrIN3ctu9LogServerEEEON8dispatch8workloopE
__ libCommCenterCommandDrivers.dylib: __ZN3awd16AwdCommandDriverD2Ev
__ libCommCenterCommandDrivers.dylib: __ZN3stk24truncateLanguageIfNeededEPKN3ctu11OsLogLoggerERNSt3__112basic_stringIcNS4_11char_traitsIcEENS4_9allocatorIcEEEE
__ libCommCenterCommandDrivers.dylib: __ZN4rest24kDefaultCsAttachedStatesE
__ libCommCenterCommandDrivers.dylib: __ZN4rest31kDefaultRadioAccessTechnologiesE
__ libCommCenterCommandDrivers.dylib: __ZN5event10subscriber11sim_refreshE
__ libCommCenterCommandDrivers.dylib: __ZN6SendSSD1Ev
__ libCommCenterCommandDrivers.dylib: __ZN8GetInkeyD1Ev
__ libCommCenterCommandDrivers.dylib: __ZN8GetInputD1Ev
__ libCommCenterCommandDrivers.dylib: __ZN8PlayToneD1Ev
__ libCommCenterCommandDrivers.dylib: __ZN8SendDTMFD1Ev
__ libCommCenterCommandDrivers.dylib: __ZN8SendDataD1Ev
__ libCommCenterCommandDrivers.dylib: __ZN8SendUSSDD1Ev
__ libCommCenterCommandDrivers.dylib: __ZN9ModelBaseD2Ev
__ libCommCenterCommandDrivers.dylib: __ZN9SetupMenuD1Ev
__ libCommCenterCommandDrivers.dylib: __ZNK10subscriber16SimCommandDriver15allowSimRefreshEv
__ libCommCenterCommandDrivers.dylib: __ZNK10subscriber16SimCommandDriver17sendSimDriverInfoERKNSt3__16vectorINS_13SimDriverInfoENS1_9allocatorIS3_EEEE
__ libCommCenterCommandDrivers.dylib: __ZNK10subscriber16SimCommandDriver28markAllowedToReadCDMAAuxInfoENS_7SimSlotEb
__ libCommCenterCommandDrivers.dylib: __ZNK10subscriber16SimCommandDriver7getNameEv
__ libCommCenterCommandDrivers.dylib: __ZNK15ATCommandDriver7getNameEv
__ libCommCenterCommandDrivers.dylib: __ZNK17CallCommandDriver16isOTASPSupportedEv
__ libCommCenterCommandDrivers.dylib: __ZNK17CallCommandDriver20selectCallPreferenceERK16PhoneCallSubTypeN10subscriber7SimSlotE
__ libCommCenterCommandDrivers.dylib: __ZNK17CallCommandDriver34carrierSupportsCallingTimewithFWIMEN10subscriber7SimSlotE
__ libCommCenterCommandDrivers.dylib: __ZNK17CallCommandDriver7getNameEv
__ libCommCenterCommandDrivers.dylib: __ZNK17CallCommandDriver9dumpStateEv
__ libCommCenterCommandDrivers.dylib: __ZNK18VinylCommandDriver10flush_syncEv
__ libCommCenterCommandDrivers.dylib: __ZNK18VinylCommandDriver22sendReadyCallback_syncE16VinylDriverReadyN5boost8optionalIN10subscriber7SimSlotEEE
__ libCommCenterCommandDrivers.dylib: __ZNK19CSISMSCommandDriver20handleSmsSendTimeoutENSt3__110shared_ptrIN3sms5ModelEEE
__ libCommCenterCommandDrivers.dylib: __ZNK19CSISMSCommandDriver7getNameEv
__ libCommCenterCommandDrivers.dylib: __ZNK21CommandDriversFactory33createDownLinkFilterCommandDriverEN8dispatch5queueEN10subscriber7SimSlotE18DataProtocolFamilyiNSt3__18weak_ptrIN8dormancy29DormancyCommandDriverObserverEEE
__ libCommCenterCommandDrivers.dylib: __ZNK22BasebandSettingsDriver22getFileTransferTimeoutEv
__ libCommCenterCommandDrivers.dylib: __ZNK22BasebandSettingsDriver25getSegmentTransferTimeoutEv
__ libCommCenterCommandDrivers.dylib: __ZNK24NetworkListCommandDriver30getScanRequestTimeoutInSecondsEv
__ libCommCenterCommandDrivers.dylib: __ZNK24NetworkListCommandDriver9dumpStateEv
__ libCommCenterCommandDrivers.dylib: __ZNK25InterfaceAppMapperService10getMappingEv
__ libCommCenterCommandDrivers.dylib: __ZNK25InterfaceAppMapperService19getInterfaceMappingEj
__ libCommCenterCommandDrivers.dylib: __ZNK25SuppServicesCommandDriver31supportsCallWaitingServiceClassEN10subscriber7SimSlotE
__ libCommCenterCommandDrivers.dylib: __ZNK28BBDataContextDriverInterface11getObserverEv
__ libCommCenterCommandDrivers.dylib: __ZNK33DataSubscriptionBaseCommandDriver9dumpStateEv
__ libCommCenterCommandDrivers.dylib: __ZNK3awd10AppContext13submitTriggerENS_10MetricInfoEy
__ libCommCenterCommandDrivers.dylib: __ZNK3awd10AppContext14getAppSettingsEv
__ libCommCenterCommandDrivers.dylib: __ZNK3awd10AppContext19postResultToHandlerEN8dispatch5blockIU13block_pointerFvbEEEb
__ libCommCenterCommandDrivers.dylib: __ZNK3awd10AppContext19submitMetricPayloadENS_10MetricInfoEjNSt3__16vectorIhNS2_9allocatorIhEEEE
__ libCommCenterCommandDrivers.dylib: __ZNK3awd10AppContext21updateAppSettingsUsedENS_10MetricInfoENS_15AppSettingsUsedE
__ libCommCenterCommandDrivers.dylib: __ZNK3awd10AppContext28markMetricSubmissionCompleteENS_10MetricInfoEt
__ libCommCenterCommandDrivers.dylib: __ZNK3awd10AppContext8getAppIDEv
__ libCommCenterCommandDrivers.dylib: __ZNK3awd16AwdCommandDriver19broadcastState_syncENS_11ClientStateE
__ libCommCenterCommandDrivers.dylib: __ZNK3awd16AwdCommandDriver7getNameEv
__ libCommCenterCommandDrivers.dylib: __ZTI15ATCommandDriver
__ libCommCenterCommandDrivers.dylib: __ZTI15CallAudioDriver
__ libCommCenterCommandDrivers.dylib: __ZTI16DMSCommandDriver
__ libCommCenterCommandDrivers.dylib: __ZTI16P2PCommandDriver
__ libCommCenterCommandDrivers.dylib: __ZTI17CallCommandDriver
__ libCommCenterCommandDrivers.dylib: __ZTI17STK_CommandDriver
__ libCommCenterCommandDrivers.dylib: __ZTI18AudioCommandDriver
__ libCommCenterCommandDrivers.dylib: __ZTI18VinylCommandDriver
__ libCommCenterCommandDrivers.dylib: __ZTI19CSISMSCommandDriver
__ libCommCenterCommandDrivers.dylib: __ZTI20DesenseCommandDriver
__ libCommCenterCommandDrivers.dylib: __ZTI21CommandDriversFactory
__ libCommCenterCommandDrivers.dylib: __ZTI21DormancyCommandDriver
__ libCommCenterCommandDrivers.dylib: __ZTI22AttachApnCommandDriver
__ libCommCenterCommandDrivers.dylib: __ZTI22BasebandSettingsDriver
__ libCommCenterCommandDrivers.dylib: __ZTI22PhonebookCommandDriver
__ libCommCenterCommandDrivers.dylib: __ZTI23ActivationCommandDriver
__ libCommCenterCommandDrivers.dylib: __ZTI24CellMonitorCommandDriver
__ libCommCenterCommandDrivers.dylib: __ZTI24EnhancedLQMCommandDriver
__ libCommCenterCommandDrivers.dylib: __ZTI24NetworkListCommandDriver
__ libCommCenterCommandDrivers.dylib: __ZTI25AudioRoutingCommandDriver
__ libCommCenterCommandDrivers.dylib: __ZTI25CDMASettingsCommandDriver
__ libCommCenterCommandDrivers.dylib: __ZTI25NetworkRegistrationDriver
__ libCommCenterCommandDrivers.dylib: __ZTI25SuppServicesCommandDriver
__ libCommCenterCommandDrivers.dylib: __ZTI25WiFiSettingsCommandDriver
__ libCommCenterCommandDrivers.dylib: __ZTI26BBDataFactoryCommandDriver
__ libCommCenterCommandDrivers.dylib: __ZTI27SignalStrengthCommandDriver
__ libCommCenterCommandDrivers.dylib: __ZTI28BBDataCommandDriverInterface
__ libCommCenterCommandDrivers.dylib: __ZTI28BBDataContextDriverInterface
__ libCommCenterCommandDrivers.dylib: __ZTI29AttachApnCommandDriverFactory
__ libCommCenterCommandDrivers.dylib: __ZTI31BBDataCommandDriverEventHandler
__ libCommCenterCommandDrivers.dylib: __ZTI33DataSubscriptionBaseCommandDriver
__ libCommCenterCommandDrivers.dylib: __ZTI9ModelBase
__ libCommCenterCommandDrivers.dylib: __ZTIN10subscriber16SimCommandDriverE
__ libCommCenterCommandDrivers.dylib: __ZTIN3awd16AwdCommandDriverE
__ libCommCenterCommandDrivers.dylib: __ZTV10SelectItem
__ libCommCenterCommandDrivers.dylib: __ZTV11DisplayText
__ libCommCenterCommandDrivers.dylib: __ZTV11OpenChannel
__ libCommCenterCommandDrivers.dylib: __ZTV11ReceiveData
__ libCommCenterCommandDrivers.dylib: __ZTV12CloseChannel
__ libCommCenterCommandDrivers.dylib: __ZTV12RefreshAlpha
__ libCommCenterCommandDrivers.dylib: __ZTV13SetupIdleText
__ libCommCenterCommandDrivers.dylib: __ZTV16SendShortMessage
__ libCommCenterCommandDrivers.dylib: __ZTV17STK_CommandDriver
__ libCommCenterCommandDrivers.dylib: __ZTV20LanguageNotification
__ libCommCenterCommandDrivers.dylib: __ZTV21SetupCallAlphaDisplay
__ libCommCenterCommandDrivers.dylib: __ZTV22SetupEventIMSRegNotify
__ libCommCenterCommandDrivers.dylib: __ZTV22SetupEventUserActivity
__ libCommCenterCommandDrivers.dylib: __ZTV24ProvideLocalInfoLanguage
__ libCommCenterCommandDrivers.dylib: __ZTV25CDMASettingsCommandDriver
__ libCommCenterCommandDrivers.dylib: __ZTV25SetupCallUserConfirmation
__ libCommCenterCommandDrivers.dylib: __ZTV26BBDataFactoryCommandDriver
__ libCommCenterCommandDrivers.dylib: __ZTV26SetupEventIdleScreenNotify
__ libCommCenterCommandDrivers.dylib: __ZTV27SignalStrengthCommandDriver
__ libCommCenterCommandDrivers.dylib: __ZTV29AttachApnCommandDriverFactory
__ libCommCenterCommandDrivers.dylib: __ZTV30SetupEventLanguageSelectNotify
__ libCommCenterCommandDrivers.dylib: __ZTV4None
__ libCommCenterCommandDrivers.dylib: __ZTV6SendSS
__ libCommCenterCommandDrivers.dylib: __ZTV8GetInkey
__ libCommCenterCommandDrivers.dylib: __ZTV8GetInput
__ libCommCenterCommandDrivers.dylib: __ZTV8PlayTone
__ libCommCenterCommandDrivers.dylib: __ZTV8SendDTMF
__ libCommCenterCommandDrivers.dylib: __ZTV8SendData
__ libCommCenterCommandDrivers.dylib: __ZTV8SendUSSD
__ libCommCenterCommandDrivers.dylib: __ZTV9ModelBase
__ libCommCenterCommandDrivers.dylib: __ZTV9SetupCall
__ libCommCenterCommandDrivers.dylib: __ZTV9SetupMenu
__ libCommCenterCommandDrivers.dylib: __ZTv0_n24_N28BBDataCommandDriverInterfaceD0Ev
__ libCommCenterCommandDrivers.dylib: __ZTv0_n24_N28BBDataCommandDriverInterfaceD1Ev
__ libCommCenterCommandDrivers.dylib: __ZTv0_n24_N28BBDataContextDriverInterfaceD0Ev
__ libCommCenterCommandDrivers.dylib: __ZTv0_n24_N28BBDataContextDriverInterfaceD1Ev
__ libCommCenterCommandDrivers.dylib: _ctConvertLteBandToMask
__ libCommCenterCommandDrivers.dylib: _kDefaultSMSCommandTimeoutMS
__ libSystem.B.dylib: __Block_copy
__ libSystem.B.dylib: __Block_object_assign
__ libSystem.B.dylib: __Block_object_dispose
__ libSystem.B.dylib: __Block_release
__ libSystem.B.dylib: __NSConcreteGlobalBlock
__ libSystem.B.dylib: __NSConcreteStackBlock
__ libSystem.B.dylib: __Unwind_Resume
__ libSystem.B.dylib: ___assert_rtn
__ libSystem.B.dylib: ___cxa_atexit
__ libSystem.B.dylib: ___stack_chk_fail
__ libSystem.B.dylib: ___stack_chk_guard
__ libSystem.B.dylib: __os_log_default
__ libSystem.B.dylib: __os_log_error_impl
__ libSystem.B.dylib: __os_log_impl
__ libSystem.B.dylib: __xpc_type_array
__ libSystem.B.dylib: __xpc_type_bool
__ libSystem.B.dylib: __xpc_type_dictionary
__ libSystem.B.dylib: __xpc_type_int64
__ libSystem.B.dylib: __xpc_type_string
__ libSystem.B.dylib: __xpc_type_uint64
__ libSystem.B.dylib: _bzero
__ libSystem.B.dylib: _dispatch_async
__ libSystem.B.dylib: _dispatch_async_f
__ libSystem.B.dylib: _dispatch_barrier_async_f
__ libSystem.B.dylib: _dispatch_group_create
__ libSystem.B.dylib: _dispatch_group_enter
__ libSystem.B.dylib: _dispatch_group_leave
__ libSystem.B.dylib: _dispatch_group_notify
__ libSystem.B.dylib: _dispatch_release
__ libSystem.B.dylib: _dispatch_retain
__ libSystem.B.dylib: _div
__ libSystem.B.dylib: _gettimeofday
__ libSystem.B.dylib: _memcmp
__ libSystem.B.dylib: _memcpy
__ libSystem.B.dylib: _memmove
__ libSystem.B.dylib: _memset
__ libSystem.B.dylib: _memset_pattern16
__ libSystem.B.dylib: _os_log_type_enabled
__ libSystem.B.dylib: _pthread_mutex_lock
__ libSystem.B.dylib: _pthread_mutex_unlock
__ libSystem.B.dylib: _strcmp
__ libSystem.B.dylib: _strlen
__ libSystem.B.dylib: _strnlen
__ libSystem.B.dylib: _time
__ libSystem.B.dylib: _xpc_array_get_count
__ libSystem.B.dylib: _xpc_array_get_value
__ libSystem.B.dylib: _xpc_bool_create
__ libSystem.B.dylib: _xpc_dictionary_get_value
__ libSystem.B.dylib: _xpc_get_type
__ libSystem.B.dylib: _xpc_null_create
__ libSystem.B.dylib: _xpc_release
__ libSystem.B.dylib: _xpc_retain
__ libSystem.B.dylib: _xpc_string_create
__ libSystem.B.dylib: dyld_stub_binder
__ libTelephonyUtilDynamic.dylib: __ZN3ctu10LoggerBaseINSt3__110shared_ptrINS_9LogServerEEEED0Ev
__ libTelephonyUtilDynamic.dylib: __ZN3ctu10LoggerBaseINSt3__110shared_ptrINS_9LogServerEEEED1Ev
__ libTelephonyUtilDynamic.dylib: __ZN3ctu10RestModuleC1EN8dispatch5queueENSt3__112basic_stringIcNS3_11char_traitsIcEENS3_9allocatorIcEEEE
__ libTelephonyUtilDynamic.dylib: __ZN3ctu10UnfairLock4lockEv
__ libTelephonyUtilDynamic.dylib: __ZN3ctu10UnfairLock6unlockEv
__ libTelephonyUtilDynamic.dylib: __ZN3ctu11OsLogLoggerC1ERKNS_12OsLogContextE
__ libTelephonyUtilDynamic.dylib: __ZN3ctu11OsLogLoggerC1ERKS0_
__ libTelephonyUtilDynamic.dylib: __ZN3ctu11OsLogLoggerD1Ev
__ libTelephonyUtilDynamic.dylib: __ZN3ctu12OsLogContextC1EOS0_
__ libTelephonyUtilDynamic.dylib: __ZN3ctu12OsLogContextC1EPKcS2_
__ libTelephonyUtilDynamic.dylib: __ZN3ctu12OsLogContextD1Ev
__ libTelephonyUtilDynamic.dylib: __ZN3ctu12StaticLoggerC1ENS_12OsLogContextERKNSt3__110shared_ptrINS_9LogServerEEE
__ libTelephonyUtilDynamic.dylib: __ZN3ctu12StaticLoggerD1Ev
__ libTelephonyUtilDynamic.dylib: __ZN3ctu13TextConverter14pushConversionENS0_10ConversionEimi
__ libTelephonyUtilDynamic.dylib: __ZN3ctu13TextConverter17exceptionOccurredEv
__ libTelephonyUtilDynamic.dylib: __ZN3ctu13TextConverter9readCharsEm
__ libTelephonyUtilDynamic.dylib: __ZN3ctu13TextConverter9setSourceEPKcm
__ libTelephonyUtilDynamic.dylib: __ZN3ctu13TextConverterC1Ev
__ libTelephonyUtilDynamic.dylib: __ZN3ctu13TextConverterD1Ev
__ libTelephonyUtilDynamic.dylib: __ZN3ctu13TrackedLogger22registerLoggerToServerERKNSt3__110shared_ptrINS_9LogServerEEERKNS1_12basic_stringIcNS1_11char_traitsIcEENS1_9allocatorIcEEEENS2_IS0_EE
__ libTelephonyUtilDynamic.dylib: __ZN3ctu16LoggerCommonBase11setLogLevelENS_8LogLevelE
__ libTelephonyUtilDynamic.dylib: __ZN3ctu16LoggerCommonBase20setInheritedLogLevelENS_8LogLevelE
__ libTelephonyUtilDynamic.dylib: __ZN3ctu16LoggerCommonBaseC2ENS_12OsLogContextE
__ libTelephonyUtilDynamic.dylib: __ZN3ctu2cf12MakeCFStringC1EPKc
__ libTelephonyUtilDynamic.dylib: __ZN3ctu2cf12MakeCFStringD1Ev
__ libTelephonyUtilDynamic.dylib: __ZN3ctu2cf12convert_copyERPK10__CFStringRKNSt3__112basic_stringIcNS5_11char_traitsIcEENS5_9allocatorIcEEEEjPK13__CFAllocator
__ libTelephonyUtilDynamic.dylib: __ZN3ctu2cf12convert_copyERPK8__CFDataRKNSt3__16vectorIhNS5_9allocatorIhEEEE
__ libTelephonyUtilDynamic.dylib: __ZN3ctu2cf12dict_adapterC1EPK14__CFDictionaryb
__ libTelephonyUtilDynamic.dylib: __ZN3ctu2cf12dict_adapterD1Ev
__ libTelephonyUtilDynamic.dylib: __ZN3ctu2cf6assignERNSt3__112basic_stringIcNS1_11char_traitsIcEENS1_9allocatorIcEEEEPK10__CFString
__ libTelephonyUtilDynamic.dylib: __ZN3ctu2cf6assignERNSt3__16vectorIhNS1_9allocatorIhEEEEPK8__CFData
__ libTelephonyUtilDynamic.dylib: __ZN3ctu2cf6assignERbPK11__CFBoolean
__ libTelephonyUtilDynamic.dylib: __ZN3ctu2cf6assignERiPK10__CFNumber
__ libTelephonyUtilDynamic.dylib: __ZN3ctu3hexEPKvm
__ libTelephonyUtilDynamic.dylib: __ZN3ctu3hexERKNSt3__16vectorIhNS0_9allocatorIhEEEE
__ libTelephonyUtilDynamic.dylib: __ZN3ctu4rest6detail22read_enum_string_valueERiRKN3xpc6objectE
__ libTelephonyUtilDynamic.dylib: __ZN3ctu9cf_to_xpcEPKv
__ libTelephonyUtilDynamic.dylib: __ZN3xpc19dyn_cast_or_defaultERKNS_6objectEb
__ libTelephonyUtilDynamic.dylib: __ZN3xpc19dyn_cast_or_defaultERKNS_6objectEx
__ libTelephonyUtilDynamic.dylib: __ZNK3ctu10LoggerBaseINSt3__110shared_ptrINS_9LogServerEEEE7enabledENS_8LogLevelE
__ libTelephonyUtilDynamic.dylib: __ZNK3ctu10MallocZone4freeEPv
__ libTelephonyUtilDynamic.dylib: __ZNK3ctu10RestModule10disconnectEv
__ libTelephonyUtilDynamic.dylib: __ZNK3ctu10RestModule11setPropertyENSt3__112basic_stringIcNS1_11char_traitsIcEENS1_9allocatorIcEEEEN3xpc6objectE
__ libTelephonyUtilDynamic.dylib: __ZNK3ctu10RestModule12observeEventENSt3__112basic_stringIcNS1_11char_traitsIcEENS1_9allocatorIcEEEEONS1_8functionIFvN3xpc6objectEEEE
__ libTelephonyUtilDynamic.dylib: __ZNK3ctu10RestModule15observePropertyENSt3__112basic_stringIcNS1_11char_traitsIcEENS1_9allocatorIcEEEEONS1_8functionIFvN3xpc6objectEEEE
__ libTelephonyUtilDynamic.dylib: __ZNK3ctu10RestModule7connectENSt3__110shared_ptrINS_4rest21RestDispatchConnectorEEE
__ libTelephonyUtilDynamic.dylib: __ZNK3ctu10RestModule9sendEventENSt3__112basic_stringIcNS1_11char_traitsIcEENS1_9allocatorIcEEEEN3xpc6objectE
__ libTelephonyUtilDynamic.dylib: __ZNK3ctu12TimerService19throwIfPeriodIsZeroERKNSt3__15tupleIJNS_8TimeTypeENS1_6chrono8durationIxNS1_5ratioILl1ELl1000000EEEEEEEE
__ libTelephonyUtilDynamic.dylib: __ZNK3ctu16LoggerCommonBase12getLogDomainEv
__ libTelephonyUtilDynamic.dylib: __ZNK3ctu16LoggerCommonBase16getLocalLogLevelEv
__ libTelephonyUtilDynamic.dylib: __ZNK3ctu2cf11map_adapter6getIntEPK10__CFStringi
__ libTelephonyUtilDynamic.dylib: __ZNK3ctu2cf11map_adapter7getBoolEPK10__CFStringb
__ libTelephonyUtilDynamic.dylib: __ZNK3ctu2cf11map_adapter9getStringEPK10__CFStringRKNSt3__112basic_stringIcNS5_11char_traitsIcEENS5_9allocatorIcEEEE
__ libTelephonyUtilDynamic.dylib: __ZNK3xpc6object9to_stringEv
__ libTelephonyUtilDynamic.dylib: __ZTIN3ctu13TrackedLoggerE
__ libTelephonyUtilDynamic.dylib: __ZTIN3ctu16LoggerCommonBaseE
__ libTelephonyUtilDynamic.dylib: ___TUAssertTrigger
__ libc++.1.dylib: __ZNKSt13runtime_error4whatEv
__ libc++.1.dylib: __ZNKSt3__112basic_stringIcNS_11char_traitsIcEENS_9allocatorIcEEE7compareEPKc
__ libc++.1.dylib: __ZNKSt3__112basic_stringIcNS_11char_traitsIcEENS_9allocatorIcEEE7compareEmmPKc
__ libc++.1.dylib: __ZNKSt3__119__shared_weak_count13__get_deleterERKSt9type_info
__ libc++.1.dylib: __ZNKSt3__120__vector_base_commonILb1EE20__throw_length_errorEv
__ libc++.1.dylib: __ZNKSt3__120__vector_base_commonILb1EE20__throw_out_of_rangeEv
__ libc++.1.dylib: __ZNKSt3__121__basic_string_commonILb1EE20__throw_length_errorEv
__ libc++.1.dylib: __ZNKSt3__16locale9use_facetERNS0_2idE
__ libc++.1.dylib: __ZNKSt3__18ios_base6getlocEv
__ libc++.1.dylib: __ZNKSt9exception4whatEv
__ libc++.1.dylib: __ZNSt11logic_errorC2EPKc
__ libc++.1.dylib: __ZNSt12length_errorD1Ev
__ libc++.1.dylib: __ZNSt12out_of_rangeD1Ev
__ libc++.1.dylib: __ZNSt13runtime_errorC2EPKc
__ libc++.1.dylib: __ZNSt13runtime_errorC2ERKS_
__ libc++.1.dylib: __ZNSt13runtime_errorD2Ev
__ libc++.1.dylib: __ZNSt19bad_optional_accessD1Ev
__ libc++.1.dylib: __ZNSt3__112__next_primeEm
__ libc++.1.dylib: __ZNSt3__112bad_weak_ptrD1Ev
__ libc++.1.dylib: __ZNSt3__112basic_stringIcNS_11char_traitsIcEENS_9allocatorIcEEE5eraseEmm
__ libc++.1.dylib: __ZNSt3__112basic_stringIcNS_11char_traitsIcEENS_9allocatorIcEEE6appendEPKc
__ libc++.1.dylib: __ZNSt3__112basic_stringIcNS_11char_traitsIcEENS_9allocatorIcEEE6appendEPKcm
__ libc++.1.dylib: __ZNSt3__112basic_stringIcNS_11char_traitsIcEENS_9allocatorIcEEE6assignEPKc
__ libc++.1.dylib: __ZNSt3__112basic_stringIcNS_11char_traitsIcEENS_9allocatorIcEEE6assignEPKcm
__ libc++.1.dylib: __ZNSt3__112basic_stringIcNS_11char_traitsIcEENS_9allocatorIcEEE6resizeEmc
__ libc++.1.dylib: __ZNSt3__112basic_stringIcNS_11char_traitsIcEENS_9allocatorIcEEE9__grow_byEmmmmmm
__ libc++.1.dylib: __ZNSt3__112basic_stringIcNS_11char_traitsIcEENS_9allocatorIcEEE9push_backEc
__ libc++.1.dylib: __ZNSt3__112basic_stringIcNS_11char_traitsIcEENS_9allocatorIcEEEC1ERKS5_
__ libc++.1.dylib: __ZNSt3__112basic_stringIcNS_11char_traitsIcEENS_9allocatorIcEEEC1ERKS5_mmRKS4_
__ libc++.1.dylib: __ZNSt3__112basic_stringIcNS_11char_traitsIcEENS_9allocatorIcEEEaSERKS5_
__ libc++.1.dylib: __ZNSt3__113basic_istreamIcNS_11char_traitsIcEEE5seekgExNS_8ios_base7seekdirE
__ libc++.1.dylib: __ZNSt3__113basic_istreamIcNS_11char_traitsIcEEE5tellgEv
__ libc++.1.dylib: __ZNSt3__113basic_istreamIcNS_11char_traitsIcEEED0Ev
__ libc++.1.dylib: __ZNSt3__113basic_istreamIcNS_11char_traitsIcEEED1Ev
__ libc++.1.dylib: __ZNSt3__113basic_ostreamIcNS_11char_traitsIcEEE3putEc
__ libc++.1.dylib: __ZNSt3__113basic_ostreamIcNS_11char_traitsIcEEE5flushEv
__ libc++.1.dylib: __ZNSt3__113basic_ostreamIcNS_11char_traitsIcEEE6sentryC1ERS3_
__ libc++.1.dylib: __ZNSt3__113basic_ostreamIcNS_11char_traitsIcEEE6sentryD1Ev
__ libc++.1.dylib: __ZNSt3__113basic_ostreamIcNS_11char_traitsIcEEED0Ev
__ libc++.1.dylib: __ZNSt3__113basic_ostreamIcNS_11char_traitsIcEEED1Ev
__ libc++.1.dylib: __ZNSt3__113basic_ostreamIcNS_11char_traitsIcEEED2Ev
__ libc++.1.dylib: __ZNSt3__113basic_ostreamIcNS_11char_traitsIcEEElsEb
__ libc++.1.dylib: __ZNSt3__113basic_ostreamIcNS_11char_traitsIcEEElsEi
__ libc++.1.dylib: __ZNSt3__114basic_iostreamIcNS_11char_traitsIcEEED0Ev
__ libc++.1.dylib: __ZNSt3__114basic_iostreamIcNS_11char_traitsIcEEED1Ev
__ libc++.1.dylib: __ZNSt3__114basic_iostreamIcNS_11char_traitsIcEEED2Ev
__ libc++.1.dylib: __ZNSt3__115basic_streambufIcNS_11char_traitsIcEEE4syncEv
__ libc++.1.dylib: __ZNSt3__115basic_streambufIcNS_11char_traitsIcEEE5imbueERKNS_6localeE
__ libc++.1.dylib: __ZNSt3__115basic_streambufIcNS_11char_traitsIcEEE5uflowEv
__ libc++.1.dylib: __ZNSt3__115basic_streambufIcNS_11char_traitsIcEEE6setbufEPcl
__ libc++.1.dylib: __ZNSt3__115basic_streambufIcNS_11char_traitsIcEEE6xsgetnEPcl
__ libc++.1.dylib: __ZNSt3__115basic_streambufIcNS_11char_traitsIcEEE6xsputnEPKcl
__ libc++.1.dylib: __ZNSt3__115basic_streambufIcNS_11char_traitsIcEEE9showmanycEv
__ libc++.1.dylib: __ZNSt3__115basic_streambufIcNS_11char_traitsIcEEEC2Ev
__ libc++.1.dylib: __ZNSt3__115basic_streambufIcNS_11char_traitsIcEEED2Ev
__ libc++.1.dylib: __ZNSt3__118condition_variable15__do_timed_waitERNS_11unique_lockINS_5mutexEEENS_6chrono10time_pointINS5_12system_clockENS5_8durationIxNS_5ratioILl1ELl1000000000EEEEEEE
__ libc++.1.dylib: __ZNSt3__119__shared_weak_count14__release_weakEv
__ libc++.1.dylib: __ZNSt3__119__shared_weak_count4lockEv
__ libc++.1.dylib: __ZNSt3__119__shared_weak_countD2Ev
__ libc++.1.dylib: __ZNSt3__15ctypeIcE2idE
__ libc++.1.dylib: __ZNSt3__15mutex4lockEv
__ libc++.1.dylib: __ZNSt3__15mutex6unlockEv
__ libc++.1.dylib: __ZNSt3__16chrono12steady_clock3nowEv
__ libc++.1.dylib: __ZNSt3__16chrono12system_clock3nowEv
__ libc++.1.dylib: __ZNSt3__16futureIvED1Ev
__ libc++.1.dylib: __ZNSt3__16localeD1Ev
__ libc++.1.dylib: __ZNSt3__17promiseIvE10get_futureEv
__ libc++.1.dylib: __ZNSt3__17promiseIvE9set_valueEv
__ libc++.1.dylib: __ZNSt3__17promiseIvEC1Ev
__ libc++.1.dylib: __ZNSt3__17promiseIvED1Ev
__ libc++.1.dylib: __ZNSt3__18ios_base33__set_badbit_and_consider_rethrowEv
__ libc++.1.dylib: __ZNSt3__18ios_base4initEPv
__ libc++.1.dylib: __ZNSt3__18ios_base5clearEj
__ libc++.1.dylib: __ZNSt3__19basic_iosIcNS_11char_traitsIcEEED2Ev
__ libc++.1.dylib: __ZNSt3__19to_stringEi
__ libc++.1.dylib: __ZNSt3__19to_stringEj
__ libc++.1.dylib: __ZNSt9exceptionD2Ev
__ libc++.1.dylib: __ZSt9terminatev
__ libc++.1.dylib: __ZTINSt3__112bad_weak_ptrE
__ libc++.1.dylib: __ZTINSt3__113basic_istreamIcNS_11char_traitsIcEEEE
__ libc++.1.dylib: __ZTINSt3__113basic_ostreamIcNS_11char_traitsIcEEEE
__ libc++.1.dylib: __ZTINSt3__114basic_iostreamIcNS_11char_traitsIcEEEE
__ libc++.1.dylib: __ZTINSt3__115basic_streambufIcNS_11char_traitsIcEEEE
__ libc++.1.dylib: __ZTINSt3__119__shared_weak_countE
__ libc++.1.dylib: __ZTISt12length_error
__ libc++.1.dylib: __ZTISt12out_of_range
__ libc++.1.dylib: __ZTISt13runtime_error
__ libc++.1.dylib: __ZTISt19bad_optional_access
__ libc++.1.dylib: __ZTISt9exception
__ libc++.1.dylib: __ZTVN10__cxxabiv117__class_type_infoE
__ libc++.1.dylib: __ZTVN10__cxxabiv119__pointer_type_infoE
__ libc++.1.dylib: __ZTVN10__cxxabiv120__function_type_infoE
__ libc++.1.dylib: __ZTVN10__cxxabiv120__si_class_type_infoE
__ libc++.1.dylib: __ZTVN10__cxxabiv121__vmi_class_type_infoE
__ libc++.1.dylib: __ZTVNSt3__112bad_weak_ptrE
__ libc++.1.dylib: __ZTVSt12length_error
__ libc++.1.dylib: __ZTVSt12out_of_range
__ libc++.1.dylib: __ZTVSt19bad_optional_access
__ libc++.1.dylib: __ZThn16_NSt3__114basic_iostreamIcNS_11char_traitsIcEEED0Ev
__ libc++.1.dylib: __ZThn16_NSt3__114basic_iostreamIcNS_11char_traitsIcEEED1Ev
__ libc++.1.dylib: __ZTv0_n24_NSt3__113basic_istreamIcNS_11char_traitsIcEEED0Ev
__ libc++.1.dylib: __ZTv0_n24_NSt3__113basic_istreamIcNS_11char_traitsIcEEED1Ev
__ libc++.1.dylib: __ZTv0_n24_NSt3__113basic_ostreamIcNS_11char_traitsIcEEED0Ev
__ libc++.1.dylib: __ZTv0_n24_NSt3__113basic_ostreamIcNS_11char_traitsIcEEED1Ev
__ libc++.1.dylib: __ZTv0_n24_NSt3__114basic_iostreamIcNS_11char_traitsIcEEED0Ev
__ libc++.1.dylib: __ZTv0_n24_NSt3__114basic_iostreamIcNS_11char_traitsIcEEED1Ev
__ libc++.1.dylib: __ZdlPv
__ libc++.1.dylib: __Znwm
__ libc++.1.dylib: ___cxa_allocate_exception
__ libc++.1.dylib: ___cxa_bad_cast
__ libc++.1.dylib: ___cxa_begin_catch
__ libc++.1.dylib: ___cxa_end_catch
__ libc++.1.dylib: ___cxa_free_exception
__ libc++.1.dylib: ___cxa_guard_acquire
__ libc++.1.dylib: ___cxa_guard_release
__ libc++.1.dylib: ___cxa_pure_virtual
__ libc++.1.dylib: ___cxa_rethrow
__ libc++.1.dylib: ___cxa_throw
__ libc++.1.dylib: ___dynamic_cast
__ libc++.1.dylib: ___gxx_personality_v0
