|| __DATA.__data _kDataActivateFailureAlertCallbackKey
|| __DATA.__data _kDataActivateFailureDueToDataPlanKey
|| __DATA.__data _kDataActivateFailureReasonDataPlanConnectToWifi
|| __DATA.__data _kDataActivateFailureReasonDataPlanExpiredCambio
|| __DATA.__data _kDataActivateFailureReasonDataPlanExpiredSequoia
|| __DATA.__data _kDataActivateFailureReasonDataPlanMonitorMode
|| __DATA.__data _kDataActivateFailureReasonDataPlanNoExistingPlan
|| __DATA.__data _kDataActivateFailureReasonDataPlanNoPlanSelected
|| __DATA.__data _kDataActivateFailureReasonDataPlanUnusableProfile
|| __DATA.__data _kDataActivateFailureReasonKey
|| __DATA_CONST.__const __ZN13carrier_space14kCBTokenUrlKeyE
|| __DATA_CONST.__const __ZN13carrier_space16kCBTeamIDListKeyE
|| __DATA_CONST.__const __ZN13carrier_space18kCBAuthClientIdKeyE
|| __DATA_CONST.__const __ZN13carrier_space18kCBCarrierSpaceKeyE
|| __DATA_CONST.__const __ZN13carrier_space18kCBSupportsAppsKeyE
|| __DATA_CONST.__const __ZN13carrier_space19kCBSupportsPlansKeyE
|| __DATA_CONST.__const __ZN13carrier_space19kCBSupportsUsageKeyE
|| __DATA_CONST.__const __ZN13carrier_space22kCBAuthorizationUrlKeyE
|| __DATA_CONST.__const __ZN13carrier_space24kCBAllowedWhenRoamingKeyE
|| __DATA_CONST.__const __ZN13carrier_space24kCBAuthorizationScopeKeyE
|| __DATA_CONST.__const __ZN13carrier_space28kCBSupportsStateParameterKeyE
|| __DATA_CONST.__const __ZN13carrier_space29kCBAllowFallbackToLegacyUIKeyE
|| __DATA_CONST.__const __ZN13carrier_space29kCBCellularDataPlanBinningKeyE
|| __DATA_CONST.__const __ZN13carrier_space29kCBDataOptimizationAllowedKeyE
|| __DATA_CONST.__const __ZN13carrier_space32kCBSupportsUserConsentRefreshKeyE
|| __DATA_CONST.__const __ZN13carrier_space33kCBShowBillingCycleBasedDataUsageE
|| __DATA_CONST.__const __ZN13carrier_space34kCBPlanProvisioningPollIntervalKeyE
|| __DATA_CONST.__const __ZN13carrier_space36kCBAutoRefreshMinimumIntervalMinsKeyE
|| __DATA_CONST.__const __ZN13carrier_space37kCBPlanProvisioningMaxPollRequestsKeyE
|| __DATA_CONST.__const __ZN13carrier_space38kCBManualRefreshMinimumIntervalMinsKeyE
|| __DATA_CONST.__const __ZN13carrier_space39kCBAuthorizationRequestRequiresICCIDKeyE
|| __DATA_CONST.__const __ZN14CSIPhoneNumber16kIMEIUssdCommandE
|| __DATA_CONST.__const __ZN14CSIPhoneNumber18kRFExposureCommandE
|| __DATA_CONST.__const __ZN2sd17kRFBandTypeStrFDDE
|| __DATA_CONST.__const __ZN2sd17kRFBandTypeStrTDDE
|| __DATA_CONST.__const __ZTI12MMIInterface
|| __DATA_CONST.__const __ZTI12OTASPService
|| __DATA_CONST.__const __ZTI13CSIPDPManager
|| __DATA_CONST.__const __ZTI13DaemonFactory
|| __DATA_CONST.__const __ZTI13PDPMetricInfo
|| __DATA_CONST.__const __ZTI13PhoneServices
|| __DATA_CONST.__const __ZTI13STK_Interface
|| __DATA_CONST.__const __ZTI13SmsPduEncoder
|| __DATA_CONST.__const __ZTI14PersonalWallet
|| __DATA_CONST.__const __ZTI14ServiceManager
|| __DATA_CONST.__const __ZTI15PersonalityShop
|| __DATA_CONST.__const __ZTI15RestServiceBase
|| __DATA_CONST.__const __ZTI15VinylController
|| __DATA_CONST.__const __ZTI16DesenseInterface
|| __DATA_CONST.__const __ZTI16IMSClientFactory
|| __DATA_CONST.__const __ZTI16RoamingInterface
|| __DATA_CONST.__const __ZTI17CoreTimeInterface
|| __DATA_CONST.__const __ZTI17DataTimerObserver
|| __DATA_CONST.__const __ZTI17EncryptedIdentity
|| __DATA_CONST.__const __ZTI17IDSServiceWrapper
|| __DATA_CONST.__const __ZTI17LocationInterface
|| __DATA_CONST.__const __ZTI17MAClientInterface
|| __DATA_CONST.__const __ZTI17PeriodicScheduler
|| __DATA_CONST.__const __ZTI17SettingsInterface
|| __DATA_CONST.__const __ZTI18BasebandModeAction
|| __DATA_CONST.__const __ZTI18DataDriverObserver
|| __DATA_CONST.__const __ZTI18PDPConfigInterface
|| __DATA_CONST.__const __ZTI18PhonebookInterface
|| __DATA_CONST.__const __ZTI18UserAlertInterface
|| __DATA_CONST.__const __ZTI18VoiceMailInterface
|| __DATA_CONST.__const __ZTI19ActivationInterface
|| __DATA_CONST.__const __ZTI19BBDataContextHelper
|| __DATA_CONST.__const __ZTI19CSIAppInfoInterface
|| __DATA_CONST.__const __ZTI19CapabilitiesHandler
|| __DATA_CONST.__const __ZTI19CarrierEntitlements
|| __DATA_CONST.__const __ZTI19FileSystemInterface
|| __DATA_CONST.__const __ZTI19GsmRadioPersonality
|| __DATA_CONST.__const __ZTI19MISServiceInterface
|| __DATA_CONST.__const __ZTI19MMIFactoryInterface
|| __DATA_CONST.__const __ZTI19MmsFactoryInterface
|| __DATA_CONST.__const __ZTI19OSServicesInterface
|| __DATA_CONST.__const __ZTI19P2WSettingsObserver
|| __DATA_CONST.__const __ZTI19PDPManagerInterface
|| __DATA_CONST.__const __ZTI19PersonalitySpecific
|| __DATA_CONST.__const __ZTI19RootHelperInterface
|| __DATA_CONST.__const __ZTI19SBServicesInterface
|| __DATA_CONST.__const __ZTI19STKFactoryInterface
|| __DATA_CONST.__const __ZTI20CDMARoamingInterface
|| __DATA_CONST.__const __ZTI20CTXPCServerInterface
|| __DATA_CONST.__const __ZTI20CallFactoryInterface
|| __DATA_CONST.__const __ZTI20CellMonitorInterface
|| __DATA_CONST.__const __ZTI20DataServiceInterface
|| __DATA_CONST.__const __ZTI20DataSessionActivator
|| __DATA_CONST.__const __ZTI20DtmfHandlerInterface
|| __DATA_CONST.__const __ZTI20EnhancedLQMInterface
|| __DATA_CONST.__const __ZTI20IsoMccCacheInterface
|| __DATA_CONST.__const __ZTI20LASDFactoryInterface
|| __DATA_CONST.__const __ZTI20MMSSettingsInterface
|| __DATA_CONST.__const __ZTI20MaxDataRateInterface
|| __DATA_CONST.__const __ZTI20NAISelectorInterface
|| __DATA_CONST.__const __ZTI20NetworkListInterface
|| __DATA_CONST.__const __ZTI20P2WSettingsInterface
|| __DATA_CONST.__const __ZTI20PhoneServicesControl
|| __DATA_CONST.__const __ZTI20RoamingEventDelegate
|| __DATA_CONST.__const __ZTI20TimeHandlerInterface
|| __DATA_CONST.__const __ZTI20USSDServiceInterface
|| __DATA_CONST.__const __ZTI20WiFiManagerInterface
|| __DATA_CONST.__const __ZTI21AudioFactoryInterface
|| __DATA_CONST.__const __ZTI21AudioRoutingInterface
|| __DATA_CONST.__const __ZTI21BasebandModeEvaluator
|| __DATA_CONST.__const __ZTI21CDMASettingsInterface
|| __DATA_CONST.__const __ZTI21DebugAssertionHandler
|| __DATA_CONST.__const __ZTI21IMSCallModelInterface
|| __DATA_CONST.__const __ZTI21IMSSMSClientInterface
|| __DATA_CONST.__const __ZTI21LocalizationInterface
|| __DATA_CONST.__const __ZTI21MobileHelperInterface
|| __DATA_CONST.__const __ZTI21PairedDeviceInterface
|| __DATA_CONST.__const __ZTI21RegistrationInterface
|| __DATA_CONST.__const __ZTI21SaveDataModeInterface
|| __DATA_CONST.__const __ZTI21SuppServicesInterface
|| __DATA_CONST.__const __ZTI21WiFiSettingsInterface
|| __DATA_CONST.__const __ZTI22CFPreferencesInterface
|| __DATA_CONST.__const __ZTI22CallStatusDelegateBase
|| __DATA_CONST.__const __ZTI22CarrierBundleInterface
|| __DATA_CONST.__const __ZTI22IMSCallClientInterface
|| __DATA_CONST.__const __ZTI22KeychainStoreInterface
|| __DATA_CONST.__const __ZTI22LocaleUtilityInterface
|| __DATA_CONST.__const __ZTI22LocationModelInterface
|| __DATA_CONST.__const __ZTI22MmsControllerInterface
|| __DATA_CONST.__const __ZTI22SCPreferencesInterface
|| __DATA_CONST.__const __ZTI22STKStateModelInterface
|| __DATA_CONST.__const __ZTI22ServerUpdaterInterface
|| __DATA_CONST.__const __ZTI22SimSetupProxyInterface
|| __DATA_CONST.__const __ZTI22SmsControllerInterface
|| __DATA_CONST.__const __ZTI22SubscriberSimInterface
|| __DATA_CONST.__const __ZTI23APN_StorageMgrInterface
|| __DATA_CONST.__const __ZTI23ActivationPushInterface
|| __DATA_CONST.__const __ZTI23CTWifiLocationInterface
|| __DATA_CONST.__const __ZTI23CallControllerInterface
|| __DATA_CONST.__const __ZTI23CellularPolicyInterface
|| __DATA_CONST.__const __ZTI23DataAPNSettingsObserver
|| __DATA_CONST.__const __ZTI23DesenseFactoryInterface
|| __DATA_CONST.__const __ZTI23GestaltUtilityInterface
|| __DATA_CONST.__const __ZTI23LaunchServicesInterface
|| __DATA_CONST.__const __ZTI23LoggingProfileInterface
|| __DATA_CONST.__const __ZTI23NAISelectorMgrInterface
|| __DATA_CONST.__const __ZTI23PersonalityShopDelegate
|| __DATA_CONST.__const __ZTI23PersonalitySpecificImpl
|| __DATA_CONST.__const __ZTI23PhonebookModelInterface
|| __DATA_CONST.__const __ZTI23PowerAssertionInterface
|| __DATA_CONST.__const __ZTI23RoamingNetworkInterface
|| __DATA_CONST.__const __ZTI23SignalStrengthInterface
|| __DATA_CONST.__const __ZTI23SystemObserverInterface
|| __DATA_CONST.__const __ZTI23TechDataConfigInterface
|| __DATA_CONST.__const __ZTI23VinylControllerDelegate
|| __DATA_CONST.__const __ZTI24ActivationModelInterface
|| __DATA_CONST.__const __ZTI24AttachApnModuleInterface
|| __DATA_CONST.__const __ZTI24BundleUtilitiesInterface
|| __DATA_CONST.__const __ZTI24C2KRegistrationInterface
|| __DATA_CONST.__const __ZTI24CarrierSettingsInterface
|| __DATA_CONST.__const __ZTI24DataWifiMonitorInterface
|| __DATA_CONST.__const __ZTI24EMBMSControllerInterface
|| __DATA_CONST.__const __ZTI24SettingsFactoryInterface
|| __DATA_CONST.__const __ZTI24TransportMasterInterface
|| __DATA_CONST.__const __ZTI25AttachApnManagerInterface
|| __DATA_CONST.__const __ZTI25BasebandSettingsInterface
|| __DATA_CONST.__const __ZTI25CSIEventObserverInterface
|| __DATA_CONST.__const __ZTI25CallAudioServiceInterface
|| __DATA_CONST.__const __ZTI25CarrierBundleSOSInterface
|| __DATA_CONST.__const __ZTI25CellMonitorModelInterface
|| __DATA_CONST.__const __ZTI25DataUsageFactoryInterface
|| __DATA_CONST.__const __ZTI25EmergencyManagerInterface
|| __DATA_CONST.__const __ZTI25EmergencyNumbersInterface
|| __DATA_CONST.__const __ZTI25IoKitPowerSourceInterface
|| __DATA_CONST.__const __ZTI25LocationDatabaseInterface
|| __DATA_CONST.__const __ZTI25MobileActivationInterface
|| __DATA_CONST.__const __ZTI25NetworkListEventInterface
|| __DATA_CONST.__const __ZTI25NetworkListModelInterface
|| __DATA_CONST.__const __ZTI25NetworkNameModelInterface
|| __DATA_CONST.__const __ZTI25Peer2PeerFactoryInterface
|| __DATA_CONST.__const __ZTI25PhonebookFactoryInterface
|| __DATA_CONST.__const __ZTI25RegistrationTimeInterface
|| __DATA_CONST.__const __ZTI25TimeHandlerModelInterface
|| __DATA_CONST.__const __ZTI25WidgetControllerInterface
|| __DATA_CONST.__const __ZTI26APNStorageFactoryInterface
|| __DATA_CONST.__const __ZTI26ActivationFactoryInterface
|| __DATA_CONST.__const __ZTI26CTXPCNotificationInterface
|| __DATA_CONST.__const __ZTI26DisallowedNumbersInterface
|| __DATA_CONST.__const __ZTI26MachineIdProviderInterface
|| __DATA_CONST.__const __ZTI26PeriodicSchedulerInterface
|| __DATA_CONST.__const __ZTI26PersonalitiesTrackerHookup
|| __DATA_CONST.__const __ZTI26RegistrationEventInterface
|| __DATA_CONST.__const __ZTI26RegistrationModelInterface
|| __DATA_CONST.__const __ZTI26SubscriberFactoryInterface
|| __DATA_CONST.__const __ZTI26SubscriberTrackerInterface
|| __DATA_CONST.__const __ZTI26SubscriberUtilityInterface
|| __DATA_CONST.__const __ZTI26TelephonyOndemandInterface
|| __DATA_CONST.__const __ZTI27BasebandControllerInterface
|| __DATA_CONST.__const __ZTI27BasebandModeActionDoNothing
|| __DATA_CONST.__const __ZTI27BatteryMeasurementInterface
|| __DATA_CONST.__const __ZTI27BiometricKitDeviceInterface
|| __DATA_CONST.__const __ZTI27CallMetricsUtilityInterface
|| __DATA_CONST.__const __ZTI27CarrierBundleCacheInterface
|| __DATA_CONST.__const __ZTI27CarrierSpaceServerInterface
|| __DATA_CONST.__const __ZTI27CellMonitorFactoryInterface
|| __DATA_CONST.__const __ZTI27DataConnectionAgentObserver
|| __DATA_CONST.__const __ZTI27DataNetworkMonitorInterface
|| __DATA_CONST.__const __ZTI27DataServiceFactoryInterface
|| __DATA_CONST.__const __ZTI27DataiRatControllerInterface
|| __DATA_CONST.__const __ZTI27FollowUpControllerInterface
|| __DATA_CONST.__const __ZTI27HttpRequestFactoryInterface
|| __DATA_CONST.__const __ZTI27NetworkListFactoryInterface
|| __DATA_CONST.__const __ZTI27NetworkNameFactoryInterface
|| __DATA_CONST.__const __ZTI27PowerSourceFactoryInterface
|| __DATA_CONST.__const __ZTI27TelephonyAnalyticsInterface
|| __DATA_CONST.__const __ZTI27TimeHandlerFactoryInterface
|| __DATA_CONST.__const __ZTI27UserRoamingSettingInterface
|| __DATA_CONST.__const __ZTI27WeaGeofenceManagerInterface
|| __DATA_CONST.__const __ZTI28ActivationPushModelInterface
|| __DATA_CONST.__const __ZTI28BiometricKitFactoryInterface
|| __DATA_CONST.__const __ZTI28CancelableUserAlertInterface
|| __DATA_CONST.__const __ZTI28CarrierBundleServerInterface
|| __DATA_CONST.__const __ZTI28CarrierBundleUpdateInterface
|| __DATA_CONST.__const __ZTI28CarrierSpaceFactoryInterface
|| __DATA_CONST.__const __ZTI28CellBroadcastConfigInterface
|| __DATA_CONST.__const __ZTI28DataConnectionAgentInterface
|| __DATA_CONST.__const __ZTI28DtmfHandlerDelegateInterface
|| __DATA_CONST.__const __ZTI28LocalAuthenticationInterface
|| __DATA_CONST.__const __ZTI28NanoPreferencesSyncInterface
|| __DATA_CONST.__const __ZTI28NetworkPolicyDriverInterface
|| __DATA_CONST.__const __ZTI28RegistrationFactoryInterface
|| __DATA_CONST.__const __ZTI28ServiceProvisioningInterface
|| __DATA_CONST.__const __ZTI28SuppServicesFactoryInterface
|| __DATA_CONST.__const __ZTI28TetheringControllerInterface
|| __DATA_CONST.__const __ZTI28USSDServiceDelegateInterface
|| __DATA_CONST.__const __ZTI28UserAlertGenerationInterface
|| __DATA_CONST.__const __ZTI28WeaLocationDelegateInterface
|| __DATA_CONST.__const __ZTI29AKRemoteDeviceHelperInterface
|| __DATA_CONST.__const __ZTI29ActivationPushHelperInterface
|| __DATA_CONST.__const __ZTI29C2KRegistrationModelInterface
|| __DATA_CONST.__const __ZTI29CTXPCPNRNotificationInterface
|| __DATA_CONST.__const __ZTI29CTXPCSMSNotificationInterface
|| __DATA_CONST.__const __ZTI29CarrierBundleFactoryInterface
|| __DATA_CONST.__const __ZTI29CarrierBundleInstallInterface
|| __DATA_CONST.__const __ZTI29CarrierBundleManagerInterface
|| __DATA_CONST.__const __ZTI29CountryDeterminationInterface
|| __DATA_CONST.__const __ZTI29EmergencyNumbersModelDelegate
|| __DATA_CONST.__const __ZTI29IMSCallCommandDriverInterface
|| __DATA_CONST.__const __ZTI29KeychainStoreFactoryInterface
|| __DATA_CONST.__const __ZTI29ManagedConfigurationInterface
|| __DATA_CONST.__const __ZTI29NWUsageSymAttributerInterface
|| __DATA_CONST.__const __ZTI29NetworkAccessFactoryInterface
|| __DATA_CONST.__const __ZTI29ServerUpdaterFactoryInterface
|| __DATA_CONST.__const __ZTI29SetupAssistantHelperInterface
|| __DATA_CONST.__const __ZTI30BasebandSettingsModelInterface
|| __DATA_CONST.__const __ZTI30CTWifiLocationFactoryInterface
|| __DATA_CONST.__const __ZTI30CTXPCDataNotificationInterface
|| __DATA_CONST.__const __ZTI30CarrierSpaceInfoModelInterface
|| __DATA_CONST.__const __ZTI30IMSCallModelDriverDelegateBase
|| __DATA_CONST.__const __ZTI30IMSSuppServicesClientInterface
|| __DATA_CONST.__const __ZTI30LaunchServicesFactoryInterface
|| __DATA_CONST.__const __ZTI30PreferredNetworksCommandDriver
|| __DATA_CONST.__const __ZTI30RoamingHandlerFactoryInterface
|| __DATA_CONST.__const __ZTI30STKStateModelDelegateInterface
|| __DATA_CONST.__const __ZTI30SignalStrengthFactoryInterface
|| __DATA_CONST.__const __ZTI30SubscriberEventSenderInterface
|| __DATA_CONST.__const __ZTI30TechDataConfigServiceInterface
|| __DATA_CONST.__const __ZTI31AutoBugCaptureReporterInterface
|| __DATA_CONST.__const __ZTI31CarrierBundleBOMCopierInterface
|| __DATA_CONST.__const __ZTI31CarrierSpaceControllerInterface
|| __DATA_CONST.__const __ZTI31CellMonitorDeviceStateInterface
|| __DATA_CONST.__const __ZTI31CellularPlanMultiplexerDelegate
|| __DATA_CONST.__const __ZTI31IBICDMASettingsFactoryInterface
|| __DATA_CONST.__const __ZTI31LinkQualityMetricModelInterface
|| __DATA_CONST.__const __ZTI31QMICDMASettingsFactoryInterface
|| __DATA_CONST.__const __ZTI31STKAlertSessionManagerInterface
|| __DATA_CONST.__const __ZTI32ActivationCarrierBundleInterface
|| __DATA_CONST.__const __ZTI32BasebandSettingsFactoryInterface
|| __DATA_CONST.__const __ZTI32CSIEventObserverManagerInterface
|| __DATA_CONST.__const __ZTI32CSIPersistentPropertiesInterface
|| __DATA_CONST.__const __ZTI32CarrierBundleDownloaderInterface
|| __DATA_CONST.__const __ZTI32CarrierBundleMatchProxyInterface
|| __DATA_CONST.__const __ZTI32CarrierBundleWatchCacheInterface
|| __DATA_CONST.__const __ZTI32CellularPlanMultiplexerInterface
|| __DATA_CONST.__const __ZTI32MobileActivationFactoryInterface
|| __DATA_CONST.__const __ZTI32PhoneNumberRegistrationInterface
|| __DATA_CONST.__const __ZTI32RegistrationDeviceStateInterface
|| __DATA_CONST.__const __ZTI32RegistrationTcpFallbackInterface
|| __DATA_CONST.__const __ZTI32SuppServicesPreferencesInterface
|| __DATA_CONST.__const __ZTI33CTXPCSubscriptionManagerInterface
|| __DATA_CONST.__const __ZTI33CompanionPhoneNumberSyncInterface
|| __DATA_CONST.__const __ZTI33IMSAuthenticationManagerInterface
|| __DATA_CONST.__const __ZTI33NetworkTimeWindowFactoryInterface
|| __DATA_CONST.__const __ZTI33RegistrationNotificationInterface
|| __DATA_CONST.__const __ZTI33SubscriberInfoControllerInterface
|| __DATA_CONST.__const __ZTI33SubscriberTrackerFactoryInterface
|| __DATA_CONST.__const __ZTI33TelephonyOndemandFactoryInterface
|| __DATA_CONST.__const __ZTI34BasebandControllerFactoryInterface
|| __DATA_CONST.__const __ZTI34CarrierBundleFileTransferInterface
|| __DATA_CONST.__const __ZTI34CellBroadcastMessageStoreInterface
|| __DATA_CONST.__const __ZTI34CellularPlanDatabaseStoreInterface
|| __DATA_CONST.__const __ZTI34MessageCenterModelFactoryInterface
|| __DATA_CONST.__const __ZTI34NetworkAccessPolicyServerInterface
|| __DATA_CONST.__const __ZTI34PeriodicSchedulerDelegateInterface
|| __DATA_CONST.__const __ZTI35AppleBasebandManagerClientInterface
|| __DATA_CONST.__const __ZTI35CTXPCEmergencyNotificationInterface
|| __DATA_CONST.__const __ZTI35CTXPCVoicemailNotificationInterface
|| __DATA_CONST.__const __ZTI35DataSubscriptionControllerInterface
|| __DATA_CONST.__const __ZTI35LocalAuthenticationFactoryInterface
|| __DATA_CONST.__const __ZTI35MmsOperationWorkerDelegateInterface
|| __DATA_CONST.__const __ZTI35NanoPreferencesSyncFactoryInterface
|| __DATA_CONST.__const __ZTI35SilenceAssertionControllerInterface
|| __DATA_CONST.__const __ZTI35SubscriberUserAlertFactoryInterface
|| __DATA_CONST.__const __ZTI35SubscriberUserAlertManagerInterface
|| __DATA_CONST.__const __ZTI35SystemConfigurationFactoryInterface
|| __DATA_CONST.__const __ZTI35SystemDeterminationManagerInterface
|| __DATA_CONST.__const __ZTI35UserNotificationControllerInterface
|| __DATA_CONST.__const __ZTI36BasebandSettingsDeviceStateInterface
|| __DATA_CONST.__const __ZTI36CTXPCSubscriberNotificationInterface
|| __DATA_CONST.__const __ZTI36CarrierSpaceAuthFlowManagerInterface
|| __DATA_CONST.__const __ZTI36CarrierSpaceTestModeManagerInterface
|| __DATA_CONST.__const __ZTI36DataUsageControllerFGHelperInterface
|| __DATA_CONST.__const __ZTI36EmergencyCallManagerFactoryInterface
|| __DATA_CONST.__const __ZTI36NetworkAccessFactoryFactoryInterface
|| __DATA_CONST.__const __ZTI36SettingsNotificationHandlerInterface
|| __DATA_CONST.__const __ZTI36SignalStrengthModelDelegateInterface
|| __DATA_CONST.__const __ZTI37CarrierSpacePlanProvisioningInterface
|| __DATA_CONST.__const __ZTI37EmergencyNumbersModelFactoryInterface
|| __DATA_CONST.__const __ZTI37IMSCallModelCommandDriverDelegateBase
|| __DATA_CONST.__const __ZTI38BootstrapProvisioningDelegateInterface
|| __DATA_CONST.__const __ZTI38CTXPCRegistrationNotificationInterface
|| __DATA_CONST.__const __ZTI38CTXPCSuppServicesNotificationInterface
|| __DATA_CONST.__const __ZTI39CTXPCCarrierBundleNotificationInterface
|| __DATA_CONST.__const __ZTI39CTXPCNotificationSenderFactoryInterface
|| __DATA_CONST.__const __ZTI39CellularPlanDatabaseControllerInterface
|| __DATA_CONST.__const __ZTI39CoreUtilsMessageSessionHandlerInterface
|| __DATA_CONST.__const __ZTI39LinkQualityMetricModelDelegateInterface
|| __DATA_CONST.__const __ZTI39SubscriberRemoteUILaunchHelperInterface
|| __DATA_CONST.__const __ZTI39TerminalRegistrationControllerInterface
|| __DATA_CONST.__const __ZTI40BootstrapProvisioningControllerInterface
|| __DATA_CONST.__const __ZTI40CarrierSpaceEntitlementsHandlerInterface
|| __DATA_CONST.__const __ZTI40CellularPlanUploadTriggersModelInterface
|| __DATA_CONST.__const __ZTI40CoreUtilsMessageSessionDelegateInterface
|| __DATA_CONST.__const __ZTI40NetworkAccessPolicyServerHelperInterface
|| __DATA_CONST.__const __ZTI40SuppServicesPreferencesDelegateInterface
|| __DATA_CONST.__const __ZTI41DataConnectionAgentPolicySessionInterface
|| __DATA_CONST.__const __ZTI41DataWirelessTechnologyListManagerObserver
|| __DATA_CONST.__const __ZTI42CellularPlanSubscriptionControllerDelegate
|| __DATA_CONST.__const __ZTI42DataWirelessTechnologyListManagerInterface
|| __DATA_CONST.__const __ZTI42PhoneNumberRegistrationControllerInterface
|| __DATA_CONST.__const __ZTI42PreferredNetworksCommandDriverEventHandler
|| __DATA_CONST.__const __ZTI43CellularPlanPendingTransferHandlerInterface
|| __DATA_CONST.__const __ZTI43CellularPlanProvisioningMonitorModeDelegate
|| __DATA_CONST.__const __ZTI43CellularPlanSubscriptionControllerInterface
|| __DATA_CONST.__const __ZTI44CarrierSpaceAuthFlowManagerDelegateInterface
|| __DATA_CONST.__const __ZTI44CarrierSpaceDataPlanMetricsProviderInterface
|| __DATA_CONST.__const __ZTI44CellularPlanIDSSubscriptionSelectorInterface
|| __DATA_CONST.__const __ZTI44CellularPlanProvisioningMonitorModeInterface
|| __DATA_CONST.__const __ZTI45CarrierSpacePlanProvisioningDelegateInterface
|| __DATA_CONST.__const __ZTI48CarrierSpaceEntitlementsHandlerDelegateInterface
|| __DATA_CONST.__const __ZTI48CellularPlanUploadTriggersModelInterfaceDelegate
|| __DATA_CONST.__const __ZTI48DataConnectionAgentPolicySessionPrivateInterface
|| __DATA_CONST.__const __ZTI51CellularPlanPendingTransferHandlerDelegateInterface
|| __DATA_CONST.__const __ZTI52CarrierSpaceDataPlanMetricsProviderDelegateInterface
|| __DATA_CONST.__const __ZTI9CSILogger
|| __DATA_CONST.__const __ZTI9LogWriter
|| __DATA_CONST.__const __ZTIN10subscriber19SubscriberInterfaceE
|| __DATA_CONST.__const __ZTIN14ServiceManager22FunctorShutdownServiceE
|| __DATA_CONST.__const __ZTIN14ServiceManager23FunctorMigrationServiceE
|| __DATA_CONST.__const __ZTIN14ServiceManager7ServiceE
|| __DATA_CONST.__const __ZTIN17PeriodicScheduler12DelegateBaseE
|| __DATA_CONST.__const __ZTIN21BasebandModeEvaluator12DelegateBaseE
|| __DATA_CONST.__const __ZTIN2sd26IMSSubscriberEventDelegateE
|| __DATA_CONST.__const __ZTIN2sd26IMSSubscriberModelDelegateE
|| __DATA_CONST.__const __ZTIN2sd27IMSSubscriberEventInterfaceE
|| __DATA_CONST.__const __ZTIN2sd27IMSSubscriberModelInterfaceE
|| __DATA_CONST.__const __ZTIN2sd28IMSSubscriberConfigInterfaceE
|| __DATA_CONST.__const __ZTIN2sd28IMSSubscriberMetricsDelegateE
|| __DATA_CONST.__const __ZTIN2sd29IMSConnHelperManagerInterfaceE
|| __DATA_CONST.__const __ZTIN2sd29IMSSubscriberFactoryInterfaceE
|| __DATA_CONST.__const __ZTIN2sd30IMSConnectivityHelperInterfaceE
|| __DATA_CONST.__const __ZTIN2sd34IMSConnectivityHelperEventDelegateE
|| __DATA_CONST.__const __ZTIN2sd35IMSSubscriberMetricsHelperInterfaceE
|| __DATA_CONST.__const __ZTIN3mms24OperationWorkerInterfaceE
|| __DATA_CONST.__const __ZTIN4push28PushMessageListenerInterfaceE
|| __DATA_CONST.__const __ZTIN9emergency12SearchDriverE
|| __DATA_CONST.__const __ZTIN9emergency8SearcherE
|| __DATA_CONST.__const __ZTIN9emergency9CallAgentE
|| __DATA_CONST.__const __ZTT23PersonalitySpecificImpl
|| __DATA_CONST.__const __ZTT27DataConnectionAgentObserver
|| __DATA_CONST.__const __ZTT28DataConnectionAgentInterface
|| __DATA_CONST.__const __ZTV12MMIInterface
|| __DATA_CONST.__const __ZTV12OTASPService
|| __DATA_CONST.__const __ZTV13CSIPDPManager
|| __DATA_CONST.__const __ZTV13DaemonFactory
|| __DATA_CONST.__const __ZTV13PDPMetricInfo
|| __DATA_CONST.__const __ZTV13PhoneServices
|| __DATA_CONST.__const __ZTV13STK_Interface
|| __DATA_CONST.__const __ZTV13SmsPduEncoder
|| __DATA_CONST.__const __ZTV14PersonalWallet
|| __DATA_CONST.__const __ZTV14ServiceManager
|| __DATA_CONST.__const __ZTV15PersonalityShop
|| __DATA_CONST.__const __ZTV15RestServiceBase
|| __DATA_CONST.__const __ZTV15VinylController
|| __DATA_CONST.__const __ZTV16DesenseInterface
|| __DATA_CONST.__const __ZTV16IMSClientFactory
|| __DATA_CONST.__const __ZTV16RoamingInterface
|| __DATA_CONST.__const __ZTV17CoreTimeInterface
|| __DATA_CONST.__const __ZTV17DataTimerObserver
|| __DATA_CONST.__const __ZTV17EncryptedIdentity
|| __DATA_CONST.__const __ZTV17IDSServiceWrapper
|| __DATA_CONST.__const __ZTV17LocationInterface
|| __DATA_CONST.__const __ZTV17MAClientInterface
|| __DATA_CONST.__const __ZTV17PeriodicScheduler
|| __DATA_CONST.__const __ZTV17SettingsInterface
|| __DATA_CONST.__const __ZTV18BasebandModeAction
|| __DATA_CONST.__const __ZTV18DataDriverObserver
|| __DATA_CONST.__const __ZTV18PDPConfigInterface
|| __DATA_CONST.__const __ZTV18PhonebookInterface
|| __DATA_CONST.__const __ZTV18UserAlertInterface
|| __DATA_CONST.__const __ZTV18VoiceMailInterface
|| __DATA_CONST.__const __ZTV19ActivationInterface
|| __DATA_CONST.__const __ZTV19BBDataContextHelper
|| __DATA_CONST.__const __ZTV19CSIAppInfoInterface
|| __DATA_CONST.__const __ZTV19CapabilitiesHandler
|| __DATA_CONST.__const __ZTV19CarrierEntitlements
|| __DATA_CONST.__const __ZTV19FileSystemInterface
|| __DATA_CONST.__const __ZTV19GsmRadioPersonality
|| __DATA_CONST.__const __ZTV19MISServiceInterface
|| __DATA_CONST.__const __ZTV19MMIFactoryInterface
|| __DATA_CONST.__const __ZTV19MmsFactoryInterface
|| __DATA_CONST.__const __ZTV19OSServicesInterface
|| __DATA_CONST.__const __ZTV19P2WSettingsObserver
|| __DATA_CONST.__const __ZTV19PDPManagerInterface
|| __DATA_CONST.__const __ZTV19PersonalitySpecific
|| __DATA_CONST.__const __ZTV19RootHelperInterface
|| __DATA_CONST.__const __ZTV19SBServicesInterface
|| __DATA_CONST.__const __ZTV19STKFactoryInterface
|| __DATA_CONST.__const __ZTV20CDMARoamingInterface
|| __DATA_CONST.__const __ZTV20CTXPCServerInterface
|| __DATA_CONST.__const __ZTV20CallFactoryInterface
|| __DATA_CONST.__const __ZTV20CellMonitorInterface
|| __DATA_CONST.__const __ZTV20DataServiceInterface
|| __DATA_CONST.__const __ZTV20DataSessionActivator
|| __DATA_CONST.__const __ZTV20DtmfHandlerInterface
|| __DATA_CONST.__const __ZTV20EnhancedLQMInterface
|| __DATA_CONST.__const __ZTV20IsoMccCacheInterface
|| __DATA_CONST.__const __ZTV20LASDFactoryInterface
|| __DATA_CONST.__const __ZTV20MMSSettingsInterface
|| __DATA_CONST.__const __ZTV20MaxDataRateInterface
|| __DATA_CONST.__const __ZTV20NAISelectorInterface
|| __DATA_CONST.__const __ZTV20NetworkListInterface
|| __DATA_CONST.__const __ZTV20P2WSettingsInterface
|| __DATA_CONST.__const __ZTV20PhoneServicesControl
|| __DATA_CONST.__const __ZTV20RoamingEventDelegate
|| __DATA_CONST.__const __ZTV20TimeHandlerInterface
|| __DATA_CONST.__const __ZTV20USSDServiceInterface
|| __DATA_CONST.__const __ZTV20WiFiManagerInterface
|| __DATA_CONST.__const __ZTV21AudioFactoryInterface
|| __DATA_CONST.__const __ZTV21AudioRoutingInterface
|| __DATA_CONST.__const __ZTV21BasebandModeEvaluator
|| __DATA_CONST.__const __ZTV21CDMASettingsInterface
|| __DATA_CONST.__const __ZTV21DebugAssertionHandler
|| __DATA_CONST.__const __ZTV21IMSCallModelInterface
|| __DATA_CONST.__const __ZTV21IMSSMSClientInterface
|| __DATA_CONST.__const __ZTV21LocalizationInterface
|| __DATA_CONST.__const __ZTV21MobileHelperInterface
|| __DATA_CONST.__const __ZTV21PairedDeviceInterface
|| __DATA_CONST.__const __ZTV21RegistrationInterface
|| __DATA_CONST.__const __ZTV21SaveDataModeInterface
|| __DATA_CONST.__const __ZTV21SuppServicesInterface
|| __DATA_CONST.__const __ZTV21WiFiSettingsInterface
|| __DATA_CONST.__const __ZTV22CFPreferencesInterface
|| __DATA_CONST.__const __ZTV22CallStatusDelegateBase
|| __DATA_CONST.__const __ZTV22CarrierBundleInterface
|| __DATA_CONST.__const __ZTV22IMSCallClientInterface
|| __DATA_CONST.__const __ZTV22KeychainStoreInterface
|| __DATA_CONST.__const __ZTV22LocaleUtilityInterface
|| __DATA_CONST.__const __ZTV22LocationModelInterface
|| __DATA_CONST.__const __ZTV22MmsControllerInterface
|| __DATA_CONST.__const __ZTV22SCPreferencesInterface
|| __DATA_CONST.__const __ZTV22STKStateModelInterface
|| __DATA_CONST.__const __ZTV22ServerUpdaterInterface
|| __DATA_CONST.__const __ZTV22SimSetupProxyInterface
|| __DATA_CONST.__const __ZTV22SmsControllerInterface
|| __DATA_CONST.__const __ZTV22SubscriberSimInterface
|| __DATA_CONST.__const __ZTV23APN_StorageMgrInterface
|| __DATA_CONST.__const __ZTV23ActivationPushInterface
|| __DATA_CONST.__const __ZTV23CTWifiLocationInterface
|| __DATA_CONST.__const __ZTV23CallControllerInterface
|| __DATA_CONST.__const __ZTV23CellularPolicyInterface
|| __DATA_CONST.__const __ZTV23DataAPNSettingsObserver
|| __DATA_CONST.__const __ZTV23DesenseFactoryInterface
|| __DATA_CONST.__const __ZTV23GestaltUtilityInterface
|| __DATA_CONST.__const __ZTV23LaunchServicesInterface
|| __DATA_CONST.__const __ZTV23LoggingProfileInterface
|| __DATA_CONST.__const __ZTV23NAISelectorMgrInterface
|| __DATA_CONST.__const __ZTV23PersonalityShopDelegate
|| __DATA_CONST.__const __ZTV23PersonalitySpecificImpl
|| __DATA_CONST.__const __ZTV23PhonebookModelInterface
|| __DATA_CONST.__const __ZTV23PowerAssertionInterface
|| __DATA_CONST.__const __ZTV23RoamingNetworkInterface
|| __DATA_CONST.__const __ZTV23SignalStrengthInterface
|| __DATA_CONST.__const __ZTV23SystemObserverInterface
|| __DATA_CONST.__const __ZTV23TechDataConfigInterface
|| __DATA_CONST.__const __ZTV23VinylControllerDelegate
|| __DATA_CONST.__const __ZTV24ActivationModelInterface
|| __DATA_CONST.__const __ZTV24AttachApnModuleInterface
|| __DATA_CONST.__const __ZTV24BundleUtilitiesInterface
|| __DATA_CONST.__const __ZTV24C2KRegistrationInterface
|| __DATA_CONST.__const __ZTV24CarrierSettingsInterface
|| __DATA_CONST.__const __ZTV24DataWifiMonitorInterface
|| __DATA_CONST.__const __ZTV24EMBMSControllerInterface
|| __DATA_CONST.__const __ZTV24SettingsFactoryInterface
|| __DATA_CONST.__const __ZTV24TransportMasterInterface
|| __DATA_CONST.__const __ZTV25AttachApnManagerInterface
|| __DATA_CONST.__const __ZTV25BasebandSettingsInterface
|| __DATA_CONST.__const __ZTV25CSIEventObserverInterface
|| __DATA_CONST.__const __ZTV25CallAudioServiceInterface
|| __DATA_CONST.__const __ZTV25CarrierBundleSOSInterface
|| __DATA_CONST.__const __ZTV25CellMonitorModelInterface
|| __DATA_CONST.__const __ZTV25DataUsageFactoryInterface
|| __DATA_CONST.__const __ZTV25EmergencyManagerInterface
|| __DATA_CONST.__const __ZTV25EmergencyNumbersInterface
|| __DATA_CONST.__const __ZTV25IoKitPowerSourceInterface
|| __DATA_CONST.__const __ZTV25LocationDatabaseInterface
|| __DATA_CONST.__const __ZTV25MobileActivationInterface
|| __DATA_CONST.__const __ZTV25NetworkListEventInterface
|| __DATA_CONST.__const __ZTV25NetworkListModelInterface
|| __DATA_CONST.__const __ZTV25NetworkNameModelInterface
|| __DATA_CONST.__const __ZTV25Peer2PeerFactoryInterface
|| __DATA_CONST.__const __ZTV25PhonebookFactoryInterface
|| __DATA_CONST.__const __ZTV25RegistrationTimeInterface
|| __DATA_CONST.__const __ZTV25TimeHandlerModelInterface
|| __DATA_CONST.__const __ZTV25WidgetControllerInterface
|| __DATA_CONST.__const __ZTV26APNStorageFactoryInterface
|| __DATA_CONST.__const __ZTV26ActivationFactoryInterface
|| __DATA_CONST.__const __ZTV26CTXPCNotificationInterface
|| __DATA_CONST.__const __ZTV26DisallowedNumbersInterface
|| __DATA_CONST.__const __ZTV26MachineIdProviderInterface
|| __DATA_CONST.__const __ZTV26PeriodicSchedulerInterface
|| __DATA_CONST.__const __ZTV26PersonalitiesTrackerHookup
|| __DATA_CONST.__const __ZTV26RegistrationEventInterface
|| __DATA_CONST.__const __ZTV26RegistrationModelInterface
|| __DATA_CONST.__const __ZTV26SubscriberFactoryInterface
|| __DATA_CONST.__const __ZTV26SubscriberTrackerInterface
|| __DATA_CONST.__const __ZTV26SubscriberUtilityInterface
|| __DATA_CONST.__const __ZTV26TelephonyOndemandInterface
|| __DATA_CONST.__const __ZTV27BasebandControllerInterface
|| __DATA_CONST.__const __ZTV27BasebandModeActionDoNothing
|| __DATA_CONST.__const __ZTV27BatteryMeasurementInterface
|| __DATA_CONST.__const __ZTV27BiometricKitDeviceInterface
|| __DATA_CONST.__const __ZTV27CallMetricsUtilityInterface
|| __DATA_CONST.__const __ZTV27CarrierBundleCacheInterface
|| __DATA_CONST.__const __ZTV27CarrierSpaceServerInterface
|| __DATA_CONST.__const __ZTV27CellMonitorFactoryInterface
|| __DATA_CONST.__const __ZTV27DataConnectionAgentObserver
|| __DATA_CONST.__const __ZTV27DataNetworkMonitorInterface
|| __DATA_CONST.__const __ZTV27DataServiceFactoryInterface
|| __DATA_CONST.__const __ZTV27DataiRatControllerInterface
|| __DATA_CONST.__const __ZTV27FollowUpControllerInterface
|| __DATA_CONST.__const __ZTV27HttpRequestFactoryInterface
|| __DATA_CONST.__const __ZTV27NetworkListFactoryInterface
|| __DATA_CONST.__const __ZTV27NetworkNameFactoryInterface
|| __DATA_CONST.__const __ZTV27PowerSourceFactoryInterface
|| __DATA_CONST.__const __ZTV27TelephonyAnalyticsInterface
|| __DATA_CONST.__const __ZTV27TimeHandlerFactoryInterface
|| __DATA_CONST.__const __ZTV27UserRoamingSettingInterface
|| __DATA_CONST.__const __ZTV27WeaGeofenceManagerInterface
|| __DATA_CONST.__const __ZTV28ActivationPushModelInterface
|| __DATA_CONST.__const __ZTV28BiometricKitFactoryInterface
|| __DATA_CONST.__const __ZTV28CancelableUserAlertInterface
|| __DATA_CONST.__const __ZTV28CarrierBundleServerInterface
|| __DATA_CONST.__const __ZTV28CarrierBundleUpdateInterface
|| __DATA_CONST.__const __ZTV28CarrierSpaceFactoryInterface
|| __DATA_CONST.__const __ZTV28CellBroadcastConfigInterface
|| __DATA_CONST.__const __ZTV28DataConnectionAgentInterface
|| __DATA_CONST.__const __ZTV28DtmfHandlerDelegateInterface
|| __DATA_CONST.__const __ZTV28LocalAuthenticationInterface
|| __DATA_CONST.__const __ZTV28NanoPreferencesSyncInterface
|| __DATA_CONST.__const __ZTV28NetworkPolicyDriverInterface
|| __DATA_CONST.__const __ZTV28RegistrationFactoryInterface
|| __DATA_CONST.__const __ZTV28ServiceProvisioningInterface
|| __DATA_CONST.__const __ZTV28SuppServicesFactoryInterface
|| __DATA_CONST.__const __ZTV28TetheringControllerInterface
|| __DATA_CONST.__const __ZTV28USSDServiceDelegateInterface
|| __DATA_CONST.__const __ZTV28UserAlertGenerationInterface
|| __DATA_CONST.__const __ZTV28WeaLocationDelegateInterface
|| __DATA_CONST.__const __ZTV29AKRemoteDeviceHelperInterface
|| __DATA_CONST.__const __ZTV29ActivationPushHelperInterface
|| __DATA_CONST.__const __ZTV29C2KRegistrationModelInterface
|| __DATA_CONST.__const __ZTV29CTXPCPNRNotificationInterface
|| __DATA_CONST.__const __ZTV29CTXPCSMSNotificationInterface
|| __DATA_CONST.__const __ZTV29CarrierBundleFactoryInterface
|| __DATA_CONST.__const __ZTV29CarrierBundleInstallInterface
|| __DATA_CONST.__const __ZTV29CarrierBundleManagerInterface
|| __DATA_CONST.__const __ZTV29CountryDeterminationInterface
|| __DATA_CONST.__const __ZTV29EmergencyNumbersModelDelegate
|| __DATA_CONST.__const __ZTV29IMSCallCommandDriverInterface
|| __DATA_CONST.__const __ZTV29KeychainStoreFactoryInterface
|| __DATA_CONST.__const __ZTV29ManagedConfigurationInterface
|| __DATA_CONST.__const __ZTV29NWUsageSymAttributerInterface
|| __DATA_CONST.__const __ZTV29NetworkAccessFactoryInterface
|| __DATA_CONST.__const __ZTV29ServerUpdaterFactoryInterface
|| __DATA_CONST.__const __ZTV29SetupAssistantHelperInterface
|| __DATA_CONST.__const __ZTV30BasebandSettingsModelInterface
|| __DATA_CONST.__const __ZTV30CTWifiLocationFactoryInterface
|| __DATA_CONST.__const __ZTV30CTXPCDataNotificationInterface
|| __DATA_CONST.__const __ZTV30CarrierSpaceInfoModelInterface
|| __DATA_CONST.__const __ZTV30IMSCallModelDriverDelegateBase
|| __DATA_CONST.__const __ZTV30IMSSuppServicesClientInterface
|| __DATA_CONST.__const __ZTV30LaunchServicesFactoryInterface
|| __DATA_CONST.__const __ZTV30PreferredNetworksCommandDriver
|| __DATA_CONST.__const __ZTV30RoamingHandlerFactoryInterface
|| __DATA_CONST.__const __ZTV30STKStateModelDelegateInterface
|| __DATA_CONST.__const __ZTV30SignalStrengthFactoryInterface
|| __DATA_CONST.__const __ZTV30SubscriberEventSenderInterface
|| __DATA_CONST.__const __ZTV30TechDataConfigServiceInterface
|| __DATA_CONST.__const __ZTV31AutoBugCaptureReporterInterface
|| __DATA_CONST.__const __ZTV31CarrierBundleBOMCopierInterface
|| __DATA_CONST.__const __ZTV31CarrierSpaceControllerInterface
|| __DATA_CONST.__const __ZTV31CellMonitorDeviceStateInterface
|| __DATA_CONST.__const __ZTV31CellularPlanMultiplexerDelegate
|| __DATA_CONST.__const __ZTV31IBICDMASettingsFactoryInterface
|| __DATA_CONST.__const __ZTV31LinkQualityMetricModelInterface
|| __DATA_CONST.__const __ZTV31QMICDMASettingsFactoryInterface
|| __DATA_CONST.__const __ZTV31STKAlertSessionManagerInterface
|| __DATA_CONST.__const __ZTV32ActivationCarrierBundleInterface
|| __DATA_CONST.__const __ZTV32BasebandSettingsFactoryInterface
|| __DATA_CONST.__const __ZTV32CSIEventObserverManagerInterface
|| __DATA_CONST.__const __ZTV32CSIPersistentPropertiesInterface
|| __DATA_CONST.__const __ZTV32CarrierBundleDownloaderInterface
|| __DATA_CONST.__const __ZTV32CarrierBundleMatchProxyInterface
|| __DATA_CONST.__const __ZTV32CarrierBundleWatchCacheInterface
|| __DATA_CONST.__const __ZTV32CellularPlanMultiplexerInterface
|| __DATA_CONST.__const __ZTV32MobileActivationFactoryInterface
|| __DATA_CONST.__const __ZTV32PhoneNumberRegistrationInterface
|| __DATA_CONST.__const __ZTV32RegistrationDeviceStateInterface
|| __DATA_CONST.__const __ZTV32RegistrationTcpFallbackInterface
|| __DATA_CONST.__const __ZTV32SuppServicesPreferencesInterface
|| __DATA_CONST.__const __ZTV33CTXPCSubscriptionManagerInterface
|| __DATA_CONST.__const __ZTV33CompanionPhoneNumberSyncInterface
|| __DATA_CONST.__const __ZTV33IMSAuthenticationManagerInterface
|| __DATA_CONST.__const __ZTV33NetworkTimeWindowFactoryInterface
|| __DATA_CONST.__const __ZTV33RegistrationNotificationInterface
|| __DATA_CONST.__const __ZTV33SubscriberInfoControllerInterface
|| __DATA_CONST.__const __ZTV33SubscriberTrackerFactoryInterface
|| __DATA_CONST.__const __ZTV33TelephonyOndemandFactoryInterface
|| __DATA_CONST.__const __ZTV34BasebandControllerFactoryInterface
|| __DATA_CONST.__const __ZTV34CarrierBundleFileTransferInterface
|| __DATA_CONST.__const __ZTV34CellBroadcastMessageStoreInterface
|| __DATA_CONST.__const __ZTV34CellularPlanDatabaseStoreInterface
|| __DATA_CONST.__const __ZTV34MessageCenterModelFactoryInterface
|| __DATA_CONST.__const __ZTV34NetworkAccessPolicyServerInterface
|| __DATA_CONST.__const __ZTV34PeriodicSchedulerDelegateInterface
|| __DATA_CONST.__const __ZTV35AppleBasebandManagerClientInterface
|| __DATA_CONST.__const __ZTV35CTXPCEmergencyNotificationInterface
|| __DATA_CONST.__const __ZTV35CTXPCVoicemailNotificationInterface
|| __DATA_CONST.__const __ZTV35DataSubscriptionControllerInterface
|| __DATA_CONST.__const __ZTV35LocalAuthenticationFactoryInterface
|| __DATA_CONST.__const __ZTV35MmsOperationWorkerDelegateInterface
|| __DATA_CONST.__const __ZTV35NanoPreferencesSyncFactoryInterface
|| __DATA_CONST.__const __ZTV35SilenceAssertionControllerInterface
|| __DATA_CONST.__const __ZTV35SubscriberUserAlertFactoryInterface
|| __DATA_CONST.__const __ZTV35SubscriberUserAlertManagerInterface
|| __DATA_CONST.__const __ZTV35SystemConfigurationFactoryInterface
|| __DATA_CONST.__const __ZTV35SystemDeterminationManagerInterface
|| __DATA_CONST.__const __ZTV35UserNotificationControllerInterface
|| __DATA_CONST.__const __ZTV36BasebandSettingsDeviceStateInterface
|| __DATA_CONST.__const __ZTV36CTXPCSubscriberNotificationInterface
|| __DATA_CONST.__const __ZTV36CarrierSpaceAuthFlowManagerInterface
|| __DATA_CONST.__const __ZTV36CarrierSpaceTestModeManagerInterface
|| __DATA_CONST.__const __ZTV36DataUsageControllerFGHelperInterface
|| __DATA_CONST.__const __ZTV36EmergencyCallManagerFactoryInterface
|| __DATA_CONST.__const __ZTV36NetworkAccessFactoryFactoryInterface
|| __DATA_CONST.__const __ZTV36SettingsNotificationHandlerInterface
|| __DATA_CONST.__const __ZTV36SignalStrengthModelDelegateInterface
|| __DATA_CONST.__const __ZTV37CarrierSpacePlanProvisioningInterface
|| __DATA_CONST.__const __ZTV37EmergencyNumbersModelFactoryInterface
|| __DATA_CONST.__const __ZTV37IMSCallModelCommandDriverDelegateBase
|| __DATA_CONST.__const __ZTV38BootstrapProvisioningDelegateInterface
|| __DATA_CONST.__const __ZTV38CTXPCRegistrationNotificationInterface
|| __DATA_CONST.__const __ZTV38CTXPCSuppServicesNotificationInterface
|| __DATA_CONST.__const __ZTV39CTXPCCarrierBundleNotificationInterface
|| __DATA_CONST.__const __ZTV39CTXPCNotificationSenderFactoryInterface
|| __DATA_CONST.__const __ZTV39CellularPlanDatabaseControllerInterface
|| __DATA_CONST.__const __ZTV39CoreUtilsMessageSessionHandlerInterface
|| __DATA_CONST.__const __ZTV39LinkQualityMetricModelDelegateInterface
|| __DATA_CONST.__const __ZTV39SubscriberRemoteUILaunchHelperInterface
|| __DATA_CONST.__const __ZTV39TerminalRegistrationControllerInterface
|| __DATA_CONST.__const __ZTV40BootstrapProvisioningControllerInterface
|| __DATA_CONST.__const __ZTV40CarrierSpaceEntitlementsHandlerInterface
|| __DATA_CONST.__const __ZTV40CellularPlanUploadTriggersModelInterface
|| __DATA_CONST.__const __ZTV40CoreUtilsMessageSessionDelegateInterface
|| __DATA_CONST.__const __ZTV40NetworkAccessPolicyServerHelperInterface
|| __DATA_CONST.__const __ZTV40SuppServicesPreferencesDelegateInterface
|| __DATA_CONST.__const __ZTV41DataConnectionAgentPolicySessionInterface
|| __DATA_CONST.__const __ZTV41DataWirelessTechnologyListManagerObserver
|| __DATA_CONST.__const __ZTV42CellularPlanSubscriptionControllerDelegate
|| __DATA_CONST.__const __ZTV42DataWirelessTechnologyListManagerInterface
|| __DATA_CONST.__const __ZTV42PhoneNumberRegistrationControllerInterface
|| __DATA_CONST.__const __ZTV42PreferredNetworksCommandDriverEventHandler
|| __DATA_CONST.__const __ZTV43CellularPlanPendingTransferHandlerInterface
|| __DATA_CONST.__const __ZTV43CellularPlanProvisioningMonitorModeDelegate
|| __DATA_CONST.__const __ZTV43CellularPlanSubscriptionControllerInterface
|| __DATA_CONST.__const __ZTV44CarrierSpaceAuthFlowManagerDelegateInterface
|| __DATA_CONST.__const __ZTV44CarrierSpaceDataPlanMetricsProviderInterface
|| __DATA_CONST.__const __ZTV44CellularPlanIDSSubscriptionSelectorInterface
|| __DATA_CONST.__const __ZTV44CellularPlanProvisioningMonitorModeInterface
|| __DATA_CONST.__const __ZTV45CarrierSpacePlanProvisioningDelegateInterface
|| __DATA_CONST.__const __ZTV48CarrierSpaceEntitlementsHandlerDelegateInterface
|| __DATA_CONST.__const __ZTV48CellularPlanUploadTriggersModelInterfaceDelegate
|| __DATA_CONST.__const __ZTV48DataConnectionAgentPolicySessionPrivateInterface
|| __DATA_CONST.__const __ZTV51CellularPlanPendingTransferHandlerDelegateInterface
|| __DATA_CONST.__const __ZTV52CarrierSpaceDataPlanMetricsProviderDelegateInterface
|| __DATA_CONST.__const __ZTV9CSILogger
|| __DATA_CONST.__const __ZTV9LogWriter
|| __DATA_CONST.__const __ZTVN10subscriber19SubscriberInterfaceE
|| __DATA_CONST.__const __ZTVN14ServiceManager22FunctorShutdownServiceE
|| __DATA_CONST.__const __ZTVN14ServiceManager23FunctorMigrationServiceE
|| __DATA_CONST.__const __ZTVN14ServiceManager7ServiceE
|| __DATA_CONST.__const __ZTVN17PeriodicScheduler12DelegateBaseE
|| __DATA_CONST.__const __ZTVN21BasebandModeEvaluator12DelegateBaseE
|| __DATA_CONST.__const __ZTVN2sd26IMSSubscriberEventDelegateE
|| __DATA_CONST.__const __ZTVN2sd26IMSSubscriberModelDelegateE
|| __DATA_CONST.__const __ZTVN2sd27IMSSubscriberEventInterfaceE
|| __DATA_CONST.__const __ZTVN2sd27IMSSubscriberModelInterfaceE
|| __DATA_CONST.__const __ZTVN2sd28IMSSubscriberConfigInterfaceE
|| __DATA_CONST.__const __ZTVN2sd28IMSSubscriberMetricsDelegateE
|| __DATA_CONST.__const __ZTVN2sd29IMSConnHelperManagerInterfaceE
|| __DATA_CONST.__const __ZTVN2sd29IMSSubscriberFactoryInterfaceE
|| __DATA_CONST.__const __ZTVN2sd30IMSConnectivityHelperInterfaceE
|| __DATA_CONST.__const __ZTVN2sd34IMSConnectivityHelperEventDelegateE
|| __DATA_CONST.__const __ZTVN2sd35IMSSubscriberMetricsHelperInterfaceE
|| __DATA_CONST.__const __ZTVN3mms24OperationWorkerInterfaceE
|| __DATA_CONST.__const __ZTVN4push28PushMessageListenerInterfaceE
|| __DATA_CONST.__const __ZTVN9emergency12SearchDriverE
|| __DATA_CONST.__const __ZTVN9emergency8SearcherE
|| __DATA_CONST.__const __ZTVN9emergency9CallAgentE
|| __DATA_CONST.__const _baseLog
|| __DATA_CONST.__const _k3GPP
|| __DATA_CONST.__const _k3GPP2
|| __DATA_CONST.__const _kAcctLocalizationTable
|| __DATA_CONST.__const _kActionId
|| __DATA_CONST.__const _kActionType
|| __DATA_CONST.__const _kAddCallAllowedKey
|| __DATA_CONST.__const _kAkeyLocalizationTable
|| __DATA_CONST.__const _kAlertDialogLocalizationTable
|| __DATA_CONST.__const _kAllowedWhileRoaming
|| __DATA_CONST.__const _kAmbiguousCallListKey
|| __DATA_CONST.__const _kAmbiguousMultiPartyKey
|| __DATA_CONST.__const _kApplies
|| __DATA_CONST.__const _kAttachAPNIPCUPresent
|| __DATA_CONST.__const _kAttachAPNType
|| __DATA_CONST.__const _kAttachAPNTypeMask
|| __DATA_CONST.__const _kAudioToneRelayFlag
|| __DATA_CONST.__const _kAudioToneStandard
|| __DATA_CONST.__const _kBBCallDisconnectCause
|| __DATA_CONST.__const _kBackwardsCompabilityCallDirection
|| __DATA_CONST.__const _kBackwardsCompabilityCallerName
|| __DATA_CONST.__const _kBackwardsCompabilityPhoneNumber
|| __DATA_CONST.__const _kBackwardsCompabilityStartTime
|| __DATA_CONST.__const _kBackwardsCompabilityUuid
|| __DATA_CONST.__const _kBootstrapBundleId
|| __DATA_CONST.__const _kBoundProfilePackageKey
|| __DATA_CONST.__const _kBundleUpdatesUrlPrefix
|| __DATA_CONST.__const _kCALL_CALL_LOG_DOMAIN
|| __DATA_CONST.__const _kCALL_CD_LOG_DOMAIN
|| __DATA_CONST.__const _kCALL_CONTROLLER_LOG_DOMAIN
|| __DATA_CONST.__const _kCALL_EM_NUMBERS_LOG_DOMAIN
|| __DATA_CONST.__const _kCALL_EUR_CDMA_CD_LOG_DOMAIN
|| __DATA_CONST.__const _kCALL_EUR_CD_LOG_DOMAIN
|| __DATA_CONST.__const _kCALL_EUR_GSM_CD_LOG_DOMAIN
|| __DATA_CONST.__const _kCALL_EUR_OTASP_LOG_DOMAIN
|| __DATA_CONST.__const _kCALL_IBI_CDMA_CD_LOG_DOMAIN
|| __DATA_CONST.__const _kCALL_IBI_CD_LOG_DOMAIN
|| __DATA_CONST.__const _kCALL_IBI_GSM_CD_LOG_DOMAIN
|| __DATA_CONST.__const _kCALL_IBI_OTASP_LOG_DOMAIN
|| __DATA_CONST.__const _kCALL_IMS_CD_LOG_DOMAIN
|| __DATA_CONST.__const _kCALL_LOG_DOMAIN
|| __DATA_CONST.__const _kCALL_OTASP_LOG_DOMAIN
|| __DATA_CONST.__const _kCALL_PHONE_NUMBER_DOMAIN
|| __DATA_CONST.__const _kCALL_SRV_PROV_LOG_DOMAIN
|| __DATA_CONST.__const _kCALL_TELEPHONY_CONTROLLER_LOG_DOMAIN
|| __DATA_CONST.__const _kCALL_TELEPHONY_PROVIDER_LOG_DOMAIN
|| __DATA_CONST.__const _kCALL_USSD_LOG_DOMAIN
|| __DATA_CONST.__const _kCBMessageLocalizationTable
|| __DATA_CONST.__const _kCBMessageTinkerLocalizationTable
|| __DATA_CONST.__const _kCFEnableLTEAfterUpgrade
|| __DATA_CONST.__const _kCFLocalProvisioningApplied
|| __DATA_CONST.__const _kCFPSReprovisioningRequired
|| __DATA_CONST.__const _kCFSettingsModelKeyEPDGAddress
|| __DATA_CONST.__const _kCFSettingsModelKeyEPDGAddress2
|| __DATA_CONST.__const _kCFSettingsModelKeyPCSCFAddress
|| __DATA_CONST.__const _kCFSettingsModelKeyPCSCFAddress2
|| __DATA_CONST.__const _kCTCallAudioFrequencyLevel
|| __DATA_CONST.__const _kCTCallAudioToneStandard
|| __DATA_CONST.__const _kCTCallControlErrorCode
|| __DATA_CONST.__const _kCTCallDialServiceAddress
|| __DATA_CONST.__const _kCTCallDialServiceCallType
|| __DATA_CONST.__const _kCTCallDialServiceProvider
|| __DATA_CONST.__const _kCTCallDialServiceSource
|| __DATA_CONST.__const _kCTCallHandoverSuccess
|| __DATA_CONST.__const _kCTCallSerialized
|| __DATA_CONST.__const _kCTCallShouldSetupAudioInterruptions
|| __DATA_CONST.__const _kCTCallSource
|| __DATA_CONST.__const _kCTDataConnectionServiceType3GFaceTimeAuthentication
|| __DATA_CONST.__const _kCTDataConnectionServiceType3GFaceTimeTraffic
|| __DATA_CONST.__const _kCTDataConnectionServiceTypeAppleWirelessDiagnostics
|| __DATA_CONST.__const _kCTDataConnectionServiceTypeBootstrapProvisioning
|| __DATA_CONST.__const _kCTDataConnectionServiceTypeBootstrapRoamingInternetBypass
|| __DATA_CONST.__const _kCTDataConnectionServiceTypeCarrierSpace
|| __DATA_CONST.__const _kCTDataConnectionServiceTypeCellularDataPlanProvisioning
|| __DATA_CONST.__const _kCTDataConnectionServiceTypeCellularDataPlanProvisioning2
|| __DATA_CONST.__const _kCTDataConnectionServiceTypeDataTest
|| __DATA_CONST.__const _kCTDataConnectionServiceTypeEmergency
|| __DATA_CONST.__const _kCTDataConnectionServiceTypeEmergencyLocation
|| __DATA_CONST.__const _kCTDataConnectionServiceTypeEntitlementTraffic
|| __DATA_CONST.__const _kCTDataConnectionServiceTypeIMS
|| __DATA_CONST.__const _kCTDataConnectionServiceTypeInternalDataProbe
|| __DATA_CONST.__const _kCTDataConnectionServiceTypeInternet
|| __DATA_CONST.__const _kCTDataConnectionServiceTypeInternetProbe
|| __DATA_CONST.__const _kCTDataConnectionServiceTypeMMS
|| __DATA_CONST.__const _kCTDataConnectionServiceTypeOMADM
|| __DATA_CONST.__const _kCTDataConnectionServiceTypeOTAActivation
|| __DATA_CONST.__const _kCTDataConnectionServiceTypeOTAInternet
|| __DATA_CONST.__const _kCTDataConnectionServiceTypePushEmail
|| __DATA_CONST.__const _kCTDataConnectionServiceTypeThumperIMS
|| __DATA_CONST.__const _kCTDataConnectionServiceTypeUT
|| __DATA_CONST.__const _kCTDataConnectionServiceTypeVVM
|| __DATA_CONST.__const _kCTDataConnectionServiceTypeWirelessModemAuthentication
|| __DATA_CONST.__const _kCTDataConnectionServiceTypeWirelessModemTraffic
|| __DATA_CONST.__const _kCTDataConnectionServiceTypeZeroRated
|| __DATA_CONST.__const _kCTDataFamilyTypeIPv4
|| __DATA_CONST.__const _kCTDataFamilyTypeIPv6
|| __DATA_CONST.__const _kCTEmergencyCallStatus
|| __DATA_CONST.__const _kCTEmergencyCallType
|| __DATA_CONST.__const _kCTModemErrorCode
|| __DATA_CONST.__const _kCTOtaspStatus
|| __DATA_CONST.__const _kCTPullCallIsPossible
|| __DATA_CONST.__const _kCTQaulityOfServiceFlowType
|| __DATA_CONST.__const _kCTQualityOfServiceCallType
|| __DATA_CONST.__const _kCTQualityOfServiceDestinationIP
|| __DATA_CONST.__const _kCTQualityOfServiceDestinationPort
|| __DATA_CONST.__const _kCTQualityOfServiceDropOperation
|| __DATA_CONST.__const _kCTQualityOfServiceFamily
|| __DATA_CONST.__const _kCTQualityOfServiceFamilyIPv4
|| __DATA_CONST.__const _kCTQualityOfServiceFamilyIPv6
|| __DATA_CONST.__const _kCTQualityOfServiceFlowAudio
|| __DATA_CONST.__const _kCTQualityOfServiceFlowIdentifier
|| __DATA_CONST.__const _kCTQualityOfServiceFlowStatus
|| __DATA_CONST.__const _kCTQualityOfServiceFlowStatusActivated
|| __DATA_CONST.__const _kCTQualityOfServiceFlowStatusGone
|| __DATA_CONST.__const _kCTQualityOfServiceFlowStatusSuspended
|| __DATA_CONST.__const _kCTQualityOfServiceFlowStatusUnknown
|| __DATA_CONST.__const _kCTQualityOfServiceFlowVideo
|| __DATA_CONST.__const _kCTQualityOfServiceKeyFrameTimestamp
|| __DATA_CONST.__const _kCTQualityOfServiceOffsetBytes
|| __DATA_CONST.__const _kCTQualityOfServicePayloadType
|| __DATA_CONST.__const _kCTQualityOfServiceSourceIP
|| __DATA_CONST.__const _kCTQualityOfServiceSourcePort
|| __DATA_CONST.__const _kCTQualityOfServiceTimestampValue
|| __DATA_CONST.__const _kCTQualityOfServiceTransactionID
|| __DATA_CONST.__const _kCTQualityOfServiceUniqueTag
|| __DATA_CONST.__const _kCTSimSupportUICCAuthenticationAutnKey
|| __DATA_CONST.__const _kCTSimSupportUICCAuthenticationAutsKey
|| __DATA_CONST.__const _kCTSimSupportUICCAuthenticationCkKey
|| __DATA_CONST.__const _kCTSimSupportUICCAuthenticationIkKey
|| __DATA_CONST.__const _kCTSimSupportUICCAuthenticationKcKey
|| __DATA_CONST.__const _kCTSimSupportUICCAuthenticationKsExtNafKey
|| __DATA_CONST.__const _kCTSimSupportUICCAuthenticationNafIdKey
|| __DATA_CONST.__const _kCTSimSupportUICCAuthenticationRandKey
|| __DATA_CONST.__const _kCTSimSupportUICCAuthenticationResKey
|| __DATA_CONST.__const _kCTSimSupportUICCAuthenticationSlotUUIDKey
|| __DATA_CONST.__const _kCTSimSupportUICCAuthenticationSresKey
|| __DATA_CONST.__const _kCTSimSupportUICCAuthenticationTypeEAPAKA
|| __DATA_CONST.__const _kCTSimSupportUICCAuthenticationTypeEAPSIM
|| __DATA_CONST.__const _kCTSimSupportUICCAuthenticationTypeKey
|| __DATA_CONST.__const _kCTUSSDSessionResponseRequested
|| __DATA_CONST.__const _kCTUSSDSessionString
|| __DATA_CONST.__const _kCTUSSDSessionStringIsOutgoing
|| __DATA_CONST.__const _kCTVoicePrivacyStatus
|| __DATA_CONST.__const _kCWCarrierBundleDictName
|| __DATA_CONST.__const _kCacheCurrentType
|| __DATA_CONST.__const _kCacheIPCU
|| __DATA_CONST.__const _kCacheOMADM
|| __DATA_CONST.__const _kCacheSim
|| __DATA_CONST.__const _kCacheUI
|| __DATA_CONST.__const _kCacheWritten
|| __DATA_CONST.__const _kCallAudioSource
|| __DATA_CONST.__const _kCallDirectionMobileOriginated
|| __DATA_CONST.__const _kCallDuration
|| __DATA_CONST.__const _kCallName
|| __DATA_CONST.__const _kCallSessionStart
|| __DATA_CONST.__const _kCallSimSlot
|| __DATA_CONST.__const _kCallSourceMode
|| __DATA_CONST.__const _kCallStartTime
|| __DATA_CONST.__const _kCallStatus
|| __DATA_CONST.__const _kCallSubType
|| __DATA_CONST.__const _kCallSubTypeTelephony
|| __DATA_CONST.__const _kCallSubTypeVoLTE
|| __DATA_CONST.__const _kCallSubTypeWifi
|| __DATA_CONST.__const _kCallType
|| __DATA_CONST.__const _kCallWaitingDefaultValueKey
|| __DATA_CONST.__const _kCallerIdAvailability
|| __DATA_CONST.__const _kCallerIdDefaultValue
|| __DATA_CONST.__const _kCarrier1BundleId
|| __DATA_CONST.__const _kCarrier2BundleId
|| __DATA_CONST.__const _kCarrierBundleAttachAPNKey
|| __DATA_CONST.__const _kCarrierBundleCarriersLocalizationTable
|| __DATA_CONST.__const _kCarrierBundleId
|| __DATA_CONST.__const _kCarrierBundleSignatures
|| __DATA_CONST.__const _kCarrierBundleStaging
|| __DATA_CONST.__const _kCarrierBundlesSection
|| __DATA_CONST.__const _kCarrierEntitlementsWalletDomain
|| __DATA_CONST.__const _kCarrierSpaceAnalyticsCellularDataPlanMetricsEvent
|| __DATA_CONST.__const _kCarrierSpaceAnalyticsEntitlementResponseEvent
|| __DATA_CONST.__const _kCarrierSpaceAnalyticsOAuthResultEvent
|| __DATA_CONST.__const _kCarrierSpaceAnalyticsPlanPurchaseRequestEvent
|| __DATA_CONST.__const _kCarrierSpaceAnalyticsPlanPurchaseResultEvent
|| __DATA_CONST.__const _kCarrierSpaceAnalyticsPlansInfoEvent
|| __DATA_CONST.__const _kCarrierSpaceAnalyticsUsageInfoEvent
|| __DATA_CONST.__const _kCarrierSpaceAnalyticsUserConsentEvent
|| __DATA_CONST.__const _kCarriersLocalizationTable
|| __DATA_CONST.__const _kCellBroadcastLocalizationTable
|| __DATA_CONST.__const _kCellularDPMAnalyticsCapacityGroupVersionKey
|| __DATA_CONST.__const _kCellularDPMAnalyticsDataCapacityKey
|| __DATA_CONST.__const _kCellularDPMAnalyticsDataUsagePercentageKey
|| __DATA_CONST.__const _kCellularDPMAnalyticsDaysToBillingCycleEndKey
|| __DATA_CONST.__const _kCellularDPMAnalyticsIsSharedPlanKey
|| __DATA_CONST.__const _kCellularDPMAnalyticsSharedPlanWeightedCapacityKey
|| __DATA_CONST.__const _kCellularDataBundleId
|| __DATA_CONST.__const _kCipheringLocalizationTable
|| __DATA_CONST.__const _kClientNeedsToSetupAudioInterruptions
|| __DATA_CONST.__const _kCommCenterGizmoSettingsBundleId
|| __DATA_CONST.__const _kCommCenterPreferencesNoBackupAppID
|| __DATA_CONST.__const _kCommCenterSharedSettingsBundleId
|| __DATA_CONST.__const _kCtLoggingSystemName
|| __DATA_CONST.__const _kDTMFSupportedKey
|| __DATA_CONST.__const _kDataOffProfile
|| __DATA_CONST.__const _kDataServiceDomain
|| __DATA_CONST.__const _kDataUsageLocalizationTable
|| __DATA_CONST.__const _kDefaultBundleId
|| __DATA_CONST.__const _kDefaultMergedBootstrapBundleId
|| __DATA_CONST.__const _kDefaultMergedCarrier1BundleId
|| __DATA_CONST.__const _kDefaultMergedCarrier2BundleId
|| __DATA_CONST.__const _kDefaultMergedCarrierBundleId
|| __DATA_CONST.__const _kDefaultMergedOperator1BundleId
|| __DATA_CONST.__const _kDefaultMergedOperator2BundleId
|| __DATA_CONST.__const _kDefaultMergedOperatorBundleId
|| __DATA_CONST.__const _kDefaultServerURL
|| __DATA_CONST.__const _kDeviceLockedToGWLForManualSelection
|| __DATA_CONST.__const _kDialVoicemail
|| __DATA_CONST.__const _kDisableCallWaitingKey
|| __DATA_CONST.__const _kDisconnectCauseCode
|| __DATA_CONST.__const _kDisconnectCauseCodeString
|| __DATA_CONST.__const _kEmergencyModeOnly
|| __DATA_CONST.__const _kEmergencyNumberExceptions
|| __DATA_CONST.__const _kEnableCallWaitingKey
|| __DATA_CONST.__const _kEndAndAnswerAllowedKey
|| __DATA_CONST.__const _kEndToneInProgressKey
|| __DATA_CONST.__const _kEntitlementsSelfRegistrationUpdateImei
|| __DATA_CONST.__const _kEntitlementsSelfRegistrationUpdateImsi
|| __DATA_CONST.__const _kEntitlementsServerAddress
|| __DATA_CONST.__const _kEntitlementsSubscriberIDCacheKey
|| __DATA_CONST.__const _kHardPauseSupportedKey
|| __DATA_CONST.__const _kHoldAllowedKey
|| __DATA_CONST.__const _kIPsecInterfaceSettingsResource
|| __DATA_CONST.__const _kISOCountryCode
|| __DATA_CONST.__const _kIWLANSettingsKey
|| __DATA_CONST.__const _kInfoPlistiPadLocalizationTable
|| __DATA_CONST.__const _kInfoPlistiPhoneLocalizationTable
|| __DATA_CONST.__const _kIsConferenceSideBarBlockedKey
|| __DATA_CONST.__const _kIsEmergencyCall
|| __DATA_CONST.__const _kIsEmergencyWiFiAllowed
|| __DATA_CONST.__const _kIsEmergencyWiFiCallCapable
|| __DATA_CONST.__const _kIsEmergencyWiFiNoLimit
|| __DATA_CONST.__const _kIsInMultiParty
|| __DATA_CONST.__const _kIsSplitAllowed
|| __DATA_CONST.__const _kIsTTY
|| __DATA_CONST.__const _kIsTextHeldForRTTCall
|| __DATA_CONST.__const _kIsTheOnlyCall
|| __DATA_CONST.__const _kIsThumperCall
|| __DATA_CONST.__const _kLocationPopupShown
|| __DATA_CONST.__const _kMarkMTCallWithHighPriority
|| __DATA_CONST.__const _kMaxBluetoothModemConnections
|| __DATA_CONST.__const _kMaxMultiPartyCallCountKey
|| __DATA_CONST.__const _kMaxSupportedCallCountKey
|| __DATA_CONST.__const _kMergeableKey
|| __DATA_CONST.__const _kMobileDeviceCarrierBundlesByProductVersion
|| __DATA_CONST.__const _kMobileDeviceCarriersByCarrierID
|| __DATA_CONST.__const _kMobileDeviceCarriersByMccMnc
|| __DATA_CONST.__const _kMobileOriginatedCallEndFlag
|| __DATA_CONST.__const _kNextCarrierBundleUpdateCheck
|| __DATA_CONST.__const _kOnHold
|| __DATA_CONST.__const _kOperator1BundleId
|| __DATA_CONST.__const _kOperator2BundleId
|| __DATA_CONST.__const _kOperatorBundleIDKey
|| __DATA_CONST.__const _kOperatorBundleId
|| __DATA_CONST.__const _kOperatorRoamingAnalyticsEvent
|| __DATA_CONST.__const _kOperatorRoamingNetworkMcc
|| __DATA_CONST.__const _kOperatorRoamingNetworkMnc
|| __DATA_CONST.__const _kOperatorRoamingNetworkNid
|| __DATA_CONST.__const _kOperatorRoamingNetworkSid
|| __DATA_CONST.__const _kOperatorRoamingSubscriberkMcc
|| __DATA_CONST.__const _kOperatorRoamingSubscriberkMnc
|| __DATA_CONST.__const _kOriginalPhoneNumber
|| __DATA_CONST.__const _kOtaspLocalizationTable
|| __DATA_CONST.__const _kPadBundleDeviceClass
|| __DATA_CONST.__const _kPadCBDir
|| __DATA_CONST.__const _kPendingInstallStatusKey
|| __DATA_CONST.__const _kPhoneBundleDeviceClass
|| __DATA_CONST.__const _kPhoneCBDir
|| __DATA_CONST.__const _kPhoneCallSubTypeKey
|| __DATA_CONST.__const _kPhoneNumber
|| __DATA_CONST.__const _kPhoneServicesActiveKey
|| __DATA_CONST.__const _kPhoneServicesCSCallingAvailableKey
|| __DATA_CONST.__const _kPhoneServicesVoLTECallingAvailableKey
|| __DATA_CONST.__const _kPhoneServicesWalletDomain
|| __DATA_CONST.__const _kPlistExtension
|| __DATA_CONST.__const _kPlistExtensionWithoutDot
|| __DATA_CONST.__const _kPostponementTicketLock
|| __DATA_CONST.__const _kPostponementTicketObliterated
|| __DATA_CONST.__const _kPostponementTicketPlist
|| __DATA_CONST.__const _kPreviousCallStatus
|| __DATA_CONST.__const _kProvisionStatusKey
|| __DATA_CONST.__const _kProvisioningProfile
|| __DATA_CONST.__const _kRemoteCellularPlanStorage
|| __DATA_CONST.__const _kSMSNoRetryCauseCodeKey
|| __DATA_CONST.__const _kSendDTMFInBursts
|| __DATA_CONST.__const _kServerURLOverride
|| __DATA_CONST.__const _kServiceStatusKey
|| __DATA_CONST.__const _kServiceTokensCacheKey
|| __DATA_CONST.__const _kSpamCategory
|| __DATA_CONST.__const _kSpamRisk
|| __DATA_CONST.__const _kSubscriberAccountId
|| __DATA_CONST.__const _kSuppServicesAutoAnswerStatusChangedNotification
|| __DATA_CONST.__const _kSuppServicesAutoAnswerStatusKeys
|| __DATA_CONST.__const _kSuppServicesCLIRNetworkStatusChangedNotification
|| __DATA_CONST.__const _kSuppServicesCLIRNetworkStatusKeys
|| __DATA_CONST.__const _kSuppServicesCLIRStatusChangedNotification
|| __DATA_CONST.__const _kSuppServicesCLIRStatusKeys
|| __DATA_CONST.__const _kSuppServicesCallWaitingStatusChangedNotification
|| __DATA_CONST.__const _kSuppServicesCallWaitingStatusKeys
|| __DATA_CONST.__const _kSupportDynamicDataSimSwitchKey
|| __DATA_CONST.__const _kSupportDynamicDataSimSwitchOnBBCallKey
|| __DATA_CONST.__const _kSupportsRTT
|| __DATA_CONST.__const _kSwappableKey
|| __DATA_CONST.__const _kSysCBDir
|| __DATA_CONST.__const _kTelephonyProfileAppID
|| __DATA_CONST.__const _kTelephonyProfileEnableTelephonyLoggingKey
|| __DATA_CONST.__const _kTestUseLoopback
|| __DATA_CONST.__const _kTextStreamToken
|| __DATA_CONST.__const _kThumperAccountId
|| __DATA_CONST.__const _kUserCBDir
|| __DATA_CONST.__const _kUserLabelsLocalizationTable
|| __DATA_CONST.__const _kUuid
|| __DATA_CONST.__const _kUuidToMergeInto
|| __DATA_CONST.__const _kVerstatEnabled
|| __DATA_CONST.__const _kVerstatLevel
|| __DATA_CONST.__const _kVinylFwUpdateBootstrapProfiles
|| __DATA_CONST.__const _kVinylFwUpdateCsn
|| __DATA_CONST.__const _kVinylFwUpdateCurrentMac
|| __DATA_CONST.__const _kVinylFwUpdateCurrentVersion
|| __DATA_CONST.__const _kVinylFwUpdateEuiccChipId
|| __DATA_CONST.__const _kVinylFwUpdateGoldFwChallenge
|| __DATA_CONST.__const _kVinylFwUpdateGoldFwMac
|| __DATA_CONST.__const _kVinylFwUpdateGoldFwNonce
|| __DATA_CONST.__const _kVinylFwUpdateGoldFwSize
|| __DATA_CONST.__const _kVinylFwUpdateGoldFwVersion
|| __DATA_CONST.__const _kVinylFwUpdateKeyId
|| __DATA_CONST.__const _kVinylFwUpdateLoaderVersion
|| __DATA_CONST.__const _kVinylFwUpdateMainFwChallenge
|| __DATA_CONST.__const _kVinylFwUpdateMainFwMac
|| __DATA_CONST.__const _kVinylFwUpdateMainFwNonce
|| __DATA_CONST.__const _kVinylFwUpdateMainFwSize
|| __DATA_CONST.__const _kVinylFwUpdateMainFwVersion
|| __DATA_CONST.__const _kVinylFwUpdateOperationMode
|| __DATA_CONST.__const _kVinylFwUpdateProfileVersion
|| __DATA_CONST.__const _kVinylFwUpdateStatus
|| __DATA_CONST.__const _kVinylFwUpdateUserProfiles
|| __DATA_CONST.__const _kVinylProfileDeleteNotAllowedKey
|| __DATA_CONST.__const _kVinylProfileDisableNotAllowedKey
|| __DATA_CONST.__const _kVinylProfileGID1Key
|| __DATA_CONST.__const _kVinylProfileGID2Key
|| __DATA_CONST.__const _kVinylProfileIccidKey
|| __DATA_CONST.__const _kVinylProfileIdKey
|| __DATA_CONST.__const _kVinylProfileIsActiveKey
|| __DATA_CONST.__const _kVinylProfileIsBootstrapKey
|| __DATA_CONST.__const _kVinylProfileMccKey
|| __DATA_CONST.__const _kVinylProfileMncKey
|| __DATA_CONST.__const _kVinylProfileNicknameKey
|| __DATA_CONST.__const _kVinylProfileServiceProviderNameKey
|| __DATA_CONST.__const _kVinylProxySecondaryIccids
|| __DATA_CONST.__const _kVoLTEProfile
|| __DATA_CONST.__const _kVoicePrivacyKey
|| __DATA_CONST.__const _kWPSPrefixString
|| __DATA_CONST.__const _kWatchBundleDeviceClass
|| __DATA_CONST.__const _kWatchCBDir
|| __DATA_CONST.__const _kWiFiCallingFollowUpTable
|| __DATA_CONST.__const _kWiFiCallingProfile
|| __DATA_CONST.__const _kWifiCallingAllowedInRoamingKey
|| __DATA_DIRTY.__common __ZN4rest15kDefaultBundlesE
|| __DATA_DIRTY.__common __ZN4rest19kDefaultDeviceTypesE
|| __DATA_DIRTY.__common __ZN4rest21kDefaultPsiSmscValuesE
|| __DATA_DIRTY.__common __ZN4rest23kDefaultIsimFilesStatusE
|| __DATA_DIRTY.__common __ZN4rest23kDefaultSmsOnlineStatusE
|| __DATA_DIRTY.__common __ZN4rest27kDefaultMccMncComputedInfosE
|| __DATA_DIRTY.__common __ZN4rest28kDefaultSupportedMessageModeE
|| __DATA_DIRTY.__common __ZN4rest31kDefaultLastKnownHomePlmnValuesE
|| __DATA_DIRTY.__common __ZN4rest34kDefaultSmscAddressAvailableStatusE
|| __DATA_DIRTY.__common __ZN4rest36kDefaultDataConnectionTypeMaskStatesE
|| __DATA_DIRTY.__common __ZN4rest39kDefaultServiceCenterAddressFetchStatusE
|| __DATA_DIRTY.__common __ZN5event10activation10simRemovedE
|| __DATA_DIRTY.__common __ZN5event10activation12resetRequestE
|| __DATA_DIRTY.__common __ZN5event10activation13omadmCompleteE
|| __DATA_DIRTY.__common __ZN5event10activation14OtaspCommittedE
|| __DATA_DIRTY.__common __ZN5event10activation17basebandActivatedE
|| __DATA_DIRTY.__common __ZN5event10activation18serviceProvisionedE
|| __DATA_DIRTY.__common __ZN5event10activation19simProvisionedStateE
|| __DATA_DIRTY.__common __ZN5event10activation23seviceProvisioningStateE
|| __DATA_DIRTY.__common __ZN5event10activation25postponementStatusChangedE
|| __DATA_DIRTY.__common __ZN5event10activation29otaActivationAssertionChangedE
|| __DATA_DIRTY.__common __ZN5event10subscriber9file_dataE
|| __DATA_DIRTY.__common __ZN5event11cellmonitor19cell_info_availableE
|| __DATA_DIRTY.__common __ZN5event12exitLowPowerE
|| __DATA_DIRTY.__common __ZN5event12registration10cambioModeE
|| __DATA_DIRTY.__common __ZN5event12registration12dataAttachedE
|| __DATA_DIRTY.__common __ZN5event12registration13setLTEEnabledE
|| __DATA_DIRTY.__common __ZN5event12registration15dataModeChangedE
|| __DATA_DIRTY.__common __ZN5event12registration15dataNotAttachedE
|| __DATA_DIRTY.__common __ZN5event12registration15networkRejectPSE
|| __DATA_DIRTY.__common __ZN5event12registration20setLTEToProvisioningE
|| __DATA_DIRTY.__common __ZN5event12registration23signalStrengthVerbosityE
|| __DATA_DIRTY.__common __ZN5event12registration28emergencyCallbackModeChangedE
|| __DATA_DIRTY.__common __ZN5event13carrierbundle21bundle_update_resultsE
|| __DATA_DIRTY.__common __ZN5event13carrierbundle22bootstrap_bundle_setupE
|| __DATA_DIRTY.__common __ZN5event13enterLowPowerE
|| __DATA_DIRTY.__common __ZN5event21audioIOStateAvailableE
|| __DATA_DIRTY.__common __ZN5event23loginSessionStateChangeE
|| __DATA_DIRTY.__common __ZN5event23vinyl_bootstrap_profileE
|| __DATA_DIRTY.__common __ZN5event3ims24p_associated_uri_changedE
|| __DATA_DIRTY.__common __ZN5event4call13NewCallInECBME
|| __DATA_DIRTY.__common __ZN5event4call15E911ReadyToDialE
|| __DATA_DIRTY.__common __ZN5event4call22emergencyCallConnectedE
|| __DATA_DIRTY.__common __ZN5event4call23emergencyCallInProgressE
|| __DATA_DIRTY.__common __ZN5event4call25emergencyCallDisconnectedE
|| __DATA_DIRTY.__common __ZN5event4call6activeE
|| __DATA_DIRTY.__common __ZN5event4call8inactiveE
|| __DATA_DIRTY.__common __ZN5event4data10iRatChangeE
|| __DATA_DIRTY.__common __ZN5event4data13TechKeepAliveE
|| __DATA_DIRTY.__common __ZN5event4data16refreshAttachApnE
|| __DATA_DIRTY.__common __ZN5event4data17dataWifiAvailableE
|| __DATA_DIRTY.__common __ZN5event4data17wakeOnWifiChangedE
|| __DATA_DIRTY.__common __ZN5event4data21WiFiOffInAirplaneModeE
|| __DATA_DIRTY.__common __ZN5event4data23connectionConfigChangedE
|| __DATA_DIRTY.__common __ZN5event4data38controlServiceOnLowPowerModeTransitionE
|| __DATA_DIRTY.__common __ZN5event5radio2onE
|| __DATA_DIRTY.__common __ZN5event5radio3offE
|| __DATA_DIRTY.__common __ZN5event5radio5resetE
|| __DATA_DIRTY.__common __ZN5event5radio9disablingE
|| __DATA_DIRTY.__common __ZN5event7logging19csi_logging_enabledE
|| __DATA_DIRTY.__common __ZN5event7logging22global_logging_enabledE
|| __DATA_DIRTY.__common __ZN5event8baseband13operatingModeE
|| __DATA_DIRTY.__common __ZN5event8baseband2onE
|| __DATA_DIRTY.__common __ZN5event8baseband3offE
|| __DATA_DIRTY.__common __ZN5event8baseband5resetE
|| __DATA_DIRTY.__common __ZN5event9dumpStateE
|| __DATA_DIRTY.__common __ZN9DataTimer14fTimerListTailE
|| __DATA_DIRTY.__common _kAuthPrefCHAP
|| __DATA_DIRTY.__common _kAuthPrefPAP
|| __DATA_DIRTY.__common _kDefaultBasebandServiceProvisionedStates
|| __DATA_DIRTY.__common _kEmergency2PersonalityId
|| __DATA_DIRTY.__common _kEmergencyPersonalityId
|| __DATA_DIRTY.__data __ZN9DataTimer14fTimerListLockE
|| __DATA_DIRTY.__data _sCTOsLogDefault
|| __DATA_DIRTY.__objc_data _OBJC_CLASS_$_OCSharedLoggable
|| __DATA_DIRTY.__objc_data _OBJC_METACLASS_$_OCSharedLoggable
|| __TEXT.__const __ZN21DataBBResetThrottling18kMaxBBResetTimeoutE
|| __TEXT.__const __ZN21DataBBResetThrottling22kDefaultBBResetTimeoutE
|| __TEXT.__const __ZN4rest20kDefaultWidgetStatusE
|| __TEXT.__const __ZN8CallInfo14kDefaultCallIdE
|| __TEXT.__const __ZTS12MMIInterface
|| __TEXT.__const __ZTS12OTASPService
|| __TEXT.__const __ZTS13CSIPDPManager
|| __TEXT.__const __ZTS13DaemonFactory
|| __TEXT.__const __ZTS13PDPMetricInfo
|| __TEXT.__const __ZTS13PhoneServices
|| __TEXT.__const __ZTS13STK_Interface
|| __TEXT.__const __ZTS13SmsPduEncoder
|| __TEXT.__const __ZTS14PersonalWallet
|| __TEXT.__const __ZTS14ServiceManager
|| __TEXT.__const __ZTS15PersonalityShop
|| __TEXT.__const __ZTS15RestServiceBase
|| __TEXT.__const __ZTS15VinylController
|| __TEXT.__const __ZTS16DesenseInterface
|| __TEXT.__const __ZTS16IMSClientFactory
|| __TEXT.__const __ZTS16RoamingInterface
|| __TEXT.__const __ZTS17CoreTimeInterface
|| __TEXT.__const __ZTS17DataTimerObserver
|| __TEXT.__const __ZTS17EncryptedIdentity
|| __TEXT.__const __ZTS17IDSServiceWrapper
|| __TEXT.__const __ZTS17LocationInterface
|| __TEXT.__const __ZTS17MAClientInterface
|| __TEXT.__const __ZTS17PeriodicScheduler
|| __TEXT.__const __ZTS17SettingsInterface
|| __TEXT.__const __ZTS18BasebandModeAction
|| __TEXT.__const __ZTS18DataDriverObserver
|| __TEXT.__const __ZTS18PDPConfigInterface
|| __TEXT.__const __ZTS18PhonebookInterface
|| __TEXT.__const __ZTS18UserAlertInterface
|| __TEXT.__const __ZTS18VoiceMailInterface
|| __TEXT.__const __ZTS19ActivationInterface
|| __TEXT.__const __ZTS19BBDataContextHelper
|| __TEXT.__const __ZTS19CSIAppInfoInterface
|| __TEXT.__const __ZTS19CapabilitiesHandler
|| __TEXT.__const __ZTS19CarrierEntitlements
|| __TEXT.__const __ZTS19FileSystemInterface
|| __TEXT.__const __ZTS19GsmRadioPersonality
|| __TEXT.__const __ZTS19MISServiceInterface
|| __TEXT.__const __ZTS19MMIFactoryInterface
|| __TEXT.__const __ZTS19MmsFactoryInterface
|| __TEXT.__const __ZTS19OSServicesInterface
|| __TEXT.__const __ZTS19P2WSettingsObserver
|| __TEXT.__const __ZTS19PDPManagerInterface
|| __TEXT.__const __ZTS19PersonalitySpecific
|| __TEXT.__const __ZTS19RootHelperInterface
|| __TEXT.__const __ZTS19SBServicesInterface
|| __TEXT.__const __ZTS19STKFactoryInterface
|| __TEXT.__const __ZTS20CDMARoamingInterface
|| __TEXT.__const __ZTS20CTXPCServerInterface
|| __TEXT.__const __ZTS20CallFactoryInterface
|| __TEXT.__const __ZTS20CellMonitorInterface
|| __TEXT.__const __ZTS20DataServiceInterface
|| __TEXT.__const __ZTS20DataSessionActivator
|| __TEXT.__const __ZTS20DtmfHandlerInterface
|| __TEXT.__const __ZTS20EnhancedLQMInterface
|| __TEXT.__const __ZTS20IsoMccCacheInterface
|| __TEXT.__const __ZTS20LASDFactoryInterface
|| __TEXT.__const __ZTS20MMSSettingsInterface
|| __TEXT.__const __ZTS20MaxDataRateInterface
|| __TEXT.__const __ZTS20NAISelectorInterface
|| __TEXT.__const __ZTS20NetworkListInterface
|| __TEXT.__const __ZTS20P2WSettingsInterface
|| __TEXT.__const __ZTS20PhoneServicesControl
|| __TEXT.__const __ZTS20RoamingEventDelegate
|| __TEXT.__const __ZTS20TimeHandlerInterface
|| __TEXT.__const __ZTS20USSDServiceInterface
|| __TEXT.__const __ZTS20WiFiManagerInterface
|| __TEXT.__const __ZTS21AudioFactoryInterface
|| __TEXT.__const __ZTS21AudioRoutingInterface
|| __TEXT.__const __ZTS21BasebandModeEvaluator
|| __TEXT.__const __ZTS21CDMASettingsInterface
|| __TEXT.__const __ZTS21DebugAssertionHandler
|| __TEXT.__const __ZTS21IMSCallModelInterface
|| __TEXT.__const __ZTS21IMSSMSClientInterface
|| __TEXT.__const __ZTS21LocalizationInterface
|| __TEXT.__const __ZTS21MobileHelperInterface
|| __TEXT.__const __ZTS21PairedDeviceInterface
|| __TEXT.__const __ZTS21RegistrationInterface
|| __TEXT.__const __ZTS21SaveDataModeInterface
|| __TEXT.__const __ZTS21SuppServicesInterface
|| __TEXT.__const __ZTS21WiFiSettingsInterface
|| __TEXT.__const __ZTS22CFPreferencesInterface
|| __TEXT.__const __ZTS22CallStatusDelegateBase
|| __TEXT.__const __ZTS22CarrierBundleInterface
|| __TEXT.__const __ZTS22IMSCallClientInterface
|| __TEXT.__const __ZTS22KeychainStoreInterface
|| __TEXT.__const __ZTS22LocaleUtilityInterface
|| __TEXT.__const __ZTS22LocationModelInterface
|| __TEXT.__const __ZTS22MmsControllerInterface
|| __TEXT.__const __ZTS22SCPreferencesInterface
|| __TEXT.__const __ZTS22STKStateModelInterface
|| __TEXT.__const __ZTS22ServerUpdaterInterface
|| __TEXT.__const __ZTS22SimSetupProxyInterface
|| __TEXT.__const __ZTS22SmsControllerInterface
|| __TEXT.__const __ZTS22SubscriberSimInterface
|| __TEXT.__const __ZTS23APN_StorageMgrInterface
|| __TEXT.__const __ZTS23ActivationPushInterface
|| __TEXT.__const __ZTS23CTWifiLocationInterface
|| __TEXT.__const __ZTS23CallControllerInterface
|| __TEXT.__const __ZTS23CellularPolicyInterface
|| __TEXT.__const __ZTS23DataAPNSettingsObserver
|| __TEXT.__const __ZTS23DesenseFactoryInterface
|| __TEXT.__const __ZTS23GestaltUtilityInterface
|| __TEXT.__const __ZTS23LaunchServicesInterface
|| __TEXT.__const __ZTS23LoggingProfileInterface
|| __TEXT.__const __ZTS23NAISelectorMgrInterface
|| __TEXT.__const __ZTS23PersonalityShopDelegate
|| __TEXT.__const __ZTS23PersonalitySpecificImpl
|| __TEXT.__const __ZTS23PhonebookModelInterface
|| __TEXT.__const __ZTS23PowerAssertionInterface
|| __TEXT.__const __ZTS23RoamingNetworkInterface
|| __TEXT.__const __ZTS23SignalStrengthInterface
|| __TEXT.__const __ZTS23SystemObserverInterface
|| __TEXT.__const __ZTS23TechDataConfigInterface
|| __TEXT.__const __ZTS23VinylControllerDelegate
|| __TEXT.__const __ZTS24ActivationModelInterface
|| __TEXT.__const __ZTS24AttachApnModuleInterface
|| __TEXT.__const __ZTS24BundleUtilitiesInterface
|| __TEXT.__const __ZTS24C2KRegistrationInterface
|| __TEXT.__const __ZTS24CarrierSettingsInterface
|| __TEXT.__const __ZTS24DataWifiMonitorInterface
|| __TEXT.__const __ZTS24EMBMSControllerInterface
|| __TEXT.__const __ZTS24SettingsFactoryInterface
|| __TEXT.__const __ZTS24TransportMasterInterface
|| __TEXT.__const __ZTS25AttachApnManagerInterface
|| __TEXT.__const __ZTS25BasebandSettingsInterface
|| __TEXT.__const __ZTS25CSIEventObserverInterface
|| __TEXT.__const __ZTS25CallAudioServiceInterface
|| __TEXT.__const __ZTS25CarrierBundleSOSInterface
|| __TEXT.__const __ZTS25CellMonitorModelInterface
|| __TEXT.__const __ZTS25DataUsageFactoryInterface
|| __TEXT.__const __ZTS25EmergencyManagerInterface
|| __TEXT.__const __ZTS25EmergencyNumbersInterface
|| __TEXT.__const __ZTS25IoKitPowerSourceInterface
|| __TEXT.__const __ZTS25LocationDatabaseInterface
|| __TEXT.__const __ZTS25MobileActivationInterface
|| __TEXT.__const __ZTS25NetworkListEventInterface
|| __TEXT.__const __ZTS25NetworkListModelInterface
|| __TEXT.__const __ZTS25NetworkNameModelInterface
|| __TEXT.__const __ZTS25Peer2PeerFactoryInterface
|| __TEXT.__const __ZTS25PhonebookFactoryInterface
|| __TEXT.__const __ZTS25RegistrationTimeInterface
|| __TEXT.__const __ZTS25TimeHandlerModelInterface
|| __TEXT.__const __ZTS25WidgetControllerInterface
|| __TEXT.__const __ZTS26APNStorageFactoryInterface
|| __TEXT.__const __ZTS26ActivationFactoryInterface
|| __TEXT.__const __ZTS26CTXPCNotificationInterface
|| __TEXT.__const __ZTS26DisallowedNumbersInterface
|| __TEXT.__const __ZTS26MachineIdProviderInterface
|| __TEXT.__const __ZTS26PeriodicSchedulerInterface
|| __TEXT.__const __ZTS26PersonalitiesTrackerHookup
|| __TEXT.__const __ZTS26RegistrationEventInterface
|| __TEXT.__const __ZTS26RegistrationModelInterface
|| __TEXT.__const __ZTS26SubscriberFactoryInterface
|| __TEXT.__const __ZTS26SubscriberTrackerInterface
|| __TEXT.__const __ZTS26SubscriberUtilityInterface
|| __TEXT.__const __ZTS26TelephonyOndemandInterface
|| __TEXT.__const __ZTS27BasebandControllerInterface
|| __TEXT.__const __ZTS27BasebandModeActionDoNothing
|| __TEXT.__const __ZTS27BatteryMeasurementInterface
|| __TEXT.__const __ZTS27BiometricKitDeviceInterface
|| __TEXT.__const __ZTS27CallMetricsUtilityInterface
|| __TEXT.__const __ZTS27CarrierBundleCacheInterface
|| __TEXT.__const __ZTS27CarrierSpaceServerInterface
|| __TEXT.__const __ZTS27CellMonitorFactoryInterface
|| __TEXT.__const __ZTS27DataConnectionAgentObserver
|| __TEXT.__const __ZTS27DataNetworkMonitorInterface
|| __TEXT.__const __ZTS27DataServiceFactoryInterface
|| __TEXT.__const __ZTS27DataiRatControllerInterface
|| __TEXT.__const __ZTS27FollowUpControllerInterface
|| __TEXT.__const __ZTS27HttpRequestFactoryInterface
|| __TEXT.__const __ZTS27NetworkListFactoryInterface
|| __TEXT.__const __ZTS27NetworkNameFactoryInterface
|| __TEXT.__const __ZTS27PowerSourceFactoryInterface
|| __TEXT.__const __ZTS27TelephonyAnalyticsInterface
|| __TEXT.__const __ZTS27TimeHandlerFactoryInterface
|| __TEXT.__const __ZTS27UserRoamingSettingInterface
|| __TEXT.__const __ZTS27WeaGeofenceManagerInterface
|| __TEXT.__const __ZTS28ActivationPushModelInterface
|| __TEXT.__const __ZTS28BiometricKitFactoryInterface
|| __TEXT.__const __ZTS28CancelableUserAlertInterface
|| __TEXT.__const __ZTS28CarrierBundleServerInterface
|| __TEXT.__const __ZTS28CarrierBundleUpdateInterface
|| __TEXT.__const __ZTS28CarrierSpaceFactoryInterface
|| __TEXT.__const __ZTS28CellBroadcastConfigInterface
|| __TEXT.__const __ZTS28DataConnectionAgentInterface
|| __TEXT.__const __ZTS28DtmfHandlerDelegateInterface
|| __TEXT.__const __ZTS28LocalAuthenticationInterface
|| __TEXT.__const __ZTS28NanoPreferencesSyncInterface
|| __TEXT.__const __ZTS28NetworkPolicyDriverInterface
|| __TEXT.__const __ZTS28RegistrationFactoryInterface
|| __TEXT.__const __ZTS28ServiceProvisioningInterface
|| __TEXT.__const __ZTS28SuppServicesFactoryInterface
|| __TEXT.__const __ZTS28TetheringControllerInterface
|| __TEXT.__const __ZTS28USSDServiceDelegateInterface
|| __TEXT.__const __ZTS28UserAlertGenerationInterface
|| __TEXT.__const __ZTS28WeaLocationDelegateInterface
|| __TEXT.__const __ZTS29AKRemoteDeviceHelperInterface
|| __TEXT.__const __ZTS29ActivationPushHelperInterface
|| __TEXT.__const __ZTS29C2KRegistrationModelInterface
|| __TEXT.__const __ZTS29CTXPCPNRNotificationInterface
|| __TEXT.__const __ZTS29CTXPCSMSNotificationInterface
|| __TEXT.__const __ZTS29CarrierBundleFactoryInterface
|| __TEXT.__const __ZTS29CarrierBundleInstallInterface
|| __TEXT.__const __ZTS29CarrierBundleManagerInterface
|| __TEXT.__const __ZTS29CountryDeterminationInterface
|| __TEXT.__const __ZTS29EmergencyNumbersModelDelegate
|| __TEXT.__const __ZTS29IMSCallCommandDriverInterface
|| __TEXT.__const __ZTS29KeychainStoreFactoryInterface
|| __TEXT.__const __ZTS29ManagedConfigurationInterface
|| __TEXT.__const __ZTS29NWUsageSymAttributerInterface
|| __TEXT.__const __ZTS29NetworkAccessFactoryInterface
|| __TEXT.__const __ZTS29ServerUpdaterFactoryInterface
|| __TEXT.__const __ZTS29SetupAssistantHelperInterface
|| __TEXT.__const __ZTS30BasebandSettingsModelInterface
|| __TEXT.__const __ZTS30CTWifiLocationFactoryInterface
|| __TEXT.__const __ZTS30CTXPCDataNotificationInterface
|| __TEXT.__const __ZTS30CarrierSpaceInfoModelInterface
|| __TEXT.__const __ZTS30IMSCallModelDriverDelegateBase
|| __TEXT.__const __ZTS30IMSSuppServicesClientInterface
|| __TEXT.__const __ZTS30LaunchServicesFactoryInterface
|| __TEXT.__const __ZTS30PreferredNetworksCommandDriver
|| __TEXT.__const __ZTS30RoamingHandlerFactoryInterface
|| __TEXT.__const __ZTS30STKStateModelDelegateInterface
|| __TEXT.__const __ZTS30SignalStrengthFactoryInterface
|| __TEXT.__const __ZTS30SubscriberEventSenderInterface
|| __TEXT.__const __ZTS30TechDataConfigServiceInterface
|| __TEXT.__const __ZTS31AutoBugCaptureReporterInterface
|| __TEXT.__const __ZTS31CarrierBundleBOMCopierInterface
|| __TEXT.__const __ZTS31CarrierSpaceControllerInterface
|| __TEXT.__const __ZTS31CellMonitorDeviceStateInterface
|| __TEXT.__const __ZTS31CellularPlanMultiplexerDelegate
|| __TEXT.__const __ZTS31IBICDMASettingsFactoryInterface
|| __TEXT.__const __ZTS31LinkQualityMetricModelInterface
|| __TEXT.__const __ZTS31QMICDMASettingsFactoryInterface
|| __TEXT.__const __ZTS31STKAlertSessionManagerInterface
|| __TEXT.__const __ZTS32ActivationCarrierBundleInterface
|| __TEXT.__const __ZTS32BasebandSettingsFactoryInterface
|| __TEXT.__const __ZTS32CSIEventObserverManagerInterface
|| __TEXT.__const __ZTS32CSIPersistentPropertiesInterface
|| __TEXT.__const __ZTS32CarrierBundleDownloaderInterface
|| __TEXT.__const __ZTS32CarrierBundleMatchProxyInterface
|| __TEXT.__const __ZTS32CarrierBundleWatchCacheInterface
|| __TEXT.__const __ZTS32CellularPlanMultiplexerInterface
|| __TEXT.__const __ZTS32MobileActivationFactoryInterface
|| __TEXT.__const __ZTS32PhoneNumberRegistrationInterface
|| __TEXT.__const __ZTS32RegistrationDeviceStateInterface
|| __TEXT.__const __ZTS32RegistrationTcpFallbackInterface
|| __TEXT.__const __ZTS32SuppServicesPreferencesInterface
|| __TEXT.__const __ZTS33CTXPCSubscriptionManagerInterface
|| __TEXT.__const __ZTS33CompanionPhoneNumberSyncInterface
|| __TEXT.__const __ZTS33IMSAuthenticationManagerInterface
|| __TEXT.__const __ZTS33NetworkTimeWindowFactoryInterface
|| __TEXT.__const __ZTS33RegistrationNotificationInterface
|| __TEXT.__const __ZTS33SubscriberInfoControllerInterface
|| __TEXT.__const __ZTS33SubscriberTrackerFactoryInterface
|| __TEXT.__const __ZTS33TelephonyOndemandFactoryInterface
|| __TEXT.__const __ZTS34BasebandControllerFactoryInterface
|| __TEXT.__const __ZTS34CarrierBundleFileTransferInterface
|| __TEXT.__const __ZTS34CellBroadcastMessageStoreInterface
|| __TEXT.__const __ZTS34CellularPlanDatabaseStoreInterface
|| __TEXT.__const __ZTS34MessageCenterModelFactoryInterface
|| __TEXT.__const __ZTS34NetworkAccessPolicyServerInterface
|| __TEXT.__const __ZTS34PeriodicSchedulerDelegateInterface
|| __TEXT.__const __ZTS35AppleBasebandManagerClientInterface
|| __TEXT.__const __ZTS35CTXPCEmergencyNotificationInterface
|| __TEXT.__const __ZTS35CTXPCVoicemailNotificationInterface
|| __TEXT.__const __ZTS35DataSubscriptionControllerInterface
|| __TEXT.__const __ZTS35LocalAuthenticationFactoryInterface
|| __TEXT.__const __ZTS35MmsOperationWorkerDelegateInterface
|| __TEXT.__const __ZTS35NanoPreferencesSyncFactoryInterface
|| __TEXT.__const __ZTS35SilenceAssertionControllerInterface
|| __TEXT.__const __ZTS35SubscriberUserAlertFactoryInterface
|| __TEXT.__const __ZTS35SubscriberUserAlertManagerInterface
|| __TEXT.__const __ZTS35SystemConfigurationFactoryInterface
|| __TEXT.__const __ZTS35SystemDeterminationManagerInterface
|| __TEXT.__const __ZTS35UserNotificationControllerInterface
|| __TEXT.__const __ZTS36BasebandSettingsDeviceStateInterface
|| __TEXT.__const __ZTS36CTXPCSubscriberNotificationInterface
|| __TEXT.__const __ZTS36CarrierSpaceAuthFlowManagerInterface
|| __TEXT.__const __ZTS36CarrierSpaceTestModeManagerInterface
|| __TEXT.__const __ZTS36DataUsageControllerFGHelperInterface
|| __TEXT.__const __ZTS36EmergencyCallManagerFactoryInterface
|| __TEXT.__const __ZTS36NetworkAccessFactoryFactoryInterface
|| __TEXT.__const __ZTS36SettingsNotificationHandlerInterface
|| __TEXT.__const __ZTS36SignalStrengthModelDelegateInterface
|| __TEXT.__const __ZTS37CarrierSpacePlanProvisioningInterface
|| __TEXT.__const __ZTS37EmergencyNumbersModelFactoryInterface
|| __TEXT.__const __ZTS37IMSCallModelCommandDriverDelegateBase
|| __TEXT.__const __ZTS38BootstrapProvisioningDelegateInterface
|| __TEXT.__const __ZTS38CTXPCRegistrationNotificationInterface
|| __TEXT.__const __ZTS38CTXPCSuppServicesNotificationInterface
|| __TEXT.__const __ZTS39CTXPCCarrierBundleNotificationInterface
|| __TEXT.__const __ZTS39CTXPCNotificationSenderFactoryInterface
|| __TEXT.__const __ZTS39CellularPlanDatabaseControllerInterface
|| __TEXT.__const __ZTS39CoreUtilsMessageSessionHandlerInterface
|| __TEXT.__const __ZTS39LinkQualityMetricModelDelegateInterface
|| __TEXT.__const __ZTS39SubscriberRemoteUILaunchHelperInterface
|| __TEXT.__const __ZTS39TerminalRegistrationControllerInterface
|| __TEXT.__const __ZTS40BootstrapProvisioningControllerInterface
|| __TEXT.__const __ZTS40CarrierSpaceEntitlementsHandlerInterface
|| __TEXT.__const __ZTS40CellularPlanUploadTriggersModelInterface
|| __TEXT.__const __ZTS40CoreUtilsMessageSessionDelegateInterface
|| __TEXT.__const __ZTS40NetworkAccessPolicyServerHelperInterface
|| __TEXT.__const __ZTS40SuppServicesPreferencesDelegateInterface
|| __TEXT.__const __ZTS41DataConnectionAgentPolicySessionInterface
|| __TEXT.__const __ZTS41DataWirelessTechnologyListManagerObserver
|| __TEXT.__const __ZTS42CellularPlanSubscriptionControllerDelegate
|| __TEXT.__const __ZTS42DataWirelessTechnologyListManagerInterface
|| __TEXT.__const __ZTS42PhoneNumberRegistrationControllerInterface
|| __TEXT.__const __ZTS42PreferredNetworksCommandDriverEventHandler
|| __TEXT.__const __ZTS43CellularPlanPendingTransferHandlerInterface
|| __TEXT.__const __ZTS43CellularPlanProvisioningMonitorModeDelegate
|| __TEXT.__const __ZTS43CellularPlanSubscriptionControllerInterface
|| __TEXT.__const __ZTS44CarrierSpaceAuthFlowManagerDelegateInterface
|| __TEXT.__const __ZTS44CarrierSpaceDataPlanMetricsProviderInterface
|| __TEXT.__const __ZTS44CellularPlanIDSSubscriptionSelectorInterface
|| __TEXT.__const __ZTS44CellularPlanProvisioningMonitorModeInterface
|| __TEXT.__const __ZTS45CarrierSpacePlanProvisioningDelegateInterface
|| __TEXT.__const __ZTS48CarrierSpaceEntitlementsHandlerDelegateInterface
|| __TEXT.__const __ZTS48CellularPlanUploadTriggersModelInterfaceDelegate
|| __TEXT.__const __ZTS48DataConnectionAgentPolicySessionPrivateInterface
|| __TEXT.__const __ZTS51CellularPlanPendingTransferHandlerDelegateInterface
|| __TEXT.__const __ZTS52CarrierSpaceDataPlanMetricsProviderDelegateInterface
|| __TEXT.__const __ZTS9CSILogger
|| __TEXT.__const __ZTS9LogWriter
|| __TEXT.__const __ZTSN10subscriber19SubscriberInterfaceE
|| __TEXT.__const __ZTSN14ServiceManager22FunctorShutdownServiceE
|| __TEXT.__const __ZTSN14ServiceManager23FunctorMigrationServiceE
|| __TEXT.__const __ZTSN14ServiceManager7ServiceE
|| __TEXT.__const __ZTSN17PeriodicScheduler12DelegateBaseE
|| __TEXT.__const __ZTSN21BasebandModeEvaluator12DelegateBaseE
|| __TEXT.__const __ZTSN2sd26IMSSubscriberEventDelegateE
|| __TEXT.__const __ZTSN2sd26IMSSubscriberModelDelegateE
|| __TEXT.__const __ZTSN2sd27IMSSubscriberEventInterfaceE
|| __TEXT.__const __ZTSN2sd27IMSSubscriberModelInterfaceE
|| __TEXT.__const __ZTSN2sd28IMSSubscriberConfigInterfaceE
|| __TEXT.__const __ZTSN2sd28IMSSubscriberMetricsDelegateE
|| __TEXT.__const __ZTSN2sd29IMSConnHelperManagerInterfaceE
|| __TEXT.__const __ZTSN2sd29IMSSubscriberFactoryInterfaceE
|| __TEXT.__const __ZTSN2sd30IMSConnectivityHelperInterfaceE
|| __TEXT.__const __ZTSN2sd34IMSConnectivityHelperEventDelegateE
|| __TEXT.__const __ZTSN2sd35IMSSubscriberMetricsHelperInterfaceE
|| __TEXT.__const __ZTSN3mms24OperationWorkerInterfaceE
|| __TEXT.__const __ZTSN4push28PushMessageListenerInterfaceE
|| __TEXT.__const __ZTSN9emergency12SearchDriverE
|| __TEXT.__const __ZTSN9emergency8SearcherE
|| __TEXT.__const __ZTSN9emergency9CallAgentE
|| __TEXT.__const _kCellularDPMAnalyticsCapacityGroupVersionValue
|| __TEXT.__const _kDefaultT911Preferences
|| __TEXT.__const _kNoVinylProfile
|| __TEXT.__text _CSIErrorString
|| __TEXT.__text _CSIEventString
|| __TEXT.__text _DERDecoderGetBuffer
|| __TEXT.__text _DERDecoderGetBufferLength
|| __TEXT.__text _DERDecoderGetCount
|| __TEXT.__text _DERDecoderGetDataAt
|| __TEXT.__text _DERDecoderGetDataWithTag
|| __TEXT.__text _DERDecoderGetEncodingAt
|| __TEXT.__text _DERDecoderGetEncodingWithTag
|| __TEXT.__text _DERDecoderGetInteger32WithTag
|| __TEXT.__text _DERDecoderGetInteger64WithTag
|| __TEXT.__text _DERDecoderInitialize
|| __TEXT.__text _DERDecoderParseSequence
|| __TEXT.__text __Z10CSIGetTimeR7CSIDate
|| __TEXT.__text __Z10createPLMNRKNSt3__112basic_stringIcNS_11char_traitsIcEENS_9allocatorIcEEEES7_
|| __TEXT.__text __Z10createPLMNii
|| __TEXT.__text __Z10createPLMNiib
|| __TEXT.__text __Z10isInactiveN13EmergencyMode5StateE
|| __TEXT.__text __Z11getCSIError22ERROR_3GPP_END_REASONS
|| __TEXT.__text __Z11getDSReason22ERROR_3GPP_END_REASONS
|| __TEXT.__text __Z11isCallAliveRK9CallState
|| __TEXT.__text __Z11isOTANumberRKNSt3__110shared_ptrIK8RegistryEERKNS_12basic_stringIcNS_11char_traitsIcEENS_9allocatorIcEEEEN10subscriber7SimSlotE
|| __TEXT.__text __Z11sGetSimSlotRK12BasicSimInfo
|| __TEXT.__text __Z12CSIAtomicAddPVii
|| __TEXT.__text __Z12asStringBoolNSt3__18optionalIbEE
|| __TEXT.__text __Z12asStringBoolb
|| __TEXT.__text __Z12asStringMaskj
|| __TEXT.__text __Z12createCFPLMNRK3MCCRK3MNC
|| __TEXT.__text __Z12dataToStringPKcm
|| __TEXT.__text __Z12dataToStringPKhm
|| __TEXT.__text __Z12decodeBufferPKvm16DataCodingScheme
|| __TEXT.__text __Z12decodeStringRKNSt3__112basic_stringIcNS_11char_traitsIcEENS_9allocatorIcEEEE16DataCodingSchemeRS5_
|| __TEXT.__text __Z12decodeStringRKNSt3__112basic_stringIcNS_11char_traitsIcEENS_9allocatorIcEEEERS5_
|| __TEXT.__text __Z12decodeStringRKNSt3__16vectorIhNS_9allocatorIhEEEE16DataCodingSchemeRNS_12basic_stringIcNS_11char_traitsIcEENS1_IcEEEE
|| __TEXT.__text __Z12encodeBufferPKvm16DataCodingScheme
|| __TEXT.__text __Z12encodeStringRKNSt3__112basic_stringIcNS_11char_traitsIcEENS_9allocatorIcEEEE16DataCodingScheme
|| __TEXT.__text __Z12sCTLogServerv
|| __TEXT.__text __Z13CSIGetGmtTimeR7CSIDate
|| __TEXT.__text __Z13CSISystemTimev
|| __TEXT.__text __Z13asShortString16DataContextState
|| __TEXT.__text __Z13indeterminate15BoolWithUnknown
|| __TEXT.__text __Z13sIsPrimarySimRK12BasicSimInfo
|| __TEXT.__text __Z14anyContextType15DataContextType
|| __TEXT.__text __Z14copyURLForPathPK10__CFString
|| __TEXT.__text __Z14copyURLForPathRKNSt3__112basic_stringIcNS_11char_traitsIcEENS_9allocatorIcEEEE
|| __TEXT.__text __Z14getCurrentDateRKNSt3__110shared_ptrIK8RegistryEE
|| __TEXT.__text __Z14isCdmaDataMode8DataMode
|| __TEXT.__text __Z14sGetEmptyAddrsv
|| __TEXT.__text __Z14sMakeSimSlotIdjN10subscriber7SimSlotE
|| __TEXT.__text __Z14shouldRetrySMSN10subscriber7SimSlotERKNSt3__110shared_ptrIK8RegistryEEi
|| __TEXT.__text __Z15CSIboolAsStringb
|| __TEXT.__text __Z15TTYTypeAsString7TTYType
|| __TEXT.__text __Z15copyURLAsStringN3ctu2cf11CFSharedRefIK7__CFURLEE
|| __TEXT.__text __Z15copyURLAsStringPK7__CFURL
|| __TEXT.__text __Z15getDataUsageLogv
|| __TEXT.__text __Z15isEmergencyCallRK8CallInfo
|| __TEXT.__text __Z15read_rest_valueR11AnyCallInfoRKN3xpc6objectE
|| __TEXT.__text __Z15read_rest_valueR11CallRequestRKN3xpc6objectE
|| __TEXT.__text __Z15read_rest_valueR12BasicSimInfoRKN3xpc6objectE
|| __TEXT.__text __Z15read_rest_valueR12WiFiSettingsN3xpc6objectE
|| __TEXT.__text __Z15read_rest_valueR13DisplayStatusN3xpc6objectE
|| __TEXT.__text __Z15read_rest_valueR13EmergencyModeRKN3xpc6objectE
|| __TEXT.__text __Z15read_rest_valueR13PersonalityIDRKN3xpc6objectE
|| __TEXT.__text __Z15read_rest_valueR14CSIPhoneNumberRKN3xpc6objectE
|| __TEXT.__text __Z15read_rest_valueR14CallEndRequestRKN3xpc6objectE
|| __TEXT.__text __Z15read_rest_valueR14E911StateEnterRKN3xpc6objectE
|| __TEXT.__text __Z15read_rest_valueR14E911StateReadyRKN3xpc6objectE
|| __TEXT.__text __Z15read_rest_valueR15CallDialRequestRKN3xpc6objectE
|| __TEXT.__text __Z15read_rest_valueR15CallHoldRequestRKN3xpc6objectE
|| __TEXT.__text __Z15read_rest_valueR15CallTransactionRKN3xpc6objectE
|| __TEXT.__text __Z15read_rest_valueR15CurrentCallInfoRKN3xpc6objectE
|| __TEXT.__text __Z15read_rest_valueR15CurrentLanguageRKN3xpc6objectE
|| __TEXT.__text __Z15read_rest_valueR15LastCallSubTypeRKN3xpc6objectE
|| __TEXT.__text __Z15read_rest_valueR15PersonalityInfoRKN3xpc6objectE
|| __TEXT.__text __Z15read_rest_valueR15RemoteVinylInfoRKN3xpc6objectE
|| __TEXT.__text __Z15read_rest_valueR15SendDTMFRequestRKN3xpc6objectE
|| __TEXT.__text __Z15read_rest_valueR15SendToVoicemailRKN3xpc6objectE
|| __TEXT.__text __Z15read_rest_valueR15T911PreferencesRKN3xpc6objectE
|| __TEXT.__text __Z15read_rest_valueR15TTYSettingsInfoN3xpc6objectE
|| __TEXT.__text __Z15read_rest_valueR16CallMergeRequestRKN3xpc6objectE
|| __TEXT.__text __Z15read_rest_valueR16CallStateSummaryRKN3xpc6objectE
|| __TEXT.__text __Z15read_rest_valueR16TTYEnabledStatusN3xpc6objectE
|| __TEXT.__text __Z15read_rest_valueR17CallAnswerRequestRKN3xpc6objectE
|| __TEXT.__text __Z15read_rest_valueR17CallFrequencyDataRKN3xpc6objectE
|| __TEXT.__text __Z15read_rest_valueR18CallControlFailureRKN3xpc6objectE
|| __TEXT.__text __Z15read_rest_valueR18SetRelayingRequestRKN3xpc6objectE
|| __TEXT.__text __Z15read_rest_valueR18SignalStrengthInfoRKN3xpc6objectE
|| __TEXT.__text __Z15read_rest_valueR19VinylProfileDetailsRKN3xpc6objectE
|| __TEXT.__text __Z15read_rest_valueR20CallToneCompleteInfoRKN3xpc6objectE
|| __TEXT.__text __Z15read_rest_valueR20SubscriberDataIdInfoRKN3xpc6objectE
|| __TEXT.__text __Z15read_rest_valueR21DataUsageBillingCycleRKN3xpc6objectE
|| __TEXT.__text __Z15read_rest_valueR21SubscriberAuthRequestRKN3xpc6objectE
|| __TEXT.__text __Z15read_rest_valueR21SubscriberCardDetailsRKN3xpc4dictE
|| __TEXT.__text __Z15read_rest_valueR22UpdateCallToTTYRequestRKN3xpc6objectE
|| __TEXT.__text __Z15read_rest_valueR23RequestDumpStatePayloadRKN3xpc6objectE
|| __TEXT.__text __Z15read_rest_valueR28CurrentEmergencyCallBackModeRKN3xpc6objectE
|| __TEXT.__text __Z15read_rest_valueR29DisambiguationEmergencyNumberRKN3xpc6objectE
|| __TEXT.__text __Z15read_rest_valueR6InputsRKN3xpc6objectE
|| __TEXT.__text __Z15read_rest_valueR7AppInfoRKN3xpc6objectE
|| __TEXT.__text __Z15read_rest_valueR8SimLabelRKN3xpc6objectE
|| __TEXT.__text __Z15read_rest_valueR9RadioModeRKN3xpc6objectE
|| __TEXT.__text __Z15read_rest_valueR9VinylInfoRKN3xpc6objectE
|| __TEXT.__text __Z15sAreSimsSettledRKNSt3__110shared_ptrIK8RegistryEERKNS_3mapIN10subscriber7SimSlotE12BasicSimInfoNS_4lessIS8_EENS_9allocatorINS_4pairIKS8_S9_EEEEEE
|| __TEXT.__text __Z16CSIDateToSecondsRK7CSIDate
|| __TEXT.__text __Z16CSISecondsToDatelR7CSIDate
|| __TEXT.__text __Z16UuidFromSlotIdExRKNSt3__110shared_ptrIK8RegistryEEN10subscriber7SimSlotE
|| __TEXT.__text __Z16VinylSlotIdToIntN10subscriber7SimSlotE
|| __TEXT.__text __Z16appendDataSoMaskRj14DataSoMaskBits
|| __TEXT.__text __Z16copyCallsInState9CallStateRKNSt3__16vectorI8CallInfoNS0_9allocatorIS2_EEEE
|| __TEXT.__text __Z16getCallFSMLoggerv
|| __TEXT.__text __Z16isOMAClearNumberRKNSt3__112basic_stringIcNS_11char_traitsIcEENS_9allocatorIcEEEE
|| __TEXT.__text __Z16otherContextType15DataContextType
|| __TEXT.__text __Z16sGetLogGroupName8LogGroup
|| __TEXT.__text __Z16sIsProfileActiveRKNSt3__16vectorI9VinylInfoNS_9allocatorIS1_EEEERKNS_12basic_stringIcNS_11char_traitsIcEENS2_IcEEEE
|| __TEXT.__text __Z16validContextType15DataContextType
|| __TEXT.__text __Z16write_rest_value9RadioMode
|| __TEXT.__text __Z16write_rest_valueRK11AnyCallInfo
|| __TEXT.__text __Z16write_rest_valueRK11CallRequest
|| __TEXT.__text __Z16write_rest_valueRK12BasicSimInfo
|| __TEXT.__text __Z16write_rest_valueRK12WiFiSettings
|| __TEXT.__text __Z16write_rest_valueRK13DisplayStatus
|| __TEXT.__text __Z16write_rest_valueRK13EmergencyMode
|| __TEXT.__text __Z16write_rest_valueRK13Personalities
|| __TEXT.__text __Z16write_rest_valueRK13PersonalityID
|| __TEXT.__text __Z16write_rest_valueRK14CSIPhoneNumber
|| __TEXT.__text __Z16write_rest_valueRK14CallEndRequest
|| __TEXT.__text __Z16write_rest_valueRK14E911StateEnter
|| __TEXT.__text __Z16write_rest_valueRK14E911StateReady
|| __TEXT.__text __Z16write_rest_valueRK15CallDialRequest
|| __TEXT.__text __Z16write_rest_valueRK15CallHoldRequest
|| __TEXT.__text __Z16write_rest_valueRK15CallTransaction
|| __TEXT.__text __Z16write_rest_valueRK15CurrentCallInfo
|| __TEXT.__text __Z16write_rest_valueRK15CurrentLanguage
|| __TEXT.__text __Z16write_rest_valueRK15LastCallSubType
|| __TEXT.__text __Z16write_rest_valueRK15PersonalityInfo
|| __TEXT.__text __Z16write_rest_valueRK15RemoteVinylInfo
|| __TEXT.__text __Z16write_rest_valueRK15SendDTMFRequest
|| __TEXT.__text __Z16write_rest_valueRK15SendToVoicemail
|| __TEXT.__text __Z16write_rest_valueRK15T911Preferences
|| __TEXT.__text __Z16write_rest_valueRK15TTYSettingsInfo
|| __TEXT.__text __Z16write_rest_valueRK16CallMergeRequest
|| __TEXT.__text __Z16write_rest_valueRK16CallStateSummary
|| __TEXT.__text __Z16write_rest_valueRK16TTYEnabledStatus
|| __TEXT.__text __Z16write_rest_valueRK17CallAnswerRequest
|| __TEXT.__text __Z16write_rest_valueRK17CallFrequencyData
|| __TEXT.__text __Z16write_rest_valueRK18CallControlFailure
|| __TEXT.__text __Z16write_rest_valueRK18SetRelayingRequest
|| __TEXT.__text __Z16write_rest_valueRK18SignalStrengthInfo
|| __TEXT.__text __Z16write_rest_valueRK19VinylProfileDetails
|| __TEXT.__text __Z16write_rest_valueRK20CallToneCompleteInfo
|| __TEXT.__text __Z16write_rest_valueRK20SubscriberDataIdInfo
|| __TEXT.__text __Z16write_rest_valueRK21DataUsageBillingCycle
|| __TEXT.__text __Z16write_rest_valueRK21SubscriberAuthRequest
|| __TEXT.__text __Z16write_rest_valueRK21SubscriberCardDetails
|| __TEXT.__text __Z16write_rest_valueRK22UpdateCallToTTYRequest
|| __TEXT.__text __Z16write_rest_valueRK23RequestDumpStatePayload
|| __TEXT.__text __Z16write_rest_valueRK28CurrentEmergencyCallBackMode
|| __TEXT.__text __Z16write_rest_valueRK29DisambiguationEmergencyNumber
|| __TEXT.__text __Z16write_rest_valueRK6Inputs
|| __TEXT.__text __Z16write_rest_valueRK7AppInfo
|| __TEXT.__text __Z16write_rest_valueRK8SimLabel
|| __TEXT.__text __Z16write_rest_valueRK9VinylInfo
|| __TEXT.__text __Z17CSISystemTimeSecsv
|| __TEXT.__text __Z17callStateToString9CallState
|| __TEXT.__text __Z17getGsm7TableIndexN3sms12TextEncodingE
|| __TEXT.__text __Z17isCallStateActiveRK9CallState
|| __TEXT.__text __Z17isImsTechBasedRat21RadioAccessTechnology
|| __TEXT.__text __Z17isValidBcdExtCharc
|| __TEXT.__text __Z17ratSelectionAsStrh
|| __TEXT.__text __Z17sIsSimTypePresentRK12BasicSimInfoN10subscriber7SimTypeE
|| __TEXT.__text __Z18CSIStartTimeUpdatePK13mach_timespec
|| __TEXT.__text __Z18EmCallTypeAsString23CTCallEmergencyCallType
|| __TEXT.__text __Z18VinylSlotIdFromInti
|| __TEXT.__text __Z18asStringDataSoMaskj
|| __TEXT.__text __Z18getDataUsageDomainv
|| __TEXT.__text __Z18isValidBcdExtValuej
|| __TEXT.__text __Z18sGetSimTypeForCardRK12BasicSimInfoN10subscriber7SimCardE
|| __TEXT.__text __Z18sIsSimReadyForSlotN10subscriber7SimSlotERKNSt3__13mapIS0_12BasicSimInfoNS1_4lessIS0_EENS1_9allocatorINS1_4pairIKS0_S3_EEEEEE
|| __TEXT.__text __Z19attachApnClientNameN10subscriber7SimSlotE
|| __TEXT.__text __Z19encodeProfileAction34CellularPlanCheckForProfilesAction
|| __TEXT.__text __Z19getDefaultAttachApnv
|| __TEXT.__text __Z19isCallTechnologyGSM14CallTechnology
|| __TEXT.__text __Z19persistentCopyValuePK10__CFStringS1_PKv
|| __TEXT.__text __Z19persistentCopyValueRKNSt3__110shared_ptrI22CFPreferencesInterfaceEEPK10__CFStringS7_PKv
|| __TEXT.__text __Z19persistentSaveValuePK10__CFStringS1_PKv
|| __TEXT.__text __Z19persistentSaveValueRKNSt3__110shared_ptrI22CFPreferencesInterfaceEEPK10__CFStringS7_PKv
|| __TEXT.__text __Z19sDidSimStatesChangeRKNSt3__13mapIN10subscriber7SimSlotE12BasicSimInfoNS_4lessIS2_EENS_9allocatorINS_4pairIKS2_S3_EEEEEESD_
|| __TEXT.__text __Z19sSetGlobalLogServerNSt3__110shared_ptrIN3ctu9LogServerEEE
|| __TEXT.__text __Z19swapAndDecodeStringRKNSt3__16vectorIhNS_9allocatorIhEEEE16DataCodingSchemeRNS_12basic_stringIcNS_11char_traitsIcEENS1_IcEEEE
|| __TEXT.__text __Z20CSIGetTimeDifferencejj
|| __TEXT.__text __Z20CSISystemElapsedTimev
|| __TEXT.__text __Z20ConnectionMaskToTypej
|| __TEXT.__text __Z20ConnectionTypeToMask18DataConnectionType
|| __TEXT.__text __Z20USSDEncodingAsString12USSDEncoding
|| __TEXT.__text __Z20asWirelessTechnology21RadioAccessTechnology
|| __TEXT.__text __Z20asWirelessTechnology8DataMode
|| __TEXT.__text __Z20copyBundleIdentifierPK10__CFString
|| __TEXT.__text __Z20copyBundleIdentifierPK7__CFURL
|| __TEXT.__text __Z20copyBundleIdentifierRKNSt3__112basic_stringIcNS_11char_traitsIcEENS_9allocatorIcEEEE
|| __TEXT.__text __Z20covertIntegersToUuidjjjj
|| __TEXT.__text __Z20isCallTechnologyCDMA14CallTechnology
|| __TEXT.__text __Z20sGetChangedSimStatesRKNSt3__13mapIN10subscriber7SimSlotE12BasicSimInfoNS_4lessIS2_EENS_9allocatorINS_4pairIKS2_S3_EEEEEESD_
|| __TEXT.__text __Z20sSetupOsLogSubsystemv
|| __TEXT.__text __Z21ConnectionMaskToTypesj
|| __TEXT.__text __Z21PersonalityIdFromUuidRKNSt3__110shared_ptrIK8RegistryEEPK8__CFUUID
|| __TEXT.__text __Z21UuidFromPersonalityIdRKNSt3__110shared_ptrIK8RegistryEERK13PersonalityID
|| __TEXT.__text __Z21callDirectionToString13CallDirection
|| __TEXT.__text __Z21convertUuidToIntegersN3ctu2cf11CFSharedRefIK8__CFUUIDEE
|| __TEXT.__text __Z21desenseClientAsString13DesenseClient
|| __TEXT.__text __Z21gsmToCsiErrorWithCode18GsmFinalResultTypei
|| __TEXT.__text __Z21isCallAllowedToRedialRK9CallState
|| __TEXT.__text __Z22PersonalityIDToSimSlotRKNSt3__110shared_ptrIK8RegistryEERK13PersonalityID
|| __TEXT.__text __Z22ProtocolTypeFromStringPK10__CFString
|| __TEXT.__text __Z22attachApnLogDomainNameN10subscriber7SimSlotE
|| __TEXT.__text __Z22callSourceModeAsString16CCCallSourceMode
|| __TEXT.__text __Z22callTechnologyToString14CallTechnology
|| __TEXT.__text __Z22dataContextSuspendMask22DataContextSuspendType
|| __TEXT.__text __Z22dataContextSuspendType22DataContextSuspendType
|| __TEXT.__text __Z22isBasebandBootedInMode13OperatingMode
|| __TEXT.__text __Z22numberContainsAlphabetRKNSt3__112basic_stringIcNS_11char_traitsIcEENS_9allocatorIcEEEE
|| __TEXT.__text __Z22sGetEmptyPDPMetricInfov
|| __TEXT.__text __Z23PersonalityIdFromSlotIdN10subscriber7SimSlotE
|| __TEXT.__text __Z23PersonalityIdFromSlotIdRKNSt3__110shared_ptrIK8RegistryEEN10subscriber7SimSlotE
|| __TEXT.__text __Z23SlotIdFromPersonalityIdRK13PersonalityID
|| __TEXT.__text __Z23SlotIdFromPersonalityIdRKNSt3__110shared_ptrIK8RegistryEERK13PersonalityID
|| __TEXT.__text __Z23isDataConnectionMaskIMSj
|| __TEXT.__text __Z23sIsAnyUserProfileActiveRKNSt3__16vectorI9VinylInfoNS_9allocatorIS1_EEEE
|| __TEXT.__text __Z23sIsEmptyEsimCapableCardRK12BasicSimInfo
|| __TEXT.__text __Z23sVinylProfileIdAsStringRKNSt3__15arrayIhLm16EEE
|| __TEXT.__text __Z23sVinylReceiptIdAsStringRKNSt3__16vectorIhNS_9allocatorIhEEEE
|| __TEXT.__text __Z24CSISystemElapsedTimeSecsv
|| __TEXT.__text __Z24asExternalCSIErrorString8CSIError
|| __TEXT.__text __Z24billingCycleDateToStringNSt3__18optionalIyEE
|| __TEXT.__text __Z24computeDeadlineAfterDateRK13SchedulerSpecPK8__CFDate
|| __TEXT.__text __Z24decodeBCDExtendedAddressRKNSt3__112basic_stringIcNS_11char_traitsIcEENS_9allocatorIcEEEERS5_
|| __TEXT.__text __Z24encodeBCDExtendedAddressRKNSt3__112basic_stringIcNS_11char_traitsIcEENS_9allocatorIcEEEE
|| __TEXT.__text __Z25DevicePersistentCopyValuePK10__CFStringN3ctu2cf11CFSharedRefIKvEE
|| __TEXT.__text __Z25DevicePersistentCopyValuePK10__CFStringPKv
|| __TEXT.__text __Z25DevicePersistentSaveValuePK10__CFStringN3ctu2cf11CFSharedRefIKvEE
|| __TEXT.__text __Z25DevicePersistentSaveValuePK10__CFStringPKv
|| __TEXT.__text __Z25PersonalityIdFromSlotIdExRKNSt3__110shared_ptrIK8RegistryEEN10subscriber7SimSlotE
|| __TEXT.__text __Z25SlotIdFromPersonalityIdExRKNSt3__110shared_ptrIK8RegistryEERK13PersonalityID
|| __TEXT.__text __Z25decodeCbsDataCodingSchemei
|| __TEXT.__text __Z25decodeSmsDataCodingSchemei
|| __TEXT.__text __Z25getResultTypeFromCFStringPK10__CFString
|| __TEXT.__text __Z25isCallDialedAndBeingSetupRK9CallState
|| __TEXT.__text __Z25mapRoamingResultToTribool13RoamingResult
|| __TEXT.__text __Z25sCardSerialNumberAsStringRKNSt3__15arrayIhLm16EEE
|| __TEXT.__text __Z26WirelessTechnologyAsString18WirelessTechnology
|| __TEXT.__text __Z26convertOtaspStatusToString11OtaspStatus
|| __TEXT.__text __Z26sGetSubscriberSimInterfaceRKNSt3__110shared_ptrIK8RegistryEEPKN3ctu10LoggerBaseINS0_INS6_9LogServerEEEEE
|| __TEXT.__text __Z27asDataActivateFailureReason35CellularPlanDataActivateFailureType
|| __TEXT.__text __Z27otaspStatusAsExternalString11OtaspStatus
|| __TEXT.__text __Z27proactiveCommandToEventType16ProactiveCommand
|| __TEXT.__text __Z28_CompareBundleVersionStringsPK10__CFStringS1_
|| __TEXT.__text __Z29_CreateSimpleUserNotificationjPK10__CFStringS1_
|| __TEXT.__text __Z29isDataConnectionTypeInCBArray18DataConnectionTypePK9__CFArray
|| __TEXT.__text __Z30cellularPlanDeviceInfoToStringRK22CellularPlanDeviceInfo
|| __TEXT.__text __Z30createActivationStringFromDataPKhm
|| __TEXT.__text __Z30decodePackedBCDExtendedAddressPKvm
|| __TEXT.__text __Z30encodePackedBCDExtendedAddressRKNSt3__112basic_stringIcNS_11char_traitsIcEENS_9allocatorIcEEEE
|| __TEXT.__text __Z30sCreateSupportedIndicationDictRKNSt3__13setI21EnhancedLQMIndicationNS_4lessIS1_EENS_9allocatorIS1_EEEE
|| __TEXT.__text __Z30sSetupCommCenterBaseLogDomainsv
|| __TEXT.__text __Z32isAppNotificationStateRestricted20AppNotificationState
|| __TEXT.__text __Z32remoteNumberAvailabilityToString24RemoteNumberAvailability
|| __TEXT.__text __Z32sVinylUniversalProfileIdAsString23VinylUniversalProfileId
|| __TEXT.__text __Z34AttachAPNDevicePersistentCopyValuePK10__CFStringN3ctu2cf11CFSharedRefIKvEE
|| __TEXT.__text __Z34AttachAPNDevicePersistentCopyValuePK10__CFStringPKv
|| __TEXT.__text __Z34AttachAPNDevicePersistentSaveValuePK10__CFStringN3ctu2cf11CFSharedRefIKvEE
|| __TEXT.__text __Z34AttachAPNDevicePersistentSaveValuePK10__CFStringPKv
|| __TEXT.__text __Z34getActiveFakePositiveInterfaceName18DataConnectionType
|| __TEXT.__text __Z34isNetworkServicePrimaryRankDefault25NetworkServicePrimaryRank
|| __TEXT.__text __Z35_CreateSimpleUserNotificationHelperjlPPKvS1_
|| __TEXT.__text __Z35asStringConnectionStateChangeReason27ConnectionStateChangeReason
|| __TEXT.__text __Z37convertPhoneCallSubTypeToPublicString16PhoneCallSubType
|| __TEXT.__text __Z38CarrierBundleDevicePersistentCopyValuePK10__CFStringN3ctu2cf11CFSharedRefIKvEE
|| __TEXT.__text __Z38CarrierBundleDevicePersistentCopyValuePK10__CFStringPKv
|| __TEXT.__text __Z38CarrierBundleDevicePersistentSaveValuePK10__CFStringN3ctu2cf11CFSharedRefIKvEE
|| __TEXT.__text __Z38CarrierBundleDevicePersistentSaveValuePK10__CFStringPKv
|| __TEXT.__text __Z39_CreateSimpleUserNotificationWithButtonjPK10__CFStringS1_S1_
|| __TEXT.__text __Z41convertWirelessTechnologyToCallTechnology18WirelessTechnology
|| __TEXT.__text __Z43CFPreferencesCopyValueForCurrentUserAnyHostRKNSt3__110shared_ptrI22CFPreferencesInterfaceEEPK10__CFStringS7_
|| __TEXT.__text __Z43appendDeviceTypeCarrierBundleFolderLocationRKNSt3__110shared_ptrIK8RegistryEEPKN3ctu11OsLogLoggerERNS_12basic_stringIcNS_11char_traitsIcEENS_9allocatorIcEEEE
|| __TEXT.__text __Z46CFPreferencesPersistValueForCurrentUserAnyHostRKNSt3__110shared_ptrI22CFPreferencesInterfaceEEPK10__CFStringPKvS7_
|| __TEXT.__text __Z5isSet21RadioAccessTechnology
|| __TEXT.__text __Z6toUuidNSt3__112basic_stringIcNS_11char_traitsIcEENS_9allocatorIcEEEE
|| __TEXT.__text __Z7addMask22ExplicitIpv6ConfigMaskS_
|| __TEXT.__text __Z7addMask22ExplicitIpv6ConfigMaskS_S_
|| __TEXT.__text __Z7addMask22ExplicitIpv6ConfigMaskS_S_S_
|| __TEXT.__text __Z7addMask22ExplicitIpv6ConfigMaskS_S_S_S_
|| __TEXT.__text __Z8CSISleepi
|| __TEXT.__text __Z8asLetter18DataConnectionType
|| __TEXT.__text __Z8asString10BuddyState
|| __TEXT.__text __Z8asString10BundleType
|| __TEXT.__text __Z8asString10CLIRStatus
|| __TEXT.__text __Z8asString10CallStatus
|| __TEXT.__text __Z8asString10LASDResult
|| __TEXT.__text __Z8asString10NextAction
|| __TEXT.__text __Z8asString10RFBandType
|| __TEXT.__text __Z8asString10Technology
|| __TEXT.__text __Z8asString10VinylError
|| __TEXT.__text __Z8asString10WifiStatus
|| __TEXT.__text __Z8asString11AudioToneId
|| __TEXT.__text __Z8asString11CTSimStatus
|| __TEXT.__text __Z8asString11DSErrorType
|| __TEXT.__text __Z8asString11LinkQuality
|| __TEXT.__text __Z8asString11PowerSource
|| __TEXT.__text __Z8asString11TTYCallMode
|| __TEXT.__text __Z8asString11UserControl
|| __TEXT.__text __Z8asString12APACSVersion
|| __TEXT.__text __Z8asString12BasebandMode
|| __TEXT.__text __Z8asString12CipherDomain
|| __TEXT.__text __Z8asString12DSEndReasons
|| __TEXT.__text __Z8asString12Presentation
|| __TEXT.__text __Z8asString12ResponseType
|| __TEXT.__text __Z8asString12STKEventType
|| __TEXT.__text __Z8asString12VoIPCallType
|| __TEXT.__text __Z8asString13AttachAPNType
|| __TEXT.__text __Z8asString13DeviceEvoType
|| __TEXT.__text __Z8asString13EmergencyType
|| __TEXT.__text __Z8asString13HandoverState
|| __TEXT.__text __Z8asString13OperatingMode
|| __TEXT.__text __Z8asString13PhoneBookType
|| __TEXT.__text __Z8asString13RoamingResult
|| __TEXT.__text __Z8asString13ServiceStatus
|| __TEXT.__text __Z8asString13ShowUserInput
|| __TEXT.__text __Z8asString13TransportType
|| __TEXT.__text __Z8asString13VVMNumberType
|| __TEXT.__text __Z8asString13VoIPCallState
|| __TEXT.__text __Z8asString14ActivationMode
|| __TEXT.__text __Z8asString14CallSrvccState
|| __TEXT.__text __Z8asString14CallVisibility
|| __TEXT.__text __Z8asString14CellInfoSource
|| __TEXT.__text __Z8asString14DataSoMaskBits
|| __TEXT.__text __Z8asString14DataUiModifier
|| __TEXT.__text __Z8asString14InternetStatus
|| __TEXT.__text __Z8asString14LASDStatusHint
|| __TEXT.__text __Z8asString14Operating_Mode
|| __TEXT.__text __Z8asString14PhoneBookState
|| __TEXT.__text __Z8asString14RemotePlanType
|| __TEXT.__text __Z8asString14ResponseFormat
|| __TEXT.__text __Z8asString14SIMToolkitTone
|| __TEXT.__text __Z8asString14SwitchSimCause
|| __TEXT.__text __Z8asString15AQMTrafficLimit
|| __TEXT.__text __Z8asString15BoolWithUnknown
|| __TEXT.__text __Z8asString15CTSimTrayStatus
|| __TEXT.__text __Z8asString15DataContextType
|| __TEXT.__text __Z8asString15DataQosFlowType
|| __TEXT.__text __Z8asString15MSIMRemapStatus
|| __TEXT.__text __Z8asString15PackingRequired
|| __TEXT.__text __Z8asString15PersonalityType
|| __TEXT.__text __Z8asString15PhoneNumberType
|| __TEXT.__text __Z8asString15ProvisionStatus
|| __TEXT.__text __Z8asString15RadioModuleType
|| __TEXT.__text __Z8asString15ResetTimerState
|| __TEXT.__text __Z8asString15SendMessageType
|| __TEXT.__text __Z8asString15SupportedLpaSvn
|| __TEXT.__text __Z8asString15VoicemailReason
|| __TEXT.__text __Z8asString16AQMThroughputKey
|| __TEXT.__text __Z8asString16BundleChangeType
|| __TEXT.__text __Z8asString16BundleUpdateMode
|| __TEXT.__text __Z8asString16CLIRRequestState
|| __TEXT.__text __Z8asString16CarrierSelection
|| __TEXT.__text __Z8asString16CmasCampOnlyMode
|| __TEXT.__text __Z8asString16DataCodingScheme
|| __TEXT.__text __Z8asString16DataContextState
|| __TEXT.__text __Z8asString16DumpStateTrigger
|| __TEXT.__text __Z8asString16EncryptionStatus
|| __TEXT.__text __Z8asString16EnhancedLQMQuery
|| __TEXT.__text __Z8asString16HelpAvailability
|| __TEXT.__text __Z8asString16IRatServiceState
|| __TEXT.__text __Z8asString16LTEWithCDRXState
|| __TEXT.__text __Z8asString16PhoneCallSubType
|| __TEXT.__text __Z8asString16ProactiveCommand
|| __TEXT.__text __Z8asString16STKEventListType
|| __TEXT.__text __Z8asString16SetMaxRateSource
|| __TEXT.__text __Z8asString16SoftkeySelection
|| __TEXT.__text __Z8asString17CellularPlanError
|| __TEXT.__text __Z8asString17DataSettingsState
|| __TEXT.__text __Z8asString17EmergencyCategory
|| __TEXT.__text __Z8asString17FactoryDebugState
|| __TEXT.__text __Z8asString17ImmediateResponse
|| __TEXT.__text __Z8asString17NetworkNameSource
|| __TEXT.__text __Z8asString17PersonalityAction
|| __TEXT.__text __Z8asString17PhoneServicesType
|| __TEXT.__text __Z8asString17RedialRequirement
|| __TEXT.__text __Z8asString17TetheringAuthType
|| __TEXT.__text __Z8asString17UserAlertResponse
|| __TEXT.__text __Z8asString17VinylAvailability
|| __TEXT.__text __Z8asString17WiFiAssertionType
|| __TEXT.__text __Z8asString18AudioToneRelayFlag
|| __TEXT.__text __Z8asString18AwdBasebandFeature
|| __TEXT.__text __Z8asString18BundleUpdateResult
|| __TEXT.__text __Z8asString18DataConnectionType
|| __TEXT.__text __Z8asString18DataProtocolFamily
|| __TEXT.__text __Z8asString18DesenseDriverError
|| __TEXT.__text __Z8asString18EmergencySetupType
|| __TEXT.__text __Z8asString18FeatureSwitchState
|| __TEXT.__text __Z8asString18NetworkAttachState
|| __TEXT.__text __Z8asString18NetworkMCCOverride
|| __TEXT.__text __Z8asString18PLMNPresenceResult
|| __TEXT.__text __Z8asString18RadioOperatingMode
|| __TEXT.__text __Z8asString18RegistrationStatus
|| __TEXT.__text __Z8asString18RingbackToneStatus
|| __TEXT.__text __Z8asString18STKDriverEventType
|| __TEXT.__text __Z8asString18STKRegisteredEvent
|| __TEXT.__text __Z8asString19AuthTypeRequirement
|| __TEXT.__text __Z8asString19CallControlCallType
|| __TEXT.__text __Z8asString19CdmaSettingsSupport
|| __TEXT.__text __Z8asString19DataConnectionState
|| __TEXT.__text __Z8asString19FetchProfilesReason
|| __TEXT.__text __Z8asString19IRatApplicationType
|| __TEXT.__text __Z8asString19ImsStateForBaseband
|| __TEXT.__text __Z8asString19NetworkAccessButton
|| __TEXT.__text __Z8asString19RadioConnectionType
|| __TEXT.__text __Z8asString19RejectServiceDomain
|| __TEXT.__text __Z8asString19SimProvisionedState
|| __TEXT.__text __Z8asString19SupportedMTSmsTypes
|| __TEXT.__text __Z8asString20AccessTechnologyType
|| __TEXT.__text __Z8asString20AppNotificationState
|| __TEXT.__text __Z8asString20AwdBasebandComponent
|| __TEXT.__text __Z8asString20BasebandBootStrategy
|| __TEXT.__text __Z8asString20BundleTechnologyType
|| __TEXT.__text __Z8asString20CLIRModifiableStatus
|| __TEXT.__text __Z8asString20CLTMInterfaceSupport
|| __TEXT.__text __Z8asString20CallSetupRequirement
|| __TEXT.__text __Z8asString20CarrierBundleBaseDir
|| __TEXT.__text __Z8asString20ImsVoiceSupportOnLte
|| __TEXT.__text __Z8asString20NetworkSelectionMode
|| __TEXT.__text __Z8asString20NotificationResponse
|| __TEXT.__text __Z8asString20SMSCommandDriverType
|| __TEXT.__text __Z8asString20ServiceShutdownStage
|| __TEXT.__text __Z8asString20SupportedMessageMode
|| __TEXT.__text __Z8asString21CallCommandDriverType
|| __TEXT.__text __Z8asString21CheckBundleUpdateUpon
|| __TEXT.__text __Z8asString21DataRateSwitchSupport
|| __TEXT.__text __Z8asString21DataStatusParamsIndex
|| __TEXT.__text __Z8asString21EnhancedLQMIndication
|| __TEXT.__text __Z8asString21NetworkSelectionState
|| __TEXT.__text __Z8asString21RadioAccessTechnology
|| __TEXT.__text __Z8asString21RemoteVinylDataSource
|| __TEXT.__text __Z8asString21ResponsePackingFormat
|| __TEXT.__text __Z8asString22CDMARoamingSwitchState
|| __TEXT.__text __Z8asString22CellularDataTechnology
|| __TEXT.__text __Z8asString22DataContextHandleState
|| __TEXT.__text __Z8asString22DataContextSuspendType
|| __TEXT.__text __Z8asString22DataRateUserPreference
|| __TEXT.__text __Z8asString22ERROR_3GPP_END_REASONS
|| __TEXT.__text __Z8asString22FrequencyReportingMode
|| __TEXT.__text __Z8asString22NetworkDisconnectCause
|| __TEXT.__text __Z8asString22NetworkTimeFetchResult
|| __TEXT.__text __Z8asString22RadioSubscriberSimMode
|| __TEXT.__text __Z8asString22VoWiFiConfigurationSrc
|| __TEXT.__text __Z8asString23AKRemoteDeviceErrorCode
|| __TEXT.__text __Z8asString23BiometrictKitDeviceType
|| __TEXT.__text __Z8asString23ERROR_3GPP2_END_REASONS
|| __TEXT.__text __Z8asString23NotificationRequirement
|| __TEXT.__text __Z8asString23RuimDeprecationStrategy
|| __TEXT.__text __Z8asString23VoIPCallApplicationType
|| __TEXT.__text __Z8asString24AntennaSwitchCommandType
|| __TEXT.__text __Z8asString24BundleUpdateCheckTrigger
|| __TEXT.__text __Z8asString24EmergencyNumbersListType
|| __TEXT.__text __Z8asString24IdentityProtectedService
|| __TEXT.__text __Z8asString24LteEmergencySupportState
|| __TEXT.__text __Z8asString24RemoteNumberAvailability
|| __TEXT.__text __Z8asString24SilentRedialOverCSReason
|| __TEXT.__text __Z8asString24SpecificLanguagePresence
|| __TEXT.__text __Z8asString24VinylUserConsentResponse
|| __TEXT.__text __Z8asString25DigestTypeForVerification
|| __TEXT.__text __Z8asString25LocalAuthenticationPolicy
|| __TEXT.__text __Z8asString25LocalAuthenticationResult
|| __TEXT.__text __Z8asString25NetworkServicePrimaryRank
|| __TEXT.__text __Z8asString25PhoneNumberRequestVersion
|| __TEXT.__text __Z8asString25RoamingSwitchChangeOrigin
|| __TEXT.__text __Z8asString25SignalStrengthPersonality
|| __TEXT.__text __Z8asString25SilentRedialOverIMSReason
|| __TEXT.__text __Z8asString25VinylPendingInstallStatus
|| __TEXT.__text __Z8asString26AwdBasebandBootStateSource
|| __TEXT.__text __Z8asString26SendSessionCompletionEvent
|| __TEXT.__text __Z8asString27CellularPlanBootstrapStatus
|| __TEXT.__text __Z8asString27DataContextDeactivateReason
|| __TEXT.__text __Z8asString27ERROR_3GPP_END_REASON_TYPES
|| __TEXT.__text __Z8asString27InterfaceAvailabilitySource
|| __TEXT.__text __Z8asString27NWUsageSymAttributionReason
|| __TEXT.__text __Z8asString27NetworkTimeFetchRequestType
|| __TEXT.__text __Z8asString27RegisteredNetworkInfoChange
|| __TEXT.__text __Z8asString28CellularPlanActivationStatus
|| __TEXT.__text __Z8asString28CellularPlanTetherActionType
|| __TEXT.__text __Z8asString29CardProvisioningStatusVersion
|| __TEXT.__text __Z8asString29CarrierSelectionAllowedReason
|| __TEXT.__text __Z8asString29InternetReachabilityInterface
|| __TEXT.__text __Z8asString29SMSCommandDriverTransportType
|| __TEXT.__text __Z8asString30CellularPlanProvisioningResult
|| __TEXT.__text __Z8asString30CellularPlanSimSetupFlowOption
|| __TEXT.__text __Z8asString30NotificationAdditionalResponse
|| __TEXT.__text __Z8asString31BasebandServiceProvisionedState
|| __TEXT.__text __Z8asString31CTCallingLineIdRestrictionValue
|| __TEXT.__text __Z8asString32IMSSpecificRadioActiveTechnology
|| __TEXT.__text __Z8asString33CTRegistrationDataIndicatorStatus
|| __TEXT.__text __Z8asString34SupportedSimAllianceProfileVersion
|| __TEXT.__text __Z8asString37CellularPlanProvisioningSessionReason
|| __TEXT.__text __Z8asString4Type
|| __TEXT.__text __Z8asString7CtmMode
|| __TEXT.__text __Z8asString7SMSType
|| __TEXT.__text __Z8asString7Weekday
|| __TEXT.__text __Z8asString8CSIError
|| __TEXT.__text __Z8asString8DataMode
|| __TEXT.__text __Z8asString8DataRate
|| __TEXT.__text __Z8asString8Priority
|| __TEXT.__text __Z8asString8SupsType
|| __TEXT.__text __Z8asString9BootState
|| __TEXT.__text __Z8asString9CallState
|| __TEXT.__text __Z8asString9E911State
|| __TEXT.__text __Z8asString9FetchType
|| __TEXT.__text __Z8asString9ModelType
|| __TEXT.__text __Z8asString9TTYMethod
|| __TEXT.__text __Z8asString9TypeOfEvo
|| __TEXT.__text __Z8asStringN13EmergencyMode5StateE
|| __TEXT.__text __Z8asStringN16ActivationStatus14ManifestResultE
|| __TEXT.__text __Z8asStringN16ActivationStatus5StateE
|| __TEXT.__text __Z8asStringN24ActivationModelInterface12TicketSourceE
|| __TEXT.__text __Z8asStringN24ActivationModelInterface6StatusE
|| __TEXT.__text __Z8asStringN32ActivationCarrierBundleInterface4TypeE
|| __TEXT.__text __Z8asStringN3sms7CbScopeE
|| __TEXT.__text __Z8asStringN4rest13carrier_space18DebugRoamingStatusE
|| __TEXT.__text __Z8asStringN5boost5logic7triboolE
|| __TEXT.__text __Z8asStringNSt3__14pairI10Technology4TypeEE
|| __TEXT.__text __Z8asStringP11objc_object
|| __TEXT.__text __Z8asStringP8NSObject
|| __TEXT.__text __Z8asStringPK23DataAPNSettingsObserver
|| __TEXT.__text __Z8asStringRK13VinylCardType
|| __TEXT.__text __Z8asStringRK15SimLabelContent
|| __TEXT.__text __Z8asStringRK16PersonalityEvent
|| __TEXT.__text __Z8asStringRK20SubscriberDataIdInfo
|| __TEXT.__text __Z8asStringRK23VoWiFiProvisioningState
|| __TEXT.__text __Z8asStringRK7AppInfo
|| __TEXT.__text __Z8asStringRK8SimLabel
|| __TEXT.__text __Z8asStringRKNSt3__13setI19IRatApplicationTypeNS_4lessIS1_EENS_9allocatorIS1_EEEE
|| __TEXT.__text __Z8asStringRKNSt3__13setI7AppTypeNS_4lessIS1_EENS_9allocatorIS1_EEEE
|| __TEXT.__text __Z8asStringRKNSt3__15arrayIhLm16EEE
|| __TEXT.__text __Z8asStringRKNSt3__16vectorI8DataModeNS_9allocatorIS1_EEEE
|| __TEXT.__text __Z8formPLMNRK3MCCRK3MNC
|| __TEXT.__text __Z8isActiveN13EmergencyMode5StateE
|| __TEXT.__text __Z8isActiveRKNSt3__110shared_ptrIK8RegistryEERK13PersonalityID
|| __TEXT.__text __Z9isCdmaRat21RadioAccessTechnology
|| __TEXT.__text __Z9isPresentRKNSt3__110shared_ptrIK8RegistryEERK13PersonalityID
|| __TEXT.__text __Z9launchURLRKNSt3__110shared_ptrIK8RegistryEEPKc
|| __TEXT.__text __Z9matchMask22ExplicitIpv6ConfigMaskS_
|| __TEXT.__text __Z9printUuidN3ctu2cf11CFSharedRefIK8__CFUUIDEE
|| __TEXT.__text __ZN10byte_order3bigclEh
|| __TEXT.__text __ZN10byte_order3bigclEj
|| __TEXT.__text __ZN10byte_order3bigclEt
|| __TEXT.__text __ZN10byte_order3bigclEy
|| __TEXT.__text __ZN10subscriber10fromStringEPKc
|| __TEXT.__text __ZN10subscriber10isSimReadyENS_8SimStateE
|| __TEXT.__text __ZN10subscriber10isValidPinERKNSt3__112basic_stringIcNS0_11char_traitsIcEENS0_9allocatorIcEEEE
|| __TEXT.__text __ZN10subscriber10isValidPukERKNSt3__112basic_stringIcNS0_11char_traitsIcEENS0_9allocatorIcEEEE
|| __TEXT.__text __ZN10subscriber11encodeIccidENSt3__112basic_stringIcNS0_11char_traitsIcEENS0_9allocatorIcEEEE
|| __TEXT.__text __ZN10subscriber11isSimAbsentENS_8SimStateE
|| __TEXT.__text __ZN10subscriber11isSimLockedENS_8SimStateE
|| __TEXT.__text __ZN10subscriber11sDecodeImsiEPKhm
|| __TEXT.__text __ZN10subscriber11toSimStatusERKNSt3__110shared_ptrIK8RegistryEENS_8SimStateE
|| __TEXT.__text __ZN10subscriber12isSimPresentENS_8SimStateE
|| __TEXT.__text __ZN10subscriber12isSimSettledENS_8SimStateE
|| __TEXT.__text __ZN10subscriber12sDecodeIccidEPKhm
|| __TEXT.__text __ZN10subscriber12sDecodePcscfEPKN3ctu10LoggerBaseINSt3__110shared_ptrINS0_9LogServerEEEEERKNS2_6vectorIhNS2_9allocatorIhEEEERNS2_12basic_stringIcNS2_11char_traitsIcEENSA_IcEEEE
|| __TEXT.__text __ZN10subscriber12sDecodeUIMIDERKNSt3__16vectorIhNS0_9allocatorIhEEEEhh
|| __TEXT.__text __ZN10subscriber13isEsimCapableERKNS_15VinylCapabilityE
|| __TEXT.__text __ZN10subscriber13isSimInsertedENS_8SimStateE
|| __TEXT.__text __ZN10subscriber13sDecode1xImsiEPKhm
|| __TEXT.__text __ZN10subscriber13sDecodeMccMncEPKhmRNSt3__112basic_stringIcNS2_11char_traitsIcEENS2_9allocatorIcEEEES9_
|| __TEXT.__text __ZN10subscriber13sDecodeMccMncERKNSt3__16vectorIhNS0_9allocatorIhEEEERNS0_12basic_stringIcNS0_11char_traitsIcEENS2_IcEEEESC_
|| __TEXT.__text __ZN10subscriber13simTypeToCardENS_7SimTypeE
|| __TEXT.__text __ZN10subscriber14isValidSimSlotERKNSt3__110shared_ptrIK8RegistryEENS_7SimSlotE
|| __TEXT.__text __ZN10subscriber14sDecodePSISMSCERKNSt3__16vectorIhNS0_9allocatorIhEEEE
|| __TEXT.__text __ZN10subscriber15isSimUnreadableENS_8SimStateE
|| __TEXT.__text __ZN10subscriber15read_rest_valueERNSt3__13mapINS_8AuthInfoENS0_6vectorIhNS0_9allocatorIhEEEENS0_4lessIS2_EENS4_INS0_4pairIKS2_S6_EEEEEERKN3xpc6objectE
|| __TEXT.__text __ZN10subscriber16expectedSimCountERKNSt3__110shared_ptrIK8RegistryEE
|| __TEXT.__text __ZN10subscriber16isPhySimDisabledENS_8SimStateERKNSt3__112basic_stringIcNS1_11char_traitsIcEENS1_9allocatorIcEEEE
|| __TEXT.__text __ZN10subscriber16makeSimSlotRangeENS_7SimSlotE
|| __TEXT.__text __ZN10subscriber16makeSimSlotRangeERKNSt3__110shared_ptrIK8RegistryEENS_7SimSlotE
|| __TEXT.__text __ZN10subscriber16write_rest_valueERKNSt3__13mapINS_8AuthInfoENS0_6vectorIhNS0_9allocatorIhEEEENS0_4lessIS2_EENS4_INS0_4pairIKS2_S6_EEEEEE
|| __TEXT.__text __ZN10subscriber17instanceAsSimSlotEj
|| __TEXT.__text __ZN10subscriber17isSimTrayInsertedENS_12SimTrayStateE
|| __TEXT.__text __ZN10subscriber17simSlotAsInstanceENS_7SimSlotE
|| __TEXT.__text __ZN10subscriber18isSimFileEssentialENS_11SimFilePathE
|| __TEXT.__text __ZN10subscriber18isSimReadyOrLockedENS_8SimStateE
|| __TEXT.__text __ZN10subscriber19SubscriberInterfaceD0Ev
|| __TEXT.__text __ZN10subscriber19SubscriberInterfaceD1Ev
|| __TEXT.__text __ZN10subscriber19SubscriberInterfaceD2Ev
|| __TEXT.__text __ZN10subscriber19getSimCardForSimAppENS_7SimTypeE
|| __TEXT.__text __ZN10subscriber20getSlotIdFromUuidStrEPK10__CFString
|| __TEXT.__text __ZN10subscriber21clientKeyFromAuthTypeENS_8AuthTypeE
|| __TEXT.__text __ZN10subscriber23isSimPermanentlyBlockedENS_8SimStateE
|| __TEXT.__text __ZN10subscriber24getAuthTypeFromClientKeyEPK10__CFString
|| __TEXT.__text __ZN10subscriber24getSimCardForSimFilePathENS_11SimFilePathE
|| __TEXT.__text __ZN10subscriber25clientKeyFromAuthInfoTypeENS_8AuthInfoE
|| __TEXT.__text __ZN10subscriber25generateUuidStrFromSlotIdENS_7SimSlotE
|| __TEXT.__text __ZN10subscriber25sDecodeIsimTLVLinearFixedEPKN3ctu10LoggerBaseINSt3__110shared_ptrINS0_9LogServerEEEEENS2_12basic_stringIcNS2_11char_traitsIcEENS2_9allocatorIcEEEERKNS2_6vectorIhNSC_IhEEEERNSF_ISE_NSC_ISE_EEEE
|| __TEXT.__text __ZN10subscriber25sDecodeIsimTLVTransparentEPKN3ctu10LoggerBaseINSt3__110shared_ptrINS0_9LogServerEEEEENS2_12basic_stringIcNS2_11char_traitsIcEENS2_9allocatorIcEEEERKNS2_6vectorIhNSC_IhEEEERSE_
|| __TEXT.__text __ZN10subscriber28getAuthInfoTypeFromClientKeyEPK10__CFString
|| __TEXT.__text __ZN10subscriber8asStringENS_10SimPinTypeE
|| __TEXT.__text __ZN10subscriber8asStringENS_11SimAppStateE
|| __TEXT.__text __ZN10subscriber8asStringENS_11SimFilePathE
|| __TEXT.__text __ZN10subscriber8asStringENS_12SimTrayStateE
|| __TEXT.__text __ZN10subscriber8asStringENS_14MSimConfigModeE
|| __TEXT.__text __ZN10subscriber8asStringENS_14USTServiceTypeE
|| __TEXT.__text __ZN10subscriber8asStringENS_15VinylCapabilityE
|| __TEXT.__text __ZN10subscriber8asStringENS_16SimFailureReasonE
|| __TEXT.__text __ZN10subscriber8asStringENS_16SubscriberIDInfoE
|| __TEXT.__text __ZN10subscriber8asStringENS_20CardProvisionedStateE
|| __TEXT.__text __ZN10subscriber8asStringENS_7SimCardE
|| __TEXT.__text __ZN10subscriber8asStringENS_7SimSlotE
|| __TEXT.__text __ZN10subscriber8asStringENS_7SimTypeE
|| __TEXT.__text __ZN10subscriber8asStringENS_8AuthInfoE
|| __TEXT.__text __ZN10subscriber8asStringENS_8AuthTypeE
|| __TEXT.__text __ZN10subscriber8asStringENS_8SimStateE
|| __TEXT.__text __ZN10subscriber8asStringENS_9NpAppTypeE
|| __TEXT.__text __ZN10subscriber8asStringERKNSt3__16vectorINS_7SimTypeENS0_9allocatorIS2_EEEE
|| __TEXT.__text __ZN10subscriber9isSimDeadENS_8SimStateE
|| __TEXT.__text __ZN10subscriber9sParseMdnERKNSt3__16vectorIhNS0_9allocatorIhEEEE
|| __TEXT.__text __ZN10subscribereqERKNS_11SimCardInfoES2_
|| __TEXT.__text __ZN10subscriberlsERNSt3__113basic_ostreamIcNS0_11char_traitsIcEEEENS_16SubscriberIDInfoE
|| __TEXT.__text __ZN10subscriberlsERNSt3__113basic_ostreamIcNS0_11char_traitsIcEEEERKNS_11SimCardInfoE
|| __TEXT.__text __ZN10subscriberlsERNSt3__113basic_ostreamIcNS0_11char_traitsIcEEEERKNS_7SimSlotE
|| __TEXT.__text __ZN12IRatLinkPref5resetEv
|| __TEXT.__text __ZN12MMIInterfaceD0Ev
|| __TEXT.__text __ZN12MMIInterfaceD1Ev
|| __TEXT.__text __ZN12MMIInterfaceD2Ev
|| __TEXT.__text __ZN12OTASPService19handleNotRegisteredEv
|| __TEXT.__text __ZN12OTASPService20sendOTASPFailureToUIEv
|| __TEXT.__text __ZN12OTASPService20sendOTASPSuccessToUIEv
|| __TEXT.__text __ZN12OTASPService22setVisibleOTASPStartedEb
|| __TEXT.__text __ZN12OTASPService25handleOtaspCallIndicationEbiN10subscriber7SimSlotE
|| __TEXT.__text __ZN12OTASPService33handleResetAfterOTASPTimerExpiredEv
|| __TEXT.__text __ZN12OTASPService8shutdownEv
|| __TEXT.__text __ZN12OTASPServiceC1ERKNSt3__110shared_ptrIK8RegistryEEN8dispatch5queueERKNS1_I28ServiceProvisioningInterfaceEEPKc
|| __TEXT.__text __ZN12OTASPServiceC2ERKNSt3__110shared_ptrIK8RegistryEEN8dispatch5queueERKNS1_I28ServiceProvisioningInterfaceEEPKc
|| __TEXT.__text __ZN12OTASPServiceD0Ev
|| __TEXT.__text __ZN12OTASPServiceD1Ev
|| __TEXT.__text __ZN12OTASPServiceD2Ev
|| __TEXT.__text __ZN12ServiceStageC1EN8dispatch5groupES1_S1_
|| __TEXT.__text __ZN12ServiceStageC2EN8dispatch5groupES1_S1_
|| __TEXT.__text __ZN12entitlements19TransferSIMResponse7convertERKNS_32TransferSIMViaWebServiceResponseE
|| __TEXT.__text __ZN12entitlements29TransferAuthorizationResponse7convertERKNS_42TransferAuthorizationViaWebServiceResponseE
|| __TEXT.__text __ZN12entitlements7convertENS_14PreflightStateE
|| __TEXT.__text __ZN12entitlements8asStringENS_12TransferTypeE
|| __TEXT.__text __ZN12entitlements8asStringENS_13TransferStateE
|| __TEXT.__text __ZN12entitlements8asStringENS_14PreflightStateE
|| __TEXT.__text __ZN12entitlements8asStringENS_26AssociatedSubscriptionTypeE
|| __TEXT.__text __ZN13CSIPDPManager20getInterfaceNameByIdEiRNSt3__112basic_stringIcNS0_11char_traitsIcEENS0_9allocatorIcEEEE
|| __TEXT.__text __ZN13CSIPDPManagerC2Ev
|| __TEXT.__text __ZN13CSIPDPManagerD0Ev
|| __TEXT.__text __ZN13CSIPDPManagerD1Ev
|| __TEXT.__text __ZN13CSIPDPManagerD2Ev
|| __TEXT.__text __ZN13CodingUtility12generateUUIDEv
|| __TEXT.__text __ZN13CodingUtility4SHA1EN3ctu2cf11CFSharedRefIK8__CFDataEE
|| __TEXT.__text __ZN13CodingUtility4SHA1ERKNSt3__112basic_stringIcNS0_11char_traitsIcEENS0_9allocatorIcEEEE
|| __TEXT.__text __ZN13DaemonFactoryC2Ev
|| __TEXT.__text __ZN13DaemonFactoryD0Ev
|| __TEXT.__text __ZN13DaemonFactoryD1Ev
|| __TEXT.__text __ZN13DaemonFactoryD2Ev
|| __TEXT.__text __ZN13EmergencyModeC1E23CTCallEmergencyCallTypeN10subscriber7SimSlotENS_5StateEb
|| __TEXT.__text __ZN13EmergencyModeC1Ev
|| __TEXT.__text __ZN13EmergencyModeC2E23CTCallEmergencyCallTypeN10subscriber7SimSlotENS_5StateEb
|| __TEXT.__text __ZN13EmergencyModeC2Ev
|| __TEXT.__text __ZN13EmergencyModeD1Ev
|| __TEXT.__text __ZN13EmergencyModeD2Ev
|| __TEXT.__text __ZN13EmergencyModeaSERKS_
|| __TEXT.__text __ZN13PDPMetricInfo5clearEv
|| __TEXT.__text __ZN13PDPMetricInfoD0Ev
|| __TEXT.__text __ZN13PDPMetricInfoD1Ev
|| __TEXT.__text __ZN13PDPMetricInfoD2Ev
|| __TEXT.__text __ZN13PDPMetricInfoaSERKS_
|| __TEXT.__text __ZN13PhoneServicesD0Ev
|| __TEXT.__text __ZN13PhoneServicesD1Ev
|| __TEXT.__text __ZN13PhoneServicesD2Ev
|| __TEXT.__text __ZN13STK_InterfaceD0Ev
|| __TEXT.__text __ZN13STK_InterfaceD1Ev
|| __TEXT.__text __ZN13STK_InterfaceD2Ev
|| __TEXT.__text __ZN13SmsPduEncoder10encodeBodyEPKciN3sms12TextEncodingE
|| __TEXT.__text __ZN13SmsPduEncoder10encodeTpduERKNSt3__112basic_stringIcNS0_11char_traitsIcEENS0_9allocatorIcEEEE
|| __TEXT.__text __ZN13SmsPduEncoder11encode16BitEt
|| __TEXT.__text __ZN13SmsPduEncoder11encodeOctetEi
|| __TEXT.__text __ZN13SmsPduEncoder11getContentsEPi
|| __TEXT.__text __ZN13SmsPduEncoder15encodeBcdNumberEPKc
|| __TEXT.__text __ZN13SmsPduEncoder15encodeSmsSubmitEPKciN3sms12TextEncodingE
|| __TEXT.__text __ZN13SmsPduEncoder15setReplyAddressERKNSt3__112basic_stringIcNS0_11char_traitsIcEENS0_9allocatorIcEEEE
|| __TEXT.__text __ZN13SmsPduEncoder16setServiceCenterERK14CSIPhoneNumber
|| __TEXT.__text __ZN13SmsPduEncoder17encodeSmscAddressERK14CSIPhoneNumber
|| __TEXT.__text __ZN13SmsPduEncoder17setValidityPeriodEi
|| __TEXT.__text __ZN13SmsPduEncoder18encodeAddressFieldERK14CSIPhoneNumber
|| __TEXT.__text __ZN13SmsPduEncoder19setMessageReferenceEh
|| __TEXT.__text __ZN13SmsPduEncoder20countSeptetsInHeaderEi
|| __TEXT.__text __ZN13SmsPduEncoder20encodeValidityPeriodEi
|| __TEXT.__text __ZN13SmsPduEncoder20setConcatenationDataEiii
|| __TEXT.__text __ZN13SmsPduEncoder21setDestinationAddressERK14CSIPhoneNumber
|| __TEXT.__text __ZN13SmsPduEncoder22countFillBitsInSeptetsEi
|| __TEXT.__text __ZN13SmsPduEncoder25encodeSmscAddressIfNeededEv
|| __TEXT.__text __ZN13SmsPduEncoder32set8BitApplicationPortAddressingERK18SmsApplicationPortIhE
|| __TEXT.__text __ZN13SmsPduEncoder33set16BitApplicationPortAddressingERK18SmsApplicationPortItE
|| __TEXT.__text __ZN13SmsPduEncoderC1Eb
|| __TEXT.__text __ZN13SmsPduEncoderC2Eb
|| __TEXT.__text __ZN13SmsPduEncoderD0Ev
|| __TEXT.__text __ZN13SmsPduEncoderD1Ev
|| __TEXT.__text __ZN13SmsPduEncoderD2Ev
|| __TEXT.__text __ZN13carrier_space23getCarrierSpaceSettingsEN10subscriber7SimSlotERKNSt3__110shared_ptrI24CarrierSettingsInterfaceEE
|| __TEXT.__text __ZN13carrier_space26getCarrierSpaceValueForKeyEN10subscriber7SimSlotERKNSt3__110shared_ptrI24CarrierSettingsInterfaceEEPK10__CFString
|| __TEXT.__text __ZN13carrier_space28isCarrierSpaceFeatureEnabledEN10subscriber7SimSlotERKNSt3__110shared_ptrI24CarrierSettingsInterfaceEE
|| __TEXT.__text __ZN13phoneservices13getMetricTypeE17PhoneServicesTypeN10subscriber7SimSlotERj
|| __TEXT.__text __ZN14ActivationInfo5clearEv
|| __TEXT.__text __ZN14ActivationInfoC1Ev
|| __TEXT.__text __ZN14ActivationInfoC2Ev
|| __TEXT.__text __ZN14AudioCodecInfoC1Ej14AudioCodecTypej22AudioCodecEVSBandwidth20AudioCodecEVSBitrate
|| __TEXT.__text __ZN14AudioCodecInfoC1Ev
|| __TEXT.__text __ZN14AudioCodecInfoC2Ej14AudioCodecTypej22AudioCodecEVSBandwidth20AudioCodecEVSBitrate
|| __TEXT.__text __ZN14AudioCodecInfoC2Ev
|| __TEXT.__text __ZN14AutoStartTimer6createERKNSt3__112basic_stringIcNS0_11char_traitsIcEENS0_9allocatorIcEEEERKN8dispatch5queueERKNS0_10shared_ptrIN3ctu12TimerServiceEEERKNS0_6chrono8durationIxNS0_5ratioILl1ELl1000EEEEENS0_8functionIFvvEEE
|| __TEXT.__text __ZN14AutoStartTimerC1ERKNSt3__16chrono10time_pointINS1_12steady_clockENS1_8durationIxNS0_5ratioILl1ELl1000000000EEEEEEERKNS4_IxNS5_ILl1ELl1000EEEEE
|| __TEXT.__text __ZN14AutoStartTimerC2ERKNSt3__16chrono10time_pointINS1_12steady_clockENS1_8durationIxNS0_5ratioILl1ELl1000000000EEEEEEERKNS4_IxNS5_ILl1ELl1000EEEEE
|| __TEXT.__text __ZN14AutoStartTimerD1Ev
|| __TEXT.__text __ZN14AutoStartTimerD2Ev
|| __TEXT.__text __ZN14CSIPhoneNumber13setBaseNumberEPKc
|| __TEXT.__text __ZN14CSIPhoneNumber13setBaseNumberERKNSt3__112basic_stringIcNS0_11char_traitsIcEENS0_9allocatorIcEEEE
|| __TEXT.__text __ZN14CSIPhoneNumber13setDtmfStringERKNSt3__112basic_stringIcNS0_11char_traitsIcEENS0_9allocatorIcEEEE
|| __TEXT.__text __ZN14CSIPhoneNumber15setTypeOfNumberE15PhoneNumberType
|| __TEXT.__text __ZN14CSIPhoneNumber16setTypeOfAddressEi
|| __TEXT.__text __ZN14CSIPhoneNumber19setCLIRRequestStateE16CLIRRequestState
|| __TEXT.__text __ZN14CSIPhoneNumber20setEmergencyCategoryEj
|| __TEXT.__text __ZN14CSIPhoneNumber22setIsListedAsEmergencyEb
|| __TEXT.__text __ZN14CSIPhoneNumber23setIsEmSMSTextSupportedEb
|| __TEXT.__text __ZN14CSIPhoneNumber27convertLettersToPhoneNumberEv
|| __TEXT.__text __ZN14CSIPhoneNumberC1EPKc
|| __TEXT.__text __ZN14CSIPhoneNumberC1ERKNSt3__112basic_stringIcNS0_11char_traitsIcEENS0_9allocatorIcEEEE
|| __TEXT.__text __ZN14CSIPhoneNumberC1ERKNSt3__112basic_stringIcNS0_11char_traitsIcEENS0_9allocatorIcEEEE15PhoneNumberType
|| __TEXT.__text __ZN14CSIPhoneNumberC1EiRKNSt3__112basic_stringIcNS0_11char_traitsIcEENS0_9allocatorIcEEEE
|| __TEXT.__text __ZN14CSIPhoneNumberC1Ev
|| __TEXT.__text __ZN14CSIPhoneNumberC2EPKc
|| __TEXT.__text __ZN14CSIPhoneNumberC2ERKNSt3__112basic_stringIcNS0_11char_traitsIcEENS0_9allocatorIcEEEE
|| __TEXT.__text __ZN14CSIPhoneNumberC2ERKNSt3__112basic_stringIcNS0_11char_traitsIcEENS0_9allocatorIcEEEE15PhoneNumberType
|| __TEXT.__text __ZN14CSIPhoneNumberC2EiRKNSt3__112basic_stringIcNS0_11char_traitsIcEENS0_9allocatorIcEEEE
|| __TEXT.__text __ZN14CSIPhoneNumberC2Ev
|| __TEXT.__text __ZN14CellInfoUpdate13getCollectionI10Cdma1xCellEERNSt3__18optionalINT_10CollectionEEEv
|| __TEXT.__text __ZN14CellInfoUpdate13getCollectionI11TDSCDMACellEERNSt3__18optionalINT_10CollectionEEEv
|| __TEXT.__text __ZN14CellInfoUpdate13getCollectionI12CdmaEvdoCellEERNSt3__18optionalINT_10CollectionEEEv
|| __TEXT.__text __ZN14CellInfoUpdate13getCollectionI7GsmCellEERNSt3__18optionalINT_10CollectionEEEv
|| __TEXT.__text __ZN14CellInfoUpdate13getCollectionI7LteCellEERNSt3__18optionalINT_10CollectionEEEv
|| __TEXT.__text __ZN14CellInfoUpdate13getCollectionI8UmtsCellEERNSt3__18optionalINT_10CollectionEEEv
|| __TEXT.__text __ZN14PBCapabilities10SecondNameC1Ev
|| __TEXT.__text __ZN14PBCapabilities10SecondNameC2Ev
|| __TEXT.__text __ZN14PBCapabilities13HiddenRecordsC1Ev
|| __TEXT.__text __ZN14PBCapabilities13HiddenRecordsC2Ev
|| __TEXT.__text __ZN14PBCapabilities13PrimaryNumberC1Ev
|| __TEXT.__text __ZN14PBCapabilities13PrimaryNumberC2Ev
|| __TEXT.__text __ZN14PBCapabilities15AdditionaNumberC1Ev
|| __TEXT.__text __ZN14PBCapabilities15AdditionaNumberC2Ev
|| __TEXT.__text __ZN14PBCapabilities5EmailC1Ev
|| __TEXT.__text __ZN14PBCapabilities5EmailC2Ev
|| __TEXT.__text __ZN14PBCapabilities6GroupsC1Ev
|| __TEXT.__text __ZN14PBCapabilities6GroupsC2Ev
|| __TEXT.__text __ZN14PersonalWalletD0Ev
|| __TEXT.__text __ZN14PersonalWalletD1Ev
|| __TEXT.__text __ZN14PersonalWalletD2Ev
|| __TEXT.__text __ZN14ServiceManager12setLogServerENSt3__110shared_ptrIN3ctu9LogServerEEE
|| __TEXT.__text __ZN14ServiceManager18addConcreteServiceEONSt3__110unique_ptrINS_7ServiceENS0_14default_deleteIS2_EEEE
|| __TEXT.__text __ZN14ServiceManager22FunctorShutdownServiceD0Ev
|| __TEXT.__text __ZN14ServiceManager22FunctorShutdownServiceD1Ev
|| __TEXT.__text __ZN14ServiceManager22FunctorShutdownServiceD2Ev
|| __TEXT.__text __ZN14ServiceManager22registerShutdownMethodENSt3__112basic_stringIcNS0_11char_traitsIcEENS0_9allocatorIcEEEE20ServiceShutdownStageNS0_8functionIFvvEEE
|| __TEXT.__text __ZN14ServiceManager23FunctorMigrationServiceD0Ev
|| __TEXT.__text __ZN14ServiceManager23FunctorMigrationServiceD1Ev
|| __TEXT.__text __ZN14ServiceManager23FunctorMigrationServiceD2Ev
|| __TEXT.__text __ZN14ServiceManager23registerMigrationMethodENSt3__112basic_stringIcNS0_11char_traitsIcEENS0_9allocatorIcEEEENS0_8functionIFvN3xpc4dictEEEE
|| __TEXT.__text __ZN14ServiceManager5startEv
|| __TEXT.__text __ZN14ServiceManager6createERKNSt3__110shared_ptrIN3ctu18XpcJetsamAssertionEEERKNS1_INS2_9LogServerEEERKNS1_IK8RegistryEE
|| __TEXT.__text __ZN14ServiceManager7ServiceD0Ev
|| __TEXT.__text __ZN14ServiceManager7ServiceD1Ev
|| __TEXT.__text __ZN14ServiceManager7ServiceD2Ev
|| __TEXT.__text __ZN14ServiceManager7migrateEN3xpc4dictEN8dispatch5queueENSt3__18functionIFvbEEE
|| __TEXT.__text __ZN14ServiceManager8shutdownEv
|| __TEXT.__text __ZN14ServiceManagerC1ERKNSt3__110shared_ptrIN3ctu18XpcJetsamAssertionEEERKNS1_INS2_9LogServerEEERKNS1_IK8RegistryEE
|| __TEXT.__text __ZN14ServiceManagerC2ERKNSt3__110shared_ptrIN3ctu18XpcJetsamAssertionEEERKNS1_INS2_9LogServerEEERKNS1_IK8RegistryEE
|| __TEXT.__text __ZN14ServiceManagerD0Ev
|| __TEXT.__text __ZN14ServiceManagerD1Ev
|| __TEXT.__text __ZN14ServiceManagerD2Ev
|| __TEXT.__text __ZN15ChipInformation5clearEv
|| __TEXT.__text __ZN15ChipInformationC1Ev
|| __TEXT.__text __ZN15ChipInformationC2Ev
|| __TEXT.__text __ZN15PersonalityShopD0Ev
|| __TEXT.__text __ZN15PersonalityShopD1Ev
|| __TEXT.__text __ZN15PersonalityShopD2Ev
|| __TEXT.__text __ZN15RestServiceBase10serviceRunEv
|| __TEXT.__text __ZN15RestServiceBase11serviceStopEv
|| __TEXT.__text __ZN15RestServiceBase28handleRestServiceStateChangeE16RestServiceState
|| __TEXT.__text __ZN15RestServiceBaseC1ERKNSt3__110shared_ptrIK8RegistryEERKN8dispatch5queueERKNS0_12basic_stringIcNS0_11char_traitsIcEENS0_9allocatorIcEEEE
|| __TEXT.__text __ZN15RestServiceBaseC2ERKNSt3__110shared_ptrIK8RegistryEERKN8dispatch5queueERKNS0_12basic_stringIcNS0_11char_traitsIcEENS0_9allocatorIcEEEE
|| __TEXT.__text __ZN15RestServiceBaseD0Ev
|| __TEXT.__text __ZN15RestServiceBaseD1Ev
|| __TEXT.__text __ZN15RestServiceBaseD2Ev
|| __TEXT.__text __ZN15VinylControllerD0Ev
|| __TEXT.__text __ZN15VinylControllerD1Ev
|| __TEXT.__text __ZN15VinylControllerD2Ev
|| __TEXT.__text __ZN16ActivationStatusC1Ev
|| __TEXT.__text __ZN16ActivationStatusC2Ev
|| __TEXT.__text __ZN16CSIPacketAddress12setPrefixLenEh
|| __TEXT.__text __ZN16CSIPacketAddress14setIPv4AddressEj
|| __TEXT.__text __ZN16CSIPacketAddress14setIPv6AddressEPKhm
|| __TEXT.__text __ZN16CSIPacketAddress15applyMaskPrefixEj
|| __TEXT.__text __ZN16CSIPacketAddress16setIPv4AddressLEEj
|| __TEXT.__text __ZN16CSIPacketAddress18parseDottedDecimalERKNSt3__112basic_stringIcNS0_11char_traitsIcEENS0_9allocatorIcEEEE
|| __TEXT.__text __ZN16CSIPacketAddress18setIPv6InterfaceIDERKS_
|| __TEXT.__text __ZN16CSIPacketAddress4initEi
|| __TEXT.__text __ZN16CSIPacketAddressC1ERKNSt3__112basic_stringIcNS0_11char_traitsIcEENS0_9allocatorIcEEEE
|| __TEXT.__text __ZN16CSIPacketAddressC1ERKS_
|| __TEXT.__text __ZN16CSIPacketAddressC1Ev
|| __TEXT.__text __ZN16CSIPacketAddressC2ERKNSt3__112basic_stringIcNS0_11char_traitsIcEENS0_9allocatorIcEEEE
|| __TEXT.__text __ZN16CSIPacketAddressC2ERKS_
|| __TEXT.__text __ZN16CSIPacketAddressC2Ev
|| __TEXT.__text __ZN16CSIPacketAddressaSERKS_
|| __TEXT.__text __ZN16DesenseInterfaceD0Ev
|| __TEXT.__text __ZN16DesenseInterfaceD1Ev
|| __TEXT.__text __ZN16DesenseInterfaceD2Ev
|| __TEXT.__text __ZN16HelperRestServer11addListenerENSt3__110shared_ptrIN3ctu15RestXpcListenerEEE
|| __TEXT.__text __ZN16HelperRestServer11addListenerENSt3__110shared_ptrIN3ctu20RestDispatchListenerEEE
|| __TEXT.__text __ZN16HelperRestServer17handleRestMessageERKNSt3__110shared_ptrIN3ctu22RestResourceConnectionEEEN3xpc4dictE
|| __TEXT.__text __ZN16HelperRestServer19installTreeResourceEPKc
|| __TEXT.__text __ZN16HelperRestServer20installEventResourceEPKc
|| __TEXT.__text __ZN16HelperRestServer22installRequestResourceEPKc
|| __TEXT.__text __ZN16HelperRestServer23handleDroppedConnectionERKNSt3__110shared_ptrIN3ctu22RestResourceConnectionEEEN3xpc6objectE
|| __TEXT.__text __ZN16HelperRestServer23installPropertyResourceEPKc
|| __TEXT.__text __ZN16HelperRestServer24installAssertionResourceEPKc
|| __TEXT.__text __ZN16HelperRestServer26handleRestMessageWithReplyERKNSt3__110shared_ptrIN3ctu22RestResourceConnectionEEEN3xpc4dictENS0_8functionIFvNS7_6objectEEEE
|| __TEXT.__text __ZN16HelperRestServer4initEv
|| __TEXT.__text __ZN16HelperRestServer4stopEN8dispatch13group_sessionE
|| __TEXT.__text __ZN16HelperRestServer5startEv
|| __TEXT.__text __ZN16HelperRestServer6createEPKcN8dispatch5queueEP8os_log_s
|| __TEXT.__text __ZN16HelperRestServerC1EPKcN8dispatch5queueEP8os_log_s
|| __TEXT.__text __ZN16HelperRestServerC2EPKcN8dispatch5queueEP8os_log_s
|| __TEXT.__text __ZN16IMSClientFactory15createSMSClientEN8dispatch5queueERK13PersonalityID
|| __TEXT.__text __ZN16IMSClientFactory16createCallClientEN8dispatch5queueERK13PersonalityID
|| __TEXT.__text __ZN16IMSClientFactory6createEv
|| __TEXT.__text __ZN16IMSClientFactoryC1Ev
|| __TEXT.__text __ZN16IMSClientFactoryC2Ev
|| __TEXT.__text __ZN16IMSClientFactoryD0Ev
|| __TEXT.__text __ZN16IMSClientFactoryD1Ev
|| __TEXT.__text __ZN16IMSClientFactoryD2Ev
|| __TEXT.__text __ZN16RatSelectionType10setSimSlotEN10subscriber7SimSlotE
|| __TEXT.__text __ZN16RatSelectionType12setSelectionEh
|| __TEXT.__text __ZN16RatSelectionType13setIsInternalEb
|| __TEXT.__text __ZN16RatSelectionType21setPreferredSelectionEh
|| __TEXT.__text __ZN16RatSelectionTypeC1EhhN10subscriber7SimSlotE
|| __TEXT.__text __ZN16RatSelectionTypeC1Ev
|| __TEXT.__text __ZN16RatSelectionTypeC2EhhN10subscriber7SimSlotE
|| __TEXT.__text __ZN16RatSelectionTypeC2Ev
|| __TEXT.__text __ZN16RatSelectionTypeeqERKS_
|| __TEXT.__text __ZN16RatSelectionTypeneERKS_
|| __TEXT.__text __ZN16RoamingInterface21setDataRoamingSettingEb
|| __TEXT.__text __ZN16RoamingInterfaceD0Ev
|| __TEXT.__text __ZN16RoamingInterfaceD1Ev
|| __TEXT.__text __ZN16RoamingInterfaceD2Ev
|| __TEXT.__text __ZN17C2KActivationInfo12setCarrierIDEPKc
|| __TEXT.__text __ZN17C2KActivationInfoC1Ev
|| __TEXT.__text __ZN17C2KActivationInfoC2Ev
|| __TEXT.__text __ZN17CoreTimeInterfaceD0Ev
|| __TEXT.__text __ZN17CoreTimeInterfaceD1Ev
|| __TEXT.__text __ZN17CoreTimeInterfaceD2Ev
|| __TEXT.__text __ZN17DataTimerObserver12disposeTimerEPP9DataTimer
|| __TEXT.__text __ZN17DataTimerObserver14createTimerSecEPKcPP9DataTimeryU13block_pointerFvvEyb
|| __TEXT.__text __ZN17DataTimerObserver15createTimerMsecEPKcPP9DataTimeryU13block_pointerFvvEyb
|| __TEXT.__text __ZN17DataTimerObserverD0Ev
|| __TEXT.__text __ZN17DataTimerObserverD1Ev
|| __TEXT.__text __ZN17DataTimerObserverD2Ev
|| __TEXT.__text __ZN17EncryptedIdentityD0Ev
|| __TEXT.__text __ZN17EncryptedIdentityD1Ev
|| __TEXT.__text __ZN17EncryptedIdentityD2Ev
|| __TEXT.__text __ZN17IDSServiceWrapperD0Ev
|| __TEXT.__text __ZN17IDSServiceWrapperD1Ev
|| __TEXT.__text __ZN17IDSServiceWrapperD2Ev
|| __TEXT.__text __ZN17LocationInterfaceD0Ev
|| __TEXT.__text __ZN17LocationInterfaceD1Ev
|| __TEXT.__text __ZN17LocationInterfaceD2Ev
|| __TEXT.__text __ZN17MAClientInterfaceD0Ev
|| __TEXT.__text __ZN17MAClientInterfaceD1Ev
|| __TEXT.__text __ZN17MAClientInterfaceD2Ev
|| __TEXT.__text __ZN17PeriodicScheduler12DelegateBaseD0Ev
|| __TEXT.__text __ZN17PeriodicScheduler12DelegateBaseD1Ev
|| __TEXT.__text __ZN17PeriodicScheduler12DelegateBaseD2Ev
|| __TEXT.__text __ZN17PeriodicScheduler17scheduleWake_syncERK13SchedulerSpecRKN3ctu2cf11CFSharedRefIK8__CFDateEE
|| __TEXT.__text __ZN17PeriodicScheduler18scheduleTimer_syncERK13SchedulerSpec
|| __TEXT.__text __ZN17PeriodicScheduler26handleTimerExpiration_syncERK13SchedulerSpec
|| __TEXT.__text __ZN17PeriodicScheduler4stopEv
|| __TEXT.__text __ZN17PeriodicScheduler6createERKNSt3__110shared_ptrIK8RegistryEEN8dispatch5queueE30PeriodicSchedulerConfiguration
|| __TEXT.__text __ZN17PeriodicScheduler6resumeEv
|| __TEXT.__text __ZN17PeriodicSchedulerC1ERKNSt3__110shared_ptrIK8RegistryEEN8dispatch5queueE30PeriodicSchedulerConfiguration
|| __TEXT.__text __ZN17PeriodicSchedulerC2ERKNSt3__110shared_ptrIK8RegistryEEN8dispatch5queueE30PeriodicSchedulerConfiguration
|| __TEXT.__text __ZN17SettingsInterfaceD0Ev
|| __TEXT.__text __ZN17SettingsInterfaceD1Ev
|| __TEXT.__text __ZN17SettingsInterfaceD2Ev
|| __TEXT.__text __ZN18BasebandModeAction10hysteresisEv
|| __TEXT.__text __ZN18BasebandModeActionD0Ev
|| __TEXT.__text __ZN18BasebandModeActionD1Ev
|| __TEXT.__text __ZN18BasebandModeActionD2Ev
|| __TEXT.__text __ZN18DataDriverObserverD0Ev
|| __TEXT.__text __ZN18DataDriverObserverD1Ev
|| __TEXT.__text __ZN18DataDriverObserverD2Ev
|| __TEXT.__text __ZN18NotifySubscription6cancelEv
|| __TEXT.__text __ZN18NotifySubscriptionC1EPKcN8dispatch5queueE
|| __TEXT.__text __ZN18NotifySubscriptionC2EPKcN8dispatch5queueE
|| __TEXT.__text __ZN18NotifySubscriptionD1Ev
|| __TEXT.__text __ZN18NotifySubscriptionD2Ev
|| __TEXT.__text __ZN18PDPConfigInterfaceD0Ev
|| __TEXT.__text __ZN18PDPConfigInterfaceD1Ev
|| __TEXT.__text __ZN18PDPConfigInterfaceD2Ev
|| __TEXT.__text __ZN18PhonebookInterfaceD0Ev
|| __TEXT.__text __ZN18PhonebookInterfaceD1Ev
|| __TEXT.__text __ZN18PhonebookInterfaceD2Ev
|| __TEXT.__text __ZN18UserAlertInterfaceD0Ev
|| __TEXT.__text __ZN18UserAlertInterfaceD1Ev
|| __TEXT.__text __ZN18UserAlertInterfaceD2Ev
|| __TEXT.__text __ZN18VoiceMailInterfaceD0Ev
|| __TEXT.__text __ZN18VoiceMailInterfaceD1Ev
|| __TEXT.__text __ZN18VoiceMailInterfaceD2Ev
|| __TEXT.__text __ZN18rest_service_state13get_base_pathEv
|| __TEXT.__text __ZN19ActivationInterfaceD0Ev
|| __TEXT.__text __ZN19ActivationInterfaceD1Ev
|| __TEXT.__text __ZN19ActivationInterfaceD2Ev
|| __TEXT.__text __ZN19BBDataContextHelperD0Ev
|| __TEXT.__text __ZN19BBDataContextHelperD1Ev
|| __TEXT.__text __ZN19BBDataContextHelperD2Ev
|| __TEXT.__text __ZN19C2KProvisioningInfoC1Ev
|| __TEXT.__text __ZN19C2KProvisioningInfoC2Ev
|| __TEXT.__text __ZN19CSIAppInfoInterfaceD0Ev
|| __TEXT.__text __ZN19CSIAppInfoInterfaceD1Ev
|| __TEXT.__text __ZN19CSIAppInfoInterfaceD2Ev
|| __TEXT.__text __ZN19CapabilitiesHandlerC2ERKNSt3__110shared_ptrIK8RegistryEE
|| __TEXT.__text __ZN19CapabilitiesHandlerD0Ev
|| __TEXT.__text __ZN19CapabilitiesHandlerD1Ev
|| __TEXT.__text __ZN19CapabilitiesHandlerD2Ev
|| __TEXT.__text __ZN19CarrierEntitlements15setServiceTokenERKNSt3__110shared_ptrIK8RegistryEERK13PersonalityIDRKNS0_12basic_stringIcNS0_11char_traitsIcEENS0_9allocatorIcEEEE
|| __TEXT.__text __ZN19CarrierEntitlements15setSubscriberIdERKNSt3__110shared_ptrIK8RegistryEERK13PersonalityIDRKNS0_12basic_stringIcNS0_11char_traitsIcEENS0_9allocatorIcEEEE
|| __TEXT.__text __ZN19CarrierEntitlementsD0Ev
|| __TEXT.__text __ZN19CarrierEntitlementsD1Ev
|| __TEXT.__text __ZN19CarrierEntitlementsD2Ev
|| __TEXT.__text __ZN19FileSystemInterfaceD0Ev
|| __TEXT.__text __ZN19FileSystemInterfaceD1Ev
|| __TEXT.__text __ZN19FileSystemInterfaceD2Ev
|| __TEXT.__text __ZN19GsmRadioPersonality14applyOverridesEPK14__CFDictionary
|| __TEXT.__text __ZN19GsmRadioPersonality18notifyServiceStartEv
|| __TEXT.__text __ZN19GsmRadioPersonality21notifyServiceShutdownE20ServiceShutdownStageRK12ServiceStage
|| __TEXT.__text __ZN19GsmRadioPersonality22notifyServiceBootstrapEN8dispatch13group_sessionE
|| __TEXT.__text __ZN19GsmRadioPersonality24getHardwareConfigurationERKNSt3__112basic_stringIcNS0_11char_traitsIcEENS0_9allocatorIcEEEE
|| __TEXT.__text __ZN19GsmRadioPersonality30getDeviceHardwareConfigurationEv
|| __TEXT.__text __ZN19GsmRadioPersonality6createERKNSt3__110shared_ptrIK8RegistryEE21HardwareConfiguration
|| __TEXT.__text __ZN19GsmRadioPersonality6createERKNSt3__110shared_ptrIK8RegistryEE21HardwareConfigurationRKNS0_12basic_stringIcNS0_11char_traitsIcEENS0_9allocatorIcEEEESF_
|| __TEXT.__text __ZN19GsmRadioPersonality6createERKNSt3__110shared_ptrIK8RegistryEERKNS0_12basic_stringIcNS0_11char_traitsIcEENS0_9allocatorIcEEEESE_
|| __TEXT.__text __ZN19GsmRadioPersonalityC1ERKNSt3__110shared_ptrIK8RegistryEE21HardwareConfigurationRKNS0_12basic_stringIcNS0_11char_traitsIcEENS0_9allocatorIcEEEESF_
|| __TEXT.__text __ZN19GsmRadioPersonalityC2ERKNSt3__110shared_ptrIK8RegistryEE21HardwareConfigurationRKNS0_12basic_stringIcNS0_11char_traitsIcEENS0_9allocatorIcEEEESF_
|| __TEXT.__text __ZN19GsmRadioPersonalityD0Ev
|| __TEXT.__text __ZN19GsmRadioPersonalityD1Ev
|| __TEXT.__text __ZN19GsmRadioPersonalityD2Ev
|| __TEXT.__text __ZN19MISServiceInterfaceD0Ev
|| __TEXT.__text __ZN19MISServiceInterfaceD1Ev
|| __TEXT.__text __ZN19MISServiceInterfaceD2Ev
|| __TEXT.__text __ZN19MMIFactoryInterfaceD0Ev
|| __TEXT.__text __ZN19MMIFactoryInterfaceD1Ev
|| __TEXT.__text __ZN19MMIFactoryInterfaceD2Ev
|| __TEXT.__text __ZN19MmsFactoryInterfaceD0Ev
|| __TEXT.__text __ZN19MmsFactoryInterfaceD1Ev
|| __TEXT.__text __ZN19MmsFactoryInterfaceD2Ev
|| __TEXT.__text __ZN19NetworkListOperator23setAdditionalNameSuffixEPKc
|| __TEXT.__text __ZN19NetworkListOperator6getKeyE3MCC3MNC
|| __TEXT.__text __ZN19NetworkListOperator6setRATE21RadioAccessTechnology
|| __TEXT.__text __ZN19NetworkListOperator7setNameERKNSt3__112basic_stringIcNS0_11char_traitsIcEENS0_9allocatorIcEEEE
|| __TEXT.__text __ZN19NetworkListOperator9decodeKeyERKNSt3__112basic_stringIcNS0_11char_traitsIcEENS0_9allocatorIcEEEERS_
|| __TEXT.__text __ZN19NetworkListOperatorC1ERKNSt3__112basic_stringIcNS0_11char_traitsIcEENS0_9allocatorIcEEEE21RadioAccessTechnologyRK3MCCRK3MNC17NetworkNameSource
|| __TEXT.__text __ZN19NetworkListOperatorC1Ev
|| __TEXT.__text __ZN19NetworkListOperatorC2ERKNSt3__112basic_stringIcNS0_11char_traitsIcEENS0_9allocatorIcEEEE21RadioAccessTechnologyRK3MCCRK3MNC17NetworkNameSource
|| __TEXT.__text __ZN19NetworkListOperatorC2Ev
|| __TEXT.__text __ZN19OSServicesInterfaceD0Ev
|| __TEXT.__text __ZN19OSServicesInterfaceD1Ev
|| __TEXT.__text __ZN19OSServicesInterfaceD2Ev
|| __TEXT.__text __ZN19P2WSettingsObserverD0Ev
|| __TEXT.__text __ZN19P2WSettingsObserverD1Ev
|| __TEXT.__text __ZN19P2WSettingsObserverD2Ev
|| __TEXT.__text __ZN19PDPManagerInterfaceC2Ev
|| __TEXT.__text __ZN19PDPManagerInterfaceD0Ev
|| __TEXT.__text __ZN19PDPManagerInterfaceD1Ev
|| __TEXT.__text __ZN19PDPManagerInterfaceD2Ev
|| __TEXT.__text __ZN19PersonalitySpecificD0Ev
|| __TEXT.__text __ZN19PersonalitySpecificD1Ev
|| __TEXT.__text __ZN19PersonalitySpecificD2Ev
|| __TEXT.__text __ZN19RootHelperInterfaceD0Ev
|| __TEXT.__text __ZN19RootHelperInterfaceD1Ev
|| __TEXT.__text __ZN19RootHelperInterfaceD2Ev
|| __TEXT.__text __ZN19SBServicesInterfaceD0Ev
|| __TEXT.__text __ZN19SBServicesInterfaceD1Ev
|| __TEXT.__text __ZN19SBServicesInterfaceD2Ev
|| __TEXT.__text __ZN19STKFactoryInterfaceD0Ev
|| __TEXT.__text __ZN19STKFactoryInterfaceD1Ev
|| __TEXT.__text __ZN19STKFactoryInterfaceD2Ev
|| __TEXT.__text __ZN20CDMARoamingInterfaceD0Ev
|| __TEXT.__text __ZN20CDMARoamingInterfaceD1Ev
|| __TEXT.__text __ZN20CDMARoamingInterfaceD2Ev
|| __TEXT.__text __ZN20CTXPCServerInterfaceD0Ev
|| __TEXT.__text __ZN20CTXPCServerInterfaceD1Ev
|| __TEXT.__text __ZN20CTXPCServerInterfaceD2Ev
|| __TEXT.__text __ZN20CallFactoryInterfaceD0Ev
|| __TEXT.__text __ZN20CallFactoryInterfaceD1Ev
|| __TEXT.__text __ZN20CallFactoryInterfaceD2Ev
|| __TEXT.__text __ZN20CallOperationContextC1ERK8CallInfo
|| __TEXT.__text __ZN20CallOperationContextC1ERK8CallInfoRKNSt3__112basic_stringIcNS3_11char_traitsIcEENS3_9allocatorIcEEEE
|| __TEXT.__text __ZN20CallOperationContextC1ERKNSt3__112basic_stringIcNS0_11char_traitsIcEENS0_9allocatorIcEEEE
|| __TEXT.__text __ZN20CallOperationContextC1Ev
|| __TEXT.__text __ZN20CallOperationContextC2ERK8CallInfo
|| __TEXT.__text __ZN20CallOperationContextC2ERK8CallInfoRKNSt3__112basic_stringIcNS3_11char_traitsIcEENS3_9allocatorIcEEEE
|| __TEXT.__text __ZN20CallOperationContextC2ERKNSt3__112basic_stringIcNS0_11char_traitsIcEENS0_9allocatorIcEEEE
|| __TEXT.__text __ZN20CallOperationContextC2Ev
|| __TEXT.__text __ZN20CellMonitorInterface11getAreaCodeEN3xpc10auto_replyE
|| __TEXT.__text __ZN20CellMonitorInterface11getAreaCodeEv
|| __TEXT.__text __ZN20CellMonitorInterface18getCurrentCellInfoEN3xpc10auto_replyE
|| __TEXT.__text __ZN20CellMonitorInterface9getCellIdEN3xpc10auto_replyE
|| __TEXT.__text __ZN20CellMonitorInterface9getCellIdEv
|| __TEXT.__text __ZN20CellMonitorInterfaceD0Ev
|| __TEXT.__text __ZN20CellMonitorInterfaceD1Ev
|| __TEXT.__text __ZN20CellMonitorInterfaceD2Ev
|| __TEXT.__text __ZN20DataServiceInterfaceC2Ev
|| __TEXT.__text __ZN20DataServiceInterfaceD0Ev
|| __TEXT.__text __ZN20DataServiceInterfaceD1Ev
|| __TEXT.__text __ZN20DataServiceInterfaceD2Ev
|| __TEXT.__text __ZN20DataSessionActivatorD0Ev
|| __TEXT.__text __ZN20DataSessionActivatorD1Ev
|| __TEXT.__text __ZN20DataSessionActivatorD2Ev
|| __TEXT.__text __ZN20DtmfHandlerInterfaceD0Ev
|| __TEXT.__text __ZN20DtmfHandlerInterfaceD1Ev
|| __TEXT.__text __ZN20DtmfHandlerInterfaceD2Ev
|| __TEXT.__text __ZN20EnhancedLQMInterface15sendTrafficInfoEtN3ctu2cf11CFSharedRefIK8__CFDataEEN3xpc10auto_replyE
|| __TEXT.__text __ZN20EnhancedLQMInterface24registerForNotificationsEbbbbbbbb
|| __TEXT.__text __ZN20EnhancedLQMInterface5queryE16EnhancedLQMQueryN3xpc10auto_replyE
|| __TEXT.__text __ZN20EnhancedLQMInterfaceD0Ev
|| __TEXT.__text __ZN20EnhancedLQMInterfaceD1Ev
|| __TEXT.__text __ZN20EnhancedLQMInterfaceD2Ev
|| __TEXT.__text __ZN20IsoMccCacheInterfaceD0Ev
|| __TEXT.__text __ZN20IsoMccCacheInterfaceD1Ev
|| __TEXT.__text __ZN20IsoMccCacheInterfaceD2Ev
|| __TEXT.__text __ZN20LASDFactoryInterfaceD0Ev
|| __TEXT.__text __ZN20LASDFactoryInterfaceD1Ev
|| __TEXT.__text __ZN20LASDFactoryInterfaceD2Ev
|| __TEXT.__text __ZN20MMSSettingsInterfaceD0Ev
|| __TEXT.__text __ZN20MMSSettingsInterfaceD1Ev
|| __TEXT.__text __ZN20MMSSettingsInterfaceD2Ev
|| __TEXT.__text __ZN20MaxDataRateInterfaceD0Ev
|| __TEXT.__text __ZN20MaxDataRateInterfaceD1Ev
|| __TEXT.__text __ZN20MaxDataRateInterfaceD2Ev
|| __TEXT.__text __ZN20NAISelectorInterfaceD0Ev
|| __TEXT.__text __ZN20NAISelectorInterfaceD1Ev
|| __TEXT.__text __ZN20NAISelectorInterfaceD2Ev
|| __TEXT.__text __ZN20NetworkListInterfaceD0Ev
|| __TEXT.__text __ZN20NetworkListInterfaceD1Ev
|| __TEXT.__text __ZN20NetworkListInterfaceD2Ev
|| __TEXT.__text __ZN20P2WSettingsInterfaceD0Ev
|| __TEXT.__text __ZN20P2WSettingsInterfaceD1Ev
|| __TEXT.__text __ZN20P2WSettingsInterfaceD2Ev
|| __TEXT.__text __ZN20PersonalitiesTracker11updateEventERKN8dispatch13group_sessionERK16PersonalityEventRKNSt3__110shared_ptrIK15PersonalityInfoEE
|| __TEXT.__text __ZN20PersonalitiesTracker16updateDispatchedERK16PersonalityEventRKNSt3__110shared_ptrIK15PersonalityInfoEE
|| __TEXT.__text __ZN20PersonalitiesTracker4bindERKN8dispatch13group_sessionERKNS0_5queueEONSt3__18functionIFvS3_RK16PersonalityEventRKNS7_10shared_ptrIK15PersonalityInfoEEEEEONS8_IFvSB_SH_EEEONS8_IFvRK13PersonalitiesEEE
|| __TEXT.__text __ZN20PersonalitiesTracker6unbindEv
|| __TEXT.__text __ZN20PersonalitiesTracker9updateSetERKNSt3__110shared_ptrI13PersonalitiesEE
|| __TEXT.__text __ZN20PersonalitiesTrackerC1ERKNSt3__110shared_ptrIK8RegistryEERKNS0_12basic_stringIcNS0_11char_traitsIcEENS0_9allocatorIcEEEE
|| __TEXT.__text __ZN20PersonalitiesTrackerC2ERKNSt3__110shared_ptrIK8RegistryEERKNS0_12basic_stringIcNS0_11char_traitsIcEENS0_9allocatorIcEEEE
|| __TEXT.__text __ZN20PersonalitiesTrackerD1Ev
|| __TEXT.__text __ZN20PersonalitiesTrackerD2Ev
|| __TEXT.__text __ZN20PhoneServicesControlD0Ev
|| __TEXT.__text __ZN20PhoneServicesControlD1Ev
|| __TEXT.__text __ZN20PhoneServicesControlD2Ev
|| __TEXT.__text __ZN20RoamingEventDelegateD0Ev
|| __TEXT.__text __ZN20RoamingEventDelegateD1Ev
|| __TEXT.__text __ZN20RoamingEventDelegateD2Ev
|| __TEXT.__text __ZN20TimeHandlerInterfaceD0Ev
|| __TEXT.__text __ZN20TimeHandlerInterfaceD1Ev
|| __TEXT.__text __ZN20TimeHandlerInterfaceD2Ev
|| __TEXT.__text __ZN20UMTSProvisioningInfoC1Ev
|| __TEXT.__text __ZN20UMTSProvisioningInfoC2Ev
|| __TEXT.__text __ZN20USSDServiceInterfaceD0Ev
|| __TEXT.__text __ZN20USSDServiceInterfaceD1Ev
|| __TEXT.__text __ZN20USSDServiceInterfaceD2Ev
|| __TEXT.__text __ZN20WiFiManagerInterfaceD0Ev
|| __TEXT.__text __ZN20WiFiManagerInterfaceD1Ev
|| __TEXT.__text __ZN20WiFiManagerInterfaceD2Ev
|| __TEXT.__text __ZN21AudioFactoryInterfaceD0Ev
|| __TEXT.__text __ZN21AudioFactoryInterfaceD1Ev
|| __TEXT.__text __ZN21AudioFactoryInterfaceD2Ev
|| __TEXT.__text __ZN21AudioRoutingInterfaceD0Ev
|| __TEXT.__text __ZN21AudioRoutingInterfaceD1Ev
|| __TEXT.__text __ZN21AudioRoutingInterfaceD2Ev
|| __TEXT.__text __ZN21BasebandModeEvaluator12DelegateBaseD0Ev
|| __TEXT.__text __ZN21BasebandModeEvaluator12DelegateBaseD1Ev
|| __TEXT.__text __ZN21BasebandModeEvaluator12DelegateBaseD2Ev
|| __TEXT.__text __ZN21BasebandModeEvaluator25notifyBasebandModeChangedE12BasebandMode
|| __TEXT.__text __ZN21BasebandModeEvaluator26notifyDelegateChanged_syncERKN8dispatch5queueE
|| __TEXT.__text __ZN21BasebandModeEvaluatorD0Ev
|| __TEXT.__text __ZN21BasebandModeEvaluatorD1Ev
|| __TEXT.__text __ZN21BasebandModeEvaluatorD2Ev
|| __TEXT.__text __ZN21CDMASettingsInterfaceD0Ev
|| __TEXT.__text __ZN21CDMASettingsInterfaceD1Ev
|| __TEXT.__text __ZN21CDMASettingsInterfaceD2Ev
|| __TEXT.__text __ZN21DataBBResetThrottling10incTimeoutEv
|| __TEXT.__text __ZN21DataBBResetThrottling13resetHappenedEv
|| __TEXT.__text __ZN21DataBBResetThrottlingC1Ev
|| __TEXT.__text __ZN21DataBBResetThrottlingC2Ev
|| __TEXT.__text __ZN21DataBBResetThrottlingD1Ev
|| __TEXT.__text __ZN21DataBBResetThrottlingD2Ev
|| __TEXT.__text __ZN21DataUsageBillingCycleC1EbbbNSt3__18optionalIyEES2_
|| __TEXT.__text __ZN21DataUsageBillingCycleC2EbbbNSt3__18optionalIyEES2_
|| __TEXT.__text __ZN21DebugAssertionHandler27handleAssertionChanged_syncEPKcbONSt3__18functionIFNS2_10shared_ptrIN3ctu4rest15AssertionHandleEEEvEEE
|| __TEXT.__text __ZN21DebugAssertionHandler4initEv
|| __TEXT.__text __ZN21DebugAssertionHandler6createERKNSt3__110shared_ptrI8RegistryEE
|| __TEXT.__text __ZN21DebugAssertionHandler7getNameEv
|| __TEXT.__text __ZN21DebugAssertionHandlerC1ERKNSt3__110shared_ptrI8RegistryEE
|| __TEXT.__text __ZN21DebugAssertionHandlerC2ERKNSt3__110shared_ptrI8RegistryEE
|| __TEXT.__text __ZN21DebugAssertionHandlerD0Ev
|| __TEXT.__text __ZN21DebugAssertionHandlerD1Ev
|| __TEXT.__text __ZN21DebugAssertionHandlerD2Ev
|| __TEXT.__text __ZN21IMSCallModelInterfaceD0Ev
|| __TEXT.__text __ZN21IMSCallModelInterfaceD1Ev
|| __TEXT.__text __ZN21IMSCallModelInterfaceD2Ev
|| __TEXT.__text __ZN21IMSSMSClientInterfaceD0Ev
|| __TEXT.__text __ZN21IMSSMSClientInterfaceD1Ev
|| __TEXT.__text __ZN21IMSSMSClientInterfaceD2Ev
|| __TEXT.__text __ZN21LocalizationInterfaceD0Ev
|| __TEXT.__text __ZN21LocalizationInterfaceD1Ev
|| __TEXT.__text __ZN21LocalizationInterfaceD2Ev
|| __TEXT.__text __ZN21MobileHelperInterfaceD0Ev
|| __TEXT.__text __ZN21MobileHelperInterfaceD1Ev
|| __TEXT.__text __ZN21MobileHelperInterfaceD2Ev
|| __TEXT.__text __ZN21PairedDeviceInterfaceD0Ev
|| __TEXT.__text __ZN21PairedDeviceInterfaceD1Ev
|| __TEXT.__text __ZN21PairedDeviceInterfaceD2Ev
|| __TEXT.__text __ZN21RegisteredNetworkInfoC1E21RadioAccessTechnology8DataMode18RegistrationStatusRKNSt3__18optionalI7GsmCellEERKNS4_I8UmtsCellEERKNS4_I11TDSCDMACellEERKNS4_I7LteCellEERKNS4_I10Cdma1xCellEERKNS4_I12CdmaEvdoCellEERKNS4_IhEERKNS4_IbEE
|| __TEXT.__text __ZN21RegisteredNetworkInfoC1ERKS_
|| __TEXT.__text __ZN21RegisteredNetworkInfoC1Ev
|| __TEXT.__text __ZN21RegisteredNetworkInfoC2E21RadioAccessTechnology8DataMode18RegistrationStatusRKNSt3__18optionalI7GsmCellEERKNS4_I8UmtsCellEERKNS4_I11TDSCDMACellEERKNS4_I7LteCellEERKNS4_I10Cdma1xCellEERKNS4_I12CdmaEvdoCellEERKNS4_IhEERKNS4_IbEE
|| __TEXT.__text __ZN21RegisteredNetworkInfoC2ERKS_
|| __TEXT.__text __ZN21RegisteredNetworkInfoC2Ev
|| __TEXT.__text __ZN21RegisteredNetworkInfoaSERKS_
|| __TEXT.__text __ZN21RegistrationInterface13selectNetworkERKNSt3__112basic_stringIcNS0_11char_traitsIcEENS0_9allocatorIcEEEE
|| __TEXT.__text __ZN21RegistrationInterface15getRatSelectionEN3xpc10auto_replyE
|| __TEXT.__text __ZN21RegistrationInterface16fetchNetworkListEv
|| __TEXT.__text __ZN21RegistrationInterface26automaticallySelectNetworkEv
|| __TEXT.__text __ZN21RegistrationInterfaceD0Ev
|| __TEXT.__text __ZN21RegistrationInterfaceD1Ev
|| __TEXT.__text __ZN21RegistrationInterfaceD2Ev
|| __TEXT.__text __ZN21SaveDataModeInterfaceD0Ev
|| __TEXT.__text __ZN21SaveDataModeInterfaceD1Ev
|| __TEXT.__text __ZN21SaveDataModeInterfaceD2Ev
|| __TEXT.__text __ZN21SuppServicesInterfaceD0Ev
|| __TEXT.__text __ZN21SuppServicesInterfaceD1Ev
|| __TEXT.__text __ZN21SuppServicesInterfaceD2Ev
|| __TEXT.__text __ZN21WiFiSettingsInterfaceD0Ev
|| __TEXT.__text __ZN21WiFiSettingsInterfaceD1Ev
|| __TEXT.__text __ZN21WiFiSettingsInterfaceD2Ev
|| __TEXT.__text __ZN22CFPreferencesInterfaceD0Ev
|| __TEXT.__text __ZN22CFPreferencesInterfaceD1Ev
|| __TEXT.__text __ZN22CFPreferencesInterfaceD2Ev
|| __TEXT.__text __ZN22CallStatusDelegateBaseD0Ev
|| __TEXT.__text __ZN22CallStatusDelegateBaseD1Ev
|| __TEXT.__text __ZN22CallStatusDelegateBaseD2Ev
|| __TEXT.__text __ZN22CarrierBundleInterface14getBundleIdForE10BundleType
|| __TEXT.__text __ZN22CarrierBundleInterface16getBundleInfoForE10BundleType
|| __TEXT.__text __ZN22CarrierBundleInterface17getUniqueBundleIdE10BundleType
|| __TEXT.__text __ZN22CarrierBundleInterface19getBundleVersionForE10BundleType
|| __TEXT.__text __ZN22CarrierBundleInterface20copyCarrierBundleURLEv
|| __TEXT.__text __ZN22CarrierBundleInterface21copyCarrierBundleNameEv
|| __TEXT.__text __ZN22CarrierBundleInterface23getActiveBundleLocationEv
|| __TEXT.__text __ZN22CarrierBundleInterface24getCarrierBundleLocationEv
|| __TEXT.__text __ZN22CarrierBundleInterface24getCarrierBundleTechTypeEv
|| __TEXT.__text __ZN22CarrierBundleInterface26copyCarrierBundleSetupInfoEv
|| __TEXT.__text __ZN22CarrierBundleInterface27copyOperatorBundleMatchInfoE21RadioAccessTechnology3MCC3MNC
|| __TEXT.__text __ZN22CarrierBundleInterface32getCarrierBundleNameWithCallbackENSt3__18functionIFvN3ctu2cf11CFSharedRefIK10__CFStringEEEEE
|| __TEXT.__text __ZN22CarrierBundleInterfaceD0Ev
|| __TEXT.__text __ZN22CarrierBundleInterfaceD1Ev
|| __TEXT.__text __ZN22CarrierBundleInterfaceD2Ev
|| __TEXT.__text __ZN22IMSCallClientInterfaceD0Ev
|| __TEXT.__text __ZN22IMSCallClientInterfaceD1Ev
|| __TEXT.__text __ZN22IMSCallClientInterfaceD2Ev
|| __TEXT.__text __ZN22KeychainStoreInterfaceD0Ev
|| __TEXT.__text __ZN22KeychainStoreInterfaceD1Ev
|| __TEXT.__text __ZN22KeychainStoreInterfaceD2Ev
|| __TEXT.__text __ZN22LocaleUtilityInterfaceD0Ev
|| __TEXT.__text __ZN22LocaleUtilityInterfaceD1Ev
|| __TEXT.__text __ZN22LocaleUtilityInterfaceD2Ev
|| __TEXT.__text __ZN22LocationModelInterfaceD0Ev
|| __TEXT.__text __ZN22LocationModelInterfaceD1Ev
|| __TEXT.__text __ZN22LocationModelInterfaceD2Ev
|| __TEXT.__text __ZN22MmsControllerInterfaceD0Ev
|| __TEXT.__text __ZN22MmsControllerInterfaceD1Ev
|| __TEXT.__text __ZN22MmsControllerInterfaceD2Ev
|| __TEXT.__text __ZN22SCPreferencesInterfaceD0Ev
|| __TEXT.__text __ZN22SCPreferencesInterfaceD1Ev
|| __TEXT.__text __ZN22SCPreferencesInterfaceD2Ev
|| __TEXT.__text __ZN22STKStateModelInterfaceD0Ev
|| __TEXT.__text __ZN22STKStateModelInterfaceD1Ev
|| __TEXT.__text __ZN22STKStateModelInterfaceD2Ev
|| __TEXT.__text __ZN22ServerUpdaterInterfaceD0Ev
|| __TEXT.__text __ZN22ServerUpdaterInterfaceD1Ev
|| __TEXT.__text __ZN22ServerUpdaterInterfaceD2Ev
|| __TEXT.__text __ZN22SimSetupProxyInterfaceD0Ev
|| __TEXT.__text __ZN22SimSetupProxyInterfaceD1Ev
|| __TEXT.__text __ZN22SimSetupProxyInterfaceD2Ev
|| __TEXT.__text __ZN22SmsControllerInterfaceD0Ev
|| __TEXT.__text __ZN22SmsControllerInterfaceD1Ev
|| __TEXT.__text __ZN22SmsControllerInterfaceD2Ev
|| __TEXT.__text __ZN22SubscriberSimInterface11observeFileEN10subscriber11SimFilePathE
|| __TEXT.__text __ZN22SubscriberSimInterface11observeFileEN10subscriber7SimSlotENS0_11SimFilePathE
|| __TEXT.__text __ZN22SubscriberSimInterfaceD0Ev
|| __TEXT.__text __ZN22SubscriberSimInterfaceD1Ev
|| __TEXT.__text __ZN22SubscriberSimInterfaceD2Ev
|| __TEXT.__text __ZN23APN_StorageMgrInterfaceD0Ev
|| __TEXT.__text __ZN23APN_StorageMgrInterfaceD1Ev
|| __TEXT.__text __ZN23APN_StorageMgrInterfaceD2Ev
|| __TEXT.__text __ZN23ActivationPushInterfaceD0Ev
|| __TEXT.__text __ZN23ActivationPushInterfaceD1Ev
|| __TEXT.__text __ZN23ActivationPushInterfaceD2Ev
|| __TEXT.__text __ZN23CTWifiLocationInterfaceD0Ev
|| __TEXT.__text __ZN23CTWifiLocationInterfaceD1Ev
|| __TEXT.__text __ZN23CTWifiLocationInterfaceD2Ev
|| __TEXT.__text __ZN23CallControllerInterfaceD0Ev
|| __TEXT.__text __ZN23CallControllerInterfaceD1Ev
|| __TEXT.__text __ZN23CallControllerInterfaceD2Ev
|| __TEXT.__text __ZN23CellularPolicyInterfaceD0Ev
|| __TEXT.__text __ZN23CellularPolicyInterfaceD1Ev
|| __TEXT.__text __ZN23CellularPolicyInterfaceD2Ev
|| __TEXT.__text __ZN23DataAPNSettingsObserverD0Ev
|| __TEXT.__text __ZN23DataAPNSettingsObserverD1Ev
|| __TEXT.__text __ZN23DataAPNSettingsObserverD2Ev
|| __TEXT.__text __ZN23DesenseFactoryInterfaceD0Ev
|| __TEXT.__text __ZN23DesenseFactoryInterfaceD1Ev
|| __TEXT.__text __ZN23DesenseFactoryInterfaceD2Ev
|| __TEXT.__text __ZN23GestaltUtilityInterfaceD0Ev
|| __TEXT.__text __ZN23GestaltUtilityInterfaceD1Ev
|| __TEXT.__text __ZN23GestaltUtilityInterfaceD2Ev
|| __TEXT.__text __ZN23LaunchServicesInterfaceD0Ev
|| __TEXT.__text __ZN23LaunchServicesInterfaceD1Ev
|| __TEXT.__text __ZN23LaunchServicesInterfaceD2Ev
|| __TEXT.__text __ZN23LoggingProfileInterfaceC2ERKNSt3__110shared_ptrIK8RegistryEE
|| __TEXT.__text __ZN23LoggingProfileInterfaceD0Ev
|| __TEXT.__text __ZN23LoggingProfileInterfaceD1Ev
|| __TEXT.__text __ZN23LoggingProfileInterfaceD2Ev
|| __TEXT.__text __ZN23NAISelectorMgrInterfaceD0Ev
|| __TEXT.__text __ZN23NAISelectorMgrInterfaceD1Ev
|| __TEXT.__text __ZN23NAISelectorMgrInterfaceD2Ev
|| __TEXT.__text __ZN23PersonalityShopDelegateD0Ev
|| __TEXT.__text __ZN23PersonalityShopDelegateD1Ev
|| __TEXT.__text __ZN23PersonalityShopDelegateD2Ev
|| __TEXT.__text __ZN23PersonalitySpecificImplC1ERKNSt3__110shared_ptrIK15PersonalityInfoEE
|| __TEXT.__text __ZN23PersonalitySpecificImplC2ERKNSt3__110shared_ptrIK15PersonalityInfoEE
|| __TEXT.__text __ZN23PersonalitySpecificImplD0Ev
|| __TEXT.__text __ZN23PersonalitySpecificImplD1Ev
|| __TEXT.__text __ZN23PersonalitySpecificImplD2Ev
|| __TEXT.__text __ZN23PhonebookModelInterfaceD0Ev
|| __TEXT.__text __ZN23PhonebookModelInterfaceD1Ev
|| __TEXT.__text __ZN23PhonebookModelInterfaceD2Ev
|| __TEXT.__text __ZN23PowerAssertionInterfaceD0Ev
|| __TEXT.__text __ZN23PowerAssertionInterfaceD1Ev
|| __TEXT.__text __ZN23PowerAssertionInterfaceD2Ev
|| __TEXT.__text __ZN23RequestDumpStatePayloadC1ENSt3__112basic_stringIcNS0_11char_traitsIcEENS0_9allocatorIcEEEEbNS0_6chrono8durationIxNS0_5ratioILl1ELl1000EEEEEbb16DumpStateTrigger
|| __TEXT.__text __ZN23RequestDumpStatePayloadC2ENSt3__112basic_stringIcNS0_11char_traitsIcEENS0_9allocatorIcEEEEbNS0_6chrono8durationIxNS0_5ratioILl1ELl1000EEEEEbb16DumpStateTrigger
|| __TEXT.__text __ZN23RoamingNetworkInterfaceD0Ev
|| __TEXT.__text __ZN23RoamingNetworkInterfaceD1Ev
|| __TEXT.__text __ZN23RoamingNetworkInterfaceD2Ev
|| __TEXT.__text __ZN23SignalStrengthInterfaceD0Ev
|| __TEXT.__text __ZN23SignalStrengthInterfaceD1Ev
|| __TEXT.__text __ZN23SignalStrengthInterfaceD2Ev
|| __TEXT.__text __ZN23SystemObserverInterfaceD0Ev
|| __TEXT.__text __ZN23SystemObserverInterfaceD1Ev
|| __TEXT.__text __ZN23SystemObserverInterfaceD2Ev
|| __TEXT.__text __ZN23TechDataConfigInterfaceD0Ev
|| __TEXT.__text __ZN23TechDataConfigInterfaceD1Ev
|| __TEXT.__text __ZN23TechDataConfigInterfaceD2Ev
|| __TEXT.__text __ZN23VinylControllerDelegateD0Ev
|| __TEXT.__text __ZN23VinylControllerDelegateD1Ev
|| __TEXT.__text __ZN23VinylControllerDelegateD2Ev
|| __TEXT.__text __ZN24ActivationModelInterfaceD0Ev
|| __TEXT.__text __ZN24ActivationModelInterfaceD1Ev
|| __TEXT.__text __ZN24ActivationModelInterfaceD2Ev
|| __TEXT.__text __ZN24AttachApnModuleInterface18triggerBundleCheckEb
|| __TEXT.__text __ZN24AttachApnModuleInterface21pushAttachAPNSettingsEN8dispatch5queueEU13block_pointerFvvE
|| __TEXT.__text __ZN24AttachApnModuleInterfaceD0Ev
|| __TEXT.__text __ZN24AttachApnModuleInterfaceD1Ev
|| __TEXT.__text __ZN24AttachApnModuleInterfaceD2Ev
|| __TEXT.__text __ZN24BundleUtilitiesInterfaceD0Ev
|| __TEXT.__text __ZN24BundleUtilitiesInterfaceD1Ev
|| __TEXT.__text __ZN24BundleUtilitiesInterfaceD2Ev
|| __TEXT.__text __ZN24C2KRegistrationInterfaceD0Ev
|| __TEXT.__text __ZN24C2KRegistrationInterfaceD1Ev
|| __TEXT.__text __ZN24C2KRegistrationInterfaceD2Ev
|| __TEXT.__text __ZN24CarrierSettingsInterfaceD0Ev
|| __TEXT.__text __ZN24CarrierSettingsInterfaceD1Ev
|| __TEXT.__text __ZN24CarrierSettingsInterfaceD2Ev
|| __TEXT.__text __ZN24DataWifiMonitorInterfaceD0Ev
|| __TEXT.__text __ZN24DataWifiMonitorInterfaceD1Ev
|| __TEXT.__text __ZN24DataWifiMonitorInterfaceD2Ev
|| __TEXT.__text __ZN24EMBMSControllerInterfaceC2Ev
|| __TEXT.__text __ZN24EMBMSControllerInterfaceD0Ev
|| __TEXT.__text __ZN24EMBMSControllerInterfaceD1Ev
|| __TEXT.__text __ZN24EMBMSControllerInterfaceD2Ev
|| __TEXT.__text __ZN24IMSClientEventDispatcher18dispatchEvent_syncE14IMSClientEventN3ctu2cf11CFSharedRefIK14__CFDictionaryEE
|| __TEXT.__text __ZN24IMSClientEventDispatcher20registerHandler_syncE14IMSClientEventNSt3__18functionIFvN3ctu2cf11CFSharedRefIK14__CFDictionaryEEEEE
|| __TEXT.__text __ZN24SettingsFactoryInterfaceD0Ev
|| __TEXT.__text __ZN24SettingsFactoryInterfaceD1Ev
|| __TEXT.__text __ZN24SettingsFactoryInterfaceD2Ev
|| __TEXT.__text __ZN24TransportMasterInterfaceC2Ev
|| __TEXT.__text __ZN24TransportMasterInterfaceD0Ev
|| __TEXT.__text __ZN24TransportMasterInterfaceD1Ev
|| __TEXT.__text __ZN24TransportMasterInterfaceD2Ev
|| __TEXT.__text __ZN24UMTSProvisioningSlotInfo10PriVersionC1Ev
|| __TEXT.__text __ZN24UMTSProvisioningSlotInfo10PriVersionC2Ev
|| __TEXT.__text __ZN24UMTSProvisioningSlotInfoC1Ev
|| __TEXT.__text __ZN24UMTSProvisioningSlotInfoC2Ev
|| __TEXT.__text __ZN25AttachApnManagerInterface17getPushCount_syncEv
|| __TEXT.__text __ZN25AttachApnManagerInterface23incSharedPushCount_syncEv
|| __TEXT.__text __ZN25AttachApnManagerInterfaceD0Ev
|| __TEXT.__text __ZN25AttachApnManagerInterfaceD1Ev
|| __TEXT.__text __ZN25AttachApnManagerInterfaceD2Ev
|| __TEXT.__text __ZN25BasebandSettingsInterfaceD0Ev
|| __TEXT.__text __ZN25BasebandSettingsInterfaceD1Ev
|| __TEXT.__text __ZN25BasebandSettingsInterfaceD2Ev
|| __TEXT.__text __ZN25CSIEventObserverInterfaceD0Ev
|| __TEXT.__text __ZN25CSIEventObserverInterfaceD1Ev
|| __TEXT.__text __ZN25CSIEventObserverInterfaceD2Ev
|| __TEXT.__text __ZN25CallAudioServiceInterfaceD0Ev
|| __TEXT.__text __ZN25CallAudioServiceInterfaceD1Ev
|| __TEXT.__text __ZN25CallAudioServiceInterfaceD2Ev
|| __TEXT.__text __ZN25CarrierBundleSOSInterfaceD0Ev
|| __TEXT.__text __ZN25CarrierBundleSOSInterfaceD1Ev
|| __TEXT.__text __ZN25CarrierBundleSOSInterfaceD2Ev
|| __TEXT.__text __ZN25CellMonitorModelInterfaceD0Ev
|| __TEXT.__text __ZN25CellMonitorModelInterfaceD1Ev
|| __TEXT.__text __ZN25CellMonitorModelInterfaceD2Ev
|| __TEXT.__text __ZN25DataUsageFactoryInterfaceD0Ev
|| __TEXT.__text __ZN25DataUsageFactoryInterfaceD1Ev
|| __TEXT.__text __ZN25DataUsageFactoryInterfaceD2Ev
|| __TEXT.__text __ZN25EmergencyManagerInterface13prepareToCallEv
|| __TEXT.__text __ZN25EmergencyManagerInterfaceD0Ev
|| __TEXT.__text __ZN25EmergencyManagerInterfaceD1Ev
|| __TEXT.__text __ZN25EmergencyManagerInterfaceD2Ev
|| __TEXT.__text __ZN25EmergencyNumbersInterfaceD0Ev
|| __TEXT.__text __ZN25EmergencyNumbersInterfaceD1Ev
|| __TEXT.__text __ZN25EmergencyNumbersInterfaceD2Ev
|| __TEXT.__text __ZN25IoKitPowerSourceInterfaceD0Ev
|| __TEXT.__text __ZN25IoKitPowerSourceInterfaceD1Ev
|| __TEXT.__text __ZN25IoKitPowerSourceInterfaceD2Ev
|| __TEXT.__text __ZN25LocationDatabaseInterfaceD0Ev
|| __TEXT.__text __ZN25LocationDatabaseInterfaceD1Ev
|| __TEXT.__text __ZN25LocationDatabaseInterfaceD2Ev
|| __TEXT.__text __ZN25MobileActivationInterfaceD0Ev
|| __TEXT.__text __ZN25MobileActivationInterfaceD1Ev
|| __TEXT.__text __ZN25MobileActivationInterfaceD2Ev
|| __TEXT.__text __ZN25NetworkListEventInterfaceD0Ev
|| __TEXT.__text __ZN25NetworkListEventInterfaceD1Ev
|| __TEXT.__text __ZN25NetworkListEventInterfaceD2Ev
|| __TEXT.__text __ZN25NetworkListModelInterfaceD0Ev
|| __TEXT.__text __ZN25NetworkListModelInterfaceD1Ev
|| __TEXT.__text __ZN25NetworkListModelInterfaceD2Ev
|| __TEXT.__text __ZN25NetworkNameModelInterfaceD0Ev
|| __TEXT.__text __ZN25NetworkNameModelInterfaceD1Ev
|| __TEXT.__text __ZN25NetworkNameModelInterfaceD2Ev
|| __TEXT.__text __ZN25Peer2PeerFactoryInterfaceD0Ev
|| __TEXT.__text __ZN25Peer2PeerFactoryInterfaceD1Ev
|| __TEXT.__text __ZN25Peer2PeerFactoryInterfaceD2Ev
|| __TEXT.__text __ZN25PhonebookFactoryInterfaceD0Ev
|| __TEXT.__text __ZN25PhonebookFactoryInterfaceD1Ev
|| __TEXT.__text __ZN25PhonebookFactoryInterfaceD2Ev
|| __TEXT.__text __ZN25RegistrationTimeInterfaceD0Ev
|| __TEXT.__text __ZN25RegistrationTimeInterfaceD1Ev
|| __TEXT.__text __ZN25RegistrationTimeInterfaceD2Ev
|| __TEXT.__text __ZN25TimeHandlerModelInterfaceD0Ev
|| __TEXT.__text __ZN25TimeHandlerModelInterfaceD1Ev
|| __TEXT.__text __ZN25TimeHandlerModelInterfaceD2Ev
|| __TEXT.__text __ZN25WidgetControllerInterfaceD0Ev
|| __TEXT.__text __ZN25WidgetControllerInterfaceD1Ev
|| __TEXT.__text __ZN25WidgetControllerInterfaceD2Ev
|| __TEXT.__text __ZN26APNStorageFactoryInterfaceD0Ev
|| __TEXT.__text __ZN26APNStorageFactoryInterfaceD1Ev
|| __TEXT.__text __ZN26APNStorageFactoryInterfaceD2Ev
|| __TEXT.__text __ZN26ActivationFactoryInterfaceD0Ev
|| __TEXT.__text __ZN26ActivationFactoryInterfaceD1Ev
|| __TEXT.__text __ZN26ActivationFactoryInterfaceD2Ev
|| __TEXT.__text __ZN26CTXPCNotificationInterfaceD0Ev
|| __TEXT.__text __ZN26CTXPCNotificationInterfaceD1Ev
|| __TEXT.__text __ZN26CTXPCNotificationInterfaceD2Ev
|| __TEXT.__text __ZN26DisallowedNumbersInterfaceD0Ev
|| __TEXT.__text __ZN26DisallowedNumbersInterfaceD1Ev
|| __TEXT.__text __ZN26DisallowedNumbersInterfaceD2Ev
|| __TEXT.__text __ZN26MachineIdProviderInterfaceD0Ev
|| __TEXT.__text __ZN26MachineIdProviderInterfaceD1Ev
|| __TEXT.__text __ZN26MachineIdProviderInterfaceD2Ev
|| __TEXT.__text __ZN26PeriodicSchedulerInterfaceD0Ev
|| __TEXT.__text __ZN26PeriodicSchedulerInterfaceD1Ev
|| __TEXT.__text __ZN26PeriodicSchedulerInterfaceD2Ev
|| __TEXT.__text __ZN26PersonalitiesTrackerHookupD0Ev
|| __TEXT.__text __ZN26PersonalitiesTrackerHookupD1Ev
|| __TEXT.__text __ZN26PersonalitiesTrackerHookupD2Ev
|| __TEXT.__text __ZN26RegistrationEventInterfaceD0Ev
|| __TEXT.__text __ZN26RegistrationEventInterfaceD1Ev
|| __TEXT.__text __ZN26RegistrationEventInterfaceD2Ev
|| __TEXT.__text __ZN26RegistrationModelInterfaceD0Ev
|| __TEXT.__text __ZN26RegistrationModelInterfaceD1Ev
|| __TEXT.__text __ZN26RegistrationModelInterfaceD2Ev
|| __TEXT.__text __ZN26SubscriberFactoryInterfaceD0Ev
|| __TEXT.__text __ZN26SubscriberFactoryInterfaceD1Ev
|| __TEXT.__text __ZN26SubscriberFactoryInterfaceD2Ev
|| __TEXT.__text __ZN26SubscriberTrackerInterfaceD0Ev
|| __TEXT.__text __ZN26SubscriberTrackerInterfaceD1Ev
|| __TEXT.__text __ZN26SubscriberTrackerInterfaceD2Ev
|| __TEXT.__text __ZN26SubscriberUtilityInterfaceD0Ev
|| __TEXT.__text __ZN26SubscriberUtilityInterfaceD1Ev
|| __TEXT.__text __ZN26SubscriberUtilityInterfaceD2Ev
|| __TEXT.__text __ZN26TelephonyOndemandInterfaceD0Ev
|| __TEXT.__text __ZN26TelephonyOndemandInterfaceD1Ev
|| __TEXT.__text __ZN26TelephonyOndemandInterfaceD2Ev
|| __TEXT.__text __ZN27BasebandControllerInterfaceD0Ev
|| __TEXT.__text __ZN27BasebandControllerInterfaceD1Ev
|| __TEXT.__text __ZN27BasebandControllerInterfaceD2Ev
|| __TEXT.__text __ZN27BasebandModeActionDoNothing4initEN8dispatch5queueE
|| __TEXT.__text __ZN27BasebandModeActionDoNothing4stopEv
|| __TEXT.__text __ZN27BasebandModeActionDoNothing5startEv
|| __TEXT.__text __ZN27BasebandModeActionDoNothing8shutdownEv
|| __TEXT.__text __ZN27BatteryMeasurementInterfaceD0Ev
|| __TEXT.__text __ZN27BatteryMeasurementInterfaceD1Ev
|| __TEXT.__text __ZN27BatteryMeasurementInterfaceD2Ev
|| __TEXT.__text __ZN27BiometricKitDeviceInterfaceD0Ev
|| __TEXT.__text __ZN27BiometricKitDeviceInterfaceD1Ev
|| __TEXT.__text __ZN27BiometricKitDeviceInterfaceD2Ev
|| __TEXT.__text __ZN27CallMetricsUtilityInterfaceD0Ev
|| __TEXT.__text __ZN27CallMetricsUtilityInterfaceD1Ev
|| __TEXT.__text __ZN27CallMetricsUtilityInterfaceD2Ev
|| __TEXT.__text __ZN27CarrierBundleCacheInterfaceD0Ev
|| __TEXT.__text __ZN27CarrierBundleCacheInterfaceD1Ev
|| __TEXT.__text __ZN27CarrierBundleCacheInterfaceD2Ev
|| __TEXT.__text __ZN27CarrierSpaceServerInterfaceD0Ev
|| __TEXT.__text __ZN27CarrierSpaceServerInterfaceD1Ev
|| __TEXT.__text __ZN27CarrierSpaceServerInterfaceD2Ev
|| __TEXT.__text __ZN27CellMonitorFactoryInterfaceD0Ev
|| __TEXT.__text __ZN27CellMonitorFactoryInterfaceD1Ev
|| __TEXT.__text __ZN27CellMonitorFactoryInterfaceD2Ev
|| __TEXT.__text __ZN27DataConnectionAgentObserverD0Ev
|| __TEXT.__text __ZN27DataConnectionAgentObserverD1Ev
|| __TEXT.__text __ZN27DataConnectionAgentObserverD2Ev
|| __TEXT.__text __ZN27DataNetworkMonitorInterfaceD0Ev
|| __TEXT.__text __ZN27DataNetworkMonitorInterfaceD1Ev
|| __TEXT.__text __ZN27DataNetworkMonitorInterfaceD2Ev
|| __TEXT.__text __ZN27DataServiceFactoryInterfaceD0Ev
|| __TEXT.__text __ZN27DataServiceFactoryInterfaceD1Ev
|| __TEXT.__text __ZN27DataServiceFactoryInterfaceD2Ev
|| __TEXT.__text __ZN27DataiRatControllerInterface10getAppTypeE18DataConnectionType
|| __TEXT.__text __ZN27DataiRatControllerInterface17isCriticalAppTypeE19IRatApplicationType
|| __TEXT.__text __ZN27DataiRatControllerInterface19getCriticalConnTypeE19IRatApplicationType
|| __TEXT.__text __ZN27DataiRatControllerInterfaceD0Ev
|| __TEXT.__text __ZN27DataiRatControllerInterfaceD1Ev
|| __TEXT.__text __ZN27DataiRatControllerInterfaceD2Ev
|| __TEXT.__text __ZN27FollowUpControllerInterfaceD0Ev
|| __TEXT.__text __ZN27FollowUpControllerInterfaceD1Ev
|| __TEXT.__text __ZN27FollowUpControllerInterfaceD2Ev
|| __TEXT.__text __ZN27HttpRequestFactoryInterfaceD0Ev
|| __TEXT.__text __ZN27HttpRequestFactoryInterfaceD1Ev
|| __TEXT.__text __ZN27HttpRequestFactoryInterfaceD2Ev
|| __TEXT.__text __ZN27NetworkListFactoryInterfaceD0Ev
|| __TEXT.__text __ZN27NetworkListFactoryInterfaceD1Ev
|| __TEXT.__text __ZN27NetworkListFactoryInterfaceD2Ev
|| __TEXT.__text __ZN27NetworkNameFactoryInterfaceD0Ev
|| __TEXT.__text __ZN27NetworkNameFactoryInterfaceD1Ev
|| __TEXT.__text __ZN27NetworkNameFactoryInterfaceD2Ev
|| __TEXT.__text __ZN27PowerSourceFactoryInterfaceD0Ev
|| __TEXT.__text __ZN27PowerSourceFactoryInterfaceD1Ev
|| __TEXT.__text __ZN27PowerSourceFactoryInterfaceD2Ev
|| __TEXT.__text __ZN27TelephonyAnalyticsInterfaceD0Ev
|| __TEXT.__text __ZN27TelephonyAnalyticsInterfaceD1Ev
|| __TEXT.__text __ZN27TelephonyAnalyticsInterfaceD2Ev
|| __TEXT.__text __ZN27TimeHandlerFactoryInterfaceD0Ev
|| __TEXT.__text __ZN27TimeHandlerFactoryInterfaceD1Ev
|| __TEXT.__text __ZN27TimeHandlerFactoryInterfaceD2Ev
|| __TEXT.__text __ZN27UserRoamingSettingInterfaceD0Ev
|| __TEXT.__text __ZN27UserRoamingSettingInterfaceD1Ev
|| __TEXT.__text __ZN27UserRoamingSettingInterfaceD2Ev
|| __TEXT.__text __ZN27WeaGeofenceManagerInterfaceD0Ev
|| __TEXT.__text __ZN27WeaGeofenceManagerInterfaceD1Ev
|| __TEXT.__text __ZN27WeaGeofenceManagerInterfaceD2Ev
|| __TEXT.__text __ZN28ActivationPushModelInterfaceD0Ev
|| __TEXT.__text __ZN28ActivationPushModelInterfaceD1Ev
|| __TEXT.__text __ZN28ActivationPushModelInterfaceD2Ev
|| __TEXT.__text __ZN28BiometricKitFactoryInterfaceD0Ev
|| __TEXT.__text __ZN28BiometricKitFactoryInterfaceD1Ev
|| __TEXT.__text __ZN28BiometricKitFactoryInterfaceD2Ev
|| __TEXT.__text __ZN28CancelableUserAlertInterfaceD0Ev
|| __TEXT.__text __ZN28CancelableUserAlertInterfaceD1Ev
|| __TEXT.__text __ZN28CancelableUserAlertInterfaceD2Ev
|| __TEXT.__text __ZN28CarrierBundleServerInterfaceD0Ev
|| __TEXT.__text __ZN28CarrierBundleServerInterfaceD1Ev
|| __TEXT.__text __ZN28CarrierBundleServerInterfaceD2Ev
|| __TEXT.__text __ZN28CarrierBundleUpdateInterfaceD0Ev
|| __TEXT.__text __ZN28CarrierBundleUpdateInterfaceD1Ev
|| __TEXT.__text __ZN28CarrierBundleUpdateInterfaceD2Ev
|| __TEXT.__text __ZN28CarrierSpaceFactoryInterfaceD0Ev
|| __TEXT.__text __ZN28CarrierSpaceFactoryInterfaceD1Ev
|| __TEXT.__text __ZN28CarrierSpaceFactoryInterfaceD2Ev
|| __TEXT.__text __ZN28CellBroadcastConfigInterfaceD0Ev
|| __TEXT.__text __ZN28CellBroadcastConfigInterfaceD1Ev
|| __TEXT.__text __ZN28CellBroadcastConfigInterfaceD2Ev
|| __TEXT.__text __ZN28DataConnectionAgentInterfaceC2ENSt3__110shared_ptrIK8RegistryEEN8dispatch5queueEPKcS8_
|| __TEXT.__text __ZN28DataConnectionAgentInterfaceD0Ev
|| __TEXT.__text __ZN28DataConnectionAgentInterfaceD1Ev
|| __TEXT.__text __ZN28DataConnectionAgentInterfaceD2Ev
|| __TEXT.__text __ZN28DtmfHandlerDelegateInterfaceD0Ev
|| __TEXT.__text __ZN28DtmfHandlerDelegateInterfaceD1Ev
|| __TEXT.__text __ZN28DtmfHandlerDelegateInterfaceD2Ev
|| __TEXT.__text __ZN28LocalAuthenticationInterfaceD0Ev
|| __TEXT.__text __ZN28LocalAuthenticationInterfaceD1Ev
|| __TEXT.__text __ZN28LocalAuthenticationInterfaceD2Ev
|| __TEXT.__text __ZN28NanoPreferencesSyncInterfaceD0Ev
|| __TEXT.__text __ZN28NanoPreferencesSyncInterfaceD1Ev
|| __TEXT.__text __ZN28NanoPreferencesSyncInterfaceD2Ev
|| __TEXT.__text __ZN28NetworkPolicyDriverInterfaceD0Ev
|| __TEXT.__text __ZN28NetworkPolicyDriverInterfaceD1Ev
|| __TEXT.__text __ZN28NetworkPolicyDriverInterfaceD2Ev
|| __TEXT.__text __ZN28RegistrationFactoryInterfaceD0Ev
|| __TEXT.__text __ZN28RegistrationFactoryInterfaceD1Ev
|| __TEXT.__text __ZN28RegistrationFactoryInterfaceD2Ev
|| __TEXT.__text __ZN28ServiceProvisioningInterfaceD0Ev
|| __TEXT.__text __ZN28ServiceProvisioningInterfaceD1Ev
|| __TEXT.__text __ZN28ServiceProvisioningInterfaceD2Ev
|| __TEXT.__text __ZN28SuppServicesFactoryInterfaceD0Ev
|| __TEXT.__text __ZN28SuppServicesFactoryInterfaceD1Ev
|| __TEXT.__text __ZN28SuppServicesFactoryInterfaceD2Ev
|| __TEXT.__text __ZN28TetheringControllerInterfaceC2Ev
|| __TEXT.__text __ZN28TetheringControllerInterfaceD0Ev
|| __TEXT.__text __ZN28TetheringControllerInterfaceD1Ev
|| __TEXT.__text __ZN28TetheringControllerInterfaceD2Ev
|| __TEXT.__text __ZN28USSDServiceDelegateInterfaceD0Ev
|| __TEXT.__text __ZN28USSDServiceDelegateInterfaceD1Ev
|| __TEXT.__text __ZN28USSDServiceDelegateInterfaceD2Ev
|| __TEXT.__text __ZN28UserAlertGenerationInterfaceD0Ev
|| __TEXT.__text __ZN28UserAlertGenerationInterfaceD1Ev
|| __TEXT.__text __ZN28UserAlertGenerationInterfaceD2Ev
|| __TEXT.__text __ZN28WeaLocationDelegateInterfaceD0Ev
|| __TEXT.__text __ZN28WeaLocationDelegateInterfaceD1Ev
|| __TEXT.__text __ZN28WeaLocationDelegateInterfaceD2Ev
|| __TEXT.__text __ZN29AKRemoteDeviceHelperInterfaceD0Ev
|| __TEXT.__text __ZN29AKRemoteDeviceHelperInterfaceD1Ev
|| __TEXT.__text __ZN29AKRemoteDeviceHelperInterfaceD2Ev
|| __TEXT.__text __ZN29ActivationPushHelperInterfaceD0Ev
|| __TEXT.__text __ZN29ActivationPushHelperInterfaceD1Ev
|| __TEXT.__text __ZN29ActivationPushHelperInterfaceD2Ev
|| __TEXT.__text __ZN29C2KRegistrationModelInterfaceD0Ev
|| __TEXT.__text __ZN29C2KRegistrationModelInterfaceD1Ev
|| __TEXT.__text __ZN29C2KRegistrationModelInterfaceD2Ev
|| __TEXT.__text __ZN29CTXPCPNRNotificationInterfaceD0Ev
|| __TEXT.__text __ZN29CTXPCPNRNotificationInterfaceD1Ev
|| __TEXT.__text __ZN29CTXPCPNRNotificationInterfaceD2Ev
|| __TEXT.__text __ZN29CTXPCSMSNotificationInterfaceD0Ev
|| __TEXT.__text __ZN29CTXPCSMSNotificationInterfaceD1Ev
|| __TEXT.__text __ZN29CTXPCSMSNotificationInterfaceD2Ev
|| __TEXT.__text __ZN29CarrierBundleFactoryInterfaceD0Ev
|| __TEXT.__text __ZN29CarrierBundleFactoryInterfaceD1Ev
|| __TEXT.__text __ZN29CarrierBundleFactoryInterfaceD2Ev
|| __TEXT.__text __ZN29CarrierBundleInstallInterfaceD0Ev
|| __TEXT.__text __ZN29CarrierBundleInstallInterfaceD1Ev
|| __TEXT.__text __ZN29CarrierBundleInstallInterfaceD2Ev
|| __TEXT.__text __ZN29CarrierBundleManagerInterfaceD0Ev
|| __TEXT.__text __ZN29CarrierBundleManagerInterfaceD1Ev
|| __TEXT.__text __ZN29CarrierBundleManagerInterfaceD2Ev
|| __TEXT.__text __ZN29CountryDeterminationInterfaceD0Ev
|| __TEXT.__text __ZN29CountryDeterminationInterfaceD1Ev
|| __TEXT.__text __ZN29CountryDeterminationInterfaceD2Ev
|| __TEXT.__text __ZN29EmergencyNumbersModelDelegateD0Ev
|| __TEXT.__text __ZN29EmergencyNumbersModelDelegateD1Ev
|| __TEXT.__text __ZN29EmergencyNumbersModelDelegateD2Ev
|| __TEXT.__text __ZN29IMSCallCommandDriverInterfaceD0Ev
|| __TEXT.__text __ZN29IMSCallCommandDriverInterfaceD1Ev
|| __TEXT.__text __ZN29IMSCallCommandDriverInterfaceD2Ev
|| __TEXT.__text __ZN29KeychainStoreFactoryInterfaceD0Ev
|| __TEXT.__text __ZN29KeychainStoreFactoryInterfaceD1Ev
|| __TEXT.__text __ZN29KeychainStoreFactoryInterfaceD2Ev
|| __TEXT.__text __ZN29ManagedConfigurationInterfaceD0Ev
|| __TEXT.__text __ZN29ManagedConfigurationInterfaceD1Ev
|| __TEXT.__text __ZN29ManagedConfigurationInterfaceD2Ev
|| __TEXT.__text __ZN29NWUsageSymAttributerInterfaceD0Ev
|| __TEXT.__text __ZN29NWUsageSymAttributerInterfaceD1Ev
|| __TEXT.__text __ZN29NWUsageSymAttributerInterfaceD2Ev
|| __TEXT.__text __ZN29NetworkAccessFactoryInterfaceD0Ev
|| __TEXT.__text __ZN29NetworkAccessFactoryInterfaceD1Ev
|| __TEXT.__text __ZN29NetworkAccessFactoryInterfaceD2Ev
|| __TEXT.__text __ZN29ServerUpdaterFactoryInterfaceD0Ev
|| __TEXT.__text __ZN29ServerUpdaterFactoryInterfaceD1Ev
|| __TEXT.__text __ZN29ServerUpdaterFactoryInterfaceD2Ev
|| __TEXT.__text __ZN29SetupAssistantHelperInterfaceD0Ev
|| __TEXT.__text __ZN29SetupAssistantHelperInterfaceD1Ev
|| __TEXT.__text __ZN29SetupAssistantHelperInterfaceD2Ev
|| __TEXT.__text __ZN2sd16isSimPersonalityERKNSt3__110shared_ptrIK8RegistryEERK13PersonalityID
|| __TEXT.__text __ZN2sd22imsServiceMaskToStringEy
|| __TEXT.__text __ZN2sd26IMSSubscriberEventDelegateD0Ev
|| __TEXT.__text __ZN2sd26IMSSubscriberEventDelegateD1Ev
|| __TEXT.__text __ZN2sd26IMSSubscriberEventDelegateD2Ev
|| __TEXT.__text __ZN2sd26IMSSubscriberModelDelegateD0Ev
|| __TEXT.__text __ZN2sd26IMSSubscriberModelDelegateD1Ev
|| __TEXT.__text __ZN2sd26IMSSubscriberModelDelegateD2Ev
|| __TEXT.__text __ZN2sd27IMSSubscriberEventInterfaceD0Ev
|| __TEXT.__text __ZN2sd27IMSSubscriberEventInterfaceD1Ev
|| __TEXT.__text __ZN2sd27IMSSubscriberEventInterfaceD2Ev
|| __TEXT.__text __ZN2sd27IMSSubscriberModelInterfaceD0Ev
|| __TEXT.__text __ZN2sd27IMSSubscriberModelInterfaceD1Ev
|| __TEXT.__text __ZN2sd27IMSSubscriberModelInterfaceD2Ev
|| __TEXT.__text __ZN2sd27imsRegFailureReasonToStringEN3ims16RegFailureReasonE
|| __TEXT.__text __ZN2sd28IMSSubscriberConfigInterfaceD0Ev
|| __TEXT.__text __ZN2sd28IMSSubscriberConfigInterfaceD1Ev
|| __TEXT.__text __ZN2sd28IMSSubscriberConfigInterfaceD2Ev
|| __TEXT.__text __ZN2sd28IMSSubscriberMetricsDelegateD0Ev
|| __TEXT.__text __ZN2sd28IMSSubscriberMetricsDelegateD1Ev
|| __TEXT.__text __ZN2sd28IMSSubscriberMetricsDelegateD2Ev
|| __TEXT.__text __ZN2sd29IMSConnHelperManagerInterfaceD0Ev
|| __TEXT.__text __ZN2sd29IMSConnHelperManagerInterfaceD1Ev
|| __TEXT.__text __ZN2sd29IMSConnHelperManagerInterfaceD2Ev
|| __TEXT.__text __ZN2sd29IMSSubscriberFactoryInterfaceD0Ev
|| __TEXT.__text __ZN2sd29IMSSubscriberFactoryInterfaceD1Ev
|| __TEXT.__text __ZN2sd29IMSSubscriberFactoryInterfaceD2Ev
|| __TEXT.__text __ZN2sd30IMSConnectivityHelperInterfaceD0Ev
|| __TEXT.__text __ZN2sd30IMSConnectivityHelperInterfaceD1Ev
|| __TEXT.__text __ZN2sd30IMSConnectivityHelperInterfaceD2Ev
|| __TEXT.__text __ZN2sd30ipTelephonyServiceMaskToStringEy
|| __TEXT.__text __ZN2sd34IMSConnectivityHelperEventDelegateD0Ev
|| __TEXT.__text __ZN2sd34IMSConnectivityHelperEventDelegateD1Ev
|| __TEXT.__text __ZN2sd34IMSConnectivityHelperEventDelegateD2Ev
|| __TEXT.__text __ZN2sd35IMSSubscriberMetricsHelperInterfaceD0Ev
|| __TEXT.__text __ZN2sd35IMSSubscriberMetricsHelperInterfaceD1Ev
|| __TEXT.__text __ZN2sd35IMSSubscriberMetricsHelperInterfaceD2Ev
|| __TEXT.__text __ZN2sd35IsDataConnectionImSupportedByDeviceERKNSt3__110shared_ptrIK8RegistryEE
|| __TEXT.__text __ZN2sd38imsServiceMaskToIpTelephonyServiceMaskEy
|| __TEXT.__text __ZN2sd38ipTelephonyServiceMaskToImsServiceMaskEj
|| __TEXT.__text __ZN2sd6UEInfo10DeviceInfo13updateSimInfoERK12BasicSimInfo
|| __TEXT.__text __ZN2sd6UEInfo10DeviceInfo5clearEv
|| __TEXT.__text __ZN2sd6UEInfo5clearEv
|| __TEXT.__text __ZN2sd6UEInfo8IsimInfo14markSimPresentEN5boost5logic7triboolE
|| __TEXT.__text __ZN2sd6UEInfo8IsimInfo5clearEv
|| __TEXT.__text __ZN2sd8asStringENS_22ConnectivityHelperTypeE
|| __TEXT.__text __ZN2sd8asStringENS_7RegMaskE
|| __TEXT.__text __ZN30BasebandSettingsModelInterfaceD0Ev
|| __TEXT.__text __ZN30BasebandSettingsModelInterfaceD1Ev
|| __TEXT.__text __ZN30BasebandSettingsModelInterfaceD2Ev
|| __TEXT.__text __ZN30CTWifiLocationFactoryInterfaceD0Ev
|| __TEXT.__text __ZN30CTWifiLocationFactoryInterfaceD1Ev
|| __TEXT.__text __ZN30CTWifiLocationFactoryInterfaceD2Ev
|| __TEXT.__text __ZN30CTXPCDataNotificationInterfaceD0Ev
|| __TEXT.__text __ZN30CTXPCDataNotificationInterfaceD1Ev
|| __TEXT.__text __ZN30CTXPCDataNotificationInterfaceD2Ev
|| __TEXT.__text __ZN30CarrierSpaceInfoModelInterfaceD0Ev
|| __TEXT.__text __ZN30CarrierSpaceInfoModelInterfaceD1Ev
|| __TEXT.__text __ZN30CarrierSpaceInfoModelInterfaceD2Ev
|| __TEXT.__text __ZN30IMSCallModelDriverDelegateBaseD0Ev
|| __TEXT.__text __ZN30IMSCallModelDriverDelegateBaseD1Ev
|| __TEXT.__text __ZN30IMSCallModelDriverDelegateBaseD2Ev
|| __TEXT.__text __ZN30IMSSuppServicesClientInterfaceD0Ev
|| __TEXT.__text __ZN30IMSSuppServicesClientInterfaceD1Ev
|| __TEXT.__text __ZN30IMSSuppServicesClientInterfaceD2Ev
|| __TEXT.__text __ZN30LaunchServicesFactoryInterfaceD0Ev
|| __TEXT.__text __ZN30LaunchServicesFactoryInterfaceD1Ev
|| __TEXT.__text __ZN30LaunchServicesFactoryInterfaceD2Ev
|| __TEXT.__text __ZN30PreferredNetworksCommandDriver7setImsiERKNSt3__112basic_stringIcNS0_11char_traitsIcEENS0_9allocatorIcEEEE
|| __TEXT.__text __ZN30PreferredNetworksCommandDriverC2ERKNSt3__110shared_ptrIK8RegistryEE
|| __TEXT.__text __ZN30PreferredNetworksCommandDriverD0Ev
|| __TEXT.__text __ZN30PreferredNetworksCommandDriverD1Ev
|| __TEXT.__text __ZN30PreferredNetworksCommandDriverD2Ev
|| __TEXT.__text __ZN30RoamingHandlerFactoryInterfaceD0Ev
|| __TEXT.__text __ZN30RoamingHandlerFactoryInterfaceD1Ev
|| __TEXT.__text __ZN30RoamingHandlerFactoryInterfaceD2Ev
|| __TEXT.__text __ZN30STKStateModelDelegateInterfaceD0Ev
|| __TEXT.__text __ZN30STKStateModelDelegateInterfaceD1Ev
|| __TEXT.__text __ZN30STKStateModelDelegateInterfaceD2Ev
|| __TEXT.__text __ZN30SignalStrengthFactoryInterfaceD0Ev
|| __TEXT.__text __ZN30SignalStrengthFactoryInterfaceD1Ev
|| __TEXT.__text __ZN30SignalStrengthFactoryInterfaceD2Ev
|| __TEXT.__text __ZN30SubscriberEventSenderInterfaceD0Ev
|| __TEXT.__text __ZN30SubscriberEventSenderInterfaceD1Ev
|| __TEXT.__text __ZN30SubscriberEventSenderInterfaceD2Ev
|| __TEXT.__text __ZN30TechDataConfigServiceInterfaceD0Ev
|| __TEXT.__text __ZN30TechDataConfigServiceInterfaceD1Ev
|| __TEXT.__text __ZN30TechDataConfigServiceInterfaceD2Ev
|| __TEXT.__text __ZN31AutoBugCaptureReporterInterfaceD0Ev
|| __TEXT.__text __ZN31AutoBugCaptureReporterInterfaceD1Ev
|| __TEXT.__text __ZN31AutoBugCaptureReporterInterfaceD2Ev
|| __TEXT.__text __ZN31CarrierBundleBOMCopierInterfaceD0Ev
|| __TEXT.__text __ZN31CarrierBundleBOMCopierInterfaceD1Ev
|| __TEXT.__text __ZN31CarrierBundleBOMCopierInterfaceD2Ev
|| __TEXT.__text __ZN31CarrierSpaceControllerInterfaceD0Ev
|| __TEXT.__text __ZN31CarrierSpaceControllerInterfaceD1Ev
|| __TEXT.__text __ZN31CarrierSpaceControllerInterfaceD2Ev
|| __TEXT.__text __ZN31CellMonitorDeviceStateInterfaceD0Ev
|| __TEXT.__text __ZN31CellMonitorDeviceStateInterfaceD1Ev
|| __TEXT.__text __ZN31CellMonitorDeviceStateInterfaceD2Ev
|| __TEXT.__text __ZN31CellularPlanMultiplexerDelegateD0Ev
|| __TEXT.__text __ZN31CellularPlanMultiplexerDelegateD1Ev
|| __TEXT.__text __ZN31CellularPlanMultiplexerDelegateD2Ev
|| __TEXT.__text __ZN31ES10TapeLoadBoundProfilePackage14getNextPayloadERNSt3__16vectorIhNS0_9allocatorIhEEEE
|| __TEXT.__text __ZN31ES10TapeLoadBoundProfilePackageC1ENSt3__16vectorIhNS0_9allocatorIhEEEE
|| __TEXT.__text __ZN31ES10TapeLoadBoundProfilePackageC2ENSt3__16vectorIhNS0_9allocatorIhEEEE
|| __TEXT.__text __ZN31IBICDMASettingsFactoryInterfaceD0Ev
|| __TEXT.__text __ZN31IBICDMASettingsFactoryInterfaceD1Ev
|| __TEXT.__text __ZN31IBICDMASettingsFactoryInterfaceD2Ev
|| __TEXT.__text __ZN31LinkQualityMetricModelInterfaceD0Ev
|| __TEXT.__text __ZN31LinkQualityMetricModelInterfaceD1Ev
|| __TEXT.__text __ZN31LinkQualityMetricModelInterfaceD2Ev
|| __TEXT.__text __ZN31QMICDMASettingsFactoryInterfaceD0Ev
|| __TEXT.__text __ZN31QMICDMASettingsFactoryInterfaceD1Ev
|| __TEXT.__text __ZN31QMICDMASettingsFactoryInterfaceD2Ev
|| __TEXT.__text __ZN31STKAlertSessionManagerInterfaceD0Ev
|| __TEXT.__text __ZN31STKAlertSessionManagerInterfaceD1Ev
|| __TEXT.__text __ZN31STKAlertSessionManagerInterfaceD2Ev
|| __TEXT.__text __ZN32ActivationCarrierBundleInterfaceD0Ev
|| __TEXT.__text __ZN32ActivationCarrierBundleInterfaceD1Ev
|| __TEXT.__text __ZN32ActivationCarrierBundleInterfaceD2Ev
|| __TEXT.__text __ZN32BasebandSettingsFactoryInterfaceD0Ev
|| __TEXT.__text __ZN32BasebandSettingsFactoryInterfaceD1Ev
|| __TEXT.__text __ZN32BasebandSettingsFactoryInterfaceD2Ev
|| __TEXT.__text __ZN32CSIEventObserverManagerInterfaceD0Ev
|| __TEXT.__text __ZN32CSIEventObserverManagerInterfaceD1Ev
|| __TEXT.__text __ZN32CSIEventObserverManagerInterfaceD2Ev
|| __TEXT.__text __ZN32CSIPersistentPropertiesInterfaceD0Ev
|| __TEXT.__text __ZN32CSIPersistentPropertiesInterfaceD1Ev
|| __TEXT.__text __ZN32CSIPersistentPropertiesInterfaceD2Ev
|| __TEXT.__text __ZN32CarrierBundleDownloaderInterfaceD0Ev
|| __TEXT.__text __ZN32CarrierBundleDownloaderInterfaceD1Ev
|| __TEXT.__text __ZN32CarrierBundleDownloaderInterfaceD2Ev
|| __TEXT.__text __ZN32CarrierBundleMatchProxyInterfaceD0Ev
|| __TEXT.__text __ZN32CarrierBundleMatchProxyInterfaceD1Ev
|| __TEXT.__text __ZN32CarrierBundleMatchProxyInterfaceD2Ev
|| __TEXT.__text __ZN32CarrierBundleWatchCacheInterfaceD0Ev
|| __TEXT.__text __ZN32CarrierBundleWatchCacheInterfaceD1Ev
|| __TEXT.__text __ZN32CarrierBundleWatchCacheInterfaceD2Ev
|| __TEXT.__text __ZN32CellularPlanMultiplexerInterfaceD0Ev
|| __TEXT.__text __ZN32CellularPlanMultiplexerInterfaceD1Ev
|| __TEXT.__text __ZN32CellularPlanMultiplexerInterfaceD2Ev
|| __TEXT.__text __ZN32MobileActivationFactoryInterfaceD0Ev
|| __TEXT.__text __ZN32MobileActivationFactoryInterfaceD1Ev
|| __TEXT.__text __ZN32MobileActivationFactoryInterfaceD2Ev
|| __TEXT.__text __ZN32PhoneNumberRegistrationInterfaceD0Ev
|| __TEXT.__text __ZN32PhoneNumberRegistrationInterfaceD1Ev
|| __TEXT.__text __ZN32PhoneNumberRegistrationInterfaceD2Ev
|| __TEXT.__text __ZN32RegistrationDeviceStateInterfaceD0Ev
|| __TEXT.__text __ZN32RegistrationDeviceStateInterfaceD1Ev
|| __TEXT.__text __ZN32RegistrationDeviceStateInterfaceD2Ev
|| __TEXT.__text __ZN32RegistrationTcpFallbackInterfaceD0Ev
|| __TEXT.__text __ZN32RegistrationTcpFallbackInterfaceD1Ev
|| __TEXT.__text __ZN32RegistrationTcpFallbackInterfaceD2Ev
|| __TEXT.__text __ZN32SuppServicesPreferencesInterfaceD0Ev
|| __TEXT.__text __ZN32SuppServicesPreferencesInterfaceD1Ev
|| __TEXT.__text __ZN32SuppServicesPreferencesInterfaceD2Ev
|| __TEXT.__text __ZN33CTXPCSubscriptionManagerInterfaceD0Ev
|| __TEXT.__text __ZN33CTXPCSubscriptionManagerInterfaceD1Ev
|| __TEXT.__text __ZN33CTXPCSubscriptionManagerInterfaceD2Ev
|| __TEXT.__text __ZN33CompanionPhoneNumberSyncInterfaceD0Ev
|| __TEXT.__text __ZN33CompanionPhoneNumberSyncInterfaceD1Ev
|| __TEXT.__text __ZN33CompanionPhoneNumberSyncInterfaceD2Ev
|| __TEXT.__text __ZN33IMSAuthenticationManagerInterfaceD0Ev
|| __TEXT.__text __ZN33IMSAuthenticationManagerInterfaceD1Ev
|| __TEXT.__text __ZN33IMSAuthenticationManagerInterfaceD2Ev
|| __TEXT.__text __ZN33NetworkTimeWindowFactoryInterfaceD0Ev
|| __TEXT.__text __ZN33NetworkTimeWindowFactoryInterfaceD1Ev
|| __TEXT.__text __ZN33NetworkTimeWindowFactoryInterfaceD2Ev
|| __TEXT.__text __ZN33RegistrationNotificationInterfaceD0Ev
|| __TEXT.__text __ZN33RegistrationNotificationInterfaceD1Ev
|| __TEXT.__text __ZN33RegistrationNotificationInterfaceD2Ev
|| __TEXT.__text __ZN33SubscriberInfoControllerInterfaceD0Ev
|| __TEXT.__text __ZN33SubscriberInfoControllerInterfaceD1Ev
|| __TEXT.__text __ZN33SubscriberInfoControllerInterfaceD2Ev
|| __TEXT.__text __ZN33SubscriberTrackerFactoryInterfaceD0Ev
|| __TEXT.__text __ZN33SubscriberTrackerFactoryInterfaceD1Ev
|| __TEXT.__text __ZN33SubscriberTrackerFactoryInterfaceD2Ev
|| __TEXT.__text __ZN33TelephonyOndemandFactoryInterfaceD0Ev
|| __TEXT.__text __ZN33TelephonyOndemandFactoryInterfaceD1Ev
|| __TEXT.__text __ZN33TelephonyOndemandFactoryInterfaceD2Ev
|| __TEXT.__text __ZN34BasebandControllerFactoryInterfaceD0Ev
|| __TEXT.__text __ZN34BasebandControllerFactoryInterfaceD1Ev
|| __TEXT.__text __ZN34BasebandControllerFactoryInterfaceD2Ev
|| __TEXT.__text __ZN34CarrierBundleFileTransferInterfaceD0Ev
|| __TEXT.__text __ZN34CarrierBundleFileTransferInterfaceD1Ev
|| __TEXT.__text __ZN34CarrierBundleFileTransferInterfaceD2Ev
|| __TEXT.__text __ZN34CellBroadcastMessageStoreInterfaceD0Ev
|| __TEXT.__text __ZN34CellBroadcastMessageStoreInterfaceD1Ev
|| __TEXT.__text __ZN34CellBroadcastMessageStoreInterfaceD2Ev
|| __TEXT.__text __ZN34CellularPlanDatabaseStoreInterfaceD0Ev
|| __TEXT.__text __ZN34CellularPlanDatabaseStoreInterfaceD1Ev
|| __TEXT.__text __ZN34CellularPlanDatabaseStoreInterfaceD2Ev
|| __TEXT.__text __ZN34MessageCenterModelFactoryInterfaceD0Ev
|| __TEXT.__text __ZN34MessageCenterModelFactoryInterfaceD1Ev
|| __TEXT.__text __ZN34MessageCenterModelFactoryInterfaceD2Ev
|| __TEXT.__text __ZN34NetworkAccessPolicyServerInterfaceD0Ev
|| __TEXT.__text __ZN34NetworkAccessPolicyServerInterfaceD1Ev
|| __TEXT.__text __ZN34NetworkAccessPolicyServerInterfaceD2Ev
|| __TEXT.__text __ZN34PeriodicSchedulerDelegateInterfaceD0Ev
|| __TEXT.__text __ZN34PeriodicSchedulerDelegateInterfaceD1Ev
|| __TEXT.__text __ZN34PeriodicSchedulerDelegateInterfaceD2Ev
|| __TEXT.__text __ZN35AppleBasebandManagerClientInterfaceD0Ev
|| __TEXT.__text __ZN35AppleBasebandManagerClientInterfaceD1Ev
|| __TEXT.__text __ZN35AppleBasebandManagerClientInterfaceD2Ev
|| __TEXT.__text __ZN35CTXPCEmergencyNotificationInterfaceD0Ev
|| __TEXT.__text __ZN35CTXPCEmergencyNotificationInterfaceD1Ev
|| __TEXT.__text __ZN35CTXPCEmergencyNotificationInterfaceD2Ev
|| __TEXT.__text __ZN35CTXPCVoicemailNotificationInterfaceD0Ev
|| __TEXT.__text __ZN35CTXPCVoicemailNotificationInterfaceD1Ev
|| __TEXT.__text __ZN35CTXPCVoicemailNotificationInterfaceD2Ev
|| __TEXT.__text __ZN35DataSubscriptionControllerInterfaceD0Ev
|| __TEXT.__text __ZN35DataSubscriptionControllerInterfaceD1Ev
|| __TEXT.__text __ZN35DataSubscriptionControllerInterfaceD2Ev
|| __TEXT.__text __ZN35LocalAuthenticationFactoryInterfaceD0Ev
|| __TEXT.__text __ZN35LocalAuthenticationFactoryInterfaceD1Ev
|| __TEXT.__text __ZN35LocalAuthenticationFactoryInterfaceD2Ev
|| __TEXT.__text __ZN35MmsOperationWorkerDelegateInterfaceD0Ev
|| __TEXT.__text __ZN35MmsOperationWorkerDelegateInterfaceD1Ev
|| __TEXT.__text __ZN35MmsOperationWorkerDelegateInterfaceD2Ev
|| __TEXT.__text __ZN35NanoPreferencesSyncFactoryInterfaceD0Ev
|| __TEXT.__text __ZN35NanoPreferencesSyncFactoryInterfaceD1Ev
|| __TEXT.__text __ZN35NanoPreferencesSyncFactoryInterfaceD2Ev
|| __TEXT.__text __ZN35SilenceAssertionControllerInterfaceD0Ev
|| __TEXT.__text __ZN35SilenceAssertionControllerInterfaceD1Ev
|| __TEXT.__text __ZN35SilenceAssertionControllerInterfaceD2Ev
|| __TEXT.__text __ZN35SubscriberUserAlertFactoryInterfaceD0Ev
|| __TEXT.__text __ZN35SubscriberUserAlertFactoryInterfaceD1Ev
|| __TEXT.__text __ZN35SubscriberUserAlertFactoryInterfaceD2Ev
|| __TEXT.__text __ZN35SubscriberUserAlertManagerInterfaceD0Ev
|| __TEXT.__text __ZN35SubscriberUserAlertManagerInterfaceD1Ev
|| __TEXT.__text __ZN35SubscriberUserAlertManagerInterfaceD2Ev
|| __TEXT.__text __ZN35SystemConfigurationFactoryInterfaceD0Ev
|| __TEXT.__text __ZN35SystemConfigurationFactoryInterfaceD1Ev
|| __TEXT.__text __ZN35SystemConfigurationFactoryInterfaceD2Ev
|| __TEXT.__text __ZN35SystemDeterminationManagerInterfaceD0Ev
|| __TEXT.__text __ZN35SystemDeterminationManagerInterfaceD1Ev
|| __TEXT.__text __ZN35SystemDeterminationManagerInterfaceD2Ev
|| __TEXT.__text __ZN35UserNotificationControllerInterfaceD0Ev
|| __TEXT.__text __ZN35UserNotificationControllerInterfaceD1Ev
|| __TEXT.__text __ZN35UserNotificationControllerInterfaceD2Ev
|| __TEXT.__text __ZN36BasebandSettingsDeviceStateInterfaceD0Ev
|| __TEXT.__text __ZN36BasebandSettingsDeviceStateInterfaceD1Ev
|| __TEXT.__text __ZN36BasebandSettingsDeviceStateInterfaceD2Ev
|| __TEXT.__text __ZN36CTXPCSubscriberNotificationInterfaceD0Ev
|| __TEXT.__text __ZN36CTXPCSubscriberNotificationInterfaceD1Ev
|| __TEXT.__text __ZN36CTXPCSubscriberNotificationInterfaceD2Ev
|| __TEXT.__text __ZN36CarrierSpaceAuthFlowManagerInterfaceD0Ev
|| __TEXT.__text __ZN36CarrierSpaceAuthFlowManagerInterfaceD1Ev
|| __TEXT.__text __ZN36CarrierSpaceAuthFlowManagerInterfaceD2Ev
|| __TEXT.__text __ZN36CarrierSpaceTestModeManagerInterfaceD0Ev
|| __TEXT.__text __ZN36CarrierSpaceTestModeManagerInterfaceD1Ev
|| __TEXT.__text __ZN36CarrierSpaceTestModeManagerInterfaceD2Ev
|| __TEXT.__text __ZN36DataUsageControllerFGHelperInterfaceD0Ev
|| __TEXT.__text __ZN36DataUsageControllerFGHelperInterfaceD1Ev
|| __TEXT.__text __ZN36DataUsageControllerFGHelperInterfaceD2Ev
|| __TEXT.__text __ZN36EmergencyCallManagerFactoryInterfaceD0Ev
|| __TEXT.__text __ZN36EmergencyCallManagerFactoryInterfaceD1Ev
|| __TEXT.__text __ZN36EmergencyCallManagerFactoryInterfaceD2Ev
|| __TEXT.__text __ZN36NetworkAccessFactoryFactoryInterfaceD0Ev
|| __TEXT.__text __ZN36NetworkAccessFactoryFactoryInterfaceD1Ev
|| __TEXT.__text __ZN36NetworkAccessFactoryFactoryInterfaceD2Ev
|| __TEXT.__text __ZN36SettingsNotificationHandlerInterfaceD0Ev
|| __TEXT.__text __ZN36SettingsNotificationHandlerInterfaceD1Ev
|| __TEXT.__text __ZN36SettingsNotificationHandlerInterfaceD2Ev
|| __TEXT.__text __ZN36SignalStrengthModelDelegateInterfaceD0Ev
|| __TEXT.__text __ZN36SignalStrengthModelDelegateInterfaceD1Ev
|| __TEXT.__text __ZN36SignalStrengthModelDelegateInterfaceD2Ev
|| __TEXT.__text __ZN37CarrierSpacePlanProvisioningInterfaceD0Ev
|| __TEXT.__text __ZN37CarrierSpacePlanProvisioningInterfaceD1Ev
|| __TEXT.__text __ZN37CarrierSpacePlanProvisioningInterfaceD2Ev
|| __TEXT.__text __ZN37EmergencyNumbersModelFactoryInterfaceD0Ev
|| __TEXT.__text __ZN37EmergencyNumbersModelFactoryInterfaceD1Ev
|| __TEXT.__text __ZN37EmergencyNumbersModelFactoryInterfaceD2Ev
|| __TEXT.__text __ZN37IMSCallModelCommandDriverDelegateBaseD0Ev
|| __TEXT.__text __ZN37IMSCallModelCommandDriverDelegateBaseD1Ev
|| __TEXT.__text __ZN37IMSCallModelCommandDriverDelegateBaseD2Ev
|| __TEXT.__text __ZN38BootstrapProvisioningDelegateInterfaceD0Ev
|| __TEXT.__text __ZN38BootstrapProvisioningDelegateInterfaceD1Ev
|| __TEXT.__text __ZN38BootstrapProvisioningDelegateInterfaceD2Ev
|| __TEXT.__text __ZN38CTXPCRegistrationNotificationInterfaceD0Ev
|| __TEXT.__text __ZN38CTXPCRegistrationNotificationInterfaceD1Ev
|| __TEXT.__text __ZN38CTXPCRegistrationNotificationInterfaceD2Ev
|| __TEXT.__text __ZN38CTXPCSuppServicesNotificationInterfaceD0Ev
|| __TEXT.__text __ZN38CTXPCSuppServicesNotificationInterfaceD1Ev
|| __TEXT.__text __ZN38CTXPCSuppServicesNotificationInterfaceD2Ev
|| __TEXT.__text __ZN39CTXPCCarrierBundleNotificationInterfaceD0Ev
|| __TEXT.__text __ZN39CTXPCCarrierBundleNotificationInterfaceD1Ev
|| __TEXT.__text __ZN39CTXPCCarrierBundleNotificationInterfaceD2Ev
|| __TEXT.__text __ZN39CTXPCNotificationSenderFactoryInterfaceD0Ev
|| __TEXT.__text __ZN39CTXPCNotificationSenderFactoryInterfaceD1Ev
|| __TEXT.__text __ZN39CTXPCNotificationSenderFactoryInterfaceD2Ev
|| __TEXT.__text __ZN39CellularPlanDatabaseControllerInterfaceD0Ev
|| __TEXT.__text __ZN39CellularPlanDatabaseControllerInterfaceD1Ev
|| __TEXT.__text __ZN39CellularPlanDatabaseControllerInterfaceD2Ev
|| __TEXT.__text __ZN39CoreUtilsMessageSessionHandlerInterfaceD0Ev
|| __TEXT.__text __ZN39CoreUtilsMessageSessionHandlerInterfaceD1Ev
|| __TEXT.__text __ZN39CoreUtilsMessageSessionHandlerInterfaceD2Ev
|| __TEXT.__text __ZN39LinkQualityMetricModelDelegateInterfaceD0Ev
|| __TEXT.__text __ZN39LinkQualityMetricModelDelegateInterfaceD1Ev
|| __TEXT.__text __ZN39LinkQualityMetricModelDelegateInterfaceD2Ev
|| __TEXT.__text __ZN39SubscriberRemoteUILaunchHelperInterfaceD0Ev
|| __TEXT.__text __ZN39SubscriberRemoteUILaunchHelperInterfaceD1Ev
|| __TEXT.__text __ZN39SubscriberRemoteUILaunchHelperInterfaceD2Ev
|| __TEXT.__text __ZN39TerminalRegistrationControllerInterfaceD0Ev
|| __TEXT.__text __ZN39TerminalRegistrationControllerInterfaceD1Ev
|| __TEXT.__text __ZN39TerminalRegistrationControllerInterfaceD2Ev
|| __TEXT.__text __ZN3MCC5clearEv
|| __TEXT.__text __ZN3MCCC1ERKNSt3__112basic_stringIcNS0_11char_traitsIcEENS0_9allocatorIcEEEE
|| __TEXT.__text __ZN3MCCC1Et
|| __TEXT.__text __ZN3MCCC1EtRKNSt3__112basic_stringIcNS0_11char_traitsIcEENS0_9allocatorIcEEEE
|| __TEXT.__text __ZN3MCCC1Ev
|| __TEXT.__text __ZN3MCCC2ERKNSt3__112basic_stringIcNS0_11char_traitsIcEENS0_9allocatorIcEEEE
|| __TEXT.__text __ZN3MCCC2Et
|| __TEXT.__text __ZN3MCCC2EtRKNSt3__112basic_stringIcNS0_11char_traitsIcEENS0_9allocatorIcEEEE
|| __TEXT.__text __ZN3MCCC2Ev
|| __TEXT.__text __ZN3MCCaSERKS_
|| __TEXT.__text __ZN3MNCC1ERKNSt3__112basic_stringIcNS0_11char_traitsIcEENS0_9allocatorIcEEEE
|| __TEXT.__text __ZN3MNCC1EtRK3MCC
|| __TEXT.__text __ZN3MNCC1EtRKNSt3__112basic_stringIcNS0_11char_traitsIcEENS0_9allocatorIcEEEE
|| __TEXT.__text __ZN3MNCC1Ev
|| __TEXT.__text __ZN3MNCC2ERKNSt3__112basic_stringIcNS0_11char_traitsIcEENS0_9allocatorIcEEEE
|| __TEXT.__text __ZN3MNCC2EtRK3MCC
|| __TEXT.__text __ZN3MNCC2EtRKNSt3__112basic_stringIcNS0_11char_traitsIcEENS0_9allocatorIcEEEE
|| __TEXT.__text __ZN3MNCC2Ev
|| __TEXT.__text __ZN3mms24OperationWorkerInterfaceD0Ev
|| __TEXT.__text __ZN3mms24OperationWorkerInterfaceD1Ev
|| __TEXT.__text __ZN3mms24OperationWorkerInterfaceD2Ev
|| __TEXT.__text __ZN3sms5Model12setMessageIDEt
|| __TEXT.__text __ZN3sms8asStringENS_10SMSPduTypeE
|| __TEXT.__text __ZN3sms8asStringENS_15CTMessageFormatE
|| __TEXT.__text __ZN3sms8asStringENS_17NCNStatusCallTypeE
|| __TEXT.__text __ZN3sms8asStringENS_19MsgPduProcessStatusE
|| __TEXT.__text __ZN3sms8asStringENS_22NCNStatusSignalingTypeE
|| __TEXT.__text __ZN40BootstrapProvisioningControllerInterfaceD0Ev
|| __TEXT.__text __ZN40BootstrapProvisioningControllerInterfaceD1Ev
|| __TEXT.__text __ZN40BootstrapProvisioningControllerInterfaceD2Ev
|| __TEXT.__text __ZN40CarrierSpaceEntitlementsHandlerInterfaceD0Ev
|| __TEXT.__text __ZN40CarrierSpaceEntitlementsHandlerInterfaceD1Ev
|| __TEXT.__text __ZN40CarrierSpaceEntitlementsHandlerInterfaceD2Ev
|| __TEXT.__text __ZN40CellularPlanUploadTriggersModelInterfaceD0Ev
|| __TEXT.__text __ZN40CellularPlanUploadTriggersModelInterfaceD1Ev
|| __TEXT.__text __ZN40CellularPlanUploadTriggersModelInterfaceD2Ev
|| __TEXT.__text __ZN40CoreUtilsMessageSessionDelegateInterfaceD0Ev
|| __TEXT.__text __ZN40CoreUtilsMessageSessionDelegateInterfaceD1Ev
|| __TEXT.__text __ZN40CoreUtilsMessageSessionDelegateInterfaceD2Ev
|| __TEXT.__text __ZN40NetworkAccessPolicyServerHelperInterfaceD0Ev
|| __TEXT.__text __ZN40NetworkAccessPolicyServerHelperInterfaceD1Ev
|| __TEXT.__text __ZN40NetworkAccessPolicyServerHelperInterfaceD2Ev
|| __TEXT.__text __ZN40SuppServicesPreferencesDelegateInterfaceD0Ev
|| __TEXT.__text __ZN40SuppServicesPreferencesDelegateInterfaceD1Ev
|| __TEXT.__text __ZN40SuppServicesPreferencesDelegateInterfaceD2Ev
|| __TEXT.__text __ZN41DataConnectionAgentPolicySessionInterfaceD0Ev
|| __TEXT.__text __ZN41DataConnectionAgentPolicySessionInterfaceD1Ev
|| __TEXT.__text __ZN41DataConnectionAgentPolicySessionInterfaceD2Ev
|| __TEXT.__text __ZN41DataWirelessTechnologyListManagerObserverD0Ev
|| __TEXT.__text __ZN41DataWirelessTechnologyListManagerObserverD1Ev
|| __TEXT.__text __ZN41DataWirelessTechnologyListManagerObserverD2Ev
|| __TEXT.__text __ZN42CellularPlanEntitlementSubscriptionDetails16mergePhoneNumberERKS_
|| __TEXT.__text __ZN42CellularPlanEntitlementSubscriptionDetails5mergeERKS_
|| __TEXT.__text __ZN42CellularPlanSubscriptionControllerDelegateD0Ev
|| __TEXT.__text __ZN42CellularPlanSubscriptionControllerDelegateD1Ev
|| __TEXT.__text __ZN42CellularPlanSubscriptionControllerDelegateD2Ev
|| __TEXT.__text __ZN42DataWirelessTechnologyListManagerInterfaceD0Ev
|| __TEXT.__text __ZN42DataWirelessTechnologyListManagerInterfaceD1Ev
|| __TEXT.__text __ZN42DataWirelessTechnologyListManagerInterfaceD2Ev
|| __TEXT.__text __ZN42PhoneNumberRegistrationControllerInterfaceD0Ev
|| __TEXT.__text __ZN42PhoneNumberRegistrationControllerInterfaceD1Ev
|| __TEXT.__text __ZN42PhoneNumberRegistrationControllerInterfaceD2Ev
|| __TEXT.__text __ZN42PreferredNetworksCommandDriverEventHandlerD0Ev
|| __TEXT.__text __ZN42PreferredNetworksCommandDriverEventHandlerD1Ev
|| __TEXT.__text __ZN42PreferredNetworksCommandDriverEventHandlerD2Ev
|| __TEXT.__text __ZN43CellularPlanPendingTransferHandlerInterfaceD0Ev
|| __TEXT.__text __ZN43CellularPlanPendingTransferHandlerInterfaceD1Ev
|| __TEXT.__text __ZN43CellularPlanPendingTransferHandlerInterfaceD2Ev
|| __TEXT.__text __ZN43CellularPlanProvisioningMonitorModeDelegateD0Ev
|| __TEXT.__text __ZN43CellularPlanProvisioningMonitorModeDelegateD1Ev
|| __TEXT.__text __ZN43CellularPlanProvisioningMonitorModeDelegateD2Ev
|| __TEXT.__text __ZN43CellularPlanSubscriptionControllerInterfaceD0Ev
|| __TEXT.__text __ZN43CellularPlanSubscriptionControllerInterfaceD1Ev
|| __TEXT.__text __ZN43CellularPlanSubscriptionControllerInterfaceD2Ev
|| __TEXT.__text __ZN44CarrierSpaceAuthFlowManagerDelegateInterfaceD0Ev
|| __TEXT.__text __ZN44CarrierSpaceAuthFlowManagerDelegateInterfaceD1Ev
|| __TEXT.__text __ZN44CarrierSpaceAuthFlowManagerDelegateInterfaceD2Ev
|| __TEXT.__text __ZN44CarrierSpaceDataPlanMetricsProviderInterfaceD0Ev
|| __TEXT.__text __ZN44CarrierSpaceDataPlanMetricsProviderInterfaceD1Ev
|| __TEXT.__text __ZN44CarrierSpaceDataPlanMetricsProviderInterfaceD2Ev
|| __TEXT.__text __ZN44CellularPlanIDSSubscriptionSelectorInterfaceD0Ev
|| __TEXT.__text __ZN44CellularPlanIDSSubscriptionSelectorInterfaceD1Ev
|| __TEXT.__text __ZN44CellularPlanIDSSubscriptionSelectorInterfaceD2Ev
|| __TEXT.__text __ZN44CellularPlanProvisioningMonitorModeInterfaceD0Ev
|| __TEXT.__text __ZN44CellularPlanProvisioningMonitorModeInterfaceD1Ev
|| __TEXT.__text __ZN44CellularPlanProvisioningMonitorModeInterfaceD2Ev
|| __TEXT.__text __ZN45CarrierSpacePlanProvisioningDelegateInterfaceD0Ev
|| __TEXT.__text __ZN45CarrierSpacePlanProvisioningDelegateInterfaceD1Ev
|| __TEXT.__text __ZN45CarrierSpacePlanProvisioningDelegateInterfaceD2Ev
|| __TEXT.__text __ZN48CarrierSpaceEntitlementsHandlerDelegateInterfaceD0Ev
|| __TEXT.__text __ZN48CarrierSpaceEntitlementsHandlerDelegateInterfaceD1Ev
|| __TEXT.__text __ZN48CarrierSpaceEntitlementsHandlerDelegateInterfaceD2Ev
|| __TEXT.__text __ZN48CellularPlanUploadTriggersModelInterfaceDelegateD0Ev
|| __TEXT.__text __ZN48CellularPlanUploadTriggersModelInterfaceDelegateD1Ev
|| __TEXT.__text __ZN48CellularPlanUploadTriggersModelInterfaceDelegateD2Ev
|| __TEXT.__text __ZN48DataConnectionAgentPolicySessionPrivateInterfaceD0Ev
|| __TEXT.__text __ZN48DataConnectionAgentPolicySessionPrivateInterfaceD1Ev
|| __TEXT.__text __ZN48DataConnectionAgentPolicySessionPrivateInterfaceD2Ev
|| __TEXT.__text __ZN4push28PushMessageListenerInterface23handlePublicTokenUpdateEv
|| __TEXT.__text __ZN4push28PushMessageListenerInterfaceD0Ev
|| __TEXT.__text __ZN4push28PushMessageListenerInterfaceD1Ev
|| __TEXT.__text __ZN4push28PushMessageListenerInterfaceD2Ev
|| __TEXT.__text __ZN4rest12ResetPayloadC1ENSt3__112basic_stringIcNS1_11char_traitsIcEENS1_9allocatorIcEEEEb
|| __TEXT.__text __ZN4rest12ResetPayloadC2ENSt3__112basic_stringIcNS1_11char_traitsIcEENS1_9allocatorIcEEEEb
|| __TEXT.__text __ZN4rest13carrier_space15read_rest_valueERNS0_10TimeWindowERKN3xpc6objectE
|| __TEXT.__text __ZN4rest13carrier_space15read_rest_valueERNS0_12ManagedHoursERKN3xpc6objectE
|| __TEXT.__text __ZN4rest13carrier_space15read_rest_valueERNS0_17PurchasedPlanInfoERKN3xpc6objectE
|| __TEXT.__text __ZN4rest13carrier_space16write_rest_valueERKNS0_10TimeWindowE
|| __TEXT.__text __ZN4rest13carrier_space16write_rest_valueERKNS0_12ManagedHoursE
|| __TEXT.__text __ZN4rest13carrier_space16write_rest_valueERKNS0_17PurchasedPlanInfoE
|| __TEXT.__text __ZN4rest13carrier_space8asStringENS0_15ManagedHourTypeE
|| __TEXT.__text __ZN4rest13carrier_spaceeqERKNS0_10TimeWindowES3_
|| __TEXT.__text __ZN4rest13carrier_spaceeqERKNS0_12ManagedHoursES3_
|| __TEXT.__text __ZN4rest13carrier_spaceneERKNS0_10TimeWindowES3_
|| __TEXT.__text __ZN4rest13carrier_spaceneERKNS0_12ManagedHoursES3_
|| __TEXT.__text __ZN4rest15read_rest_valueERNS_10BundleInfoERKN3xpc6objectE
|| __TEXT.__text __ZN4rest15read_rest_valueERNS_10DeviceInfoERKN3xpc6objectE
|| __TEXT.__text __ZN4rest15read_rest_valueERNS_11PhoneNumberERKN3xpc6objectE
|| __TEXT.__text __ZN4rest15read_rest_valueERNS_11SimFileDataERKN3xpc6objectE
|| __TEXT.__text __ZN4rest15read_rest_valueERNS_12PairedDeviceERKN3xpc6objectE
|| __TEXT.__text __ZN4rest15read_rest_valueERNS_12ResetPayloadERKN3xpc6objectE
|| __TEXT.__text __ZN4rest15read_rest_valueERNS_13AppStateEventERKN3xpc6objectE
|| __TEXT.__text __ZN4rest15read_rest_valueERNS_14AppInfoRequestERKN3xpc6objectE
|| __TEXT.__text __ZN4rest15read_rest_valueERNS_14WidgetStatus_sERKN3xpc6objectE
|| __TEXT.__text __ZN4rest15read_rest_valueERNS_15AppInfoResponseERKN3xpc6objectE
|| __TEXT.__text __ZN4rest15read_rest_valueERNS_15BundleInfoEventERKN3xpc6objectE
|| __TEXT.__text __ZN4rest15read_rest_valueERNS_15CloudDeleteZoneERKN3xpc6objectE
|| __TEXT.__text __ZN4rest15read_rest_valueERNS_15CloudSyncParamsERKN3xpc6objectE
|| __TEXT.__text __ZN4rest15read_rest_valueERNS_15NetworkCostInfoERKN3xpc6objectE
|| __TEXT.__text __ZN4rest15read_rest_valueERNS_16CarrierSpaceInfoERKN3xpc6objectE
|| __TEXT.__text __ZN4rest15read_rest_valueERNS_16DomainChangeInfoERKN3xpc6objectE
|| __TEXT.__text __ZN4rest15read_rest_valueERNS_16StkCallSetupInfoERKN3xpc6objectE
|| __TEXT.__text __ZN4rest15read_rest_valueERNS_16SubscriptionInfoERKN3xpc6objectE
|| __TEXT.__text __ZN4rest15read_rest_valueERNS_17CloudDeleteRecordERKN3xpc6objectE
|| __TEXT.__text __ZN4rest15read_rest_valueERNS_17HttpRequestParamsERKN3xpc6objectE
|| __TEXT.__text __ZN4rest15read_rest_valueERNS_17LastKnownHomePlmnERKN3xpc6objectE
|| __TEXT.__text __ZN4rest15read_rest_valueERNS_17SimFileAttributesERKN3xpc6objectE
|| __TEXT.__text __ZN4rest15read_rest_valueERNS_18LocationCoordinateERKN3xpc6objectE
|| __TEXT.__text __ZN4rest15read_rest_valueERNS_18MccMncComputedInfoERKN3xpc6objectE
|| __TEXT.__text __ZN4rest15read_rest_valueERNS_19ActiveSubscriptionsERKN3xpc6objectE
|| __TEXT.__text __ZN4rest15read_rest_valueERNS_19FullFunctionSmsInfoERKN3xpc6objectE
|| __TEXT.__text __ZN4rest15read_rest_valueERNS_19LASDDatabaseVersionERKN3xpc6objectE
|| __TEXT.__text __ZN4rest15read_rest_valueERNS_19SubscriptionContextERKN3xpc6objectE
|| __TEXT.__text __ZN4rest15read_rest_valueERNS_20FullFunctionCallInfoERKN3xpc6objectE
|| __TEXT.__text __ZN4rest15read_rest_valueERNS_20LASDUpdateParametersERKN3xpc6objectE
|| __TEXT.__text __ZN4rest15read_rest_valueERNS_21SubscriberDataIdStateERKN3xpc6objectE
|| __TEXT.__text __ZN4rest15read_rest_valueERNS_24ManagedConfigurationInfoERKN3xpc6objectE
|| __TEXT.__text __ZN4rest15read_rest_valueERNS_26CellularPlanCKUploadResultERKN3xpc6objectE
|| __TEXT.__text __ZN4rest15read_rest_valueERNS_26CellularPlanCloudFetchInfoERKN3xpc6objectE
|| __TEXT.__text __ZN4rest15read_rest_valueERNS_27CellularPlanBlacklistParamsERKN3xpc6objectE
|| __TEXT.__text __ZN4rest15read_rest_valueERNS_35CloudFetchCellularPlanBlacklistInfoERKN3xpc6objectE
|| __TEXT.__text __ZN4rest15read_rest_valueERNS_36CloudUpdateCellularPlanBlacklistInfoERKN3xpc6objectE
|| __TEXT.__text __ZN4rest15read_rest_valueERNS_38DeleteCloudCellularPlanBlacklistRecordERKN3xpc6objectE
|| __TEXT.__text __ZN4rest15read_rest_valueERNS_8ClirInfoERKN3xpc6objectE
|| __TEXT.__text __ZN4rest15read_rest_valueERNS_9CivicInfoERKN3xpc6objectE
|| __TEXT.__text __ZN4rest15read_rest_valueERNS_9IccidInfoERKN3xpc6objectE
|| __TEXT.__text __ZN4rest16write_rest_valueERKNS_10BundleInfoE
|| __TEXT.__text __ZN4rest16write_rest_valueERKNS_10DeviceInfoE
|| __TEXT.__text __ZN4rest16write_rest_valueERKNS_11PhoneNumberE
|| __TEXT.__text __ZN4rest16write_rest_valueERKNS_11SimFileDataE
|| __TEXT.__text __ZN4rest16write_rest_valueERKNS_12PairedDeviceE
|| __TEXT.__text __ZN4rest16write_rest_valueERKNS_12ResetPayloadE
|| __TEXT.__text __ZN4rest16write_rest_valueERKNS_13AppStateEventE
|| __TEXT.__text __ZN4rest16write_rest_valueERKNS_14AppInfoRequestE
|| __TEXT.__text __ZN4rest16write_rest_valueERKNS_14WidgetStatus_sE
|| __TEXT.__text __ZN4rest16write_rest_valueERKNS_15AppInfoResponseE
|| __TEXT.__text __ZN4rest16write_rest_valueERKNS_15BundleInfoEventE
|| __TEXT.__text __ZN4rest16write_rest_valueERKNS_15CloudDeleteZoneE
|| __TEXT.__text __ZN4rest16write_rest_valueERKNS_15CloudSyncParamsE
|| __TEXT.__text __ZN4rest16write_rest_valueERKNS_15NetworkCostInfoE
|| __TEXT.__text __ZN4rest16write_rest_valueERKNS_16CarrierSpaceInfoE
|| __TEXT.__text __ZN4rest16write_rest_valueERKNS_16DomainChangeInfoE
|| __TEXT.__text __ZN4rest16write_rest_valueERKNS_16StkCallSetupInfoE
|| __TEXT.__text __ZN4rest16write_rest_valueERKNS_16SubscriptionInfoE
|| __TEXT.__text __ZN4rest16write_rest_valueERKNS_17CloudDeleteRecordE
|| __TEXT.__text __ZN4rest16write_rest_valueERKNS_17HttpRequestParamsE
|| __TEXT.__text __ZN4rest16write_rest_valueERKNS_17LastKnownHomePlmnE
|| __TEXT.__text __ZN4rest16write_rest_valueERKNS_17SimFileAttributesE
|| __TEXT.__text __ZN4rest16write_rest_valueERKNS_18LocationCoordinateE
|| __TEXT.__text __ZN4rest16write_rest_valueERKNS_18MccMncComputedInfoE
|| __TEXT.__text __ZN4rest16write_rest_valueERKNS_19ActiveSubscriptionsE
|| __TEXT.__text __ZN4rest16write_rest_valueERKNS_19FullFunctionSmsInfoE
|| __TEXT.__text __ZN4rest16write_rest_valueERKNS_19LASDDatabaseVersionE
|| __TEXT.__text __ZN4rest16write_rest_valueERKNS_19SubscriptionContextE
|| __TEXT.__text __ZN4rest16write_rest_valueERKNS_20FullFunctionCallInfoE
|| __TEXT.__text __ZN4rest16write_rest_valueERKNS_20LASDUpdateParametersE
|| __TEXT.__text __ZN4rest16write_rest_valueERKNS_21SubscriberDataIdStateE
|| __TEXT.__text __ZN4rest16write_rest_valueERKNS_24ManagedConfigurationInfoE
|| __TEXT.__text __ZN4rest16write_rest_valueERKNS_26CellularPlanCKUploadResultE
|| __TEXT.__text __ZN4rest16write_rest_valueERKNS_26CellularPlanCloudFetchInfoE
|| __TEXT.__text __ZN4rest16write_rest_valueERKNS_27CellularPlanBlacklistParamsE
|| __TEXT.__text __ZN4rest16write_rest_valueERKNS_35CloudFetchCellularPlanBlacklistInfoE
|| __TEXT.__text __ZN4rest16write_rest_valueERKNS_36CloudUpdateCellularPlanBlacklistInfoE
|| __TEXT.__text __ZN4rest16write_rest_valueERKNS_38DeleteCloudCellularPlanBlacklistRecordE
|| __TEXT.__text __ZN4rest16write_rest_valueERKNS_8ClirInfoE
|| __TEXT.__text __ZN4rest16write_rest_valueERKNS_9CivicInfoE
|| __TEXT.__text __ZN4rest16write_rest_valueERKNS_9IccidInfoE
|| __TEXT.__text __ZN4rest17HttpRequestParamsC1ERKNSt3__112basic_stringIcNS1_11char_traitsIcEENS1_9allocatorIcEEEEbb
|| __TEXT.__text __ZN4rest17HttpRequestParamsC2ERKNSt3__112basic_stringIcNS1_11char_traitsIcEENS1_9allocatorIcEEEEbb
|| __TEXT.__text __ZN4rest18LocationCoordinateC1Edd
|| __TEXT.__text __ZN4rest18LocationCoordinateC2Edd
|| __TEXT.__text __ZN4rest20LASDUpdateParametersC1Ei
|| __TEXT.__text __ZN4rest20LASDUpdateParametersC2Ei
|| __TEXT.__text __ZN4rest27CellularPlanBlacklistParams31deserializeAdditionalPropertiesERKNSt3__112basic_stringIcNS1_11char_traitsIcEENS1_9allocatorIcEEEE
|| __TEXT.__text __ZN4rest8asStringENS_10WidgetModeE
|| __TEXT.__text __ZN4rest8asStringENS_11NetworkCostE
|| __TEXT.__text __ZN4rest8asStringENS_13WidgetSupportE
|| __TEXT.__text __ZN4rest8asStringENS_16ApplicationStateE
|| __TEXT.__text __ZN4rest8asStringENS_16CarrierSpaceInfo7SupportE
|| __TEXT.__text __ZN4rest8asStringERKNS_11PhoneNumberE
|| __TEXT.__text __ZN4rest8asStringERKNS_21SubscriberDataIdStateE
|| __TEXT.__text __ZN4resteqERKNS_10BundleInfoES2_
|| __TEXT.__text __ZN4resteqERKNS_10DeviceInfoES2_
|| __TEXT.__text __ZN4resteqERKNS_11PhoneNumberES2_
|| __TEXT.__text __ZN4resteqERKNS_14WidgetStatus_sES2_
|| __TEXT.__text __ZN4resteqERKNS_15BundleInfoEventES2_
|| __TEXT.__text __ZN4resteqERKNS_15NetworkCostInfoES2_
|| __TEXT.__text __ZN4resteqERKNS_16DomainChangeInfoES2_
|| __TEXT.__text __ZN4resteqERKNS_16SubscriptionInfoES2_
|| __TEXT.__text __ZN4resteqERKNS_17LastKnownHomePlmnES2_
|| __TEXT.__text __ZN4resteqERKNS_18MccMncComputedInfoES2_
|| __TEXT.__text __ZN4resteqERKNS_19ActiveSubscriptionsES2_
|| __TEXT.__text __ZN4resteqERKNS_19SubscriptionContextES2_
|| __TEXT.__text __ZN4resteqERKNS_21SubscriberDataIdStateES2_
|| __TEXT.__text __ZN4resteqERKNS_8ClirInfoES2_
|| __TEXT.__text __ZN4resteqERKNS_9IccidInfoES2_
|| __TEXT.__text __ZN4resteqERKNSt3__13mapIN10subscriber7SimSlotENS_10BundleInfoENS0_4lessIS3_EENS0_9allocatorINS0_4pairIKS3_S4_EEEEEESE_
|| __TEXT.__text __ZN4restneERKNS_10BundleInfoES2_
|| __TEXT.__text __ZN4restneERKNS_10DeviceInfoES2_
|| __TEXT.__text __ZN4restneERKNS_11PhoneNumberES2_
|| __TEXT.__text __ZN4restneERKNS_15BundleInfoEventES2_
|| __TEXT.__text __ZN4restneERKNS_15NetworkCostInfoES2_
|| __TEXT.__text __ZN4restneERKNS_16SubscriptionInfoES2_
|| __TEXT.__text __ZN4restneERKNS_17LastKnownHomePlmnES2_
|| __TEXT.__text __ZN4restneERKNS_18MccMncComputedInfoES2_
|| __TEXT.__text __ZN4restneERKNS_19ActiveSubscriptionsES2_
|| __TEXT.__text __ZN4restneERKNS_19SubscriptionContextES2_
|| __TEXT.__text __ZN4restneERKNS_21SubscriberDataIdStateES2_
|| __TEXT.__text __ZN4restneERKNS_8ClirInfoES2_
|| __TEXT.__text __ZN4restneERKNS_9IccidInfoES2_
|| __TEXT.__text __ZN4restneERKNSt3__13mapIN10subscriber7SimSlotENS_10BundleInfoENS0_4lessIS3_EENS0_9allocatorINS0_4pairIKS3_S4_EEEEEESE_
|| __TEXT.__text __ZN51CellularPlanPendingTransferHandlerDelegateInterfaceD0Ev
|| __TEXT.__text __ZN51CellularPlanPendingTransferHandlerDelegateInterfaceD1Ev
|| __TEXT.__text __ZN51CellularPlanPendingTransferHandlerDelegateInterfaceD2Ev
|| __TEXT.__text __ZN52CarrierSpaceDataPlanMetricsProviderDelegateInterfaceD0Ev
|| __TEXT.__text __ZN52CarrierSpaceDataPlanMetricsProviderDelegateInterfaceD1Ev
|| __TEXT.__text __ZN52CarrierSpaceDataPlanMetricsProviderDelegateInterfaceD2Ev
|| __TEXT.__text __ZN5codec12toJSONObjectIN4rest38DeleteCloudCellularPlanBlacklistRecordEEENSt3__19enable_ifIXntsr4utilE16is_int_or_enum_vIT_EEU8__strongP11objc_objectE4typeERKS5_
|| __TEXT.__text __ZN5codec12toJSONObjectIN4rest41CellularPlanBlacklistAdditionalPropertiesEEENSt3__19enable_ifIXntsr4utilE16is_int_or_enum_vIT_EEU8__strongP11objc_objectE4typeERKS5_
|| __TEXT.__text __ZN5codec14fromJSONObjectIN4rest38DeleteCloudCellularPlanBlacklistRecordEEENSt3__19enable_ifIXntsr4utilE16is_int_or_enum_vIT_EEbE4typeERS5_P11objc_object
|| __TEXT.__text __ZN5codec14fromJSONObjectIN4rest41CellularPlanBlacklistAdditionalPropertiesEEENSt3__19enable_ifIXntsr4utilE16is_int_or_enum_vIT_EEbE4typeERS5_P11objc_object
|| __TEXT.__text __ZN5codec6decodeIN4rest41CellularPlanBlacklistAdditionalPropertiesEEENSt3__18optionalIT_EERKNS3_12basic_stringIcNS3_11char_traitsIcEENS3_9allocatorIcEEEE
|| __TEXT.__text __ZN5codec6encodeERKNSt3__18optionalIN4rest41CellularPlanBlacklistAdditionalPropertiesEEE
|| __TEXT.__text __ZN5codec6encodeIN4rest41CellularPlanBlacklistAdditionalPropertiesEEENSt3__112basic_stringIcNS3_11char_traitsIcEENS3_9allocatorIcEEEERKT_
|| __TEXT.__text __ZN5codec7setItemEP11objc_objectP8NSStringP19NSMutableDictionary
|| __TEXT.__text __ZN5radio8asStringENS_17AirplaneModeStateE
|| __TEXT.__text __ZN6detail18createOsLogLoggersERKNSt3__110shared_ptrIK8RegistryEERKNS0_8functionIFKPKcN10subscriber7SimSlotEEEE
|| __TEXT.__text __ZN6detail23createLoggerBaseLoggersERKNSt3__110shared_ptrIK8RegistryEERKNS0_8functionIFKPKcN10subscriber7SimSlotEEEE
|| __TEXT.__text __ZN6detail23createUnknownLoggerBaseERKNSt3__110shared_ptrIK8RegistryEERKNS0_8functionIFKPKcN10subscriber7SimSlotEEEE
|| __TEXT.__text __ZN6detail24createUnknownOsLogLoggerERKNSt3__18functionIFKPKcN10subscriber7SimSlotEEEE
|| __TEXT.__text __ZN6logger15CFTypeRefLoggerEPKvRKNSt3__18functionIFvRKNS2_12basic_stringIcNS2_11char_traitsIcEENS2_9allocatorIcEEEEEEE
|| __TEXT.__text __ZN8Registry13getServiceMapEv
|| __TEXT.__text __ZN8Registry26markInitializationCompleteEv
|| __TEXT.__text __ZN8Registry3getEv
|| __TEXT.__text __ZN8Registry3setENSt3__110shared_ptrIS_EE
|| __TEXT.__text __ZN8Registry6createENSt3__110shared_ptrI13RegistryModelEE
|| __TEXT.__text __ZN8Registry7destroyEv
|| __TEXT.__text __ZN8cellplan11findProfileERKNSt3__16vectorINS_28RemoteProvisioningDeviceInfoENS0_9allocatorIS2_EEEERKNS0_12basic_stringIcNS0_11char_traitsIcEENS3_IcEEEE
|| __TEXT.__text __ZN8cellplan15read_rest_valueERNS_23RemoteDeviceIdentifiersERKN3xpc6objectE
|| __TEXT.__text __ZN8cellplan15read_rest_valueERNS_23RemoteSimSelectionModelERKN3xpc6objectE
|| __TEXT.__text __ZN8cellplan15read_rest_valueERNS_25RemoteSimSubscriptionInfoERKN3xpc6objectE
|| __TEXT.__text __ZN8cellplan15read_rest_valueERNS_28RemoteProvisioningDeviceInfoERKN3xpc6objectE
|| __TEXT.__text __ZN8cellplan16write_rest_valueERKNS_23RemoteDeviceIdentifiersE
|| __TEXT.__text __ZN8cellplan16write_rest_valueERKNS_23RemoteSimSelectionModelE
|| __TEXT.__text __ZN8cellplan16write_rest_valueERKNS_25RemoteSimSubscriptionInfoE
|| __TEXT.__text __ZN8cellplan16write_rest_valueERKNS_28RemoteProvisioningDeviceInfoE
|| __TEXT.__text __ZN8cellplan20isPairedRemoteDeviceERKNSt3__16vectorINS_28RemoteProvisioningDeviceInfoENS0_9allocatorIS2_EEEERKNS0_5arrayIhLm16EEE
|| __TEXT.__text __ZN8cellplan23RemoteDeviceIdentifiersaSERKS0_
|| __TEXT.__text __ZN8cellplan23RemoteSimSelectionModel10noSimModelEv
|| __TEXT.__text __ZN8cellplan23RemoteSimSelectionModel20nonEsimOverrideModelERKNSt3__112basic_stringIcNS1_11char_traitsIcEENS1_9allocatorIcEEEENS_31RemotePlanSimSubscriptionStatusE
|| __TEXT.__text __ZN8cellplan23RemoteSimSelectionModelC1ERKNSt3__15arrayIhLm16EEERKNS1_12basic_stringIcNS1_11char_traitsIcEENS1_9allocatorIcEEEENS_31RemotePlanSimSubscriptionStatusE
|| __TEXT.__text __ZN8cellplan23RemoteSimSelectionModelC1Ev
|| __TEXT.__text __ZN8cellplan23RemoteSimSelectionModelC2ERKNSt3__15arrayIhLm16EEERKNS1_12basic_stringIcNS1_11char_traitsIcEENS1_9allocatorIcEEEENS_31RemotePlanSimSubscriptionStatusE
|| __TEXT.__text __ZN8cellplan23RemoteSimSelectionModelC2Ev
|| __TEXT.__text __ZN8cellplan40serializeRemotePlanSimSubscriptionStatusENS_31RemotePlanSimSubscriptionStatusE
|| __TEXT.__text __ZN8cellplan42deserializeRemotePlanSimSubscriptionStatusEjRNS_31RemotePlanSimSubscriptionStatusE
|| __TEXT.__text __ZN8cellplan8asStringENS_26RemotePlanSubscriptionInfoE
|| __TEXT.__text __ZN8cellplan8asStringENS_31RemotePlanSimSubscriptionStatusE
|| __TEXT.__text __ZN8cellplan8asStringENS_33RemoteProvisioningOperationResultE
|| __TEXT.__text __ZN8cellplan8asStringERKNS_20RemoteDeviceRadioSkuE
|| __TEXT.__text __ZN8cellplaneqERKNS_14RemotePlanInfoES2_
|| __TEXT.__text __ZN8cellplaneqERKNS_25RemoteSimSubscriptionInfoES2_
|| __TEXT.__text __ZN8cellplanlsERNSt3__113basic_ostreamIcNS0_11char_traitsIcEEEERKNS_25RemoteSimSubscriptionInfoE
|| __TEXT.__text __ZN8cellplanneERKNS_14RemotePlanInfoES2_
|| __TEXT.__text __ZN8printers8asStringERKNSt3__18optionalIbEE
|| __TEXT.__text __ZN8printers8asStringERKb
|| __TEXT.__text __ZN9CSILoggerC1E8LogGroup
|| __TEXT.__text __ZN9CSILoggerC1EPKc
|| __TEXT.__text __ZN9CSILoggerC1ERKN3ctu12OsLogContextE
|| __TEXT.__text __ZN9CSILoggerC1ERKNSt3__112basic_stringIcNS0_11char_traitsIcEENS0_9allocatorIcEEEE
|| __TEXT.__text __ZN9CSILoggerC2E8LogGroup
|| __TEXT.__text __ZN9CSILoggerC2EPKc
|| __TEXT.__text __ZN9CSILoggerC2ERKN3ctu12OsLogContextE
|| __TEXT.__text __ZN9CSILoggerC2ERKNSt3__112basic_stringIcNS0_11char_traitsIcEENS0_9allocatorIcEEEE
|| __TEXT.__text __ZN9CSILoggerD0Ev
|| __TEXT.__text __ZN9CSILoggerD1Ev
|| __TEXT.__text __ZN9CSILoggerD2Ev
|| __TEXT.__text __ZN9DataTimer11wakeTimerUpEv
|| __TEXT.__text __ZN9DataTimer12wakeTimersUpEv
|| __TEXT.__text __ZN9DataTimer13dumpAllTimersEv
|| __TEXT.__text __ZN9DataTimer15cancelAllTimersEv
|| __TEXT.__text __ZN9DataTimerC1EPKcyU13block_pointerFvvEyP16dispatch_queue_sS1_NSt3__110shared_ptrIK8RegistryEEb
|| __TEXT.__text __ZN9DataTimerC2EPKcyU13block_pointerFvvEyP16dispatch_queue_sS1_NSt3__110shared_ptrIK8RegistryEEb
|| __TEXT.__text __ZN9DataTimerD1Ev
|| __TEXT.__text __ZN9DataTimerD2Ev
|| __TEXT.__text __ZN9DataUtils12otherSimSlotEN10subscriber7SimSlotE
|| __TEXT.__text __ZN9DataUtils14deepMergeArrayEP9__CFArrayPKS0_
|| __TEXT.__text __ZN9DataUtils14lteishDataModeE8DataMode
|| __TEXT.__text __ZN9DataUtils16matchPersonalityERKNSt3__110shared_ptrIK15PersonalityInfoEES6_
|| __TEXT.__text __ZN9DataUtils16validPersonalityERKNSt3__110shared_ptrIK15PersonalityInfoEE
|| __TEXT.__text __ZN9DataUtils17loadPlistFromFileEPK7__CFURL
|| __TEXT.__text __ZN9DataUtils18getDataContextNameEN10subscriber7SimSlotEPKci
|| __TEXT.__text __ZN9DataUtils19deepMergeDictionaryEP14__CFDictionaryPKS0_
|| __TEXT.__text __ZN9DataUtils19replaceStringHolderEN3ctu2cf11CFSharedRefI10__CFStringEEPKS3_U13block_pointerFNS2_IS5_EEvE
|| __TEXT.__text __ZN9DataUtils20getMatchingEAPMethodEPK10__CFString
|| __TEXT.__text __ZN9DataUtils24toCellularDataTechnologyE8DataMode
|| __TEXT.__text __ZN9DataUtils26getPcscfAddressOverrideKeyEN10subscriber7SimSlotE
|| __TEXT.__text __ZN9DataUtils27loadPlistFromBundleResourceEPKN3ctu11OsLogLoggerEPKc
|| __TEXT.__text __ZN9DataUtils31isFaceTimeAllowedOverCellByUserERKNSt3__16vectorINS0_12basic_stringIcNS0_11char_traitsIcEENS0_9allocatorIcEEEENS5_IS7_EEEEb
|| __TEXT.__text __ZN9LogWriterD0Ev
|| __TEXT.__text __ZN9LogWriterD1Ev
|| __TEXT.__text __ZN9LogWriterD2Ev
|| __TEXT.__text __ZN9MCCAndMNCC1ERK3MCCRK3MNC
|| __TEXT.__text __ZN9MCCAndMNCC1ERKNSt3__112basic_stringIcNS0_11char_traitsIcEENS0_9allocatorIcEEEE
|| __TEXT.__text __ZN9MCCAndMNCC1ERKNSt3__112basic_stringIcNS0_11char_traitsIcEENS0_9allocatorIcEEEES8_
|| __TEXT.__text __ZN9MCCAndMNCC1Ett
|| __TEXT.__text __ZN9MCCAndMNCC1Ev
|| __TEXT.__text __ZN9MCCAndMNCC2ERK3MCCRK3MNC
|| __TEXT.__text __ZN9MCCAndMNCC2ERKNSt3__112basic_stringIcNS0_11char_traitsIcEENS0_9allocatorIcEEEE
|| __TEXT.__text __ZN9MCCAndMNCC2ERKNSt3__112basic_stringIcNS0_11char_traitsIcEENS0_9allocatorIcEEEES8_
|| __TEXT.__text __ZN9MCCAndMNCC2Ett
|| __TEXT.__text __ZN9MCCAndMNCC2Ev
|| __TEXT.__text __ZN9emergency12SearchDriverD0Ev
|| __TEXT.__text __ZN9emergency12SearchDriverD1Ev
|| __TEXT.__text __ZN9emergency12SearchDriverD2Ev
|| __TEXT.__text __ZN9emergency8SearcherD0Ev
|| __TEXT.__text __ZN9emergency8SearcherD1Ev
|| __TEXT.__text __ZN9emergency8SearcherD2Ev
|| __TEXT.__text __ZN9emergency9CallAgent10endDialingEv
|| __TEXT.__text __ZN9emergency9CallAgent11readyToDialEv
|| __TEXT.__text __ZN9emergency9CallAgent12reportFailedEv
|| __TEXT.__text __ZN9emergency9CallAgent14clearCallbacksEv
|| __TEXT.__text __ZN9emergency9CallAgent17reportContextGoneEv
|| __TEXT.__text __ZN9emergency9CallAgent4dialENSt3__18functionIFvvEEES4_S4_
|| __TEXT.__text __ZN9emergency9CallAgent9callEndedEv
|| __TEXT.__text __ZN9emergency9CallAgentC2EN10subscriber7SimSlotE
|| __TEXT.__text __ZN9emergency9CallAgentD0Ev
|| __TEXT.__text __ZN9emergency9CallAgentD1Ev
|| __TEXT.__text __ZN9emergency9CallAgentD2Ev
|| __TEXT.__text __ZNK10Cdma1xCell9dumpStateEPKN3ctu11OsLogLoggerE
|| __TEXT.__text __ZNK11AnyCallInfoeqERKS_
|| __TEXT.__text __ZNK11AnyCallInfoneERKS_
|| __TEXT.__text __ZNK11TDSCDMACell9dumpStateEPKN3ctu11OsLogLoggerE
|| __TEXT.__text __ZNK12BasicSimInfoeqERKS_
|| __TEXT.__text __ZNK12BasicSimInfoneERKS_
|| __TEXT.__text __ZNK12CdmaEvdoCell9dumpStateEPKN3ctu11OsLogLoggerE
|| __TEXT.__text __ZNK12IRatLinkPref8asStringEv
|| __TEXT.__text __ZNK12LinkedBundle9dumpStateEPKN3ctu11OsLogLoggerE
|| __TEXT.__text __ZNK12OTASPService7getNameEv
|| __TEXT.__text __ZNK12ServiceStage12holdOffStageEv
|| __TEXT.__text __ZNK12ServiceStage14scheduleActionERKN8dispatch5queueEU13block_pointerFvNS0_13group_sessionEE
|| __TEXT.__text __ZNK12ServiceStage14scheduleActionERKN8dispatch5queueEU13block_pointerFvvE
|| __TEXT.__text __ZNK12ServiceStage15notifyStageDoneEv
|| __TEXT.__text __ZNK12entitlements10IccidStateeqERKS0_
|| __TEXT.__text __ZNK12entitlements19TransferSIMResponseeqERKS0_
|| __TEXT.__text __ZNK12entitlements20TransferTargetDeviceeqERKS0_
|| __TEXT.__text __ZNK12entitlements27RemoteSubscriptionQueryInfoeqERKS0_
|| __TEXT.__text __ZNK12entitlements27RemoteSubscriptionQueryInfoneERKS0_
|| __TEXT.__text __ZNK12entitlements29TransferAuthorizationResponseeqERKS0_
|| __TEXT.__text __ZNK12entitlements32TransferSIMViaWebServiceResponse7successEv
|| __TEXT.__text __ZNK12entitlements32TransferSIMViaWebServiceResponseeqERKS0_
|| __TEXT.__text __ZNK12entitlements42TransferAuthorizationViaWebServiceResponseeqERKS0_
|| __TEXT.__text __ZNK13AppTypeStatus8asStringEv
|| __TEXT.__text __ZNK13DisplayStatus9dumpStateEPKN3ctu11OsLogLoggerE
|| __TEXT.__text __ZNK13MatchedBundle9dumpStateEPKN3ctu11OsLogLoggerE
|| __TEXT.__text __ZNK13PDPMetricInfo5emptyEv
|| __TEXT.__text __ZNK13SchedulerSpec9dumpStateEP8os_log_s
|| __TEXT.__text __ZNK13SmsPduEncoder15getReplyAddressEv
|| __TEXT.__text __ZNK13SmsPduEncoder24getUserDataHeaderBitMaskEN3sms12TextEncodingE
|| __TEXT.__text __ZNK13SmsPduEncoder25getReplyAddressDataLengthEv
|| __TEXT.__text __ZNK13SmsPduEncoder29calculateUserDataHeaderLengthEN3sms12TextEncodingE
|| __TEXT.__text __ZNK13SmsPduEncoder32get8BitApplicationPortAddressingEv
|| __TEXT.__text __ZNK13SmsPduEncoder33get16BitApplicationPortAddressingEv
|| __TEXT.__text __ZNK14ActivationInfo9dumpStateERKNSt3__110shared_ptrIK8RegistryEEPKN3ctu11OsLogLoggerE
|| __TEXT.__text __ZNK14AutoStartTimer11getDurationEv
|| __TEXT.__text __ZNK14AutoStartTimer12getStartTimeEv
|| __TEXT.__text __ZNK14AutoStartTimer13getExpiryTimeEv
|| __TEXT.__text __ZNK14AutoStartTimer9isExpiredEv
|| __TEXT.__text __ZNK14CSIPhoneNumber12getFormattedEv
|| __TEXT.__text __ZNK14CSIPhoneNumber13getBaseNumberEv
|| __TEXT.__text __ZNK14CSIPhoneNumber13getDtmfStringEv
|| __TEXT.__text __ZNK14CSIPhoneNumber13getFullNumberEv
|| __TEXT.__text __ZNK14CSIPhoneNumber15getTypeOfNumberEv
|| __TEXT.__text __ZNK14CSIPhoneNumber16getTypeOfAddressEv
|| __TEXT.__text __ZNK14CSIPhoneNumber17hasSameBaseNumberERKS_
|| __TEXT.__text __ZNK14CSIPhoneNumber19getCLIRRequestStateEv
|| __TEXT.__text __ZNK14CSIPhoneNumber19getFullNumberHelperENSt3__112basic_stringIcNS0_11char_traitsIcEENS0_9allocatorIcEEEE
|| __TEXT.__text __ZNK14CSIPhoneNumber20getEmergencyCategoryEv
|| __TEXT.__text __ZNK14CSIPhoneNumber21getFullOriginalNumberEv
|| __TEXT.__text __ZNK14CSIPhoneNumber22getIsListedAsEmergencyEv
|| __TEXT.__text __ZNK14CSIPhoneNumber23getIsEmSMSTextSupportedEv
|| __TEXT.__text __ZNK14CSIPhoneNumber23hasEmergencyCategorySetEv
|| __TEXT.__text __ZNK14CSIPhoneNumber26getBaseNumberNoPauseDigitsEv
|| __TEXT.__text __ZNK14CSIPhoneNumber26getFullNumberNoPauseDigitsEv
|| __TEXT.__text __ZNK14CSIPhoneNumber8getIsMMIEv
|| __TEXT.__text __ZNK14CSIPhoneNumber9getIsUSSDEv
|| __TEXT.__text __ZNK14CSIPhoneNumbereqERKS_
|| __TEXT.__text __ZNK14CSIPhoneNumberneERKS_
|| __TEXT.__text __ZNK14CellInfoUpdate9dumpStateEPKN3ctu11OsLogLoggerE
|| __TEXT.__text __ZNK15ChipInformation9dumpStateEPKN3ctu11OsLogLoggerE
|| __TEXT.__text __ZNK15CurrentLanguageeqERKS_
|| __TEXT.__text __ZNK15CurrentLanguageneERKS_
|| __TEXT.__text __ZNK15GsmNeighborCell9dumpStateEPKN3ctu11OsLogLoggerE
|| __TEXT.__text __ZNK15LastCallSubTypeeqERKS_
|| __TEXT.__text __ZNK15LastCallSubTypeneERKS_
|| __TEXT.__text __ZNK15LteNeighborCell9dumpStateEPKN3ctu11OsLogLoggerE
|| __TEXT.__text __ZNK15PersonalityInfo4uuidEv
|| __TEXT.__text __ZNK15PersonalityInfo9logPrefixEv
|| __TEXT.__text __ZNK15RemoteVinylInfo11findProfileERKNSt3__112basic_stringIcNS0_11char_traitsIcEENS0_9allocatorIcEEEE
|| __TEXT.__text __ZNK15RemoteVinylInfo16isMatchingDeviceERKNSt3__15arrayIhLm16EEE
|| __TEXT.__text __ZNK15RemoteVinylInfo21hasProfileInfoChangedERKS_
|| __TEXT.__text __ZNK15RemoteVinylInfoeqERKS_
|| __TEXT.__text __ZNK15RemoteVinylInfoneERKS_
|| __TEXT.__text __ZNK15RestServiceBase24getRestServiceState_syncEv
|| __TEXT.__text __ZNK15SimLabelContenteqERKS_
|| __TEXT.__text __ZNK15SimLabelContentneERKS_
|| __TEXT.__text __ZNK16ActivationStatus9dumpStateEPKN3ctu11OsLogLoggerE
|| __TEXT.__text __ZNK16CSIPacketAddress11isLinkLocalEv
|| __TEXT.__text __ZNK16CSIPacketAddress12getPrefixLenEv
|| __TEXT.__text __ZNK16CSIPacketAddress12maskToPrefixEv
|| __TEXT.__text __ZNK16CSIPacketAddress13hasSamePrefixERKS_
|| __TEXT.__text __ZNK16CSIPacketAddress13toLocalLinkIdEv
|| __TEXT.__text __ZNK16CSIPacketAddress6isIPv4Ev
|| __TEXT.__text __ZNK16CSIPacketAddress6isIPv6Ev
|| __TEXT.__text __ZNK16CSIPacketAddress6toIPv4Ev
|| __TEXT.__text __ZNK16CSIPacketAddress6toIPv6EPhm
|| __TEXT.__text __ZNK16CSIPacketAddress8isZeroIPEv
|| __TEXT.__text __ZNK16CSIPacketAddress8toIPv4LEEv
|| __TEXT.__text __ZNK16CSIPacketAddresscvNSt3__112basic_stringIcNS0_11char_traitsIcEENS0_9allocatorIcEEEEEv
|| __TEXT.__text __ZNK16CSIPacketAddresseqERKS_
|| __TEXT.__text __ZNK16CSIPacketAddressneERKS_
|| __TEXT.__text __ZNK16HelperRestServer7getNameEv
|| __TEXT.__text __ZNK16LinkedBundleInfo9dumpStateEPKN3ctu11OsLogLoggerE
|| __TEXT.__text __ZNK16RatSelectionType10getSimSlotEv
|| __TEXT.__text __ZNK16RatSelectionType12getSelectionEv
|| __TEXT.__text __ZNK16RatSelectionType13getIsInternalEv
|| __TEXT.__text __ZNK16RatSelectionType21getPreferredSelectionEv
|| __TEXT.__text __ZNK16RatSelectionType9dumpStateEPKN3ctu11OsLogLoggerE
|| __TEXT.__text __ZNK16RoamingInterface15isInHomeCountryEN3xpc10auto_replyE
|| __TEXT.__text __ZNK16RoamingInterface15isInHomeCountryEv
|| __TEXT.__text __ZNK16RoamingInterface23isInHomeCountryDefiniteEv
|| __TEXT.__text __ZNK16UmtsNeighborCell9dumpStateEPKN3ctu11OsLogLoggerE
|| __TEXT.__text __ZNK17C2KActivationInfo9dumpStateEPKN3ctu11OsLogLoggerE
|| __TEXT.__text __ZNK17PeriodicScheduler9dumpStateEv
|| __TEXT.__text __ZNK18Cdma1xNeighborCell9dumpStateEPKN3ctu11OsLogLoggerE
|| __TEXT.__text __ZNK18GsmCellInformation9dumpStateEPKN3ctu11OsLogLoggerE
|| __TEXT.__text __ZNK18LteCellInformation9dumpStateEPKN3ctu11OsLogLoggerE
|| __TEXT.__text __ZNK18NotifySubscription6resumeEv
|| __TEXT.__text __ZNK18NotifySubscription7suspendEv
|| __TEXT.__text __ZNK18NotifySubscription8getStateEv
|| __TEXT.__text __ZNK19C2KProvisioningInfo9dumpStateEPKN3ctu11OsLogLoggerE
|| __TEXT.__text __ZNK19CapabilitiesHandler7getNameEv
|| __TEXT.__text __ZNK19GsmRadioPersonality18getOverridesActiveEv
|| __TEXT.__text __ZNK19GsmRadioPersonality24getServiceShutdownStagesEv
|| __TEXT.__text __ZNK19GsmRadioPersonality7getNameEv
|| __TEXT.__text __ZNK19NetworkListOperator11getAsStringEv
|| __TEXT.__text __ZNK19NetworkListOperator11matchesPLMNERKS_
|| __TEXT.__text __ZNK19NetworkListOperator16getCompositeNameEv
|| __TEXT.__text __ZNK19NetworkListOperator20getNetworkNameSourceEv
|| __TEXT.__text __ZNK19NetworkListOperator6getKeyEv
|| __TEXT.__text __ZNK19NetworkListOperator6getMCCEv
|| __TEXT.__text __ZNK19NetworkListOperator6getMNCEv
|| __TEXT.__text __ZNK19NetworkListOperator6getRATEv
|| __TEXT.__text __ZNK19NetworkListOperator9dumpStateEPKN3ctu10LoggerBaseINSt3__110shared_ptrINS0_9LogServerEEEEE
|| __TEXT.__text __ZNK19NetworkListOperatoreqERKNSt3__112basic_stringIcNS0_11char_traitsIcEENS0_9allocatorIcEEEE
|| __TEXT.__text __ZNK19NetworkListOperatoreqERKS_
|| __TEXT.__text __ZNK19TDSCDMANeighborCell9dumpStateEPKN3ctu11OsLogLoggerE
|| __TEXT.__text __ZNK19TapeProfileMetadataeqERKS_
|| __TEXT.__text __ZNK19TapeProfileMetadataneERKS_
|| __TEXT.__text __ZNK19UmtsCellInformation9dumpStateEPKN3ctu11OsLogLoggerE
|| __TEXT.__text __ZNK19VinylProfileDetailseqERKS_
|| __TEXT.__text __ZNK19VinylProfileDetailsneERKS_
|| __TEXT.__text __ZNK20CdmaEvdoNeighborCell9dumpStateEPKN3ctu11OsLogLoggerE
|| __TEXT.__text __ZNK20MaxDataRateInterface26carrierAndDeviceSupportLTEEv
|| __TEXT.__text __ZNK20MaxDataRateInterface26getUserPreferenceEnableLTEEv
|| __TEXT.__text __ZNK20UMTSProvisioningInfo9dumpStateEPKN3ctu11OsLogLoggerE
|| __TEXT.__text __ZNK21BasebandModeEvaluator27getAwdReasonsForCurrentModeEv
|| __TEXT.__text __ZNK21Cdma1xCellInformation9dumpStateEPKN3ctu11OsLogLoggerE
|| __TEXT.__text __ZNK21DataBBResetThrottling10getTimeoutEv
|| __TEXT.__text __ZNK21DataBBResetThrottling10toThrottleEv
|| __TEXT.__text __ZNK21DataBBResetThrottling18timeSinceLastResetEv
|| __TEXT.__text __ZNK21DataUsageBillingCycle9dumpStateEPKN3ctu11OsLogLoggerEPKc
|| __TEXT.__text __ZNK21RegisteredNetworkInfo7compareERKS_
|| __TEXT.__text __ZNK21RegisteredNetworkInfo9dumpStateEPKcPKN3ctu11OsLogLoggerE
|| __TEXT.__text __ZNK21RegistrationInterface13getEriVersionEv
|| __TEXT.__text __ZNK21RegistrationInterface14getNetworkListEN3xpc10auto_replyE
|| __TEXT.__text __ZNK21RegistrationInterface14getServingPLMNEN3xpc10auto_replyE
|| __TEXT.__text __ZNK21RegistrationInterface14getServingPLMNEv
|| __TEXT.__text __ZNK21RegistrationInterface14isDataAttachedEN3xpc10auto_replyE
|| __TEXT.__text __ZNK21RegistrationInterface14isDataAttachedEv
|| __TEXT.__text __ZNK21RegistrationInterface15getOperatorNameEv
|| __TEXT.__text __ZNK21RegistrationInterface18getSelectedNetworkEN3xpc10auto_replyE
|| __TEXT.__text __ZNK21RegistrationInterface20getMobileCountryCodeEN3xpc10auto_replyE
|| __TEXT.__text __ZNK21RegistrationInterface20getMobileCountryCodeEv
|| __TEXT.__text __ZNK21RegistrationInterface20getMobileNetworkCodeEN3xpc10auto_replyE
|| __TEXT.__text __ZNK21RegistrationInterface20getMobileNetworkCodeEv
|| __TEXT.__text __ZNK21RegistrationInterface20getOperatorShortNameEN3xpc10auto_replyE
|| __TEXT.__text __ZNK21RegistrationInterface21getRegistrationStatusEv
|| __TEXT.__text __ZNK21RegistrationInterface23getNetworkSelectionModeEN3xpc10auto_replyE
|| __TEXT.__text __ZNK21RegistrationInterface24getNetworkSelectionStateEN3xpc10auto_replyE
|| __TEXT.__text __ZNK21RegistrationInterface24getRadioAccessTechnologyEN3xpc10auto_replyE
|| __TEXT.__text __ZNK21RegistrationInterface24getRadioAccessTechnologyEv
|| __TEXT.__text __ZNK21RegistrationInterface24getRegistrationCauseCodeEN3xpc10auto_replyE
|| __TEXT.__text __ZNK21RegistrationInterface28getRegistrationDisplayStatusEv
|| __TEXT.__text __ZNK21RegistrationInterface29getLastKnownMobileCountryCodeEN3xpc10auto_replyE
|| __TEXT.__text __ZNK21RegistrationInterface29isNetworkSelectionMenuEnabledEN3xpc10auto_replyE
|| __TEXT.__text __ZNK22GsmNeighborInformation9dumpStateEPKN3ctu11OsLogLoggerE
|| __TEXT.__text __ZNK22LteNeighborInformation9dumpStateEPKN3ctu11OsLogLoggerE
|| __TEXT.__text __ZNK22TDSCDMACellInformation9dumpStateEPKN3ctu11OsLogLoggerE
|| __TEXT.__text __ZNK22WirelessTechnologyList8asStringEv
|| __TEXT.__text __ZNK23CdmaEvdoCellInformation9dumpStateEPKN3ctu11OsLogLoggerE
|| __TEXT.__text __ZNK23GestaltUtilityInterface5isMacEv
|| __TEXT.__text __ZNK23GestaltUtilityInterface6isIPadEv
|| __TEXT.__text __ZNK23GestaltUtilityInterface7isWatchEv
|| __TEXT.__text __ZNK23GestaltUtilityInterface8isIPhoneEv
|| __TEXT.__text __ZNK23LoggingProfileInterface16isLoggingAllowedEv
|| __TEXT.__text __ZNK23PersonalitySpecificImpl13personalityIdEv
|| __TEXT.__text __ZNK23PersonalitySpecificImpl15personalityInfoEv
|| __TEXT.__text __ZNK23PersonalitySpecificImpl7simSlotEv
|| __TEXT.__text __ZNK23UmtsNeighborInformation9dumpStateEPKN3ctu11OsLogLoggerE
|| __TEXT.__text __ZNK24AttachApnModuleInterface19handlePRIFilePushedEv
|| __TEXT.__text __ZNK24AttachApnModuleInterface20settingFromUIAllowedEv
|| __TEXT.__text __ZNK24AttachApnModuleInterface24isAttachAPNTypeSupportedE21AttachAPNSettingsType
|| __TEXT.__text __ZNK24CarrierSettingsInterface31CopyValueFromActiveBundleForKeyEPK10__CFStringPKv
|| __TEXT.__text __ZNK24CarrierSettingsInterface40CopyValueFromActiveBundleForKeyHierarchyERKNSt3__16vectorIPK10__CFStringNS0_9allocatorIS4_EEEEPKv
|| __TEXT.__text __ZNK24CarrierSettingsInterface42CopyValueFromActiveBundleForKeyWithDefaultEPK10__CFStringPKv
|| __TEXT.__text __ZNK24CarrierSettingsInterface51CopyValueFromActiveBundleForKeyHierarchyWithDefaultERKNSt3__16vectorIPK10__CFStringNS0_9allocatorIS4_EEEEPKv
|| __TEXT.__text __ZNK24UMTSProvisioningSlotInfo9dumpStateEPKN3ctu11OsLogLoggerE
|| __TEXT.__text __ZNK25BasebandSettingsInterface27copySupportedAndActiveBandsEN3xpc10auto_replyE
|| __TEXT.__text __ZNK25Cdma1xNeighborInformation9dumpStateEPKN3ctu11OsLogLoggerE
|| __TEXT.__text __ZNK26SubscriberUtilityInterface16getSubscriberMccEN3xpc10auto_replyE
|| __TEXT.__text __ZNK26SubscriberUtilityInterface16getSubscriberMccEv
|| __TEXT.__text __ZNK26SubscriberUtilityInterface16getSubscriberMncEN3xpc10auto_replyE
|| __TEXT.__text __ZNK26SubscriberUtilityInterface16getSubscriberMncEv
|| __TEXT.__text __ZNK26SubscriberUtilityInterface25getLastKnownSubscriberMccEN3xpc10auto_replyE
|| __TEXT.__text __ZNK26TDSCDMANeighborInformation9dumpStateEPKN3ctu11OsLogLoggerE
|| __TEXT.__text __ZNK27BasebandModeActionDoNothing9dumpStateERKN3ctu10LoggerBaseINSt3__110shared_ptrINS0_9LogServerEEEEE
|| __TEXT.__text __ZNK27CdmaEvdoNeighborInformation9dumpStateEPKN3ctu11OsLogLoggerE
|| __TEXT.__text __ZNK27DataiRatControllerInterface31getiRatConnDataContextType_syncEN10subscriber7SimSlotE18DataConnectionType
|| __TEXT.__text __ZNK2sd10ImsFeature3SMS9isEnabledEb
|| __TEXT.__text __ZNK2sd10ImsFeature6VoWiFi9isEnabledEv
|| __TEXT.__text __ZNK2sd6UEInfo10DeviceInfo14domainFromImsiEv
|| __TEXT.__text __ZNK2sd6UEInfo10DeviceInfo16getThreeDigitMccEv
|| __TEXT.__text __ZNK2sd6UEInfo10DeviceInfo16getThreeDigitMncEv
|| __TEXT.__text __ZNK2sd6UEInfo10DeviceInfo22publicIdentityFromImsiEv
|| __TEXT.__text __ZNK2sd6UEInfo10DeviceInfo23privateIdentityFromImsiEv
|| __TEXT.__text __ZNK2sd6UEInfo10DeviceInfo5validEv
|| __TEXT.__text __ZNK2sd6UEInfo10DeviceInfoeqERKS1_
|| __TEXT.__text __ZNK2sd6UEInfo8IsimInfo5validEv
|| __TEXT.__text __ZNK2sd6UEInfo8IsimInfoeqERKS1_
|| __TEXT.__text __ZNK2sd6UEInfoeqERKS0_
|| __TEXT.__text __ZNK30PeriodicSchedulerConfiguration9dumpStateEP8os_log_s
|| __TEXT.__text __ZNK30PreferredNetworksCommandDriver9isImsiSetEv
|| __TEXT.__text __ZNK3MCC11getIntValueEv
|| __TEXT.__text __ZNK3MCC14getStringValueEv
|| __TEXT.__text __ZNK3MCC5validEv
|| __TEXT.__text __ZNK3MCCeqERKS_
|| __TEXT.__text __ZNK3MCCgtERKS_
|| __TEXT.__text __ZNK3MCCltERKS_
|| __TEXT.__text __ZNK3MCCneERKS_
|| __TEXT.__text __ZNK3MNC12isThreeDigitEv
|| __TEXT.__text __ZNK3MNC15getIntegerWidthEv
|| __TEXT.__text __ZNK3sms5Model12getMessageIDEv
|| __TEXT.__text __ZNK3sms5Model16getTransportTypeEv
|| __TEXT.__text __ZNK42CellularPlanEntitlementSubscriptionDetails9dumpStateEPKN3ctu11OsLogLoggerE
|| __TEXT.__text __ZNK42CellularPlanEntitlementSubscriptionDetailseqERKS_
|| __TEXT.__text __ZNK42CellularPlanEntitlementSubscriptionDetailsneERKS_
|| __TEXT.__text __ZNK4rest27CellularPlanBlacklistParams29serializeAdditionalPropertiesEv
|| __TEXT.__text __ZNK4rest38DeleteCloudCellularPlanBlacklistRecordeqERKS0_
|| __TEXT.__text __ZNK7AppType8asStringEv
|| __TEXT.__text __ZNK7GsmCell9dumpStateEPKN3ctu11OsLogLoggerE
|| __TEXT.__text __ZNK7LteCell9dumpStateEPKN3ctu11OsLogLoggerE
|| __TEXT.__text __ZNK8CallInfo11getDurationEv
|| __TEXT.__text __ZNK8CallInfo12getStartTimeEv
|| __TEXT.__text __ZNK8CallInfo14getLegacyFlagsEv
|| __TEXT.__text __ZNK8CallInfo18getSessionDurationEv
|| __TEXT.__text __ZNK8CallInfo18isProbablyOnlyCallEv
|| __TEXT.__text __ZNK8CallInfo19getSessionStartTimeEv
|| __TEXT.__text __ZNK8CallInfo24getCCDisconnectErrorCodeEv
|| __TEXT.__text __ZNK8CallInfo8toStringEv
|| __TEXT.__text __ZNK8CallInfocvbEv
|| __TEXT.__text __ZNK8CallInfoeqERKS_
|| __TEXT.__text __ZNK8CallInfoneERKS_
|| __TEXT.__text __ZNK8Registry12getLogServerEv
|| __TEXT.__text __ZNK8Registry13getRestServerEv
|| __TEXT.__text __ZNK8Registry13getRootHelperEv
|| __TEXT.__text __ZNK8Registry13getServiceMapEv
|| __TEXT.__text __ZNK8Registry15getMobileHelperEv
|| __TEXT.__text __ZNK8Registry15getTimerServiceEv
|| __TEXT.__text __ZNK8Registry16getRegistryModelEv
|| __TEXT.__text __ZNK8Registry17getServiceManagerEv
|| __TEXT.__text __ZNK8Registry19getMockTimerServiceEv
|| __TEXT.__text __ZNK8Registry19getRadioPersonalityEv
|| __TEXT.__text __ZNK8Registry21throwIfNotInitializedEv
|| __TEXT.__text __ZNK8Registry22getAwdServerConnectionEv
|| __TEXT.__text __ZNK8Registry22getFileSystemInterfaceEv
|| __TEXT.__text __ZNK8Registry24createXpcJetsamAssertionENSt3__112basic_stringIcNS0_11char_traitsIcEENS0_9allocatorIcEEEEN3ctu2os17signpost_intervalENS0_6chrono8durationIxNS0_5ratioILl1ELl1EEEEE
|| __TEXT.__text __ZNK8Registry24createXpcJetsamAssertionENSt3__112basic_stringIcNS0_11char_traitsIcEENS0_9allocatorIcEEEENS0_6chrono8durationIxNS0_5ratioILl1ELl1EEEEE
|| __TEXT.__text __ZNK8Registry24getCommandDriversFactoryEv
|| __TEXT.__text __ZNK8Registry24isInitializationCompleteEv
|| __TEXT.__text __ZNK8Registry28getNotificationSenderFactoryEv
|| __TEXT.__text __ZNK8Registry28getXpcJetsamAssertionManagerEv
|| __TEXT.__text __ZNK8Registry36createRestModuleOneTimeUseConnectionEv
|| __TEXT.__text __ZNK8Registry48createRestModuleOneTimeUseMobileHelperConnectionEv
|| __TEXT.__text __ZNK8SimLabel11sameContentERKS_
|| __TEXT.__text __ZNK8SimLabel16sameLabelContentERKNSt3__112basic_stringIcNS0_11char_traitsIcEENS0_9allocatorIcEEEES8_
|| __TEXT.__text __ZNK8SimLabel16sameLabelContentERKS_
|| __TEXT.__text __ZNK8SimLabeleqERKS_
|| __TEXT.__text __ZNK8SimLabelneERKS_
|| __TEXT.__text __ZNK8UmtsCell9dumpStateEPKN3ctu11OsLogLoggerE
|| __TEXT.__text __ZNK8cellplan19ProfileExtendedInfoeqERKS0_
|| __TEXT.__text __ZNK8cellplan19ProfileExtendedInfoneERKS0_
|| __TEXT.__text __ZNK8cellplan20LinkedPlanStatusInfo7isValidEv
|| __TEXT.__text __ZNK8cellplan23RemoteDeviceIdentifierseqERKS0_
|| __TEXT.__text __ZNK8cellplan23RemoteDeviceIdentifiersneERKS0_
|| __TEXT.__text __ZNK8cellplan23RemoteSimSelectionModel15hasValidProfileEv
|| __TEXT.__text __ZNK8cellplan23RemoteSimSelectionModel18isNonEsimSelectionEv
|| __TEXT.__text __ZNK8cellplan23RemoteSimSelectionModel6getCsnEv
|| __TEXT.__text __ZNK8cellplan23RemoteSimSelectionModel8getIccidEv
|| __TEXT.__text __ZNK8cellplan23RemoteSimSelectionModel9getStatusEv
|| __TEXT.__text __ZNK8cellplan23RemoteSimSelectionModelcvbEv
|| __TEXT.__text __ZNK8cellplan23RemoteSimSelectionModeleqERKS0_
|| __TEXT.__text __ZNK8cellplan23RemoteSimSelectionModelneERKS0_
|| __TEXT.__text __ZNK8cellplan25RemotePlanPhoneDeviceInfoeqERKS0_
|| __TEXT.__text __ZNK8cellplan25RemoteSimSubscriptionInfo15isSimReadyToUseEv
|| __TEXT.__text __ZNK8cellplan26RemotePlanSubscriptionInfoeqERKS0_
|| __TEXT.__text __ZNK8cellplan27RemoteSubscriptionStateInfoeqERKS0_
|| __TEXT.__text __ZNK8cellplan27RemoteSubscriptionStateInfoneERKS0_
|| __TEXT.__text __ZNK8cellplan28RemoteProvisioningDeviceInfoeqERKS0_
|| __TEXT.__text __ZNK8cellplan28RemoteProvisioningDeviceInfoneERKS0_
|| __TEXT.__text __ZNK8cellplan38RemotePlanSubscriptionPairedDeviceInfoeqERKS0_
|| __TEXT.__text __ZNK9DataTimer9dumpStateEv
|| __TEXT.__text __ZNK9MCCAndMNC14getStringValueEv
|| __TEXT.__text __ZNK9MCCAndMNC6getMccEv
|| __TEXT.__text __ZNK9MCCAndMNC6getMncEv
|| __TEXT.__text __ZNK9MCCAndMNCeqERKS_
|| __TEXT.__text __ZNK9MCCAndMNCltERKS_
|| __TEXT.__text __ZNK9MCCAndMNCneERKS_
|| __TEXT.__text __ZNK9VinylInfo11findProfileERKNSt3__112basic_stringIcNS0_11char_traitsIcEENS0_9allocatorIcEEEE
|| __TEXT.__text __ZNK9VinylInfo20getActiveUserProfileEv
|| __TEXT.__text __ZNK9VinylInfo21findProfileWithPrefixERKNSt3__112basic_stringIcNS0_11char_traitsIcEENS0_9allocatorIcEEEE
|| __TEXT.__text __ZNK9VinylInfoeqERKS_
|| __TEXT.__text __ZNKSt3__14hashI13SchedulerSpecEclERKS1_
|| __TEXT.__text __ZThn8_N21IMSCallModelInterfaceD0Ev
|| __TEXT.__text __ZThn8_N21IMSCallModelInterfaceD1Ev
|| __TEXT.__text __ZTv0_n24_N23PersonalitySpecificImplD0Ev
|| __TEXT.__text __ZTv0_n24_N23PersonalitySpecificImplD1Ev
|| __TEXT.__text __ZTv0_n24_N27DataConnectionAgentObserverD0Ev
|| __TEXT.__text __ZTv0_n24_N27DataConnectionAgentObserverD1Ev
|| __TEXT.__text __ZTv0_n24_N28DataConnectionAgentInterfaceD0Ev
|| __TEXT.__text __ZTv0_n24_N28DataConnectionAgentInterfaceD1Ev
|| __TEXT.__text __ZTv0_n32_NK23PersonalitySpecificImpl15personalityInfoEv
|| __TEXT.__text __ZTv0_n40_NK23PersonalitySpecificImpl7simSlotEv
|| __TEXT.__text __ZTv0_n48_NK23PersonalitySpecificImpl13personalityIdEv
|| __TEXT.__text __Zeq9RadioModeS_
|| __TEXT.__text __ZeqRK12WiFiSettingsS1_
|| __TEXT.__text __ZeqRK13DisplayStatusS1_
|| __TEXT.__text __ZeqRK13EmergencyModeS1_
|| __TEXT.__text __ZeqRK13SchedulerSpecS1_
|| __TEXT.__text __ZeqRK15PersonalityInfoS1_
|| __TEXT.__text __ZeqRK15TTYSettingsInfoS1_
|| __TEXT.__text __ZeqRK16CallStateSummaryS1_
|| __TEXT.__text __ZeqRK16TTYEnabledStatusS1_
|| __TEXT.__text __ZeqRK18SignalStrengthInfoS1_
|| __TEXT.__text __ZeqRK20EncryptionStatusInfoS1_
|| __TEXT.__text __ZeqRK20SubscriberDataIdInfoS1_
|| __TEXT.__text __ZeqRK20TerminalResponseInfoS1_
|| __TEXT.__text __ZeqRK21SubscriberCardDetailsS1_
|| __TEXT.__text __ZeqRK25RegistrationDisplayStatusS1_
|| __TEXT.__text __ZeqRK7SimImsiS1_
|| __TEXT.__text __ZlsRN3ctu16LogMessageBufferEN5boost5logic7triboolE
|| __TEXT.__text __ZlsRN3ctu16LogMessageBufferERK22CellularPlanDeviceInfo
|| __TEXT.__text __ZlsRNSt3__113basic_ostreamIcNS_11char_traitsIcEEEE10VinylError
|| __TEXT.__text __ZlsRNSt3__113basic_ostreamIcNS_11char_traitsIcEEEE17VinylAvailability
|| __TEXT.__text __ZlsRNSt3__113basic_ostreamIcNS_11char_traitsIcEEEERK14SwitchSimCause
|| __TEXT.__text __ZlsRNSt3__113basic_ostreamIcNS_11char_traitsIcEEEERK16CSIPacketAddress
|| __TEXT.__text __ZlsRNSt3__113basic_ostreamIcNS_11char_traitsIcEEEERK17CellularPlanError
|| __TEXT.__text __ZlsRNSt3__113basic_ostreamIcNS_11char_traitsIcEEEERK19VinylProfileDetails
|| __TEXT.__text __ZlsRNSt3__113basic_ostreamIcNS_11char_traitsIcEEEERK9CallState
|| __TEXT.__text __ZlsRNSt3__113basic_ostreamIcNS_11char_traitsIcEEEERK9MCCAndMNC
|| __TEXT.__text __ZlsRNSt3__113basic_ostreamIcNS_11char_traitsIcEEEERKN10subscriber15VinylCapabilityE
|| __TEXT.__text __Zne9RadioModeS_
|| __TEXT.__text __ZneRK12WiFiSettingsS1_
|| __TEXT.__text __ZneRK13DisplayStatusS1_
|| __TEXT.__text __ZneRK13EmergencyModeS1_
|| __TEXT.__text __ZneRK15PersonalityInfoS1_
|| __TEXT.__text __ZneRK15TTYSettingsInfoS1_
|| __TEXT.__text __ZneRK16CallStateSummaryS1_
|| __TEXT.__text __ZneRK16TTYEnabledStatusS1_
|| __TEXT.__text __ZneRK18SignalStrengthInfoS1_
|| __TEXT.__text __ZneRK20EncryptionStatusInfoS1_
|| __TEXT.__text __ZneRK20SubscriberDataIdInfoS1_
|| __TEXT.__text __ZneRK20TerminalResponseInfoS1_
|| __TEXT.__text __ZneRK21SubscriberCardDetailsS1_
|| __TEXT.__text __ZneRK25RegistrationDisplayStatusS1_
|| __TEXT.__text __ZneRK7SimImsiS1_
|| __TEXT.__text __Znt18FeatureSwitchState
|| __TEXT.__text __is3DigitMNCWithIMSI
|| __TEXT.__text __is3DigitMNCWithMCC
|| __TEXT.__text _isT3402CSIError
|| __TEXT.__text _kCTDataConnectionServiceTypeFromIndex
|| __TEXT.__text _kCTDataConnectionTypeFromString
|| __TEXT.__text _radioStateAsString
__ CoreFoundation: _CFAbsoluteTimeGetCurrent
__ CoreFoundation: _CFArrayAppendValue
__ CoreFoundation: _CFArrayApplyFunction
__ CoreFoundation: _CFArrayContainsValue
__ CoreFoundation: _CFArrayCreateMutable
__ CoreFoundation: _CFArrayCreateMutableCopy
__ CoreFoundation: _CFArrayGetCount
__ CoreFoundation: _CFArrayGetTypeID
__ CoreFoundation: _CFArrayGetValueAtIndex
__ CoreFoundation: _CFArraySetValueAtIndex
__ CoreFoundation: _CFBooleanGetTypeID
__ CoreFoundation: _CFBundleCopyResourceURL
__ CoreFoundation: _CFBundleCreate
__ CoreFoundation: _CFBundleGetIdentifier
__ CoreFoundation: _CFBundleGetMainBundle
__ CoreFoundation: _CFDataGetBytePtr
__ CoreFoundation: _CFDataGetLength
__ CoreFoundation: _CFDataGetTypeID
__ CoreFoundation: _CFDateCreate
__ CoreFoundation: _CFDateFormatterCreate
__ CoreFoundation: _CFDateFormatterCreateStringWithDate
__ CoreFoundation: _CFDateGetAbsoluteTime
__ CoreFoundation: _CFDictionaryAddValue
__ CoreFoundation: _CFDictionaryApplyFunction
__ CoreFoundation: _CFDictionaryCreate
__ CoreFoundation: _CFDictionaryCreateMutable
__ CoreFoundation: _CFDictionaryCreateMutableCopy
__ CoreFoundation: _CFDictionaryGetCount
__ CoreFoundation: _CFDictionaryGetKeysAndValues
__ CoreFoundation: _CFDictionaryGetTypeID
__ CoreFoundation: _CFDictionaryGetValue
__ CoreFoundation: _CFDictionarySetValue
__ CoreFoundation: _CFEqual
__ CoreFoundation: _CFErrorGetCode
__ CoreFoundation: _CFErrorGetDomain
__ CoreFoundation: _CFGetTypeID
__ CoreFoundation: _CFHash
__ CoreFoundation: _CFLocaleCopyCurrent
__ CoreFoundation: _CFNumberCreate
__ CoreFoundation: _CFNumberGetType
__ CoreFoundation: _CFNumberGetTypeID
__ CoreFoundation: _CFNumberGetValue
__ CoreFoundation: _CFPreferencesCopyValue
__ CoreFoundation: _CFPreferencesSetValue
__ CoreFoundation: _CFPreferencesSynchronize
__ CoreFoundation: _CFPropertyListCreateWithStream
__ CoreFoundation: _CFReadStreamClose
__ CoreFoundation: _CFReadStreamCreateWithFile
__ CoreFoundation: _CFReadStreamOpen
__ CoreFoundation: _CFRelease
__ CoreFoundation: _CFRetain
__ CoreFoundation: _CFStringCompare
__ CoreFoundation: _CFStringCreateWithCString
__ CoreFoundation: _CFStringFind
__ CoreFoundation: _CFStringGetLength
__ CoreFoundation: _CFStringGetTypeID
__ CoreFoundation: _CFStringReplace
__ CoreFoundation: _CFURLCopyAbsoluteURL
__ CoreFoundation: _CFURLCopyFileSystemPath
__ CoreFoundation: _CFURLCreateFromFileSystemRepresentation
__ CoreFoundation: _CFUUIDCreate
__ CoreFoundation: _CFUUIDCreateFromString
__ CoreFoundation: _CFUUIDCreateFromUUIDBytes
__ CoreFoundation: _CFUUIDCreateString
__ CoreFoundation: _CFUUIDCreateWithBytes
__ CoreFoundation: _CFUUIDGetTypeID
__ CoreFoundation: _CFUUIDGetUUIDBytes
__ CoreFoundation: _CFUserNotificationCreate
__ CoreFoundation: _NSCalendarIdentifierISO8601
__ CoreFoundation: _OBJC_CLASS_$_NSArray
__ CoreFoundation: _OBJC_CLASS_$_NSCalendar
__ CoreFoundation: _OBJC_CLASS_$_NSData
__ CoreFoundation: _OBJC_CLASS_$_NSDate
__ CoreFoundation: _OBJC_CLASS_$_NSDictionary
__ CoreFoundation: _OBJC_CLASS_$_NSMutableDictionary
__ CoreFoundation: ___CFConstantStringClassReference
__ CoreFoundation: _kCFAllocatorDefault
__ CoreFoundation: _kCFPreferencesAnyHost
__ CoreFoundation: _kCFPreferencesCurrentUser
__ CoreFoundation: _kCFTypeArrayCallBacks
__ CoreFoundation: _kCFTypeDictionaryKeyCallBacks
__ CoreFoundation: _kCFTypeDictionaryValueCallBacks
__ CoreFoundation: _kCFUserNotificationAlertHeaderKey
__ CoreFoundation: _kCFUserNotificationAlertMessageKey
__ CoreFoundation: _kCFUserNotificationDefaultButtonTitleKey
__ Foundation: _OBJC_CLASS_$_NSJSONSerialization
__ Foundation: _OBJC_CLASS_$_NSNumber
__ Foundation: _OBJC_CLASS_$_NSString
__ libSystem.B.dylib: _CC_SHA1
__ libSystem.B.dylib: __Block_copy
__ libSystem.B.dylib: __Block_object_assign
__ libSystem.B.dylib: __Block_object_dispose
__ libSystem.B.dylib: __Block_release
__ libSystem.B.dylib: __DefaultRuneLocale
__ libSystem.B.dylib: __NSConcreteStackBlock
__ libSystem.B.dylib: __Unwind_Resume
__ libSystem.B.dylib: ___assert_rtn
__ libSystem.B.dylib: ___cxa_atexit
__ libSystem.B.dylib: ___error
__ libSystem.B.dylib: ___maskrune
__ libSystem.B.dylib: ___stack_chk_fail
__ libSystem.B.dylib: ___stack_chk_guard
__ libSystem.B.dylib: ___tolower
__ libSystem.B.dylib: ___toupper
__ libSystem.B.dylib: __dispatch_source_type_timer
__ libSystem.B.dylib: __os_log_default
__ libSystem.B.dylib: __os_log_error_impl
__ libSystem.B.dylib: __os_log_fault_impl
__ libSystem.B.dylib: __os_log_impl
__ libSystem.B.dylib: __os_signpost_emit_with_name_impl
__ libSystem.B.dylib: __xpc_type_array
__ libSystem.B.dylib: __xpc_type_bool
__ libSystem.B.dylib: __xpc_type_data
__ libSystem.B.dylib: __xpc_type_dictionary
__ libSystem.B.dylib: __xpc_type_int64
__ libSystem.B.dylib: __xpc_type_null
__ libSystem.B.dylib: __xpc_type_string
__ libSystem.B.dylib: __xpc_type_uint64
__ libSystem.B.dylib: _bcmp
__ libSystem.B.dylib: _bzero
__ libSystem.B.dylib: _dispatch_activate
__ libSystem.B.dylib: _dispatch_async
__ libSystem.B.dylib: _dispatch_async_f
__ libSystem.B.dylib: _dispatch_barrier_async_f
__ libSystem.B.dylib: _dispatch_get_global_queue
__ libSystem.B.dylib: _dispatch_group_create
__ libSystem.B.dylib: _dispatch_group_enter
__ libSystem.B.dylib: _dispatch_group_leave
__ libSystem.B.dylib: _dispatch_group_notify
__ libSystem.B.dylib: _dispatch_group_notify_f
__ libSystem.B.dylib: _dispatch_group_wait
__ libSystem.B.dylib: _dispatch_queue_attr_make_with_qos_class
__ libSystem.B.dylib: _dispatch_queue_create
__ libSystem.B.dylib: _dispatch_queue_create_with_target$V2
__ libSystem.B.dylib: _dispatch_release
__ libSystem.B.dylib: _dispatch_retain
__ libSystem.B.dylib: _dispatch_semaphore_create
__ libSystem.B.dylib: _dispatch_semaphore_signal
__ libSystem.B.dylib: _dispatch_semaphore_wait
__ libSystem.B.dylib: _dispatch_source_cancel
__ libSystem.B.dylib: _dispatch_source_create
__ libSystem.B.dylib: _dispatch_source_set_event_handler
__ libSystem.B.dylib: _dispatch_source_set_timer
__ libSystem.B.dylib: _dispatch_sync
__ libSystem.B.dylib: _dispatch_time
__ libSystem.B.dylib: _free
__ libSystem.B.dylib: _gmtime_r
__ libSystem.B.dylib: _inet_ntop
__ libSystem.B.dylib: _inet_pton
__ libSystem.B.dylib: _kdebug_trace
__ libSystem.B.dylib: _localtime_r
__ libSystem.B.dylib: _mach_absolute_time
__ libSystem.B.dylib: _mach_timebase_info
__ libSystem.B.dylib: _malloc
__ libSystem.B.dylib: _memchr
__ libSystem.B.dylib: _memcmp
__ libSystem.B.dylib: _memcpy
__ libSystem.B.dylib: _memmove
__ libSystem.B.dylib: _memset
__ libSystem.B.dylib: _nan
__ libSystem.B.dylib: _notify_cancel
__ libSystem.B.dylib: _notify_get_state
__ libSystem.B.dylib: _notify_resume
__ libSystem.B.dylib: _notify_suspend
__ libSystem.B.dylib: _os_log_create
__ libSystem.B.dylib: _os_log_type_enabled
__ libSystem.B.dylib: _os_release
__ libSystem.B.dylib: _os_retain
__ libSystem.B.dylib: _os_signpost_enabled
__ libSystem.B.dylib: _os_signpost_id_generate
__ libSystem.B.dylib: _os_transaction_create
__ libSystem.B.dylib: _pthread_mutex_destroy
__ libSystem.B.dylib: _pthread_mutex_init
__ libSystem.B.dylib: _pthread_mutex_lock
__ libSystem.B.dylib: _pthread_mutex_unlock
__ libSystem.B.dylib: _snprintf
__ libSystem.B.dylib: _sscanf
__ libSystem.B.dylib: _strchr
__ libSystem.B.dylib: _strcmp
__ libSystem.B.dylib: _strlen
__ libSystem.B.dylib: _strtoul
__ libSystem.B.dylib: _time
__ libSystem.B.dylib: _timegm
__ libSystem.B.dylib: _usleep
__ libSystem.B.dylib: _xpc_array_append_value
__ libSystem.B.dylib: _xpc_array_create
__ libSystem.B.dylib: _xpc_array_get_count
__ libSystem.B.dylib: _xpc_array_get_value
__ libSystem.B.dylib: _xpc_bool_create
__ libSystem.B.dylib: _xpc_data_create
__ libSystem.B.dylib: _xpc_data_get_length
__ libSystem.B.dylib: _xpc_dictionary_apply
__ libSystem.B.dylib: _xpc_dictionary_create
__ libSystem.B.dylib: _xpc_dictionary_get_value
__ libSystem.B.dylib: _xpc_dictionary_set_value
__ libSystem.B.dylib: _xpc_double_create
__ libSystem.B.dylib: _xpc_get_type
__ libSystem.B.dylib: _xpc_int64_create
__ libSystem.B.dylib: _xpc_null_create
__ libSystem.B.dylib: _xpc_release
__ libSystem.B.dylib: _xpc_retain
__ libSystem.B.dylib: _xpc_string_create
__ libSystem.B.dylib: _xpc_string_create_with_format_and_arguments
__ libSystem.B.dylib: _xpc_uint64_create
__ libSystem.B.dylib: dyld_stub_binder
__ libTelephonyUtilDynamic.dylib: _TelephonyCapabilitiesRadioSupportsMultiClientAWD
__ libTelephonyUtilDynamic.dylib: _TelephonyRadiosGetProduct
__ libTelephonyUtilDynamic.dylib: _TelephonyRadiosGetRadio
__ libTelephonyUtilDynamic.dylib: __ZN3ctu10LoggerBaseINSt3__110shared_ptrINS_9LogServerEEEED0Ev
__ libTelephonyUtilDynamic.dylib: __ZN3ctu10LoggerBaseINSt3__110shared_ptrINS_9LogServerEEEED1Ev
__ libTelephonyUtilDynamic.dylib: __ZN3ctu10RestModuleC1EN8dispatch5queueENSt3__112basic_stringIcNS3_11char_traitsIcEENS3_9allocatorIcEEEE
__ libTelephonyUtilDynamic.dylib: __ZN3ctu10RestModuleC1ENSt3__112basic_stringIcNS1_11char_traitsIcEENS1_9allocatorIcEEEEN8dispatch5queueENS8_8workloopE
__ libTelephonyUtilDynamic.dylib: __ZN3ctu10RestModuleC1Ev
__ libTelephonyUtilDynamic.dylib: __ZN3ctu11OsLogLoggerC1EOS0_
__ libTelephonyUtilDynamic.dylib: __ZN3ctu11OsLogLoggerC1EP8os_log_s
__ libTelephonyUtilDynamic.dylib: __ZN3ctu11OsLogLoggerC1EPKcS2_
__ libTelephonyUtilDynamic.dylib: __ZN3ctu11OsLogLoggerC1ERKNS_12OsLogContextE
__ libTelephonyUtilDynamic.dylib: __ZN3ctu11OsLogLoggerC1ERKS0_
__ libTelephonyUtilDynamic.dylib: __ZN3ctu11OsLogLoggerD1Ev
__ libTelephonyUtilDynamic.dylib: __ZN3ctu12OsLogContextC1EOS0_
__ libTelephonyUtilDynamic.dylib: __ZN3ctu12OsLogContextC1EPKcS2_
__ libTelephonyUtilDynamic.dylib: __ZN3ctu12OsLogContextC1ERKS0_
__ libTelephonyUtilDynamic.dylib: __ZN3ctu12OsLogContextD1Ev
__ libTelephonyUtilDynamic.dylib: __ZN3ctu12OsLogContextaSEOS0_
__ libTelephonyUtilDynamic.dylib: __ZN3ctu12OsLogContextaSERKS0_
__ libTelephonyUtilDynamic.dylib: __ZN3ctu12StaticLoggerC1ENS_12OsLogContextERKNSt3__110shared_ptrINS_9LogServerEEE
__ libTelephonyUtilDynamic.dylib: __ZN3ctu12StaticLoggerC1ERKNSt3__112basic_stringIcNS1_11char_traitsIcEENS1_9allocatorIcEEEERKNS1_10shared_ptrINS_9LogServerEEE
__ libTelephonyUtilDynamic.dylib: __ZN3ctu12StaticLoggerC2ENS_12OsLogContextERKNSt3__110shared_ptrINS_9LogServerEEE
__ libTelephonyUtilDynamic.dylib: __ZN3ctu12StaticLoggerC2ERKNSt3__112basic_stringIcNS1_11char_traitsIcEENS1_9allocatorIcEEEERKNS1_10shared_ptrINS_9LogServerEEE
__ libTelephonyUtilDynamic.dylib: __ZN3ctu12StaticLoggerD1Ev
__ libTelephonyUtilDynamic.dylib: __ZN3ctu12StaticLoggerD2Ev
__ libTelephonyUtilDynamic.dylib: __ZN3ctu13TextConverter13popConversionEv
__ libTelephonyUtilDynamic.dylib: __ZN3ctu13TextConverter14pushConversionENS0_10ConversionEimi
__ libTelephonyUtilDynamic.dylib: __ZN3ctu13TextConverter17exceptionOccurredEv
__ libTelephonyUtilDynamic.dylib: __ZN3ctu13TextConverter21countSeptetsInMessageEPKcmNS0_16Ucs2ToGsm7TablesE
__ libTelephonyUtilDynamic.dylib: __ZN3ctu13TextConverter25decodeCbsDataCodingSchemeEiRNS0_12MessageClassERNS0_15MessageEncodingERb
__ libTelephonyUtilDynamic.dylib: __ZN3ctu13TextConverter25decodeSmsDataCodingSchemeEiRNS0_12MessageClassERNS0_15MessageEncodingERbS5_S5_S5_S5_RKNS_12StaticLoggerE
__ libTelephonyUtilDynamic.dylib: __ZN3ctu13TextConverter28countCharactersInUtf8MessageEPKcm
__ libTelephonyUtilDynamic.dylib: __ZN3ctu13TextConverter9readCharsEm
__ libTelephonyUtilDynamic.dylib: __ZN3ctu13TextConverter9setSourceEPKcm
__ libTelephonyUtilDynamic.dylib: __ZN3ctu13TextConverterC1Ev
__ libTelephonyUtilDynamic.dylib: __ZN3ctu13TextConverterD1Ev
__ libTelephonyUtilDynamic.dylib: __ZN3ctu13TrackedLogger22registerLoggerToServerERKNSt3__110shared_ptrINS_9LogServerEEERKNS1_12basic_stringIcNS1_11char_traitsIcEENS1_9allocatorIcEEEENS2_IS0_EE
__ libTelephonyUtilDynamic.dylib: __ZN3ctu16LoggerCommonBase20setInheritedLogLevelENS_8LogLevelE
__ libTelephonyUtilDynamic.dylib: __ZN3ctu16LoggerCommonBaseC2ENS_12OsLogContextE
__ libTelephonyUtilDynamic.dylib: __ZN3ctu16LoggerCommonBaseC2EOS0_
__ libTelephonyUtilDynamic.dylib: __ZN3ctu18XpcJetsamAssertion14createActivityENSt3__112basic_stringIcNS1_11char_traitsIcEENS1_9allocatorIcEEEE
__ libTelephonyUtilDynamic.dylib: __ZN3ctu19RequestRestResourceC1Ev
__ libTelephonyUtilDynamic.dylib: __ZN3ctu19RequestRestResourceD1Ev
__ libTelephonyUtilDynamic.dylib: __ZN3ctu19RestResourceContextD2Ev
__ libTelephonyUtilDynamic.dylib: __ZN3ctu20PropertyRestResourceC1Eb
__ libTelephonyUtilDynamic.dylib: __ZN3ctu20PropertyRestResourceD1Ev
__ libTelephonyUtilDynamic.dylib: __ZN3ctu21AssertionRestResourceC1Ev
__ libTelephonyUtilDynamic.dylib: __ZN3ctu21AssertionRestResourceD1Ev
__ libTelephonyUtilDynamic.dylib: __ZN3ctu22ConnectionRestResourceD1Ev
__ libTelephonyUtilDynamic.dylib: __ZN3ctu24RestListenerDelegateBaseD2Ev
__ libTelephonyUtilDynamic.dylib: __ZN3ctu2cf12convert_copyERPK10__CFStringPKcjPK13__CFAllocator
__ libTelephonyUtilDynamic.dylib: __ZN3ctu2cf12convert_copyERPK10__CFStringRKNSt3__112basic_stringIcNS5_11char_traitsIcEENS5_9allocatorIcEEEEjPK13__CFAllocator
__ libTelephonyUtilDynamic.dylib: __ZN3ctu2cf4showEPKv
__ libTelephonyUtilDynamic.dylib: __ZN3ctu2cf6assignERNSt3__112basic_stringIcNS1_11char_traitsIcEENS1_9allocatorIcEEEEPK10__CFString
__ libTelephonyUtilDynamic.dylib: __ZN3ctu2cf6assignERNSt3__112basic_stringIcNS1_11char_traitsIcEENS1_9allocatorIcEEEEPKv
__ libTelephonyUtilDynamic.dylib: __ZN3ctu2cf6assignERbPK11__CFBoolean
__ libTelephonyUtilDynamic.dylib: __ZN3ctu2cf6assignERiPK10__CFNumber
__ libTelephonyUtilDynamic.dylib: __ZN3ctu2cf6assignERxPK10__CFNumber
__ libTelephonyUtilDynamic.dylib: __ZN3ctu32ReplyCallbackRestResourceContextC1ERKN3xpc4dictERKN8dispatch5queueERKNSt3__110shared_ptrINS_22RestResourceConnectionEEENS9_8functionIFvNS1_6objectEEEE
__ libTelephonyUtilDynamic.dylib: __ZN3ctu3hexEPKvm
__ libTelephonyUtilDynamic.dylib: __ZN3ctu3hexERKNSt3__16vectorIhNS0_9allocatorIhEEEE
__ libTelephonyUtilDynamic.dylib: __ZN3ctu4rest15AssertionHandle6createERKNS_10RestModuleERKNSt3__112basic_stringIcNS5_11char_traitsIcEENS5_9allocatorIcEEEEb
__ libTelephonyUtilDynamic.dylib: __ZN3ctu4rest6detail21read_raw_binary_valueEPvmRKN3xpc6objectE
__ libTelephonyUtilDynamic.dylib: __ZN3ctu4rest6detail22read_enum_string_valueERaRKN3xpc6objectE
__ libTelephonyUtilDynamic.dylib: __ZN3ctu4rest6detail22read_enum_string_valueERhRKN3xpc6objectE
__ libTelephonyUtilDynamic.dylib: __ZN3ctu4rest6detail22read_enum_string_valueERiRKN3xpc6objectE
__ libTelephonyUtilDynamic.dylib: __ZN3ctu4rest6detail22read_enum_string_valueERjRKN3xpc6objectE
__ libTelephonyUtilDynamic.dylib: __ZN3ctu4rest6detail23write_enum_string_valueExPKc
__ libTelephonyUtilDynamic.dylib: __ZN3ctu4rest6detail23write_enum_string_valueEyPKc
__ libTelephonyUtilDynamic.dylib: __ZN3ctu5Clock18now_in_nanosecondsEv
__ libTelephonyUtilDynamic.dylib: __ZN3ctu8PathViewC1ENS_4llvm9StringRefE
__ libTelephonyUtilDynamic.dylib: __ZN3ctu8tokenizeERKNSt3__112basic_stringIcNS0_11char_traitsIcEENS0_9allocatorIcEEEEcm
__ libTelephonyUtilDynamic.dylib: __ZN3ctu9cf_to_xpcEPKv
__ libTelephonyUtilDynamic.dylib: __ZN3ctu9parse_hexERKNSt3__112basic_stringIcNS0_11char_traitsIcEENS0_9allocatorIcEEEENS_19HexWhitespaceOptionE
__ libTelephonyUtilDynamic.dylib: __ZN3ctulsERNS_16LogMessageBufferEPKc
__ libTelephonyUtilDynamic.dylib: __ZN3ctulsERNS_16LogMessageBufferERKNSt3__112basic_stringIcNS2_11char_traitsIcEENS2_9allocatorIcEEEE
__ libTelephonyUtilDynamic.dylib: __ZN3xpc19dyn_cast_or_defaultERKNS_6objectERKNSt3__112basic_stringIcNS3_11char_traitsIcEENS3_9allocatorIcEEEE
__ libTelephonyUtilDynamic.dylib: __ZN3xpc19dyn_cast_or_defaultERKNS_6objectERKNSt3__16vectorIhNS3_9allocatorIhEEEE
__ libTelephonyUtilDynamic.dylib: __ZN3xpc19dyn_cast_or_defaultERKNS_6objectEb
__ libTelephonyUtilDynamic.dylib: __ZN3xpc19dyn_cast_or_defaultERKNS_6objectEd
__ libTelephonyUtilDynamic.dylib: __ZN3xpc19dyn_cast_or_defaultERKNS_6objectEi
__ libTelephonyUtilDynamic.dylib: __ZN3xpc19dyn_cast_or_defaultERKNS_6objectEj
__ libTelephonyUtilDynamic.dylib: __ZN3xpc19dyn_cast_or_defaultERKNS_6objectEx
__ libTelephonyUtilDynamic.dylib: __ZN3xpc19dyn_cast_or_defaultERKNS_6objectEy
__ libTelephonyUtilDynamic.dylib: __ZN3xpc6bridgeERKNS_6objectE
__ libTelephonyUtilDynamic.dylib: __ZNK3ctu10LoggerBaseINSt3__110shared_ptrINS_9LogServerEEEE7enabledENS_8LogLevelE
__ libTelephonyUtilDynamic.dylib: __ZNK3ctu10RestModule10disconnectEv
__ libTelephonyUtilDynamic.dylib: __ZNK3ctu10RestModule12observeEventENSt3__112basic_stringIcNS1_11char_traitsIcEENS1_9allocatorIcEEEEONS1_8functionIFvN3xpc6objectEEEE
__ libTelephonyUtilDynamic.dylib: __ZNK3ctu10RestModule15observePropertyENSt3__112basic_stringIcNS1_11char_traitsIcEENS1_9allocatorIcEEEEONS1_8functionIFvN3xpc6objectEEEE
__ libTelephonyUtilDynamic.dylib: __ZNK3ctu10RestModule7connectENSt3__110shared_ptrINS_4rest21RestDispatchConnectorEEE
__ libTelephonyUtilDynamic.dylib: __ZNK3ctu10RestModule8getQueueEv
__ libTelephonyUtilDynamic.dylib: __ZNK3ctu10RestModule9sendEventENSt3__112basic_stringIcNS1_11char_traitsIcEENS1_9allocatorIcEEEEN3xpc6objectE
__ libTelephonyUtilDynamic.dylib: __ZNK3ctu16LoggerCommonBase12getLogDomainEv
__ libTelephonyUtilDynamic.dylib: __ZNK3ctu16LoggerCommonBase16getLocalLogLevelEv
__ libTelephonyUtilDynamic.dylib: __ZTIN3ctu12StaticLoggerE
__ libTelephonyUtilDynamic.dylib: __ZTIN3ctu13TrackedLoggerE
__ libTelephonyUtilDynamic.dylib: __ZTIN3ctu16LoggerCommonBaseE
__ libTelephonyUtilDynamic.dylib: __ZTIN3ctu24RestListenerDelegateBaseE
__ libTelephonyUtilDynamic.dylib: __ZTVN3ctu16TreeRestResourceE
__ libTelephonyUtilDynamic.dylib: __ZTVN3ctu22ConnectionRestResourceE
__ libTelephonyUtilDynamic.dylib: __ZTVN3ctu32ReplyCallbackRestResourceContextE
__ libTelephonyUtilDynamic.dylib: ___TUAssertTrigger
__ libc++.1.dylib: __ZNKSt13runtime_error4whatEv
__ libc++.1.dylib: __ZNKSt3__112basic_stringIcNS_11char_traitsIcEENS_9allocatorIcEEE2atEm
__ libc++.1.dylib: __ZNKSt3__112basic_stringIcNS_11char_traitsIcEENS_9allocatorIcEEE4findEcm
__ libc++.1.dylib: __ZNKSt3__112basic_stringIcNS_11char_traitsIcEENS_9allocatorIcEEE7compareEmmPKcm
__ libc++.1.dylib: __ZNKSt3__119__shared_weak_count13__get_deleterERKSt9type_info
__ libc++.1.dylib: __ZNKSt3__120__vector_base_commonILb1EE20__throw_length_errorEv
__ libc++.1.dylib: __ZNKSt3__120__vector_base_commonILb1EE20__throw_out_of_rangeEv
__ libc++.1.dylib: __ZNKSt3__121__basic_string_commonILb1EE20__throw_length_errorEv
__ libc++.1.dylib: __ZNKSt3__16locale9use_facetERNS0_2idE
__ libc++.1.dylib: __ZNKSt3__18ios_base6getlocEv
__ libc++.1.dylib: __ZNKSt9exception4whatEv
__ libc++.1.dylib: __ZNSt11logic_errorC2EPKc
__ libc++.1.dylib: __ZNSt12length_errorD1Ev
__ libc++.1.dylib: __ZNSt13runtime_errorC1EPKc
__ libc++.1.dylib: __ZNSt13runtime_errorC2EPKc
__ libc++.1.dylib: __ZNSt13runtime_errorC2ERKS_
__ libc++.1.dylib: __ZNSt13runtime_errorD1Ev
__ libc++.1.dylib: __ZNSt13runtime_errorD2Ev
__ libc++.1.dylib: __ZNSt3__112__get_sp_mutEPKv
__ libc++.1.dylib: __ZNSt3__112__next_primeEm
__ libc++.1.dylib: __ZNSt3__112bad_weak_ptrD1Ev
__ libc++.1.dylib: __ZNSt3__112basic_stringIcNS_11char_traitsIcEENS_9allocatorIcEEE6appendEPKc
__ libc++.1.dylib: __ZNSt3__112basic_stringIcNS_11char_traitsIcEENS_9allocatorIcEEE6appendEPKcm
__ libc++.1.dylib: __ZNSt3__112basic_stringIcNS_11char_traitsIcEENS_9allocatorIcEEE6assignEPKc
__ libc++.1.dylib: __ZNSt3__112basic_stringIcNS_11char_traitsIcEENS_9allocatorIcEEE6insertENS_11__wrap_iterIPKcEEc
__ libc++.1.dylib: __ZNSt3__112basic_stringIcNS_11char_traitsIcEENS_9allocatorIcEEE6insertEmPKc
__ libc++.1.dylib: __ZNSt3__112basic_stringIcNS_11char_traitsIcEENS_9allocatorIcEEE6insertEmPKcm
__ libc++.1.dylib: __ZNSt3__112basic_stringIcNS_11char_traitsIcEENS_9allocatorIcEEE6resizeEmc
__ libc++.1.dylib: __ZNSt3__112basic_stringIcNS_11char_traitsIcEENS_9allocatorIcEEE7replaceEmmPKcm
__ libc++.1.dylib: __ZNSt3__112basic_stringIcNS_11char_traitsIcEENS_9allocatorIcEEE9__grow_byEmmmmmm
__ libc++.1.dylib: __ZNSt3__112basic_stringIcNS_11char_traitsIcEENS_9allocatorIcEEE9push_backEc
__ libc++.1.dylib: __ZNSt3__112basic_stringIcNS_11char_traitsIcEENS_9allocatorIcEEEC1ERKS5_
__ libc++.1.dylib: __ZNSt3__112basic_stringIcNS_11char_traitsIcEENS_9allocatorIcEEEC1ERKS5_mmRKS4_
__ libc++.1.dylib: __ZNSt3__112basic_stringIcNS_11char_traitsIcEENS_9allocatorIcEEED1Ev
__ libc++.1.dylib: __ZNSt3__112basic_stringIcNS_11char_traitsIcEENS_9allocatorIcEEEaSERKS5_
__ libc++.1.dylib: __ZNSt3__113basic_istreamIcNS_11char_traitsIcEEED0Ev
__ libc++.1.dylib: __ZNSt3__113basic_istreamIcNS_11char_traitsIcEEED1Ev
__ libc++.1.dylib: __ZNSt3__113basic_istreamIcNS_11char_traitsIcEEED2Ev
__ libc++.1.dylib: __ZNSt3__113basic_istreamIcNS_11char_traitsIcEEErsERt
__ libc++.1.dylib: __ZNSt3__113basic_ostreamIcNS_11char_traitsIcEEE3putEc
__ libc++.1.dylib: __ZNSt3__113basic_ostreamIcNS_11char_traitsIcEEE5flushEv
__ libc++.1.dylib: __ZNSt3__113basic_ostreamIcNS_11char_traitsIcEEE6sentryC1ERS3_
__ libc++.1.dylib: __ZNSt3__113basic_ostreamIcNS_11char_traitsIcEEE6sentryD1Ev
__ libc++.1.dylib: __ZNSt3__113basic_ostreamIcNS_11char_traitsIcEEED0Ev
__ libc++.1.dylib: __ZNSt3__113basic_ostreamIcNS_11char_traitsIcEEED1Ev
__ libc++.1.dylib: __ZNSt3__113basic_ostreamIcNS_11char_traitsIcEEED2Ev
__ libc++.1.dylib: __ZNSt3__113basic_ostreamIcNS_11char_traitsIcEEElsEb
__ libc++.1.dylib: __ZNSt3__113basic_ostreamIcNS_11char_traitsIcEEElsEi
__ libc++.1.dylib: __ZNSt3__113basic_ostreamIcNS_11char_traitsIcEEElsEj
__ libc++.1.dylib: __ZNSt3__113basic_ostreamIcNS_11char_traitsIcEEElsEt
__ libc++.1.dylib: __ZNSt3__114basic_iostreamIcNS_11char_traitsIcEEED0Ev
__ libc++.1.dylib: __ZNSt3__114basic_iostreamIcNS_11char_traitsIcEEED1Ev
__ libc++.1.dylib: __ZNSt3__114basic_iostreamIcNS_11char_traitsIcEEED2Ev
__ libc++.1.dylib: __ZNSt3__115basic_streambufIcNS_11char_traitsIcEEE4syncEv
__ libc++.1.dylib: __ZNSt3__115basic_streambufIcNS_11char_traitsIcEEE5imbueERKNS_6localeE
__ libc++.1.dylib: __ZNSt3__115basic_streambufIcNS_11char_traitsIcEEE5uflowEv
__ libc++.1.dylib: __ZNSt3__115basic_streambufIcNS_11char_traitsIcEEE6setbufEPcl
__ libc++.1.dylib: __ZNSt3__115basic_streambufIcNS_11char_traitsIcEEE6xsgetnEPcl
__ libc++.1.dylib: __ZNSt3__115basic_streambufIcNS_11char_traitsIcEEE6xsputnEPKcl
__ libc++.1.dylib: __ZNSt3__115basic_streambufIcNS_11char_traitsIcEEE9showmanycEv
__ libc++.1.dylib: __ZNSt3__115basic_streambufIcNS_11char_traitsIcEEEC2Ev
__ libc++.1.dylib: __ZNSt3__115basic_streambufIcNS_11char_traitsIcEEED2Ev
__ libc++.1.dylib: __ZNSt3__119__shared_weak_count14__release_weakEv
__ libc++.1.dylib: __ZNSt3__119__shared_weak_count4lockEv
__ libc++.1.dylib: __ZNSt3__119__shared_weak_countD2Ev
__ libc++.1.dylib: __ZNSt3__15ctypeIcE2idE
__ libc++.1.dylib: __ZNSt3__15mutex4lockEv
__ libc++.1.dylib: __ZNSt3__15mutex6unlockEv
__ libc++.1.dylib: __ZNSt3__15mutexD1Ev
__ libc++.1.dylib: __ZNSt3__15stoulERKNS_12basic_stringIcNS_11char_traitsIcEENS_9allocatorIcEEEEPmi
__ libc++.1.dylib: __ZNSt3__16chrono12steady_clock3nowEv
__ libc++.1.dylib: __ZNSt3__16localeD1Ev
__ libc++.1.dylib: __ZNSt3__18__sp_mut4lockEv
__ libc++.1.dylib: __ZNSt3__18__sp_mut6unlockEv
__ libc++.1.dylib: __ZNSt3__18ios_base33__set_badbit_and_consider_rethrowEv
__ libc++.1.dylib: __ZNSt3__18ios_base4initEPv
__ libc++.1.dylib: __ZNSt3__18ios_base5clearEj
__ libc++.1.dylib: __ZNSt3__19basic_iosIcNS_11char_traitsIcEEED2Ev
__ libc++.1.dylib: __ZNSt3__19to_stringEi
__ libc++.1.dylib: __ZNSt3__19to_stringEj
__ libc++.1.dylib: __ZNSt3__19to_stringEx
__ libc++.1.dylib: __ZNSt3__1plIcNS_11char_traitsIcEENS_9allocatorIcEEEENS_12basic_stringIT_T0_T1_EEPKS6_RKS9_
__ libc++.1.dylib: __ZNSt9exceptionD2Ev
__ libc++.1.dylib: __ZSt9terminatev
__ libc++.1.dylib: __ZTINSt3__112bad_weak_ptrE
__ libc++.1.dylib: __ZTINSt3__113basic_istreamIcNS_11char_traitsIcEEEE
__ libc++.1.dylib: __ZTINSt3__113basic_ostreamIcNS_11char_traitsIcEEEE
__ libc++.1.dylib: __ZTINSt3__114basic_iostreamIcNS_11char_traitsIcEEEE
__ libc++.1.dylib: __ZTINSt3__115basic_streambufIcNS_11char_traitsIcEEEE
__ libc++.1.dylib: __ZTINSt3__119__shared_weak_countE
__ libc++.1.dylib: __ZTISt12length_error
__ libc++.1.dylib: __ZTISt13runtime_error
__ libc++.1.dylib: __ZTISt9exception
__ libc++.1.dylib: __ZTVN10__cxxabiv117__class_type_infoE
__ libc++.1.dylib: __ZTVN10__cxxabiv120__si_class_type_infoE
__ libc++.1.dylib: __ZTVN10__cxxabiv121__vmi_class_type_infoE
__ libc++.1.dylib: __ZTVNSt3__112bad_weak_ptrE
__ libc++.1.dylib: __ZTVSt12length_error
__ libc++.1.dylib: __ZThn16_NSt3__114basic_iostreamIcNS_11char_traitsIcEEED0Ev
__ libc++.1.dylib: __ZThn16_NSt3__114basic_iostreamIcNS_11char_traitsIcEEED1Ev
__ libc++.1.dylib: __ZTv0_n24_NSt3__113basic_istreamIcNS_11char_traitsIcEEED0Ev
__ libc++.1.dylib: __ZTv0_n24_NSt3__113basic_istreamIcNS_11char_traitsIcEEED1Ev
__ libc++.1.dylib: __ZTv0_n24_NSt3__113basic_ostreamIcNS_11char_traitsIcEEED0Ev
__ libc++.1.dylib: __ZTv0_n24_NSt3__113basic_ostreamIcNS_11char_traitsIcEEED1Ev
__ libc++.1.dylib: __ZTv0_n24_NSt3__114basic_iostreamIcNS_11char_traitsIcEEED0Ev
__ libc++.1.dylib: __ZTv0_n24_NSt3__114basic_iostreamIcNS_11char_traitsIcEEED1Ev
__ libc++.1.dylib: __ZdlPv
__ libc++.1.dylib: __Znwm
__ libc++.1.dylib: ___cxa_allocate_exception
__ libc++.1.dylib: ___cxa_begin_catch
__ libc++.1.dylib: ___cxa_end_catch
__ libc++.1.dylib: ___cxa_free_exception
__ libc++.1.dylib: ___cxa_guard_abort
__ libc++.1.dylib: ___cxa_guard_acquire
__ libc++.1.dylib: ___cxa_guard_release
__ libc++.1.dylib: ___cxa_pure_virtual
__ libc++.1.dylib: ___cxa_rethrow
__ libc++.1.dylib: ___cxa_throw
__ libc++.1.dylib: ___gxx_personality_v0
__ libobjc.A.dylib: _OBJC_CLASS_$_NSObject
__ libobjc.A.dylib: _OBJC_METACLASS_$_NSObject
__ libobjc.A.dylib: __objc_empty_cache
__ libobjc.A.dylib: _objc_alloc
__ libobjc.A.dylib: _objc_autoreleasePoolPop
__ libobjc.A.dylib: _objc_autoreleasePoolPush
__ libobjc.A.dylib: _objc_autoreleaseReturnValue
__ libobjc.A.dylib: _objc_msgSend
__ libobjc.A.dylib: _objc_msgSendSuper2
__ libobjc.A.dylib: _objc_opt_class
__ libobjc.A.dylib: _objc_opt_isKindOfClass
__ libobjc.A.dylib: _objc_opt_new
__ libobjc.A.dylib: _objc_opt_respondsToSelector
__ libobjc.A.dylib: _objc_release
__ libobjc.A.dylib: _objc_retain
__ libobjc.A.dylib: _objc_retainAutorelease
__ libobjc.A.dylib: _objc_retainAutoreleasedReturnValue
OCSharedLoggable : NSObject /usr/lib/libc++.1.dylib
 @property  {queue={object=^{dispatch_object_s}}} queue
 @property  {OsLogContext=*{OSSharedRef<os_log_s>=^{os_log_s}}} logContext

  // instance methods
  -[OCSharedLoggable initWithName:qosClass:logContext:]
  -[OCSharedLoggable .cxx_construct]
  -[OCSharedLoggable .cxx_destruct]
  -[OCSharedLoggable getQueue]
  -[OCSharedLoggable initWithQueue:logContext:]
  -[OCSharedLoggable setQueue:]
  -[OCSharedLoggable getLogContext]
  -[OCSharedLoggable setLogContext:]
  -[OCSharedLoggable executeFunction:]
  -[OCSharedLoggable executeBlock:]


(Typecast)
	// class methods
	+[(Typecast) typecast:]
	+[(Typecast) objectWithJSONString:]
	+[(Typecast) jsonStringWithObject:]

(JSON)
	// class methods
	+[(JSON) dictionaryWithJSONString:]

(JSON)
	// class methods
	+[(JSON) arrayWithJSONString:]

01 00 0800 /System/Library/Frameworks/CoreFoundation.framework/CoreFoundation: NSArray 
01 00 0800 /System/Library/Frameworks/CoreFoundation.framework/CoreFoundation: NSCalendar 
01 00 0800 /System/Library/Frameworks/CoreFoundation.framework/CoreFoundation: NSData 
01 00 0800 /System/Library/Frameworks/CoreFoundation.framework/CoreFoundation: NSDate 
01 00 0800 /System/Library/Frameworks/CoreFoundation.framework/CoreFoundation: NSDictionary 
01 00 0400 /System/Library/Frameworks/Foundation.framework/Foundation: NSJSONSerialization 
01 00 0800 /System/Library/Frameworks/CoreFoundation.framework/CoreFoundation: NSMutableDictionary 
01 00 0400 /System/Library/Frameworks/Foundation.framework/Foundation: NSNumber 
01 00 0500 /usr/lib/libobjc.A.dylib: NSObject 
01 00 0400 /System/Library/Frameworks/Foundation.framework/Foundation: NSString 
