|| __DATA_CONST.__const __ZTI26SystemDeterminationManager
|| __DATA_CONST.__const __ZTIN26SystemDeterminationManager24ImsEmergencyAuthDelegateE
|| __DATA_CONST.__const __ZTIN2sd10DCNManagerE
|| __DATA_CONST.__const __ZTIN2sd11DCNDelegateE
|| __DATA_CONST.__const __ZTIN2sd18IMSSubscriberModelE
|| __DATA_CONST.__const __ZTIN2sd19IMSDCNEventDelegateE
|| __DATA_CONST.__const __ZTIN2sd19IMSSubscriberConfigE
|| __DATA_CONST.__const __ZTIN2sd23IMSSubscriberControllerE
|| __DATA_CONST.__const __ZTIN2sd31IMSSubscriberControllerDelegateE
|| __DATA_CONST.__const __ZTIN2sd32IMSSubscriberControllerInterfaceE
|| __DATA_CONST.__const __ZTV26SystemDeterminationManager
|| __DATA_CONST.__const __ZTVN26SystemDeterminationManager24ImsEmergencyAuthDelegateE
|| __DATA_CONST.__const __ZTVN2sd10DCNManagerE
|| __DATA_CONST.__const __ZTVN2sd11DCNDelegateE
|| __DATA_CONST.__const __ZTVN2sd18IMSSubscriberModelE
|| __DATA_CONST.__const __ZTVN2sd19IMSDCNEventDelegateE
|| __DATA_CONST.__const __ZTVN2sd19IMSSubscriberConfigE
|| __DATA_CONST.__const __ZTVN2sd23IMSSubscriberControllerE
|| __DATA_CONST.__const __ZTVN2sd31IMSSubscriberControllerDelegateE
|| __DATA_CONST.__const __ZTVN2sd32IMSSubscriberControllerInterfaceE
|| __DATA_CONST.__const _kCTMobileEquipmentInfo1xIMSI
|| __DATA_CONST.__const _kCTMobileEquipmentInfoBaseId
|| __DATA_CONST.__const _kCTMobileEquipmentInfoBaseProfile
|| __DATA_CONST.__const _kCTMobileEquipmentInfoBaseVersion
|| __DATA_CONST.__const _kCTMobileEquipmentInfoCSN
|| __DATA_CONST.__const _kCTMobileEquipmentInfoCampedCountry
|| __DATA_CONST.__const _kCTMobileEquipmentInfoCarrierName
|| __DATA_CONST.__const _kCTMobileEquipmentInfoCurrentMobileId
|| __DATA_CONST.__const _kCTMobileEquipmentInfoCurrentSubscriberId
|| __DATA_CONST.__const _kCTMobileEquipmentInfoDisplayCSN
|| __DATA_CONST.__const _kCTMobileEquipmentInfoERIVersion
|| __DATA_CONST.__const _kCTMobileEquipmentInfoEUIMID
|| __DATA_CONST.__const _kCTMobileEquipmentInfoEffectiveICCID
|| __DATA_CONST.__const _kCTMobileEquipmentInfoICCID
|| __DATA_CONST.__const _kCTMobileEquipmentInfoIMEI
|| __DATA_CONST.__const _kCTMobileEquipmentInfoIMSI
|| __DATA_CONST.__const _kCTMobileEquipmentInfoMEID
|| __DATA_CONST.__const _kCTMobileEquipmentInfoMIN
|| __DATA_CONST.__const _kCTMobileEquipmentInfoNAI
|| __DATA_CONST.__const _kCTMobileEquipmentInfoPRIVersion
|| __DATA_CONST.__const _kCTMobileEquipmentInfoPRLVersion
|| __DATA_CONST.__const _kCTMobileEquipmentInfoSlotId
|| __TEXT.__const __ZTS26SystemDeterminationManager
|| __TEXT.__const __ZTSN26SystemDeterminationManager24ImsEmergencyAuthDelegateE
|| __TEXT.__const __ZTSN2sd10DCNManagerE
|| __TEXT.__const __ZTSN2sd11DCNDelegateE
|| __TEXT.__const __ZTSN2sd18IMSSubscriberModelE
|| __TEXT.__const __ZTSN2sd19IMSDCNEventDelegateE
|| __TEXT.__const __ZTSN2sd19IMSSubscriberConfigE
|| __TEXT.__const __ZTSN2sd23IMSSubscriberControllerE
|| __TEXT.__const __ZTSN2sd31IMSSubscriberControllerDelegateE
|| __TEXT.__const __ZTSN2sd32IMSSubscriberControllerInterfaceE
|| __TEXT.__text __ZN26SystemDeterminationManager10initializeEN8dispatch13group_sessionE
|| __TEXT.__text __ZN26SystemDeterminationManager12cleanup_syncERKN8dispatch13group_sessionE
|| __TEXT.__text __ZN26SystemDeterminationManager12clearBackOffEN10subscriber7SimSlotE
|| __TEXT.__text __ZN26SystemDeterminationManager12initWatchdogEv
|| __TEXT.__text __ZN26SystemDeterminationManager12submitMetricERKNSt3__110shared_ptrIN2sd27IMSSubscriberModelInterfaceEEENS2_13AwdNoticeTypeEb
|| __TEXT.__text __ZN26SystemDeterminationManager13getImsFeatureERK13PersonalityID
|| __TEXT.__text __ZN26SystemDeterminationManager13getImsFeatureEv
|| __TEXT.__text __ZN26SystemDeterminationManager15evaluateTTYModeERKNSt3__110shared_ptrIN2sd32IMSSubscriberControllerInterfaceEEEb
|| __TEXT.__text __ZN26SystemDeterminationManager15handleStateDumpERKNSt3__112basic_stringIcNS0_11char_traitsIcEENS0_9allocatorIcEEEE
|| __TEXT.__text __ZN26SystemDeterminationManager15setAddressRefIdERK13PersonalityIDRKNSt3__112basic_stringIcNS3_11char_traitsIcEENS3_9allocatorIcEEEESB_
|| __TEXT.__text __ZN26SystemDeterminationManager15setAddressRefIdERKNSt3__112basic_stringIcNS0_11char_traitsIcEENS0_9allocatorIcEEEES8_
|| __TEXT.__text __ZN26SystemDeterminationManager15setImsDataModesEv
|| __TEXT.__text __ZN26SystemDeterminationManager17setVoLTEAttachAPNERKNSt3__110shared_ptrIN2sd27IMSSubscriberModelInterfaceEEE
|| __TEXT.__text __ZN26SystemDeterminationManager18notifyServiceStartEv
|| __TEXT.__text __ZN26SystemDeterminationManager20setImsVoiceDataModesEv
|| __TEXT.__text __ZN26SystemDeterminationManager21evaluateSimFiles_syncERK13PersonalityID
|| __TEXT.__text __ZN26SystemDeterminationManager21handleAwdRegTimeFreshERKNSt3__110shared_ptrIN2sd27IMSSubscriberModelInterfaceEEE
|| __TEXT.__text __ZN26SystemDeterminationManager21handleCallActive_syncERK13PersonalityIDbb15PhoneNumberType
|| __TEXT.__text __ZN26SystemDeterminationManager21handleRatChanged_syncEN10subscriber7SimSlotE21RadioAccessTechnology
|| __TEXT.__text __ZN26SystemDeterminationManager21handleSimRefresh_syncEN10subscriber7SimSlotENS0_7SimCardENS0_15SimRefreshStageE
|| __TEXT.__text __ZN26SystemDeterminationManager21notifyServiceShutdownE20ServiceShutdownStageRK12ServiceStage
|| __TEXT.__text __ZN26SystemDeterminationManager21setApplicationId_syncERK13PersonalityIDh
|| __TEXT.__text __ZN26SystemDeterminationManager22evaluateIsimFiles_syncERKNSt3__110shared_ptrIN2sd32IMSSubscriberControllerInterfaceEEE
|| __TEXT.__text __ZN26SystemDeterminationManager22handleECBMChanged_syncEb
|| __TEXT.__text __ZN26SystemDeterminationManager22handleSimsChanged_syncERK12BasicSimInfo
|| __TEXT.__text __ZN26SystemDeterminationManager22notifyServiceBootstrapERKN8dispatch5groupE
|| __TEXT.__text __ZN26SystemDeterminationManager23handleAppIDChanged_syncEN10subscriber7SimSlotEi
|| __TEXT.__text __ZN26SystemDeterminationManager23handleCallInactive_syncERK13PersonalityIDb
|| __TEXT.__text __ZN26SystemDeterminationManager23handleRadioEnabled_syncEv
|| __TEXT.__text __ZN26SystemDeterminationManager24ImsEmergencyAuthDelegate18handleAuthenticateERKN3ims3aka7RequestE
|| __TEXT.__text __ZN26SystemDeterminationManager24createEmergencyIMSClientEv
|| __TEXT.__text __ZN26SystemDeterminationManager24handleRadioDisabled_syncEv
|| __TEXT.__text __ZN26SystemDeterminationManager24handleSSPTransportUpdateERK13PersonalityIDb
|| __TEXT.__text __ZN26SystemDeterminationManager24handleWifiAvailable_syncEb
|| __TEXT.__text __ZN26SystemDeterminationManager25handleImsDownCommand_syncERKNSt3__14pairIN10subscriber7SimSlotE11ImsDownTypeEE
|| __TEXT.__text __ZN26SystemDeterminationManager25handleTTYModeChanged_syncERK13PersonalityIDRK16TTYEnabledStatus
|| __TEXT.__text __ZN26SystemDeterminationManager25parseQoSPacketFilter_syncEN10subscriber7SimSlotEbRNSt3__16vectorI13DataQoSFilterNS2_9allocatorIS4_EEEERNS3_ItNS5_ItEEEE
|| __TEXT.__text __ZN26SystemDeterminationManager26handleCountryOfOriginationERKNSt3__110shared_ptrIN2sd32IMSSubscriberControllerInterfaceEEERKNS0_12basic_stringIcNS0_11char_traitsIcEENS0_9allocatorIcEEEE
|| __TEXT.__text __ZN26SystemDeterminationManager26handleDataModeChanged_syncEN10subscriber7SimSlotE8DataMode
|| __TEXT.__text __ZN26SystemDeterminationManager26handleDeviceIdChanged_syncERK13PersonalityIDRKNSt3__112basic_stringIcNS3_11char_traitsIcEENS3_9allocatorIcEEEE
|| __TEXT.__text __ZN26SystemDeterminationManager26handleIsRoamingUpdate_syncEN10subscriber7SimSlotE13RoamingResult
|| __TEXT.__text __ZN26SystemDeterminationManager27handleIsimFilesChanged_syncEN10subscriber7SimSlotEb
|| __TEXT.__text __ZN26SystemDeterminationManager27handlePcscfListChanged_syncERK13PersonalityIDRKNSt3__16vectorINS3_12basic_stringIcNS3_11char_traitsIcEENS3_9allocatorIcEEEENS8_ISA_EEEE15DataContextType
|| __TEXT.__text __ZN26SystemDeterminationManager27handlePersonalityAdded_syncERK13PersonalityID
|| __TEXT.__text __ZN26SystemDeterminationManager27onThumperFeatureChange_syncERKNSt3__110shared_ptrIN2sd32IMSSubscriberControllerInterfaceEEEb
|| __TEXT.__text __ZN26SystemDeterminationManager27requestCountryOfOriginationERK13PersonalityID
|| __TEXT.__text __ZN26SystemDeterminationManager27setThumperPrimaryConfiguredEN10subscriber7SimSlotEb
|| __TEXT.__text __ZN26SystemDeterminationManager28handleNewServingNetwork_syncEN10subscriber7SimSlotE
|| __TEXT.__text __ZN26SystemDeterminationManager28handleRFBandTypeChanged_syncEN10subscriber7SimSlotE10RFBandType
|| __TEXT.__text __ZN26SystemDeterminationManager28handleVoWiFiProvChanged_syncERK13PersonalityIDRK22VoWiFiConfigurationSrcS5_
|| __TEXT.__text __ZN26SystemDeterminationManager28resetFatalActivationBlockersEN10subscriber7SimSlotEPKcb
|| __TEXT.__text __ZN26SystemDeterminationManager29handleCallWaitingStatusUpdateERK13PersonalityIDb
|| __TEXT.__text __ZN26SystemDeterminationManager29handlePersonalityEnabled_syncERK13PersonalityID
|| __TEXT.__text __ZN26SystemDeterminationManager29handlePersonalityRemoved_syncERK13PersonalityID
|| __TEXT.__text __ZN26SystemDeterminationManager29handleWRMTelephonyChange_syncEv
|| __TEXT.__text __ZN26SystemDeterminationManager29subscriberMccMncComputed_syncEN10subscriber7SimSlotERKNSt3__112basic_stringIcNS2_11char_traitsIcEENS2_9allocatorIcEEEESA_
|| __TEXT.__text __ZN26SystemDeterminationManager30handleCarrierBundleChange_syncEN10subscriber7SimSlotE16BundleChangeType
|| __TEXT.__text __ZN26SystemDeterminationManager30handleSubscriptionChanged_syncEN10subscriber7SimSlotE
|| __TEXT.__text __ZN26SystemDeterminationManager30handleWidgetStatusChanged_syncEv
|| __TEXT.__text __ZN26SystemDeterminationManager30revokeImsClientNetworkServicesEv
|| __TEXT.__text __ZN26SystemDeterminationManager30setVoWiFiFeatureSupported_syncERKNSt3__110shared_ptrIN2sd32IMSSubscriberControllerInterfaceEEEb
|| __TEXT.__text __ZN26SystemDeterminationManager31handleOperatorBundleChange_syncEN10subscriber7SimSlotE16BundleChangeType
|| __TEXT.__text __ZN26SystemDeterminationManager31handlePhoneNumberAvailable_syncEN10subscriber7SimSlotERKNSt3__110shared_ptrI14CSIPhoneNumberEEb
|| __TEXT.__text __ZN26SystemDeterminationManager31sendRequestCountryOfOriginationEv
|| __TEXT.__text __ZN26SystemDeterminationManager32evaluateWifiKeepAliveStatus_syncERKNSt3__110shared_ptrIN2sd32IMSSubscriberControllerInterfaceEEE
|| __TEXT.__text __ZN26SystemDeterminationManager32handleRegisteredNetworkInfo_syncEN10subscriber7SimSlotERKNSt3__16vectorI27RegisteredNetworkInfoChangeNS2_9allocatorIS4_EEEERK21RegisteredNetworkInfo
|| __TEXT.__text __ZN26SystemDeterminationManager32updateFullFunctionPCRegistrationEN10subscriber7SimSlotERKN2sd20ImsRegistrationStateE
|| __TEXT.__text __ZN26SystemDeterminationManager33handleESIMSubscriptionChange_syncEv
|| __TEXT.__text __ZN26SystemDeterminationManager33notifyServicesOfRegistrationStateERKNSt3__110shared_ptrIN2sd27IMSSubscriberModelInterfaceEEERKNS2_20ImsRegistrationStateEb
|| __TEXT.__text __ZN26SystemDeterminationManager34evaluateTelephonyStatusHelper_syncERKNSt3__110shared_ptrIN2sd32IMSSubscriberControllerInterfaceEEEb
|| __TEXT.__text __ZN26SystemDeterminationManager35evaluateTelephonyStatusIfWatch_syncEv
|| __TEXT.__text __ZN26SystemDeterminationManager36handleAccessControlClassChanged_syncEN10subscriber7SimSlotERKNSt3__16vectorIhNS2_9allocatorIhEEEE
|| __TEXT.__text __ZN26SystemDeterminationManager37handleCountryOfOrigination_timer_syncEv
|| __TEXT.__text __ZN26SystemDeterminationManager37handleDataLowPowerModeTransition_syncEb
|| __TEXT.__text __ZN26SystemDeterminationManager37handleVoLTEFeatureSupportChanged_syncERK13PersonalityID15BoolWithUnknown
|| __TEXT.__text __ZN26SystemDeterminationManager38handleQualityOfServiceEstablished_syncE18QosFlowChangeEvent
|| __TEXT.__text __ZN26SystemDeterminationManager41handleCountryOfOrigination_available_syncERKNSt3__112basic_stringIcNS0_11char_traitsIcEENS0_9allocatorIcEEEE
|| __TEXT.__text __ZN26SystemDeterminationManager4initEv
|| __TEXT.__text __ZN26SystemDeterminationManager50checkBasebandAssertionIfInWiFiCallingOnlyMode_syncERKNSt3__110shared_ptrIN2sd27IMSSubscriberModelInterfaceEEE
|| __TEXT.__text __ZN26SystemDeterminationManager6createERKNSt3__110shared_ptrI8RegistryEENS0_10unique_ptrIN2sd29IMSSubscriberFactoryInterfaceENS0_14default_deleteIS8_EEEE
|| __TEXT.__text __ZN26SystemDeterminationManagerC1ERKNSt3__110shared_ptrI8RegistryEENS0_10unique_ptrIN2sd29IMSSubscriberFactoryInterfaceENS0_14default_deleteIS8_EEEE
|| __TEXT.__text __ZN26SystemDeterminationManagerC2ERKNSt3__110shared_ptrI8RegistryEENS0_10unique_ptrIN2sd29IMSSubscriberFactoryInterfaceENS0_14default_deleteIS8_EEEE
|| __TEXT.__text __ZN26SystemDeterminationManagerD0Ev
|| __TEXT.__text __ZN26SystemDeterminationManagerD1Ev
|| __TEXT.__text __ZN26SystemDeterminationManagerD2Ev
|| __TEXT.__text __ZN2sd10DCNManager11scheduleDCNERKNSt3__112basic_stringIcNS1_11char_traitsIcEENS1_9allocatorIcEEEE
|| __TEXT.__text __ZN2sd10DCNManager13handleCallEndEb
|| __TEXT.__text __ZN2sd10DCNManager13updateSimSlotEN10subscriber7SimSlotE
|| __TEXT.__text __ZN2sd10DCNManager15handleCallStartEb15PhoneNumberType
|| __TEXT.__text __ZN2sd10DCNManager15setDCNDataModesEv
|| __TEXT.__text __ZN2sd10DCNManager16handleECBMUpdateEb
|| __TEXT.__text __ZN2sd10DCNManager18cancelScheduledDCNEv
|| __TEXT.__text __ZN2sd10DCNManager20handleImsPdnInactiveEv
|| __TEXT.__text __ZN2sd10DCNManager20instantiateDCNPolicyEv
|| __TEXT.__text __ZN2sd10DCNManager21handleDataModeChangedE8DataMode
|| __TEXT.__text __ZN2sd10DCNManager22onDCNHysteresisTimeoutEv
|| __TEXT.__text __ZN2sd10DCNManager27handleImsRegistrationActiveEv
|| __TEXT.__text __ZN2sd10DCNManager28handleDCNDeliveryStatus_syncEb
|| __TEXT.__text __ZN2sd10DCNManager31handleImsRegistrationTerminatedEb
|| __TEXT.__text __ZN2sd10DCNManager6createERKNSt3__110shared_ptrIK8RegistryEEN8dispatch5queueEN10subscriber7SimSlotERKNS2_INS_37IMSSubscriberPersonalityBoundInstanceEEE
|| __TEXT.__text __ZN2sd10DCNManager7sendDCNERKNS_11DCNCallInfoE
|| __TEXT.__text __ZN2sd10DCNManager8shutdownEv
|| __TEXT.__text __ZN2sd10DCNManager9bootstrapERKNSt3__110shared_ptrINS_27IMSSubscriberEventInterfaceEEENS2_INS_11DCNDelegateEEE
|| __TEXT.__text __ZN2sd10DCNManagerC1ERKNSt3__110shared_ptrIK8RegistryEEN8dispatch5queueEN10subscriber7SimSlotERKNS2_INS_37IMSSubscriberPersonalityBoundInstanceEEE
|| __TEXT.__text __ZN2sd10DCNManagerC2ERKNSt3__110shared_ptrIK8RegistryEEN8dispatch5queueEN10subscriber7SimSlotERKNS2_INS_37IMSSubscriberPersonalityBoundInstanceEEE
|| __TEXT.__text __ZN2sd10DCNManagerD0Ev
|| __TEXT.__text __ZN2sd10DCNManagerD1Ev
|| __TEXT.__text __ZN2sd10DCNManagerD2Ev
|| __TEXT.__text __ZN2sd11DCNDelegateD0Ev
|| __TEXT.__text __ZN2sd11DCNDelegateD1Ev
|| __TEXT.__text __ZN2sd11DCNDelegateD2Ev
|| __TEXT.__text __ZN2sd18IMSSubscriberModel10fillMccMncERNSt3__119basic_ostringstreamIcNS1_11char_traitsIcEENS1_9allocatorIcEEEEtt
|| __TEXT.__text __ZN2sd18IMSSubscriberModel10setImsPrefE15DataContextTypePKy
|| __TEXT.__text __ZN2sd18IMSSubscriberModel10setRegMaskENS_7RegMaskE
|| __TEXT.__text __ZN2sd18IMSSubscriberModel12clearRegMaskEv
|| __TEXT.__text __ZN2sd18IMSSubscriberModel12unsetRegMaskENS_7RegMaskE
|| __TEXT.__text __ZN2sd18IMSSubscriberModel13updateSimInfoERK12BasicSimInfo
|| __TEXT.__text __ZN2sd18IMSSubscriberModel14updateIsimInfoEv
|| __TEXT.__text __ZN2sd18IMSSubscriberModel15enableTelephonyEb
|| __TEXT.__text __ZN2sd18IMSSubscriberModel15initialize_syncEv
|| __TEXT.__text __ZN2sd18IMSSubscriberModel15setAddressRefIdERKNSt3__112basic_stringIcNS1_11char_traitsIcEENS1_9allocatorIcEEEES9_
|| __TEXT.__text __ZN2sd18IMSSubscriberModel15setPrefsChangedEb
|| __TEXT.__text __ZN2sd18IMSSubscriberModel15updateIWLanModeEb15DataContextType
|| __TEXT.__text __ZN2sd18IMSSubscriberModel16evaluateSimFilesEv
|| __TEXT.__text __ZN2sd18IMSSubscriberModel16setInCallImsPrefEv
|| __TEXT.__text __ZN2sd18IMSSubscriberModel16updateDeviceInfoERKNSt3__112basic_stringIcNS1_11char_traitsIcEENS1_9allocatorIcEEEES9_
|| __TEXT.__text __ZN2sd18IMSSubscriberModel16updateDeviceInfoEv
|| __TEXT.__text __ZN2sd18IMSSubscriberModel17setCountrySetFlagEb
|| __TEXT.__text __ZN2sd18IMSSubscriberModel17updatePhoneNumberENSt3__110shared_ptrI14CSIPhoneNumberEE
|| __TEXT.__text __ZN2sd18IMSSubscriberModel17updateRuntimeInfoERKNS_11RuntimeInfoE
|| __TEXT.__text __ZN2sd18IMSSubscriberModel18resetInCallImsPrefEv
|| __TEXT.__text __ZN2sd18IMSSubscriberModel18setDisabledCountryERKNSt3__112basic_stringIcNS1_11char_traitsIcEENS1_9allocatorIcEEEE
|| __TEXT.__text __ZN2sd18IMSSubscriberModel18updateRoamingStateE13RoamingResult
|| __TEXT.__text __ZN2sd18IMSSubscriberModel18updateVoLTEEnabledEb
|| __TEXT.__text __ZN2sd18IMSSubscriberModel21updateCurrentImsStateERKNS_20ImsRegistrationStateE
|| __TEXT.__text __ZN2sd18IMSSubscriberModel21updatePersonalityInfoERKNSt3__110shared_ptrIK15PersonalityInfoEE
|| __TEXT.__text __ZN2sd18IMSSubscriberModel23setCountryOfOriginationERKNSt3__112basic_stringIcNS1_11char_traitsIcEENS1_9allocatorIcEEEE
|| __TEXT.__text __ZN2sd18IMSSubscriberModel23setImsRegistrationStateEN3ims17RegistrationStateE
|| __TEXT.__text __ZN2sd18IMSSubscriberModel24setCurrentConnHelperTypeENS_22ConnectivityHelperTypeE
|| __TEXT.__text __ZN2sd18IMSSubscriberModel26updateLastNotifiedImsStateERKNS_20ImsRegistrationStateE
|| __TEXT.__text __ZN2sd18IMSSubscriberModel27handlePersonalityAdded_syncEv
|| __TEXT.__text __ZN2sd18IMSSubscriberModel27updateLastAttemptedImsStateERKNS_20ImsRegistrationStateE
|| __TEXT.__text __ZN2sd18IMSSubscriberModel27updateNonVoLteSMSFromConfigEv
|| __TEXT.__text __ZN2sd18IMSSubscriberModel28updateLastRegisteredImsStateERKNS_20ImsRegistrationStateE
|| __TEXT.__text __ZN2sd18IMSSubscriberModel29handlePersonalityRemoved_syncEv
|| __TEXT.__text __ZN2sd18IMSSubscriberModel32setImsRegistrationQualifierMasksEv
|| __TEXT.__text __ZN2sd18IMSSubscriberModel5startEv
|| __TEXT.__text __ZN2sd18IMSSubscriberModel6createERKNSt3__110shared_ptrIK8RegistryEENS2_INS_28IMSSubscriberConfigInterfaceEEERKNS2_IK15PersonalityInfoEERKNS2_INS_37IMSSubscriberPersonalityBoundInstanceEEE
|| __TEXT.__text __ZN2sd18IMSSubscriberModel8shutdownEv
|| __TEXT.__text __ZN2sd18IMSSubscriberModel9bootstrapENSt3__110shared_ptrINS_27IMSSubscriberEventInterfaceEEENS2_INS_26IMSSubscriberModelDelegateEEE
|| __TEXT.__text __ZN2sd18IMSSubscriberModelC1ERKNSt3__110shared_ptrIK8RegistryEENS2_INS_28IMSSubscriberConfigInterfaceEEERKNS2_IK15PersonalityInfoEERKNS2_INS_37IMSSubscriberPersonalityBoundInstanceEEE
|| __TEXT.__text __ZN2sd18IMSSubscriberModelC2ERKNSt3__110shared_ptrIK8RegistryEENS2_INS_28IMSSubscriberConfigInterfaceEEERKNS2_IK15PersonalityInfoEERKNS2_INS_37IMSSubscriberPersonalityBoundInstanceEEE
|| __TEXT.__text __ZN2sd18IMSSubscriberModelD0Ev
|| __TEXT.__text __ZN2sd18IMSSubscriberModelD1Ev
|| __TEXT.__text __ZN2sd18IMSSubscriberModelD2Ev
|| __TEXT.__text __ZN2sd19IMSDCNEventDelegateD0Ev
|| __TEXT.__text __ZN2sd19IMSDCNEventDelegateD1Ev
|| __TEXT.__text __ZN2sd19IMSDCNEventDelegateD2Ev
|| __TEXT.__text __ZN2sd19IMSSubscriberConfig21updatePersonalityInfoERKNSt3__110shared_ptrIK15PersonalityInfoEE
|| __TEXT.__text __ZN2sd19IMSSubscriberConfig25getImsUriFormatFromStringERKNSt3__112basic_stringIcNS1_11char_traitsIcEENS1_9allocatorIcEEEE
|| __TEXT.__text __ZN2sd19IMSSubscriberConfig6createERKNSt3__110shared_ptrIK8RegistryEERKNS2_IK15PersonalityInfoEERKNS2_INS_37IMSSubscriberPersonalityBoundInstanceEEE
|| __TEXT.__text __ZN2sd19IMSSubscriberConfigC1ERKNSt3__110shared_ptrIK8RegistryEERKNS2_IK15PersonalityInfoEERKNS2_INS_37IMSSubscriberPersonalityBoundInstanceEEE
|| __TEXT.__text __ZN2sd19IMSSubscriberConfigC2ERKNSt3__110shared_ptrIK8RegistryEERKNS2_IK15PersonalityInfoEERKNS2_INS_37IMSSubscriberPersonalityBoundInstanceEEE
|| __TEXT.__text __ZN2sd19IMSSubscriberConfigD0Ev
|| __TEXT.__text __ZN2sd19IMSSubscriberConfigD1Ev
|| __TEXT.__text __ZN2sd19IMSSubscriberConfigD2Ev
|| __TEXT.__text __ZN2sd19imsRegStateToStringERKN3ims17RegistrationStateE
|| __TEXT.__text __ZN2sd23IMSSubscriberController12cleanup_syncEv
|| __TEXT.__text __ZN2sd23IMSSubscriberController13resetCallModeEv
|| __TEXT.__text __ZN2sd23IMSSubscriberController14handlePdnResetEv
|| __TEXT.__text __ZN2sd23IMSSubscriberController14onImsRegMaskUpEPKcNS_7RegMaskE
|| __TEXT.__text __ZN2sd23IMSSubscriberController15handleStateDumpERKNSt3__112basic_stringIcNS1_11char_traitsIcEENS1_9allocatorIcEEEE
|| __TEXT.__text __ZN2sd23IMSSubscriberController16onImsRegMaskDownEPKcNS_7RegMaskEb
|| __TEXT.__text __ZN2sd23IMSSubscriberController16reportPdnFailureEb
|| __TEXT.__text __ZN2sd23IMSSubscriberController17handleClientErrorERKNSt3__112basic_stringIcNS1_11char_traitsIcEENS1_9allocatorIcEEEEj
|| __TEXT.__text __ZN2sd23IMSSubscriberController17handleClientReadyEv
|| __TEXT.__text __ZN2sd23IMSSubscriberController17handleHPMEnd_syncEv
|| __TEXT.__text __ZN2sd23IMSSubscriberController17handleImsPco_syncERK10ImsPcoData
|| __TEXT.__text __ZN2sd23IMSSubscriberController17handleInitializedEj
|| __TEXT.__text __ZN2sd23IMSSubscriberController17handleMobike_syncEv
|| __TEXT.__text __ZN2sd23IMSSubscriberController17handlePcscfUpdateEb
|| __TEXT.__text __ZN2sd23IMSSubscriberController17resetServiceMasksEv
|| __TEXT.__text __ZN2sd23IMSSubscriberController17saveAttempedStateEv
|| __TEXT.__text __ZN2sd23IMSSubscriberController18handleAuthenticateERKN3ims3aka7RequestE
|| __TEXT.__text __ZN2sd23IMSSubscriberController18handleImsPref_syncERK11ImsPrefData
|| __TEXT.__text __ZN2sd23IMSSubscriberController18sendXcapConfigInfoEv
|| __TEXT.__text __ZN2sd23IMSSubscriberController18updateSSPTransportEb
|| __TEXT.__text __ZN2sd23IMSSubscriberController19handleHPMStart_syncEv
|| __TEXT.__text __ZN2sd23IMSSubscriberController19handleUninitializedEj
|| __TEXT.__text __ZN2sd23IMSSubscriberController19sendQoSRevoked_syncEi
|| __TEXT.__text __ZN2sd23IMSSubscriberController20createIMSClient_syncEv
|| __TEXT.__text __ZN2sd23IMSSubscriberController20onPlmnBarringTimeoutEv
|| __TEXT.__text __ZN2sd23IMSSubscriberController20sendSimInserted_syncEv
|| __TEXT.__text __ZN2sd23IMSSubscriberController20setCurrentHelperTypeENS_22ConnectivityHelperTypeE
|| __TEXT.__text __ZN2sd23IMSSubscriberController20updateIWLanMode_syncEb15DataContextType
|| __TEXT.__text __ZN2sd23IMSSubscriberController21abortPlmnBarringTimerEv
|| __TEXT.__text __ZN2sd23IMSSubscriberController21handleCallActive_syncEbb15PhoneNumberType
|| __TEXT.__text __ZN2sd23IMSSubscriberController21handleDcnAttempt_syncEv
|| __TEXT.__text __ZN2sd23IMSSubscriberController21setConnectivityHelperERKNSt3__110shared_ptrINS_30IMSConnectivityHelperInterfaceEEE
|| __TEXT.__text __ZN2sd23IMSSubscriberController21startPlmnBarringTimerEv
|| __TEXT.__text __ZN2sd23IMSSubscriberController22generateNextIdentifierEv
|| __TEXT.__text __ZN2sd23IMSSubscriberController22handleCellChanged_syncEv
|| __TEXT.__text __ZN2sd23IMSSubscriberController23evaluateImsFeature_syncEb
|| __TEXT.__text __ZN2sd23IMSSubscriberController23handleCallInactive_syncEb
|| __TEXT.__text __ZN2sd23IMSSubscriberController23handleImsPdpActive_syncEb15DataContextType
|| __TEXT.__text __ZN2sd23IMSSubscriberController23handleImsRegMaskUp_syncEPKcNS_7RegMaskE
|| __TEXT.__text __ZN2sd23IMSSubscriberController23handleRegistrationEventERKN3ims16RegistrationInfoE
|| __TEXT.__text __ZN2sd23IMSSubscriberController23sendImsStatusToBasebandERKNS_20ImsRegistrationStateEj
|| __TEXT.__text __ZN2sd23IMSSubscriberController23sendQoSEstablished_syncEibRKNSt3__16vectorItNS1_9allocatorItEEEE
|| __TEXT.__text __ZN2sd23IMSSubscriberController23sendThumperEnabled_syncEb
|| __TEXT.__text __ZN2sd23IMSSubscriberController23suppressImsPdnBringdownEPKc
|| __TEXT.__text __ZN2sd23IMSSubscriberController23updateCallWaitingStatusEb
|| __TEXT.__text __ZN2sd23IMSSubscriberController24handleRegistrationActiveERKN3ims22RegistrationActiveInfoE
|| __TEXT.__text __ZN2sd23IMSSubscriberController24handleSimRefreshEnd_syncEv
|| __TEXT.__text __ZN2sd23IMSSubscriberController24initializeImsClient_syncEb
|| __TEXT.__text __ZN2sd23IMSSubscriberController24limitedAccessImsRegisterEv
|| __TEXT.__text __ZN2sd23IMSSubscriberController24publishCallWaitingStatusEb
|| __TEXT.__text __ZN2sd23IMSSubscriberController24requestCallWaitingStatusEv
|| __TEXT.__text __ZN2sd23IMSSubscriberController24saveImsRegistrationStateERKNS_20ImsRegistrationStateE
|| __TEXT.__text __ZN2sd23IMSSubscriberController25handleConnectivityUp_syncEv
|| __TEXT.__text __ZN2sd23IMSSubscriberController25handleImsPdpInactive_syncEv
|| __TEXT.__text __ZN2sd23IMSSubscriberController25handleImsRegMaskDown_syncEPKcNS_7RegMaskE
|| __TEXT.__text __ZN2sd23IMSSubscriberController25handleRegistrationAllowedEv
|| __TEXT.__text __ZN2sd23IMSSubscriberController25onImsEstablishmentTimeoutEv
|| __TEXT.__text __ZN2sd23IMSSubscriberController25unsuppressImsPdnBringdownEPKc
|| __TEXT.__text __ZN2sd23IMSSubscriberController26abortImsEstablishmentTimerEv
|| __TEXT.__text __ZN2sd23IMSSubscriberController26checkAndSwitchToCSCallModeEv
|| __TEXT.__text __ZN2sd23IMSSubscriberController26deinitializeImsClient_syncEb
|| __TEXT.__text __ZN2sd23IMSSubscriberController26handleDataModeChanged_syncE8DataMode
|| __TEXT.__text __ZN2sd23IMSSubscriberController26handleDeviceIdChanged_syncERKNSt3__112basic_stringIcNS1_11char_traitsIcEENS1_9allocatorIcEEEE
|| __TEXT.__text __ZN2sd23IMSSubscriberController26isQualifiedToBringUpImsPdnEv
|| __TEXT.__text __ZN2sd23IMSSubscriberController26startImsEstablishmentTimerEj
|| __TEXT.__text __ZN2sd23IMSSubscriberController27handleConnectivityDown_syncEv
|| __TEXT.__text __ZN2sd23IMSSubscriberController27handleEmergencyAuthenticateENSt3__110shared_ptrIN3ims15EmergencyClientEEERKNS3_3aka7RequestE
|| __TEXT.__text __ZN2sd23IMSSubscriberController27handleMobikeOrHandover_syncEb15DataContextType
|| __TEXT.__text __ZN2sd23IMSSubscriberController27handlePcscfListChanged_syncERKNSt3__16vectorINS1_12basic_stringIcNS1_11char_traitsIcEENS1_9allocatorIcEEEENS6_IS8_EEEE15DataContextType
|| __TEXT.__text __ZN2sd23IMSSubscriberController27handlePersonalityAdded_syncEv
|| __TEXT.__text __ZN2sd23IMSSubscriberController27sendAccessControlClass_syncEj
|| __TEXT.__text __ZN2sd23IMSSubscriberController27setTTYModeForEmergency_syncENSt3__110shared_ptrIN3ims15EmergencyClientEEEb
|| __TEXT.__text __ZN2sd23IMSSubscriberController27suppressIMSStatusToBasebandEPKc
|| __TEXT.__text __ZN2sd23IMSSubscriberController28handleDcnDeliveryStatus_syncEb
|| __TEXT.__text __ZN2sd23IMSSubscriberController28handleNewInitialRegistrationEv
|| __TEXT.__text __ZN2sd23IMSSubscriberController28handleRegistrationIdentitiesERKNSt3__16vectorIN3ims20RegistrationIdentityENS1_9allocatorIS4_EEEE
|| __TEXT.__text __ZN2sd23IMSSubscriberController28resetNetworkAndNotificationsEb
|| __TEXT.__text __ZN2sd23IMSSubscriberController28sendAirplaneModeEnabled_syncEv
|| __TEXT.__text __ZN2sd23IMSSubscriberController29evaluateAndSendXcapConfigInfoEv
|| __TEXT.__text __ZN2sd23IMSSubscriberController29handlePersonalityRemoved_syncEv
|| __TEXT.__text __ZN2sd23IMSSubscriberController29sendAirplaneModeDisabled_syncEv
|| __TEXT.__text __ZN2sd23IMSSubscriberController29setTTYModeForIpTelephony_syncEb
|| __TEXT.__text __ZN2sd23IMSSubscriberController29unsuppressIMSStatusToBasebandEPKcb
|| __TEXT.__text __ZN2sd23IMSSubscriberController30handleRegistrationStateChangedERKN3ims17RegistrationStateE
|| __TEXT.__text __ZN2sd23IMSSubscriberController30handleSubscriptionChanged_syncEv
|| __TEXT.__text __ZN2sd23IMSSubscriberController30onImsRegStatusReportingTimeoutEv
|| __TEXT.__text __ZN2sd23IMSSubscriberController30sendServingNetworkChanged_syncEv
|| __TEXT.__text __ZN2sd23IMSSubscriberController31abortImsRegStatusReportingTimerEv
|| __TEXT.__text __ZN2sd23IMSSubscriberController31handleCountryOfOrigination_syncERKNSt3__112basic_stringIcNS1_11char_traitsIcEENS1_9allocatorIcEEEE
|| __TEXT.__text __ZN2sd23IMSSubscriberController31startImsRegStatusReportingTimerEv
|| __TEXT.__text __ZN2sd23IMSSubscriberController32handleImsRegistrationStateUpdateERKNS_20ImsRegistrationStateE
|| __TEXT.__text __ZN2sd23IMSSubscriberController32setBackoffEventTimeAndExpirationEj
|| __TEXT.__text __ZN2sd23IMSSubscriberController35performNetworkUpdateIfRequired_syncEb
|| __TEXT.__text __ZN2sd23IMSSubscriberController35updateImsClientNetworkServices_syncEb
|| __TEXT.__text __ZN2sd23IMSSubscriberController37handleDataLowPowerModeTransition_syncEb
|| __TEXT.__text __ZN2sd23IMSSubscriberController37setPendingImsSwitchStatusNotificationEb
|| __TEXT.__text __ZN2sd23IMSSubscriberController48suppressIMSStatusToBasebandWithConnectivityCheckEPKc
|| __TEXT.__text __ZN2sd23IMSSubscriberController5startEv
|| __TEXT.__text __ZN2sd23IMSSubscriberController6createERKNSt3__110shared_ptrIK8RegistryEEN8dispatch5queueENS1_10unique_ptrINS_29IMSSubscriberFactoryInterfaceENS1_14default_deleteISB_EEEERKNS2_INS_31IMSSubscriberControllerDelegateEEERKNS2_INS_27IMSSubscriberModelInterfaceEEERKNS2_INS_37IMSSubscriberPersonalityBoundInstanceEEE
|| __TEXT.__text __ZN2sd23IMSSubscriberController8shutdownEN8dispatch13group_sessionE
|| __TEXT.__text __ZN2sd23IMSSubscriberController9bootstrapERKNSt3__110shared_ptrINS_27IMSSubscriberEventInterfaceEEE
|| __TEXT.__text __ZN2sd23IMSSubscriberControllerC1ERKNSt3__110shared_ptrIK8RegistryEEN8dispatch5queueENS1_10unique_ptrINS_29IMSSubscriberFactoryInterfaceENS1_14default_deleteISB_EEEERKNS2_INS_31IMSSubscriberControllerDelegateEEERKNS2_INS_27IMSSubscriberModelInterfaceEEERKNS2_INS_37IMSSubscriberPersonalityBoundInstanceEEE
|| __TEXT.__text __ZN2sd23IMSSubscriberControllerC2ERKNSt3__110shared_ptrIK8RegistryEEN8dispatch5queueENS1_10unique_ptrINS_29IMSSubscriberFactoryInterfaceENS1_14default_deleteISB_EEEERKNS2_INS_31IMSSubscriberControllerDelegateEEERKNS2_INS_27IMSSubscriberModelInterfaceEEERKNS2_INS_37IMSSubscriberPersonalityBoundInstanceEEE
|| __TEXT.__text __ZN2sd23IMSSubscriberControllerD0Ev
|| __TEXT.__text __ZN2sd23IMSSubscriberControllerD1Ev
|| __TEXT.__text __ZN2sd23IMSSubscriberControllerD2Ev
|| __TEXT.__text __ZN2sd31IMSSubscriberControllerDelegateD0Ev
|| __TEXT.__text __ZN2sd31IMSSubscriberControllerDelegateD1Ev
|| __TEXT.__text __ZN2sd31IMSSubscriberControllerDelegateD2Ev
|| __TEXT.__text __ZN2sd32IMSSubscriberControllerInterfaceD0Ev
|| __TEXT.__text __ZN2sd32IMSSubscriberControllerInterfaceD1Ev
|| __TEXT.__text __ZN2sd32IMSSubscriberControllerInterfaceD2Ev
|| __TEXT.__text __ZN7SDTimer3setEi
|| __TEXT.__text __ZN7SDTimer6cancelEv
|| __TEXT.__text __ZN7SDTimerC1ERKNSt3__112basic_stringIcNS0_11char_traitsIcEENS0_9allocatorIcEEEERKNS0_10shared_ptrIK8RegistryEEN8dispatch5queueENS0_8functionIFvvEEE
|| __TEXT.__text __ZN7SDTimerC2ERKNSt3__112basic_stringIcNS0_11char_traitsIcEENS0_9allocatorIcEEEERKNS0_10shared_ptrIK8RegistryEEN8dispatch5queueENS0_8functionIFvvEEE
|| __TEXT.__text __ZN7SDTimerD1Ev
|| __TEXT.__text __ZN7SDTimerD2Ev
|| __TEXT.__text __ZNK26SystemDeterminationManager12printIRStateERKN2sd20ImsRegistrationStateEPKc
|| __TEXT.__text __ZNK26SystemDeterminationManager13isImsDataModeE8DataMode
|| __TEXT.__text __ZNK26SystemDeterminationManager14useMDNFromCSIMERK13PersonalityID
|| __TEXT.__text __ZNK26SystemDeterminationManager15getAddressRefIdERK13PersonalityIDRNSt3__112basic_stringIcNS3_11char_traitsIcEENS3_9allocatorIcEEEESA_
|| __TEXT.__text __ZNK26SystemDeterminationManager15getAddressRefIdERNSt3__112basic_stringIcNS0_11char_traitsIcEENS0_9allocatorIcEEEES7_
|| __TEXT.__text __ZNK26SystemDeterminationManager15getIMSClientRefERK13PersonalityID
|| __TEXT.__text __ZNK26SystemDeterminationManager15getIMSConfigRefERK13PersonalityID
|| __TEXT.__text __ZNK26SystemDeterminationManager15isIMSRegisteredERbRyS0_R15DataContextTypeb
|| __TEXT.__text __ZNK26SystemDeterminationManager16getApplicationIdERK13PersonalityID
|| __TEXT.__text __ZNK26SystemDeterminationManager16getApplicationIdEv
|| __TEXT.__text __ZNK26SystemDeterminationManager17getCellAccessInfoERK13PersonalityID
|| __TEXT.__text __ZNK26SystemDeterminationManager17getCellAccessInfoEv
|| __TEXT.__text __ZNK26SystemDeterminationManager17getWifiAccessInfoERK13PersonalityID
|| __TEXT.__text __ZNK26SystemDeterminationManager18getConnHelper_syncERK13PersonalityID
|| __TEXT.__text __ZNK26SystemDeterminationManager18getController_syncERK13PersonalityID
|| __TEXT.__text __ZNK26SystemDeterminationManager18isImsVoiceDataModeE8DataMode
|| __TEXT.__text __ZNK26SystemDeterminationManager19fetchImsCredentialsERK13PersonalityID
|| __TEXT.__text __ZNK26SystemDeterminationManager19getIMSInterfaceListERK13PersonalityIDRKNSt3__112basic_stringIcNS3_11char_traitsIcEENS3_9allocatorIcEEEE
|| __TEXT.__text __ZNK26SystemDeterminationManager20handleDumpState_syncEv
|| __TEXT.__text __ZNK26SystemDeterminationManager20isDeviceInWidgetModeEv
|| __TEXT.__text __ZNK26SystemDeterminationManager21getApplicationId_syncERK13PersonalityID
|| __TEXT.__text __ZNK26SystemDeterminationManager22getCellAccessTypeFieldERK13PersonalityID
|| __TEXT.__text __ZNK26SystemDeterminationManager22getCellAccessTypeFieldEv
|| __TEXT.__text __ZNK26SystemDeterminationManager22getIMSNetworkInterfaceERK13PersonalityID
|| __TEXT.__text __ZNK26SystemDeterminationManager22getIMSNetworkInterfaceEv
|| __TEXT.__text __ZNK26SystemDeterminationManager22getWifiAccessTypeFieldEv
|| __TEXT.__text __ZNK26SystemDeterminationManager22isRoamingDefinite_syncEN10subscriber7SimSlotE
|| __TEXT.__text __ZNK26SystemDeterminationManager22publicIdentityFromImsiERK13PersonalityID
|| __TEXT.__text __ZNK26SystemDeterminationManager22publicIdentityFromImsiEv
|| __TEXT.__text __ZNK26SystemDeterminationManager23getCountryOfOriginationEv
|| __TEXT.__text __ZNK26SystemDeterminationManager23shouldClearSimInfo_syncEN10subscriber7SimSlotE
|| __TEXT.__text __ZNK26SystemDeterminationManager24getEmergencyIMSClientRefEv
|| __TEXT.__text __ZNK26SystemDeterminationManager24getIMSRegistrationStatusERK13PersonalityIDNSt3__18functionIFvybEEE
|| __TEXT.__text __ZNK26SystemDeterminationManager24getServiceShutdownStagesEv
|| __TEXT.__text __ZNK26SystemDeterminationManager25getRegistrationState_syncEN10subscriber7SimSlotE
|| __TEXT.__text __ZNK26SystemDeterminationManager25isDeviceWithBaseband_syncEv
|| __TEXT.__text __ZNK26SystemDeterminationManager25isSimInfoCachingSupportedEv
|| __TEXT.__text __ZNK26SystemDeterminationManager27getIMSRegistrationTransportERK13PersonalityIDNSt3__18functionIFv15DataContextTypeS5_bEEE
|| __TEXT.__text __ZNK26SystemDeterminationManager28isInWiFiCallingOnlyMode_syncEv
|| __TEXT.__text __ZNK26SystemDeterminationManager36getIMSAlternateNetworkInterfaceNamesEv
|| __TEXT.__text __ZNK26SystemDeterminationManager37isCountryOfOriginationAcceptable_syncEv
|| __TEXT.__text __ZNK26SystemDeterminationManager7getNameEv
|| __TEXT.__text __ZNK2sd10DCNManager11isC2KDeviceEv
|| __TEXT.__text __ZNK2sd10DCNManager13isDCNDataModeEv
|| __TEXT.__text __ZNK2sd10DCNManager15handleDumpStateEv
|| __TEXT.__text __ZNK2sd10DCNManager17isDCNTimerPendingEv
|| __TEXT.__text __ZNK2sd10DCNManager18inQualifiedImsModeEv
|| __TEXT.__text __ZNK2sd10DCNManager7getNameEv
|| __TEXT.__text __ZNK2sd11DCNCallInfo9to_stringEv
|| __TEXT.__text __ZNK2sd18IMSSubscriberModel10getImsPrefE15DataContextType
|| __TEXT.__text __ZNK2sd18IMSSubscriberModel10getRegMaskEv
|| __TEXT.__text __ZNK2sd18IMSSubscriberModel10getSimSlotEv
|| __TEXT.__text __ZNK2sd18IMSSubscriberModel11dumpIRStateERKNS_20ImsRegistrationStateEPKc
|| __TEXT.__text __ZNK2sd18IMSSubscriberModel12getIWLanModeEv
|| __TEXT.__text __ZNK2sd18IMSSubscriberModel12getImsDomainEv
|| __TEXT.__text __ZNK2sd18IMSSubscriberModel12isRegMaskSetENS_7RegMaskE
|| __TEXT.__text __ZNK2sd18IMSSubscriberModel12isRegMaskSetEj
|| __TEXT.__text __ZNK2sd18IMSSubscriberModel13getImsFeatureEv
|| __TEXT.__text __ZNK2sd18IMSSubscriberModel13isInVolteModeEv
|| __TEXT.__text __ZNK2sd18IMSSubscriberModel13isUEInfoValidEv
|| __TEXT.__text __ZNK2sd18IMSSubscriberModel13isUSimPresentEv
|| __TEXT.__text __ZNK2sd18IMSSubscriberModel14getRuntimeInfoEv
|| __TEXT.__text __ZNK2sd18IMSSubscriberModel14isPrefsChangedEv
|| __TEXT.__text __ZNK2sd18IMSSubscriberModel14isVoLTEEnabledEv
|| __TEXT.__text __ZNK2sd18IMSSubscriberModel14useMDNFromCSIMEv
|| __TEXT.__text __ZNK2sd18IMSSubscriberModel15fetchRFBandTypeEv
|| __TEXT.__text __ZNK2sd18IMSSubscriberModel15getAddressRefIdERNSt3__112basic_stringIcNS1_11char_traitsIcEENS1_9allocatorIcEEEES8_
|| __TEXT.__text __ZNK2sd18IMSSubscriberModel15getRoamingStateEv
|| __TEXT.__text __ZNK2sd18IMSSubscriberModel15isIMSRegisteredERbRyS1_R15DataContextTypeb
|| __TEXT.__text __ZNK2sd18IMSSubscriberModel16getPersonalityIdEv
|| __TEXT.__text __ZNK2sd18IMSSubscriberModel16isCountrySetFlagEv
|| __TEXT.__text __ZNK2sd18IMSSubscriberModel16isProxyAvailableEv
|| __TEXT.__text __ZNK2sd18IMSSubscriberModel16shouldIgnoreISIMEv
|| __TEXT.__text __ZNK2sd18IMSSubscriberModel17isDeviceInfoValidEv
|| __TEXT.__text __ZNK2sd18IMSSubscriberModel18getCurrentDataModeEv
|| __TEXT.__text __ZNK2sd18IMSSubscriberModel18getCurrentImsStateEv
|| __TEXT.__text __ZNK2sd18IMSSubscriberModel18getDisabledCountryEv
|| __TEXT.__text __ZNK2sd18IMSSubscriberModel18getPersonalityInfoEv
|| __TEXT.__text __ZNK2sd18IMSSubscriberModel18getPersonalityTypeEv
|| __TEXT.__text __ZNK2sd18IMSSubscriberModel18getPrivateIdentityEv
|| __TEXT.__text __ZNK2sd18IMSSubscriberModel18isTelephonyEnabledEv
|| __TEXT.__text __ZNK2sd18IMSSubscriberModel19dumpImsFeatureStateEv
|| __TEXT.__text __ZNK2sd18IMSSubscriberModel19fetchImsCredentialsEv
|| __TEXT.__text __ZNK2sd18IMSSubscriberModel19getPublicIdentitiesEv
|| __TEXT.__text __ZNK2sd18IMSSubscriberModel19identityFromUriTypeERKNSt3__14pairINS_15UriUserPartTypeENS_13UriDomainTypeEEE
|| __TEXT.__text __ZNK2sd18IMSSubscriberModel19isIMSFeatureEnabledEv
|| __TEXT.__text __ZNK2sd18IMSSubscriberModel19isVoLTEEnabled_syncEv
|| __TEXT.__text __ZNK2sd18IMSSubscriberModel19logCurrentMaskStateENS_7RegMaskE
|| __TEXT.__text __ZNK2sd18IMSSubscriberModel20getIMSConnectionTypeEv
|| __TEXT.__text __ZNK2sd18IMSSubscriberModel20getRuntimeAccessInfoEb
|| __TEXT.__text __ZNK2sd18IMSSubscriberModel20getRuntimeAccessTypeEb
|| __TEXT.__text __ZNK2sd18IMSSubscriberModel20isNonVoLteSMSEnabledEv
|| __TEXT.__text __ZNK2sd18IMSSubscriberModel20printImsFeatureStateEPKc
|| __TEXT.__text __ZNK2sd18IMSSubscriberModel21isQualifiedToRegisterEv
|| __TEXT.__text __ZNK2sd18IMSSubscriberModel22allowIMSBasedOnTTYModeEv
|| __TEXT.__text __ZNK2sd18IMSSubscriberModel22createInitialRegParamsEPN3ims11StackConfigEb
|| __TEXT.__text __ZNK2sd18IMSSubscriberModel22createXcapConfigParamsEv
|| __TEXT.__text __ZNK2sd18IMSSubscriberModel22getImsSubscriberConfigEv
|| __TEXT.__text __ZNK2sd18IMSSubscriberModel23evaluateIMSServiceMasksERiS1_
|| __TEXT.__text __ZNK2sd18IMSSubscriberModel23getCountryOfOriginationEv
|| __TEXT.__text __ZNK2sd18IMSSubscriberModel23getImsRegistrationStateEv
|| __TEXT.__text __ZNK2sd18IMSSubscriberModel23getLastNotifiedImsStateEv
|| __TEXT.__text __ZNK2sd18IMSSubscriberModel23isUSIMFallbackSupportedEv
|| __TEXT.__text __ZNK2sd18IMSSubscriberModel24getCurrentConnHelperTypeEv
|| __TEXT.__text __ZNK2sd18IMSSubscriberModel24getLastAttemptedImsStateEv
|| __TEXT.__text __ZNK2sd18IMSSubscriberModel25getImsFeatureMaskOverCellEv
|| __TEXT.__text __ZNK2sd18IMSSubscriberModel25getImsFeatureMaskOverWiFiEv
|| __TEXT.__text __ZNK2sd18IMSSubscriberModel25getLastRegisteredImsStateEv
|| __TEXT.__text __ZNK2sd18IMSSubscriberModel25isRegisteringOrRegisteredEv
|| __TEXT.__text __ZNK2sd18IMSSubscriberModel26fillNetworkAccessInfo_syncERN3ims14AccessNetworksERKNSt3__112basic_stringIcNS4_11char_traitsIcEENS4_9allocatorIcEEEE
|| __TEXT.__text __ZNK2sd18IMSSubscriberModel26isQualifiedToBringUpImsPdnEv
|| __TEXT.__text __ZNK2sd18IMSSubscriberModel28createLimitedAccessRegParamsEPN3ims13NetworkConfigE
|| __TEXT.__text __ZNK2sd18IMSSubscriberModel28createUpdatedNetworkServicesEPN3ims15NetworkServicesERKNSt3__112basic_stringIcNS4_11char_traitsIcEENS4_9allocatorIcEEEE
|| __TEXT.__text __ZNK2sd18IMSSubscriberModel30isIMSAlowedBasedOnTTYMode_syncEv
|| __TEXT.__text __ZNK2sd18IMSSubscriberModel7getNameEv
|| __TEXT.__text __ZNK2sd18IMSSubscriberModel9dumpStateEv
|| __TEXT.__text __ZNK2sd18IMSSubscriberModel9getUEInfoEv
|| __TEXT.__text __ZNK2sd19IMSSubscriberConfig12isDCNAllowedEv
|| __TEXT.__text __ZNK2sd19IMSSubscriberConfig13CopyIMSConfigEbb
|| __TEXT.__text __ZNK2sd19IMSSubscriberConfig13getRFBandTypeEv
|| __TEXT.__text __ZNK2sd19IMSSubscriberConfig14useMDNFromCSIMEb
|| __TEXT.__text __ZNK2sd19IMSSubscriberConfig15isXCAPSupportedEv
|| __TEXT.__text __ZNK2sd19IMSSubscriberConfig16getDCNPolicyNameEv
|| __TEXT.__text __ZNK2sd19IMSSubscriberConfig16getTelephonyPrefERKNSt3__112basic_stringIcNS1_11char_traitsIcEENS1_9allocatorIcEEEE
|| __TEXT.__text __ZNK2sd19IMSSubscriberConfig16getTelephonyPrefERKNSt3__112basic_stringIcNS1_11char_traitsIcEENS1_9allocatorIcEEEES9_
|| __TEXT.__text __ZNK2sd19IMSSubscriberConfig16getTelephonyPrefERKNSt3__112basic_stringIcNS1_11char_traitsIcEENS1_9allocatorIcEEEEb
|| __TEXT.__text __ZNK2sd19IMSSubscriberConfig16getTelephonyPrefERKNSt3__112basic_stringIcNS1_11char_traitsIcEENS1_9allocatorIcEEEEi
|| __TEXT.__text __ZNK2sd19IMSSubscriberConfig16shouldIgnoreISIMEb
|| __TEXT.__text __ZNK2sd19IMSSubscriberConfig17getTTYOverIMSPrefEv
|| __TEXT.__text __ZNK2sd19IMSSubscriberConfig17getWifiAccessInfoEv
|| __TEXT.__text __ZNK2sd19IMSSubscriberConfig17isCDMALessEnabledEv
|| __TEXT.__text __ZNK2sd19IMSSubscriberConfig18CopyIMSConfigValueENSt3__14listIN3ctu2cf11CFSharedRefIK10__CFStringEENS1_9allocatorIS8_EEEEPKcPKvbb
|| __TEXT.__text __ZNK2sd19IMSSubscriberConfig18CopyIMSConfigValueEPKcPKvbb
|| __TEXT.__text __ZNK2sd19IMSSubscriberConfig18CopyIMSConfigValueEPKcS2_PKvbb
|| __TEXT.__text __ZNK2sd19IMSSubscriberConfig18CopyIMSConfigValueEPKcS2_S2_PKvbb
|| __TEXT.__text __ZNK2sd19IMSSubscriberConfig18isQoSRevokeEnabledEv
|| __TEXT.__text __ZNK2sd19IMSSubscriberConfig19getCBConnHelperTypeEv
|| __TEXT.__text __ZNK2sd19IMSSubscriberConfig19getpCSCFSettingAddrEv
|| __TEXT.__text __ZNK2sd19IMSSubscriberConfig20isUnsupportedCarrierEv
|| __TEXT.__text __ZNK2sd19IMSSubscriberConfig20isVoiceCallSupportedEv
|| __TEXT.__text __ZNK2sd19IMSSubscriberConfig21CopyIMSConfigSIMValueEPKcPKvb
|| __TEXT.__text __ZNK2sd19IMSSubscriberConfig22getImsDomainFromBundleERKNSt3__112basic_stringIcNS1_11char_traitsIcEENS1_9allocatorIcEEEEb
|| __TEXT.__text __ZNK2sd19IMSSubscriberConfig22getWifiAccessTypeFieldEv
|| __TEXT.__text __ZNK2sd19IMSSubscriberConfig23getImpiFormatFromBundleEb
|| __TEXT.__text __ZNK2sd19IMSSubscriberConfig23isUSIMFallbackSupportedEb
|| __TEXT.__text __ZNK2sd19IMSSubscriberConfig24carrierBlocksCallsOverCSEb
|| __TEXT.__text __ZNK2sd19IMSSubscriberConfig24isVoLTERequiredForVoWiFiEv
|| __TEXT.__text __ZNK2sd19IMSSubscriberConfig25CopyIMSConfigInitialValueENSt3__16vectorIPKcNS1_9allocatorIS4_EEEEPKvbb
|| __TEXT.__text __ZNK2sd19IMSSubscriberConfig25getBackOffTimerValueForRAEv
|| __TEXT.__text __ZNK2sd19IMSSubscriberConfig25isIMSUnprovisionedAllowedEv
|| __TEXT.__text __ZNK2sd19IMSSubscriberConfig25isSimInfoCachingSupportedEv
|| __TEXT.__text __ZNK2sd19IMSSubscriberConfig26getDCNHysteresisTimeoutValEv
|| __TEXT.__text __ZNK2sd19IMSSubscriberConfig26getPlmnBarringTimeoutValueEv
|| __TEXT.__text __ZNK2sd19IMSSubscriberConfig27shouldUseT3402ForPdpBackoffEv
|| __TEXT.__text __ZNK2sd19IMSSubscriberConfig28getBackOffTimerValueForiWlanEv
|| __TEXT.__text __ZNK2sd19IMSSubscriberConfig28getImpuFormatArrayFromBundleEb
|| __TEXT.__text __ZNK2sd19IMSSubscriberConfig28isWiFiCallingInApModeAllowedEv
|| __TEXT.__text __ZNK2sd19IMSSubscriberConfig31getImsEstablishmentTimeoutValueEv
|| __TEXT.__text __ZNK2sd19IMSSubscriberConfig33isSmsOverImsInNonVoLTEModeEnabledEv
|| __TEXT.__text __ZNK2sd19IMSSubscriberConfig34isImsStatusUpdateToBasebandBlockedEv
|| __TEXT.__text __ZNK2sd19IMSSubscriberConfig35isEnableSignalingReductionSupportedEv
|| __TEXT.__text __ZNK2sd19IMSSubscriberConfig36getImsRegStatusReportingTimeoutValueEv
|| __TEXT.__text __ZNK2sd19IMSSubscriberConfig44isSmsOverImsInNonVoLTEModeSupportedInRoamingEv
|| __TEXT.__text __ZNK2sd19IMSSubscriberConfig45isCallHandoverWithoutIMSVoiceServiceSupportedEv
|| __TEXT.__text __ZNK2sd19IMSSubscriberConfig7getNameEv
|| __TEXT.__text __ZNK2sd23IMSSubscriberController10isOnCsCallEv
|| __TEXT.__text __ZNK2sd23IMSSubscriberController11getImsStateEv
|| __TEXT.__text __ZNK2sd23IMSSubscriberController11isOnImsCallEv
|| __TEXT.__text __ZNK2sd23IMSSubscriberController12isCallActiveEv
|| __TEXT.__text __ZNK2sd23IMSSubscriberController12isDCNAllowedEv
|| __TEXT.__text __ZNK2sd23IMSSubscriberController12printIRStateERKNS_20ImsRegistrationStateEPKc
|| __TEXT.__text __ZNK2sd23IMSSubscriberController13getIdentifierEv
|| __TEXT.__text __ZNK2sd23IMSSubscriberController13getModel_syncEv
|| __TEXT.__text __ZNK2sd23IMSSubscriberController14getConfig_syncEv
|| __TEXT.__text __ZNK2sd23IMSSubscriberController15getApnName_syncEv
|| __TEXT.__text __ZNK2sd23IMSSubscriberController15getImsClientRefEv
|| __TEXT.__text __ZNK2sd23IMSSubscriberController15isIMSRegisteredERbRyS1_R15DataContextTypeb
|| __TEXT.__text __ZNK2sd23IMSSubscriberController16getDCNPolicyNameEv
|| __TEXT.__text __ZNK2sd23IMSSubscriberController16isBackoffExpiredEv
|| __TEXT.__text __ZNK2sd23IMSSubscriberController18getCurrentDataModeEv
|| __TEXT.__text __ZNK2sd23IMSSubscriberController18getDCNManager_syncEv
|| __TEXT.__text __ZNK2sd23IMSSubscriberController18getPersonalityInfoEv
|| __TEXT.__text __ZNK2sd23IMSSubscriberController20printImsFeatureStateERKNS_10ImsFeatureEPKc
|| __TEXT.__text __ZNK2sd23IMSSubscriberController21getConnectivityHelperEv
|| __TEXT.__text __ZNK2sd23IMSSubscriberController21isICloudConfigurationEv
|| __TEXT.__text __ZNK2sd23IMSSubscriberController24getIMSInterfaceList_syncERKNSt3__112basic_stringIcNS1_11char_traitsIcEENS1_9allocatorIcEEEE
|| __TEXT.__text __ZNK2sd23IMSSubscriberController25updateRestImsFeatureStateEv
|| __TEXT.__text __ZNK2sd23IMSSubscriberController26getDCNHysteresisTimeoutValEv
|| __TEXT.__text __ZNK2sd23IMSSubscriberController27getIMSNetworkInterface_syncEv
|| __TEXT.__text __ZNK2sd23IMSSubscriberController27isXcapConfigUpdateNecessaryEv
|| __TEXT.__text __ZNK2sd23IMSSubscriberController29shouldSendImsStatusToBasebandEv
|| __TEXT.__text __ZNK2sd23IMSSubscriberController32sendAccessNetworkInfoUpdate_syncEv
|| __TEXT.__text __ZNK2sd23IMSSubscriberController37getPendingImsSwitchStatusNotificationEv
|| __TEXT.__text __ZNK2sd23IMSSubscriberController7getNameEv
|| __TEXT.__text __ZNK2sd23IMSSubscriberController9dumpStateEv
|| __TEXT.__text __ZThn48_N26SystemDeterminationManager21handleCallActive_syncERK13PersonalityIDbb15PhoneNumberType
|| __TEXT.__text __ZThn48_N26SystemDeterminationManager21handleSimRefresh_syncEN10subscriber7SimSlotENS0_7SimCardENS0_15SimRefreshStageE
|| __TEXT.__text __ZThn48_N26SystemDeterminationManager22handleECBMChanged_syncEb
|| __TEXT.__text __ZThn48_N26SystemDeterminationManager22handleSimsChanged_syncERK12BasicSimInfo
|| __TEXT.__text __ZThn48_N26SystemDeterminationManager23handleAppIDChanged_syncEN10subscriber7SimSlotEi
|| __TEXT.__text __ZThn48_N26SystemDeterminationManager23handleCallInactive_syncERK13PersonalityIDb
|| __TEXT.__text __ZThn48_N26SystemDeterminationManager23handleRadioEnabled_syncEv
|| __TEXT.__text __ZThn48_N26SystemDeterminationManager24handleRadioDisabled_syncEv
|| __TEXT.__text __ZThn48_N26SystemDeterminationManager24handleWifiAvailable_syncEb
|| __TEXT.__text __ZThn48_N26SystemDeterminationManager25handleImsDownCommand_syncERKNSt3__14pairIN10subscriber7SimSlotE11ImsDownTypeEE
|| __TEXT.__text __ZThn48_N26SystemDeterminationManager25handleTTYModeChanged_syncERK13PersonalityIDRK16TTYEnabledStatus
|| __TEXT.__text __ZThn48_N26SystemDeterminationManager26handleDeviceIdChanged_syncERK13PersonalityIDRKNSt3__112basic_stringIcNS3_11char_traitsIcEENS3_9allocatorIcEEEE
|| __TEXT.__text __ZThn48_N26SystemDeterminationManager26handleIsRoamingUpdate_syncEN10subscriber7SimSlotE13RoamingResult
|| __TEXT.__text __ZThn48_N26SystemDeterminationManager27handleIsimFilesChanged_syncEN10subscriber7SimSlotEb
|| __TEXT.__text __ZThn48_N26SystemDeterminationManager27handlePcscfListChanged_syncERK13PersonalityIDRKNSt3__16vectorINS3_12basic_stringIcNS3_11char_traitsIcEENS3_9allocatorIcEEEENS8_ISA_EEEE15DataContextType
|| __TEXT.__text __ZThn48_N26SystemDeterminationManager27handlePersonalityAdded_syncERK13PersonalityID
|| __TEXT.__text __ZThn48_N26SystemDeterminationManager28handleNewServingNetwork_syncEN10subscriber7SimSlotE
|| __TEXT.__text __ZThn48_N26SystemDeterminationManager28handleRFBandTypeChanged_syncEN10subscriber7SimSlotE10RFBandType
|| __TEXT.__text __ZThn48_N26SystemDeterminationManager28handleVoWiFiProvChanged_syncERK13PersonalityIDRK22VoWiFiConfigurationSrcS5_
|| __TEXT.__text __ZThn48_N26SystemDeterminationManager29handlePersonalityEnabled_syncERK13PersonalityID
|| __TEXT.__text __ZThn48_N26SystemDeterminationManager29handlePersonalityRemoved_syncERK13PersonalityID
|| __TEXT.__text __ZThn48_N26SystemDeterminationManager29handleWRMTelephonyChange_syncEv
|| __TEXT.__text __ZThn48_N26SystemDeterminationManager29subscriberMccMncComputed_syncEN10subscriber7SimSlotERKNSt3__112basic_stringIcNS2_11char_traitsIcEENS2_9allocatorIcEEEESA_
|| __TEXT.__text __ZThn48_N26SystemDeterminationManager30handleCarrierBundleChange_syncEN10subscriber7SimSlotE16BundleChangeType
|| __TEXT.__text __ZThn48_N26SystemDeterminationManager30handleSubscriptionChanged_syncEN10subscriber7SimSlotE
|| __TEXT.__text __ZThn48_N26SystemDeterminationManager30handleWidgetStatusChanged_syncEv
|| __TEXT.__text __ZThn48_N26SystemDeterminationManager31handleOperatorBundleChange_syncEN10subscriber7SimSlotE16BundleChangeType
|| __TEXT.__text __ZThn48_N26SystemDeterminationManager31handlePhoneNumberAvailable_syncEN10subscriber7SimSlotERKNSt3__110shared_ptrI14CSIPhoneNumberEEb
|| __TEXT.__text __ZThn48_N26SystemDeterminationManager32handleRegisteredNetworkInfo_syncEN10subscriber7SimSlotERKNSt3__16vectorI27RegisteredNetworkInfoChangeNS2_9allocatorIS4_EEEERK21RegisteredNetworkInfo
|| __TEXT.__text __ZThn48_N26SystemDeterminationManager33handleESIMSubscriptionChange_syncEv
|| __TEXT.__text __ZThn48_N26SystemDeterminationManager36handleAccessControlClassChanged_syncEN10subscriber7SimSlotERKNSt3__16vectorIhNS2_9allocatorIhEEEE
|| __TEXT.__text __ZThn48_N26SystemDeterminationManager37handleDataLowPowerModeTransition_syncEb
|| __TEXT.__text __ZThn48_N26SystemDeterminationManager37handleVoLTEFeatureSupportChanged_syncERK13PersonalityID15BoolWithUnknown
|| __TEXT.__text __ZThn48_N26SystemDeterminationManager38handleQualityOfServiceEstablished_syncE18QosFlowChangeEvent
|| __TEXT.__text __ZThn48_N26SystemDeterminationManager41handleCountryOfOrigination_available_syncERKNSt3__112basic_stringIcNS0_11char_traitsIcEENS0_9allocatorIcEEEE
|| __TEXT.__text __ZThn48_N26SystemDeterminationManagerD0Ev
|| __TEXT.__text __ZThn48_N26SystemDeterminationManagerD1Ev
|| __TEXT.__text __ZThn48_N2sd10DCNManager16handleECBMUpdateEb
|| __TEXT.__text __ZThn48_N2sd10DCNManager28handleDCNDeliveryStatus_syncEb
|| __TEXT.__text __ZThn48_N2sd10DCNManagerD0Ev
|| __TEXT.__text __ZThn48_N2sd10DCNManagerD1Ev
|| __TEXT.__text __ZThn48_N2sd23IMSSubscriberController13resetCallModeEv
|| __TEXT.__text __ZThn48_N2sd23IMSSubscriberController16reportPdnFailureEb
|| __TEXT.__text __ZThn48_N2sd23IMSSubscriberController17handleImsPco_syncERK10ImsPcoData
|| __TEXT.__text __ZThn48_N2sd23IMSSubscriberController17saveAttempedStateEv
|| __TEXT.__text __ZThn48_N2sd23IMSSubscriberController18handleImsPref_syncERK11ImsPrefData
|| __TEXT.__text __ZThn48_N2sd23IMSSubscriberController23handleImsPdpActive_syncEb15DataContextType
|| __TEXT.__text __ZThn48_N2sd23IMSSubscriberController23handleImsRegMaskUp_syncEPKcNS_7RegMaskE
|| __TEXT.__text __ZThn48_N2sd23IMSSubscriberController25handleConnectivityUp_syncEv
|| __TEXT.__text __ZThn48_N2sd23IMSSubscriberController25handleImsPdpInactive_syncEv
|| __TEXT.__text __ZThn48_N2sd23IMSSubscriberController25handleImsRegMaskDown_syncEPKcNS_7RegMaskE
|| __TEXT.__text __ZThn48_N2sd23IMSSubscriberController26checkAndSwitchToCSCallModeEv
|| __TEXT.__text __ZThn48_N2sd23IMSSubscriberController26deinitializeImsClient_syncEb
|| __TEXT.__text __ZThn48_N2sd23IMSSubscriberController26isQualifiedToBringUpImsPdnEv
|| __TEXT.__text __ZThn48_N2sd23IMSSubscriberController27handleConnectivityDown_syncEv
|| __TEXT.__text __ZThn48_N2sd23IMSSubscriberController27handleMobikeOrHandover_syncEb15DataContextType
|| __TEXT.__text __ZThn48_N2sd23IMSSubscriberController27handlePcscfListChanged_syncERKNSt3__16vectorINS1_12basic_stringIcNS1_11char_traitsIcEENS1_9allocatorIcEEEENS6_IS8_EEEE15DataContextType
|| __TEXT.__text __ZThn48_N2sd23IMSSubscriberControllerD0Ev
|| __TEXT.__text __ZThn48_N2sd23IMSSubscriberControllerD1Ev
|| __TEXT.__text __ZThn48_NK26SystemDeterminationManager20handleDumpState_syncEv
|| __TEXT.__text __ZThn48_NK2sd23IMSSubscriberController12isCallActiveEv
|| __TEXT.__text __ZThn48_NK2sd23IMSSubscriberController18getPersonalityInfoEv
|| __TEXT.__text __ZThn56_N26SystemDeterminationManager12submitMetricERKNSt3__110shared_ptrIN2sd27IMSSubscriberModelInterfaceEEENS2_13AwdNoticeTypeEb
|| __TEXT.__text __ZThn56_N26SystemDeterminationManager15handleStateDumpERKNSt3__112basic_stringIcNS0_11char_traitsIcEENS0_9allocatorIcEEEE
|| __TEXT.__text __ZThn56_N26SystemDeterminationManager17setVoLTEAttachAPNERKNSt3__110shared_ptrIN2sd27IMSSubscriberModelInterfaceEEE
|| __TEXT.__text __ZThn56_N26SystemDeterminationManager21handleAwdRegTimeFreshERKNSt3__110shared_ptrIN2sd27IMSSubscriberModelInterfaceEEE
|| __TEXT.__text __ZThn56_N26SystemDeterminationManager27requestCountryOfOriginationERK13PersonalityID
|| __TEXT.__text __ZThn56_N26SystemDeterminationManager32updateFullFunctionPCRegistrationEN10subscriber7SimSlotERKN2sd20ImsRegistrationStateE
|| __TEXT.__text __ZThn56_N26SystemDeterminationManager33notifyServicesOfRegistrationStateERKNSt3__110shared_ptrIN2sd27IMSSubscriberModelInterfaceEEERKNS2_20ImsRegistrationStateEb
|| __TEXT.__text __ZThn56_N26SystemDeterminationManagerD0Ev
|| __TEXT.__text __ZThn56_N26SystemDeterminationManagerD1Ev
|| __TEXT.__text __ZThn56_N2sd23IMSSubscriberControllerD0Ev
|| __TEXT.__text __ZThn56_N2sd23IMSSubscriberControllerD1Ev
|| __TEXT.__text __ZThn56_NK26SystemDeterminationManager13isImsDataModeE8DataMode
|| __TEXT.__text __ZThn56_NK26SystemDeterminationManager18isImsVoiceDataModeE8DataMode
|| __TEXT.__text __ZThn56_NK2sd23IMSSubscriberController15getApnName_syncEv
|| __TEXT.__text __ZThn56_NK2sd23IMSSubscriberController21isICloudConfigurationEv
|| __TEXT.__text __ZThn56_NK2sd23IMSSubscriberController24getIMSInterfaceList_syncERKNSt3__112basic_stringIcNS1_11char_traitsIcEENS1_9allocatorIcEEEE
|| __TEXT.__text __ZThn56_NK2sd23IMSSubscriberController27getIMSNetworkInterface_syncEv
|| __TEXT.__text __ZThn64_N26SystemDeterminationManagerD0Ev
|| __TEXT.__text __ZThn64_N26SystemDeterminationManagerD1Ev
|| __TEXT.__text __ZThn64_N2sd23IMSSubscriberController14handlePdnResetEv
|| __TEXT.__text __ZThn64_N2sd23IMSSubscriberController15handleStateDumpERKNSt3__112basic_stringIcNS1_11char_traitsIcEENS1_9allocatorIcEEEE
|| __TEXT.__text __ZThn64_N2sd23IMSSubscriberController17handleClientErrorERKNSt3__112basic_stringIcNS1_11char_traitsIcEENS1_9allocatorIcEEEEj
|| __TEXT.__text __ZThn64_N2sd23IMSSubscriberController17handleInitializedEj
|| __TEXT.__text __ZThn64_N2sd23IMSSubscriberController18handleAuthenticateERKN3ims3aka7RequestE
|| __TEXT.__text __ZThn64_N2sd23IMSSubscriberController19handleUninitializedEj
|| __TEXT.__text __ZThn64_N2sd23IMSSubscriberController23handleRegistrationEventERKN3ims16RegistrationInfoE
|| __TEXT.__text __ZThn64_N2sd23IMSSubscriberController24handleRegistrationActiveERKN3ims22RegistrationActiveInfoE
|| __TEXT.__text __ZThn64_N2sd23IMSSubscriberController25handleRegistrationAllowedEv
|| __TEXT.__text __ZThn64_N2sd23IMSSubscriberController28handleNewInitialRegistrationEv
|| __TEXT.__text __ZThn64_N2sd23IMSSubscriberController28handleRegistrationIdentitiesERKNSt3__16vectorIN3ims20RegistrationIdentityENS1_9allocatorIS4_EEEE
|| __TEXT.__text __ZThn64_N2sd23IMSSubscriberController30handleRegistrationStateChangedERKN3ims17RegistrationStateE
|| __TEXT.__text __ZThn64_N2sd23IMSSubscriberControllerD0Ev
|| __TEXT.__text __ZThn64_N2sd23IMSSubscriberControllerD1Ev
|| __TEXT.__text __ZThn64_NK26SystemDeterminationManager22isRoamingDefinite_syncEN10subscriber7SimSlotE
|| __TEXT.__text __ZThn64_NK26SystemDeterminationManager25getRegistrationState_syncEN10subscriber7SimSlotE
|| __TEXT.__text __ZThn72_N2sd23IMSSubscriberController21handleDcnAttempt_syncEv
|| __TEXT.__text __ZThn72_N2sd23IMSSubscriberController28handleDcnDeliveryStatus_syncEb
|| __TEXT.__text __ZThn72_N2sd23IMSSubscriberControllerD0Ev
|| __TEXT.__text __ZThn72_N2sd23IMSSubscriberControllerD1Ev
|| __TEXT.__text __ZThn72_NK2sd23IMSSubscriberController12isDCNAllowedEv
|| __TEXT.__text __ZThn72_NK2sd23IMSSubscriberController15isIMSRegisteredERbRyS1_R15DataContextTypeb
|| __TEXT.__text __ZThn72_NK2sd23IMSSubscriberController16getDCNPolicyNameEv
|| __TEXT.__text __ZThn72_NK2sd23IMSSubscriberController18getCurrentDataModeEv
|| __TEXT.__text __ZThn72_NK2sd23IMSSubscriberController26getDCNHysteresisTimeoutValEv
__ CoreFoundation: _CFArrayGetCount
__ CoreFoundation: _CFArrayGetTypeID
__ CoreFoundation: _CFArrayGetValueAtIndex
__ CoreFoundation: _CFBooleanGetTypeID
__ CoreFoundation: _CFDictionaryCreate
__ CoreFoundation: _CFDictionaryCreateMutable
__ CoreFoundation: _CFDictionaryGetTypeID
__ CoreFoundation: _CFDictionarySetValue
__ CoreFoundation: _CFGetTypeID
__ CoreFoundation: _CFNumberCreate
__ CoreFoundation: _CFNumberGetTypeID
__ CoreFoundation: _CFPreferencesCopyValue
__ CoreFoundation: _CFPreferencesSynchronize
__ CoreFoundation: _CFRelease
__ CoreFoundation: _CFRetain
__ CoreFoundation: _CFStringCreateWithCString
__ CoreFoundation: _CFStringGetTypeID
__ CoreFoundation: ___CFConstantStringClassReference
__ CoreFoundation: _kCFAllocatorDefault
__ CoreFoundation: _kCFBooleanFalse
__ CoreFoundation: _kCFBooleanTrue
__ CoreFoundation: _kCFPreferencesAnyHost
__ CoreFoundation: _kCFPreferencesCurrentUser
__ CoreFoundation: _kCFTypeDictionaryKeyCallBacks
__ CoreFoundation: _kCFTypeDictionaryValueCallBacks
__ libCommCenterBase.dylib: __Z12asStringBoolb
__ libCommCenterBase.dylib: __Z15CSIboolAsStringb
__ libCommCenterBase.dylib: __Z16validContextType15DataContextType
__ libCommCenterBase.dylib: __Z20CSIGetTimeDifferencejj
__ libCommCenterBase.dylib: __Z20CSISystemElapsedTimev
__ libCommCenterBase.dylib: __Z22PersonalityIDToSimSlotRKNSt3__110shared_ptrIK8RegistryEERK13PersonalityID
__ libCommCenterBase.dylib: __Z23PersonalityIdFromSlotIdRKNSt3__110shared_ptrIK8RegistryEEN10subscriber7SimSlotE
__ libCommCenterBase.dylib: __Z25PersonalityIdFromSlotIdExRKNSt3__110shared_ptrIK8RegistryEEN10subscriber7SimSlotE
__ libCommCenterBase.dylib: __Z8asString10RFBandType
__ libCommCenterBase.dylib: __Z8asString13RoamingResult
__ libCommCenterBase.dylib: __Z8asString15BoolWithUnknown
__ libCommCenterBase.dylib: __Z8asString15DataContextType
__ libCommCenterBase.dylib: __Z8asString15PersonalityType
__ libCommCenterBase.dylib: __Z8asString15PhoneNumberType
__ libCommCenterBase.dylib: __Z8asString16BundleChangeType
__ libCommCenterBase.dylib: __Z8asString20ServiceShutdownStage
__ libCommCenterBase.dylib: __Z8asString21RadioAccessTechnology
__ libCommCenterBase.dylib: __Z8asString22VoWiFiConfigurationSrc
__ libCommCenterBase.dylib: __Z8asString8DataMode
__ libCommCenterBase.dylib: __Z8asStringN5boost5logic7triboolE
__ libCommCenterBase.dylib: __Z9isPresentRKNSt3__110shared_ptrIK8RegistryEERK13PersonalityID
__ libCommCenterBase.dylib: __ZN10subscriber10isSimReadyENS_8SimStateE
__ libCommCenterBase.dylib: __ZN10subscriber11isSimAbsentENS_8SimStateE
__ libCommCenterBase.dylib: __ZN10subscriber12isSimPresentENS_8SimStateE
__ libCommCenterBase.dylib: __ZN10subscriber14isValidSimSlotERKNSt3__110shared_ptrIK8RegistryEENS_7SimSlotE
__ libCommCenterBase.dylib: __ZN10subscriber15isSimUnreadableENS_8SimStateE
__ libCommCenterBase.dylib: __ZN10subscriber17simSlotAsInstanceENS_7SimSlotE
__ libCommCenterBase.dylib: __ZN10subscriber8asStringENS_7SimCardE
__ libCommCenterBase.dylib: __ZN10subscriber8asStringENS_7SimSlotE
__ libCommCenterBase.dylib: __ZN10subscriber8asStringENS_8SimStateE
__ libCommCenterBase.dylib: __ZN10subscriber8asStringERKNS_15SimRefreshStageE
__ libCommCenterBase.dylib: __ZN14ServiceManager18addConcreteServiceEONSt3__110unique_ptrINS_7ServiceENS0_14default_deleteIS2_EEEE
__ libCommCenterBase.dylib: __ZN14ServiceManager7ServiceD2Ev
__ libCommCenterBase.dylib: __ZN21RegisteredNetworkInfoC1ERKS_
__ libCommCenterBase.dylib: __ZN21RegisteredNetworkInfoC1Ev
__ libCommCenterBase.dylib: __ZN21RegisteredNetworkInfoaSERKS_
__ libCommCenterBase.dylib: __ZN23RequestDumpStatePayloadC1ENSt3__112basic_stringIcNS0_11char_traitsIcEENS0_9allocatorIcEEEEbNS0_6chrono8durationIxNS0_5ratioILl1ELl1000EEEEEbb16DumpStateTrigger
__ libCommCenterBase.dylib: __ZN2sd16isSimPersonalityERKNSt3__110shared_ptrIK8RegistryEERK13PersonalityID
__ libCommCenterBase.dylib: __ZN2sd17kRFBandTypeStrFDDE
__ libCommCenterBase.dylib: __ZN2sd17kRFBandTypeStrTDDE
__ libCommCenterBase.dylib: __ZN2sd22imsServiceMaskToStringEy
__ libCommCenterBase.dylib: __ZN2sd26IMSSubscriberEventDelegateD2Ev
__ libCommCenterBase.dylib: __ZN2sd26IMSSubscriberModelDelegateD2Ev
__ libCommCenterBase.dylib: __ZN2sd27IMSSubscriberModelInterfaceD2Ev
__ libCommCenterBase.dylib: __ZN2sd27imsRegFailureReasonToStringEN3ims16RegFailureReasonE
__ libCommCenterBase.dylib: __ZN2sd28IMSSubscriberConfigInterfaceD2Ev
__ libCommCenterBase.dylib: __ZN2sd28IMSSubscriberMetricsDelegateD2Ev
__ libCommCenterBase.dylib: __ZN2sd29IMSConnHelperManagerInterfaceD2Ev
__ libCommCenterBase.dylib: __ZN2sd30ipTelephonyServiceMaskToStringEy
__ libCommCenterBase.dylib: __ZN2sd35IsDataConnectionImSupportedByDeviceERKNSt3__110shared_ptrIK8RegistryEE
__ libCommCenterBase.dylib: __ZN2sd38imsServiceMaskToIpTelephonyServiceMaskEy
__ libCommCenterBase.dylib: __ZN2sd38ipTelephonyServiceMaskToImsServiceMaskEj
__ libCommCenterBase.dylib: __ZN2sd6UEInfo10DeviceInfo13updateSimInfoERK12BasicSimInfo
__ libCommCenterBase.dylib: __ZN2sd6UEInfo10DeviceInfo5clearEv
__ libCommCenterBase.dylib: __ZN2sd6UEInfo5clearEv
__ libCommCenterBase.dylib: __ZN2sd6UEInfo8IsimInfo14markSimPresentEN5boost5logic7triboolE
__ libCommCenterBase.dylib: __ZN2sd6UEInfo8IsimInfo5clearEv
__ libCommCenterBase.dylib: __ZN2sd8asStringENS_22ConnectivityHelperTypeE
__ libCommCenterBase.dylib: __ZN2sd8asStringENS_7RegMaskE
__ libCommCenterBase.dylib: __ZN35SystemDeterminationManagerInterfaceD2Ev
__ libCommCenterBase.dylib: __ZN3MCCC1ERKNSt3__112basic_stringIcNS0_11char_traitsIcEENS0_9allocatorIcEEEE
__ libCommCenterBase.dylib: __ZN3MNCC1ERKNSt3__112basic_stringIcNS0_11char_traitsIcEENS0_9allocatorIcEEEE
__ libCommCenterBase.dylib: __ZN3sms8asStringENS_17NCNStatusCallTypeE
__ libCommCenterBase.dylib: __ZN3sms8asStringENS_22NCNStatusSignalingTypeE
__ libCommCenterBase.dylib: __ZN6detail18createOsLogLoggersERKNSt3__110shared_ptrIK8RegistryEERKNS0_8functionIFKPKcN10subscriber7SimSlotEEEE
__ libCommCenterBase.dylib: __ZN6detail24createUnknownOsLogLoggerERKNSt3__18functionIFKPKcN10subscriber7SimSlotEEEE
__ libCommCenterBase.dylib: __ZNK12BasicSimInfo16isSimTypePresentEN10subscriber7SimTypeE
__ libCommCenterBase.dylib: __ZNK12ServiceStage12holdOffStageEv
__ libCommCenterBase.dylib: __ZNK14CSIPhoneNumber12getFormattedEv
__ libCommCenterBase.dylib: __ZNK14CSIPhoneNumber13getBaseNumberEv
__ libCommCenterBase.dylib: __ZNK14CSIPhoneNumber13getFullNumberEv
__ libCommCenterBase.dylib: __ZNK21RegisteredNetworkInfo7compareERKS_
__ libCommCenterBase.dylib: __ZNK21RegisteredNetworkInfo9dumpStateEPKcPKN3ctu11OsLogLoggerE
__ libCommCenterBase.dylib: __ZNK23GestaltUtilityInterface7isWatchEv
__ libCommCenterBase.dylib: __ZNK2sd10ImsFeature3SMS9isEnabledEb
__ libCommCenterBase.dylib: __ZNK2sd10ImsFeature6VoWiFi9isEnabledEv
__ libCommCenterBase.dylib: __ZNK2sd6UEInfo10DeviceInfo14domainFromImsiEv
__ libCommCenterBase.dylib: __ZNK2sd6UEInfo10DeviceInfo16getThreeDigitMccEv
__ libCommCenterBase.dylib: __ZNK2sd6UEInfo10DeviceInfo16getThreeDigitMncEv
__ libCommCenterBase.dylib: __ZNK2sd6UEInfo10DeviceInfo22publicIdentityFromImsiEv
__ libCommCenterBase.dylib: __ZNK2sd6UEInfo10DeviceInfo23privateIdentityFromImsiEv
__ libCommCenterBase.dylib: __ZNK2sd6UEInfo10DeviceInfo5validEv
__ libCommCenterBase.dylib: __ZNK2sd6UEInfo10DeviceInfoeqERKS1_
__ libCommCenterBase.dylib: __ZNK2sd6UEInfo8IsimInfo5validEv
__ libCommCenterBase.dylib: __ZNK2sd6UEInfo8IsimInfoeqERKS1_
__ libCommCenterBase.dylib: __ZNK3MCC11getIntValueEv
__ libCommCenterBase.dylib: __ZNK3MCC5validEv
__ libCommCenterBase.dylib: __ZNK8Registry13getServiceMapEv
__ libCommCenterBase.dylib: __ZNK8Registry15getTimerServiceEv
__ libCommCenterBase.dylib: __ZNK8Registry17getServiceManagerEv
__ libCommCenterBase.dylib: __ZNK8Registry19getRadioPersonalityEv
__ libCommCenterBase.dylib: __ZTI13PhoneServices
__ libCommCenterBase.dylib: __ZTI13STK_Interface
__ libCommCenterBase.dylib: __ZTI15PersonalityShop
__ libCommCenterBase.dylib: __ZTI20DataServiceInterface
__ libCommCenterBase.dylib: __ZTI20WiFiManagerInterface
__ libCommCenterBase.dylib: __ZTI21RegistrationInterface
__ libCommCenterBase.dylib: __ZTI22SubscriberSimInterface
__ libCommCenterBase.dylib: __ZTI23GestaltUtilityInterface
__ libCommCenterBase.dylib: __ZTI24CarrierSettingsInterface
__ libCommCenterBase.dylib: __ZTI24DataWifiMonitorInterface
__ libCommCenterBase.dylib: __ZTI25BasebandSettingsInterface
__ libCommCenterBase.dylib: __ZTI29CountryDeterminationInterface
__ libCommCenterBase.dylib: __ZTI30TechDataConfigServiceInterface
__ libCommCenterBase.dylib: __ZTI35SystemDeterminationManagerInterface
__ libCommCenterBase.dylib: __ZTIN14ServiceManager7ServiceE
__ libCommCenterBase.dylib: __ZTIN2sd26IMSSubscriberEventDelegateE
__ libCommCenterBase.dylib: __ZTIN2sd26IMSSubscriberModelDelegateE
__ libCommCenterBase.dylib: __ZTIN2sd27IMSSubscriberModelInterfaceE
__ libCommCenterBase.dylib: __ZTIN2sd28IMSSubscriberConfigInterfaceE
__ libCommCenterBase.dylib: __ZTIN2sd28IMSSubscriberMetricsDelegateE
__ libCommCenterBase.dylib: __ZTIN2sd29IMSConnHelperManagerInterfaceE
__ libCommCenterBase.dylib: __ZTV35SystemDeterminationManagerInterface
__ libCommCenterBase.dylib: __ZTVN2sd26IMSSubscriberEventDelegateE
__ libCommCenterBase.dylib: __ZTVN2sd26IMSSubscriberModelDelegateE
__ libCommCenterBase.dylib: __ZTVN2sd27IMSSubscriberModelInterfaceE
__ libCommCenterBase.dylib: __ZTVN2sd28IMSSubscriberConfigInterfaceE
__ libCommCenterBase.dylib: __ZTVN2sd28IMSSubscriberMetricsDelegateE
__ libCommCenterBase.dylib: __ZTVN2sd29IMSConnHelperManagerInterfaceE
__ libCommCenterBase.dylib: __is3DigitMNCWithMCC
__ libCommCenterBase.dylib: _kCtLoggingSystemName
__ libIPTelephony.dylib: __ZN3ims13AccessNetwork3setERKNSt3__112basic_stringIcNS1_11char_traitsIcEENS1_9allocatorIcEEEES9_
__ libIPTelephony.dylib: __ZN3ims15kIMSRegDeviceIDE
__ libIPTelephony.dylib: __ZN3ims15kIMSRegSimFilesE
__ libIPTelephony.dylib: __ZN3ims16kIMSRegCarrierIDE
__ libIPTelephony.dylib: __ZN3ims18kIMSRegIsimPresentE
__ libIPTelephony.dylib: __ZNK3ims9IsimFiles9SerializeEv
__ libIPTelephony.dylib: _kIMSCallRTTEnabled
__ libSystem.B.dylib: __Block_copy
__ libSystem.B.dylib: __Block_release
__ libSystem.B.dylib: __NSConcreteStackBlock
__ libSystem.B.dylib: __Unwind_Resume
__ libSystem.B.dylib: ___cxa_atexit
__ libSystem.B.dylib: ___stack_chk_fail
__ libSystem.B.dylib: ___stack_chk_guard
__ libSystem.B.dylib: __dispatch_source_type_timer
__ libSystem.B.dylib: __os_log_error_impl
__ libSystem.B.dylib: __os_log_impl
__ libSystem.B.dylib: _atoi
__ libSystem.B.dylib: _bzero
__ libSystem.B.dylib: _dispatch_activate
__ libSystem.B.dylib: _dispatch_async_and_wait
__ libSystem.B.dylib: _dispatch_async_f
__ libSystem.B.dylib: _dispatch_barrier_async_f
__ libSystem.B.dylib: _dispatch_group_enter
__ libSystem.B.dylib: _dispatch_group_leave
__ libSystem.B.dylib: _dispatch_queue_attr_make_with_qos_class
__ libSystem.B.dylib: _dispatch_queue_create
__ libSystem.B.dylib: _dispatch_release
__ libSystem.B.dylib: _dispatch_retain
__ libSystem.B.dylib: _dispatch_source_cancel
__ libSystem.B.dylib: _dispatch_source_create
__ libSystem.B.dylib: _dispatch_source_set_event_handler
__ libSystem.B.dylib: _dispatch_source_set_timer
__ libSystem.B.dylib: _dispatch_sync
__ libSystem.B.dylib: _dispatch_time
__ libSystem.B.dylib: _memcmp
__ libSystem.B.dylib: _memcpy
__ libSystem.B.dylib: _memset
__ libSystem.B.dylib: _os_log_type_enabled
__ libSystem.B.dylib: _snprintf
__ libSystem.B.dylib: _strcmp
__ libSystem.B.dylib: _strlen
__ libTelephonyUtilDynamic.dylib: __ZN3ctu11OsLogLoggerC1ERKNS_12OsLogContextE
__ libTelephonyUtilDynamic.dylib: __ZN3ctu11OsLogLoggerC1ERKS0_
__ libTelephonyUtilDynamic.dylib: __ZN3ctu11OsLogLoggerD1Ev
__ libTelephonyUtilDynamic.dylib: __ZN3ctu12OsLogContextC1EPKcS2_
__ libTelephonyUtilDynamic.dylib: __ZN3ctu12OsLogContextD1Ev
__ libTelephonyUtilDynamic.dylib: __ZN3ctu2cf12convert_copyERPK10__CFStringRKNSt3__112basic_stringIcNS5_11char_traitsIcEENS5_9allocatorIcEEEEjPK13__CFAllocator
__ libTelephonyUtilDynamic.dylib: __ZN3ctu2cf6assignERNSt3__112basic_stringIcNS1_11char_traitsIcEENS1_9allocatorIcEEEEPK10__CFString
__ libTelephonyUtilDynamic.dylib: __ZN3ctu2cf6assignERNSt3__112basic_stringIcNS1_11char_traitsIcEENS1_9allocatorIcEEEEPKv
__ libTelephonyUtilDynamic.dylib: __ZN3ctu2cf6assignERbPK11__CFBoolean
__ libTelephonyUtilDynamic.dylib: __ZN3ctu2cf6assignERiPK10__CFNumber
__ libTelephonyUtilDynamic.dylib: __ZN3ctu2cf6assignERjPK10__CFNumber
__ libTelephonyUtilDynamic.dylib: __ZN3ctu3hexEPKvm
__ libc++.1.dylib: __ZNKSt3__112basic_stringIcNS_11char_traitsIcEENS_9allocatorIcEEE4findEcm
__ libc++.1.dylib: __ZNKSt3__112basic_stringIcNS_11char_traitsIcEENS_9allocatorIcEEE7compareEmmPKcm
__ libc++.1.dylib: __ZNKSt3__115basic_stringbufIcNS_11char_traitsIcEENS_9allocatorIcEEE3strEv
__ libc++.1.dylib: __ZNKSt3__119__shared_weak_count13__get_deleterERKSt9type_info
__ libc++.1.dylib: __ZNKSt3__120__vector_base_commonILb1EE20__throw_length_errorEv
__ libc++.1.dylib: __ZNKSt3__121__basic_string_commonILb1EE20__throw_length_errorEv
__ libc++.1.dylib: __ZNKSt3__16locale9use_facetERNS0_2idE
__ libc++.1.dylib: __ZNKSt3__18ios_base6getlocEv
__ libc++.1.dylib: __ZNKSt9exception4whatEv
__ libc++.1.dylib: __ZNSt11logic_errorC2EPKc
__ libc++.1.dylib: __ZNSt12length_errorD1Ev
__ libc++.1.dylib: __ZNSt19bad_optional_accessD1Ev
__ libc++.1.dylib: __ZNSt3__112bad_weak_ptrD1Ev
__ libc++.1.dylib: __ZNSt3__112basic_stringIcNS_11char_traitsIcEENS_9allocatorIcEEE6appendEPKc
__ libc++.1.dylib: __ZNSt3__112basic_stringIcNS_11char_traitsIcEENS_9allocatorIcEEE6appendEPKcm
__ libc++.1.dylib: __ZNSt3__112basic_stringIcNS_11char_traitsIcEENS_9allocatorIcEEE6assignEPKc
__ libc++.1.dylib: __ZNSt3__112basic_stringIcNS_11char_traitsIcEENS_9allocatorIcEEE6insertENS_11__wrap_iterIPKcEEc
__ libc++.1.dylib: __ZNSt3__112basic_stringIcNS_11char_traitsIcEENS_9allocatorIcEEE6insertEmPKc
__ libc++.1.dylib: __ZNSt3__112basic_stringIcNS_11char_traitsIcEENS_9allocatorIcEEE6insertEmPKcm
__ libc++.1.dylib: __ZNSt3__112basic_stringIcNS_11char_traitsIcEENS_9allocatorIcEEE6resizeEmc
__ libc++.1.dylib: __ZNSt3__112basic_stringIcNS_11char_traitsIcEENS_9allocatorIcEEEC1ERKS5_
__ libc++.1.dylib: __ZNSt3__112basic_stringIcNS_11char_traitsIcEENS_9allocatorIcEEEC1ERKS5_mmRKS4_
__ libc++.1.dylib: __ZNSt3__112basic_stringIcNS_11char_traitsIcEENS_9allocatorIcEEED1Ev
__ libc++.1.dylib: __ZNSt3__112basic_stringIcNS_11char_traitsIcEENS_9allocatorIcEEEaSERKS5_
__ libc++.1.dylib: __ZNSt3__113basic_ostreamIcNS_11char_traitsIcEEE3putEc
__ libc++.1.dylib: __ZNSt3__113basic_ostreamIcNS_11char_traitsIcEEE5flushEv
__ libc++.1.dylib: __ZNSt3__113basic_ostreamIcNS_11char_traitsIcEEE6sentryC1ERS3_
__ libc++.1.dylib: __ZNSt3__113basic_ostreamIcNS_11char_traitsIcEEE6sentryD1Ev
__ libc++.1.dylib: __ZNSt3__113basic_ostreamIcNS_11char_traitsIcEEED2Ev
__ libc++.1.dylib: __ZNSt3__113basic_ostreamIcNS_11char_traitsIcEEElsEb
__ libc++.1.dylib: __ZNSt3__113basic_ostreamIcNS_11char_traitsIcEEElsEy
__ libc++.1.dylib: __ZNSt3__114basic_iostreamIcNS_11char_traitsIcEEED2Ev
__ libc++.1.dylib: __ZNSt3__115basic_streambufIcNS_11char_traitsIcEEEC2Ev
__ libc++.1.dylib: __ZNSt3__115basic_streambufIcNS_11char_traitsIcEEED2Ev
__ libc++.1.dylib: __ZNSt3__115basic_stringbufIcNS_11char_traitsIcEENS_9allocatorIcEEE3strERKNS_12basic_stringIcS2_S4_EE
__ libc++.1.dylib: __ZNSt3__119__shared_weak_count14__release_weakEv
__ libc++.1.dylib: __ZNSt3__119__shared_weak_count4lockEv
__ libc++.1.dylib: __ZNSt3__119__shared_weak_countD2Ev
__ libc++.1.dylib: __ZNSt3__15ctypeIcE2idE
__ libc++.1.dylib: __ZNSt3__15mutex4lockEv
__ libc++.1.dylib: __ZNSt3__15mutex6unlockEv
__ libc++.1.dylib: __ZNSt3__15mutexD1Ev
__ libc++.1.dylib: __ZNSt3__16localeC1ERKS0_
__ libc++.1.dylib: __ZNSt3__16localeC1Ev
__ libc++.1.dylib: __ZNSt3__16localeD1Ev
__ libc++.1.dylib: __ZNSt3__18ios_base33__set_badbit_and_consider_rethrowEv
__ libc++.1.dylib: __ZNSt3__18ios_base4initEPv
__ libc++.1.dylib: __ZNSt3__18ios_base5clearEj
__ libc++.1.dylib: __ZNSt3__19basic_iosIcNS_11char_traitsIcEEED2Ev
__ libc++.1.dylib: __ZNSt9exceptionD2Ev
__ libc++.1.dylib: __ZSt9terminatev
__ libc++.1.dylib: __ZTINSt3__112bad_weak_ptrE
__ libc++.1.dylib: __ZTINSt3__119__shared_weak_countE
__ libc++.1.dylib: __ZTISt12length_error
__ libc++.1.dylib: __ZTISt19bad_optional_access
__ libc++.1.dylib: __ZTISt9exception
__ libc++.1.dylib: __ZTTNSt3__118basic_stringstreamIcNS_11char_traitsIcEENS_9allocatorIcEEEE
__ libc++.1.dylib: __ZTTNSt3__119basic_ostringstreamIcNS_11char_traitsIcEENS_9allocatorIcEEEE
__ libc++.1.dylib: __ZTVN10__cxxabiv117__class_type_infoE
__ libc++.1.dylib: __ZTVN10__cxxabiv119__pointer_type_infoE
__ libc++.1.dylib: __ZTVN10__cxxabiv120__function_type_infoE
__ libc++.1.dylib: __ZTVN10__cxxabiv120__si_class_type_infoE
__ libc++.1.dylib: __ZTVN10__cxxabiv121__vmi_class_type_infoE
__ libc++.1.dylib: __ZTVNSt3__112bad_weak_ptrE
__ libc++.1.dylib: __ZTVNSt3__115basic_stringbufIcNS_11char_traitsIcEENS_9allocatorIcEEEE
__ libc++.1.dylib: __ZTVNSt3__118basic_stringstreamIcNS_11char_traitsIcEENS_9allocatorIcEEEE
__ libc++.1.dylib: __ZTVNSt3__119basic_ostringstreamIcNS_11char_traitsIcEENS_9allocatorIcEEEE
__ libc++.1.dylib: __ZTVSt12length_error
__ libc++.1.dylib: __ZTVSt19bad_optional_access
__ libc++.1.dylib: __ZdlPv
__ libc++.1.dylib: __Znwm
__ libc++.1.dylib: ___cxa_allocate_exception
__ libc++.1.dylib: ___cxa_begin_catch
__ libc++.1.dylib: ___cxa_end_catch
__ libc++.1.dylib: ___cxa_free_exception
__ libc++.1.dylib: ___cxa_pure_virtual
__ libc++.1.dylib: ___cxa_rethrow
__ libc++.1.dylib: ___cxa_throw
__ libc++.1.dylib: ___gxx_personality_v0
