|| __DATA.__common __ZN11SynthThread10m_phonemesE
|| __DATA.__common __ZN11SynthThread12nRefPointersE
|| __DATA.__common __ZN11SynthThread14m_soundManagerE
|| __DATA.__common __ZN11SynthThread23m_protectInitializationE
|| __DATA.__common _g_iniReader
|| __DATA.__common _numFormats
|| __DATA.__common _registeredFormats
|| __DATA.__const_weak __ZTV10EDListIter
|| __DATA.__const_weak __ZTV10ESListIter
|| __DATA.__const_weak __ZTV11SoundThread
|| __DATA.__const_weak __ZTV11SynthThread
|| __DATA.__const_weak __ZTV15ETImessageQueue
|| __DATA.__const_weak __ZTV21ETImessageQueueThread
|| __DATA.__const_weak __ZTV6EDList
|| __DATA.__const_weak __ZTV6ESList
|| __DATA.__data _nextSoundFormat
|| __DATA.__data _rawALawSoundFormat
|| __DATA.__data _rawmuSoundFormat
|| __DATA.__data _sunSoundFormat
|| __DATA.__data _waveSoundFormat
|| __DATA_CONST.__const __ZTI10EDListIter
|| __DATA_CONST.__const __ZTI10ESListIter
|| __DATA_CONST.__const __ZTI10EngineData
|| __DATA_CONST.__const __ZTI11ECollection
|| __DATA_CONST.__const __ZTI11PhonemeData
|| __DATA_CONST.__const __ZTI11SoundThread
|| __DATA_CONST.__const __ZTI11SynthThread
|| __DATA_CONST.__const __ZTI11TimerThread
|| __DATA_CONST.__const __ZTI15ETImessageQueue
|| __DATA_CONST.__const __ZTI21ETImessageQueueThread
|| __DATA_CONST.__const __ZTI6EDList
|| __DATA_CONST.__const __ZTI6ESList
|| __DATA_CONST.__const __ZTI8ETIqueue
|| __DATA_CONST.__const __ZTI9ETIThread
|| __DATA_CONST.__const __ZTV10EngineData
|| __DATA_CONST.__const __ZTV11ECollection
|| __DATA_CONST.__const __ZTV11PhonemeData
|| __DATA_CONST.__const __ZTV11TimerThread
|| __DATA_CONST.__const __ZTV8ETIqueue
|| __DATA_CONST.__const __ZTV9ETIThread
|| __TEXT.__const __ZTS10EDListIter
|| __TEXT.__const __ZTS10ESListIter
|| __TEXT.__const __ZTS10EngineData
|| __TEXT.__const __ZTS11ECollection
|| __TEXT.__const __ZTS11PhonemeData
|| __TEXT.__const __ZTS11SoundThread
|| __TEXT.__const __ZTS11SynthThread
|| __TEXT.__const __ZTS11TimerThread
|| __TEXT.__const __ZTS15ETImessageQueue
|| __TEXT.__const __ZTS21ETImessageQueueThread
|| __TEXT.__const __ZTS6EDList
|| __TEXT.__const __ZTS6ESList
|| __TEXT.__const __ZTS8ETIqueue
|| __TEXT.__const __ZTS9ETIThread
|| __TEXT.__text _AudiotoETIencoding
|| __TEXT.__text _ETItoAudioencoding
|| __TEXT.__text _MBCSConverter
|| __TEXT.__text _UnicodeConverter
|| __TEXT.__text __Z11setECIerrorlP14oldECIInstData
|| __TEXT.__text __Z12eciTraceTextPKcPvllz
|| __TEXT.__text __Z13eci2RealWorldi13ECIVoiceParami
|| __TEXT.__text __Z13realWorld2ecii13ECIVoiceParamiii
|| __TEXT.__text __Z8eciTracePKcz
|| __TEXT.__text __ZN10EDListIter11resetToTailEv
|| __TEXT.__text __ZN10EDListIter5resetEv
|| __TEXT.__text __ZN10ESListIter11resetToTailEv
|| __TEXT.__text __ZN10ESListIter5resetEv
|| __TEXT.__text __ZN10EngineDataC1EPKc
|| __TEXT.__text __ZN10EngineDataC2EPKc
|| __TEXT.__text __ZN10EngineDataD0Ev
|| __TEXT.__text __ZN10EngineDataD1Ev
|| __TEXT.__text __ZN10EngineDataD2Ev
|| __TEXT.__text __ZN10EngineList10rangeCheckEPK14LangIdentifier
|| __TEXT.__text __ZN10EngineList10removeDataEPK14LangIdentifier
|| __TEXT.__text __ZN10EngineList15getNextLanguageEP14LangIdentifierPl
|| __TEXT.__text __ZN10EngineList16getFirstLanguageEP14LangIdentifierPl
|| __TEXT.__text __ZN10EngineList17setCallbackFnFlagEPK14LangIdentifierP14EngineListData
|| __TEXT.__text __ZN10EngineList20setMaxLangAndDialectEv
|| __TEXT.__text __ZN10EngineList7getDataEPK14LangIdentifier
|| __TEXT.__text __ZN10EngineList7setDataEPK14LangIdentifierP14EngineListData
|| __TEXT.__text __ZN10EngineListC1Ev
|| __TEXT.__text __ZN10EngineListC2Ev
|| __TEXT.__text __ZN10EngineListD1Ev
|| __TEXT.__text __ZN10EngineListD2Ev
|| __TEXT.__text __ZN10IndexQueue14reduceLeadTimeEm
|| __TEXT.__text __ZN10IndexQueue14reduceLeadTimeEv
|| __TEXT.__text __ZN10IndexQueue16increaseLeadTimeEm
|| __TEXT.__text __ZN10IndexQueue17addOffsetFromLastEim
|| __TEXT.__text __ZN10IndexQueue6removeEv
|| __TEXT.__text __ZN10TextFilter11processTextEPcjl
|| __TEXT.__text __ZN10TextFilter17processAnnotationEPcPi
|| __TEXT.__text __ZN10TextFilter7addTextEPvllllP8ECIstateP11SynthThread
|| __TEXT.__text __ZN10TextFilterC1Ev
|| __TEXT.__text __ZN10TextFilterC2Ev
|| __TEXT.__text __ZN10TextFilterD1Ev
|| __TEXT.__text __ZN10TextFilterD2Ev
|| __TEXT.__text __ZN11AudioFormat11isSupportedEv
|| __TEXT.__text __ZN11AudioFormat6addRefEv
|| __TEXT.__text __ZN11AudioFormat7releaseEv
|| __TEXT.__text __ZN11AudioFormatC1EjP14ECIaudioFormatP11TimerThread
|| __TEXT.__text __ZN11AudioFormatC2EjP14ECIaudioFormatP11TimerThread
|| __TEXT.__text __ZN11AudioFormatD1Ev
|| __TEXT.__text __ZN11AudioFormatD2Ev
|| __TEXT.__text __ZN11ECIinstance10eciAddTextEPvllll
|| __TEXT.__text __ZN11ECIinstance10eciNewDictElPPv
|| __TEXT.__text __ZN11ECIinstance10eciUnblockEv
|| __TEXT.__text __ZN11ECIinstance11eciGetParamEllPl
|| __TEXT.__text __ZN11ECIinstance11eciSetParamElll
|| __TEXT.__text __ZN11ECIinstance13eciDeleteDictEPv
|| __TEXT.__text __ZN11ECIinstance13eciGetRomMngrEv
|| __TEXT.__text __ZN11ECIinstance13eciLookupDictEPvlS0_lPS0_Pll
|| __TEXT.__text __ZN11ECIinstance13eciSynthesizeEv
|| __TEXT.__text __ZN11ECIinstance13eciUpdateDictEPvlS0_lS0_ll
|| __TEXT.__text __ZN11ECIinstance14eciClearErrorsEv
|| __TEXT.__text __ZN11ECIinstance14eciInsertIndexEl
|| __TEXT.__text __ZN11ECIinstance14eciSynchronizeEv
|| __TEXT.__text __ZN11ECIinstance15eciActivateDictEPv
|| __TEXT.__text __ZN11ECIinstance16eciGetActiveDictElPPv
|| __TEXT.__text __ZN11ECIinstance16eciLookupDictExtEPvlS0_lPS0_PlP15ECIPartOfSpeech18ECILanguageDialect
|| __TEXT.__text __ZN11ECIinstance16eciUpdateDictExtEPvlS0_lS0_l15ECIPartOfSpeech18ECILanguageDialect
|| __TEXT.__text __ZN11ECIinstance17eciDeactivateDictEPv
|| __TEXT.__text __ZN11ECIinstance17eciLoadDictVolumeEPvlPKc
|| __TEXT.__text __ZN11ECIinstance17eciNewAudioFormatEP14ECIaudioFormat
|| __TEXT.__text __ZN11ECIinstance17eciSaveDictVolumeEPvlPKc
|| __TEXT.__text __ZN11ECIinstance18eciGetDictLanguageEPvPl
|| __TEXT.__text __ZN11ECIinstance19eciRegisterCallbackEPFlPvllS0_ES0_sS0_
|| __TEXT.__text __ZN11ECIinstance19eciSetStandardVoiceEl
|| __TEXT.__text __ZN11ECIinstance20eciCheckSynthesizingEv
|| __TEXT.__text __ZN11ECIinstance20eciDeleteAudioFormatEv
|| __TEXT.__text __ZN11ECIinstance20eciFindNextDictEntryEPvlPS0_PlS1_S2_l
|| __TEXT.__text __ZN11ECIinstance21eciFindFirstDictEntryEPvlPS0_PlS1_S2_l
|| __TEXT.__text __ZN11ECIinstance23eciFindNextDictEntryExtEPvlPS0_PlS1_S2_P15ECIPartOfSpeech18ECILanguageDialect
|| __TEXT.__text __ZN11ECIinstance23eciRegisterSampleBufferEPslP15ECIsampleFormat
|| __TEXT.__text __ZN11ECIinstance24eciFindFirstDictEntryExtEPvlPS0_PlS1_S2_P15ECIPartOfSpeech18ECILanguageDialect
|| __TEXT.__text __ZN11ECIinstance24eciRegisterPhonemeBufferEPvll
|| __TEXT.__text __ZN11ECIinstance7eciPollEv
|| __TEXT.__text __ZN11ECIinstance7eciStopEv
|| __TEXT.__text __ZN11ECIinstance8eciBlockEv
|| __TEXT.__text __ZN11ECIinstance8eciPauseEl
|| __TEXT.__text __ZN11ECIinstance8eciResetEv
|| __TEXT.__text __ZN11ECIinstanceC1E18ECILanguageDialect
|| __TEXT.__text __ZN11ECIinstanceC1Ev
|| __TEXT.__text __ZN11ECIinstanceC2E18ECILanguageDialect
|| __TEXT.__text __ZN11ECIinstanceC2Ev
|| __TEXT.__text __ZN11ECIinstanceD1Ev
|| __TEXT.__text __ZN11ECIinstanceD2Ev
|| __TEXT.__text __ZN11EngineArray12removeEngineEPK14LangIdentifier
|| __TEXT.__text __ZN11EngineArray13getEngineDataEPK14LangIdentifier
|| __TEXT.__text __ZN11EngineArray14getLibraryNameEPK14LangIdentifier
|| __TEXT.__text __ZN11EngineArray17getCallbackFnFlagEPK14LangIdentifier
|| __TEXT.__text __ZN11EngineArray9getEngineEPK14LangIdentifier
|| __TEXT.__text __ZN11PhonemeData11findPhonemeEl
|| __TEXT.__text __ZN11PhonemeData15ensureArraySizeEv
|| __TEXT.__text __ZN11PhonemeData6searchElss
|| __TEXT.__text __ZN11PhonemeData7compareEPKvS1_
|| __TEXT.__text __ZN11PhonemeDataC1EPK14LangIdentifier
|| __TEXT.__text __ZN11PhonemeDataC2EPK14LangIdentifier
|| __TEXT.__text __ZN11PhonemeDataD0Ev
|| __TEXT.__text __ZN11PhonemeDataD1Ev
|| __TEXT.__text __ZN11PhonemeDataD2Ev
|| __TEXT.__text __ZN11SoundOutput11insertIndexEl
|| __TEXT.__text __ZN11SoundOutput12isDeviceNameEPc
|| __TEXT.__text __ZN11SoundOutput4holdEh
|| __TEXT.__text __ZN11SoundOutput4openEv
|| __TEXT.__text __ZN11SoundOutput5closeEv
|| __TEXT.__text __ZN11SoundOutput5flushEv
|| __TEXT.__text __ZN11SoundOutput5resetEv
|| __TEXT.__text __ZN11SoundOutput5setupEPcPlS1_S1_S1_S1_S1_S1_
|| __TEXT.__text __ZN11SoundOutput5writeEPKlm
|| __TEXT.__text __ZN11SoundOutput9getStatusEv
|| __TEXT.__text __ZN11SoundOutputC1Ev
|| __TEXT.__text __ZN11SoundOutputC2Ev
|| __TEXT.__text __ZN11SoundOutputD1Ev
|| __TEXT.__text __ZN11SoundOutputD2Ev
|| __TEXT.__text __ZN11SoundThread11closeDirectEv
|| __TEXT.__text __ZN11SoundThread11insertIndexEl
|| __TEXT.__text __ZN11SoundThread11resetDirectEv
|| __TEXT.__text __ZN11SoundThread15getStatusDirectEv
|| __TEXT.__text __ZN11SoundThread16setIndexCallbackEPFviPvES0_
|| __TEXT.__text __ZN11SoundThread4holdEh
|| __TEXT.__text __ZN11SoundThread4openEv
|| __TEXT.__text __ZN11SoundThread5closeEv
|| __TEXT.__text __ZN11SoundThread5flushEv
|| __TEXT.__text __ZN11SoundThread5resetEv
|| __TEXT.__text __ZN11SoundThread5setupEPcPlS1_S1_S1_S1_S1_S1_
|| __TEXT.__text __ZN11SoundThread5writeEPKlm
|| __TEXT.__text __ZN11SoundThread9getStatusEv
|| __TEXT.__text __ZN11SoundThreadC1EP11TimerThread
|| __TEXT.__text __ZN11SoundThreadC2EP11TimerThread
|| __TEXT.__text __ZN11SoundThreadD0Ev
|| __TEXT.__text __ZN11SoundThreadD1Ev
|| __TEXT.__text __ZN11SoundThreadD2Ev
|| __TEXT.__text __ZN11SynthThread10addTextRunEPcjlh
|| __TEXT.__text __ZN11SynthThread10deleteDictEPv
|| __TEXT.__text __ZN11SynthThread10getRomMngrEv
|| __TEXT.__text __ZN11SynthThread10initializeEP14LangIdentifier
|| __TEXT.__text __ZN11SynthThread10lookupDictEPvlS0_lPS0_Pll
|| __TEXT.__text __ZN11SynthThread10synthesizeEv
|| __TEXT.__text __ZN11SynthThread10updateDictEPvlS0_lS0_ll
|| __TEXT.__text __ZN11SynthThread11addParamRunEPcjl
|| __TEXT.__text __ZN11SynthThread11clearErrorsEv
|| __TEXT.__text __ZN11SynthThread11insertIndexEl
|| __TEXT.__text __ZN11SynthThread11synchronizeEv
|| __TEXT.__text __ZN11SynthThread12activateDictEPv
|| __TEXT.__text __ZN11SynthThread12annoCallbackEll
|| __TEXT.__text __ZN11SynthThread12startUpSoundEPh
|| __TEXT.__text __ZN11SynthThread12wordCallbackEi
|| __TEXT.__text __ZN11SynthThread13checkLanguageEP14LangIdentifier
|| __TEXT.__text __ZN11SynthThread13convertToCharEPvllPPcS0_l
|| __TEXT.__text __ZN11SynthThread13findDictEntryEPvlPS0_PlS1_S2_lh
|| __TEXT.__text __ZN11SynthThread13getActiveDictElPPv
|| __TEXT.__text __ZN11SynthThread13lookupDictExtEPvlS0_lPS0_PlP15ECIPartOfSpeech18ECILanguageDialect
|| __TEXT.__text __ZN11SynthThread13shutDownSoundEv
|| __TEXT.__text __ZN11SynthThread13stopSynthesisEl
|| __TEXT.__text __ZN11SynthThread13synthCallbackEiPl
|| __TEXT.__text __ZN11SynthThread13synthesizeRunEl
|| __TEXT.__text __ZN11SynthThread13updateDictExtEPvlS0_lS0_l15ECIPartOfSpeech18ECILanguageDialect
|| __TEXT.__text __ZN11SynthThread14changeLanguageEP14LangIdentifier
|| __TEXT.__text __ZN11SynthThread14changeRomParamEll
|| __TEXT.__text __ZN11SynthThread14deactivateDictEPv
|| __TEXT.__text __ZN11SynthThread14insertIndexRunEll
|| __TEXT.__text __ZN11SynthThread14loadDictVolumeEPvlPKc
|| __TEXT.__text __ZN11SynthThread14newAudioFormatEP14ECIaudioFormat
|| __TEXT.__text __ZN11SynthThread14saveDictVolumeEPvlPKc
|| __TEXT.__text __ZN11SynthThread15addTextToEngineEPcih
|| __TEXT.__text __ZN11SynthThread15getDictLanguageEPvPl
|| __TEXT.__text __ZN11SynthThread15phonemeCallbackEij
|| __TEXT.__text __ZN11SynthThread15postIndexToUserEi
|| __TEXT.__text __ZN11SynthThread16engineInitializeEP13EngineWrapper
|| __TEXT.__text __ZN11SynthThread16processRemainingEv
|| __TEXT.__text __ZN11SynthThread16registerCallbackEPvPFlS0_llS0_ES0_sS0_
|| __TEXT.__text __ZN11SynthThread17changeLanguageRunEP14LangIdentifierl
|| __TEXT.__text __ZN11SynthThread17changeRomParamRunElll
|| __TEXT.__text __ZN11SynthThread17checkSynthesizingEv
|| __TEXT.__text __ZN11SynthThread17deleteAudioFormatEv
|| __TEXT.__text __ZN11SynthThread17findNextDictEntryEPvlPS0_PlS1_S2_l
|| __TEXT.__text __ZN11SynthThread17sendSamplesToUserEiPl
|| __TEXT.__text __ZN11SynthThread17userIndexCallbackEv
|| __TEXT.__text __ZN11SynthThread17wordIndexCallbackEi
|| __TEXT.__text __ZN11SynthThread18findFirstDictEntryEPvlPS0_PlS1_S2_l
|| __TEXT.__text __ZN11SynthThread18sendPhonemesToUserEv
|| __TEXT.__text __ZN11SynthThread18setPhonemeIndiciesEl
|| __TEXT.__text __ZN11SynthThread18staticAnnoCallbackEllPv
|| __TEXT.__text __ZN11SynthThread18staticWordCallbackEiPv
|| __TEXT.__text __ZN11SynthThread18synthIndexCallbackEi
|| __TEXT.__text __ZN11SynthThread19deviceIndexCallbackEi
|| __TEXT.__text __ZN11SynthThread19setEngineSampleRateEl
|| __TEXT.__text __ZN11SynthThread19staticSynthCallbackEiPlPv
|| __TEXT.__text __ZN11SynthThread20createAudioConverterEllh
|| __TEXT.__text __ZN11SynthThread20findNextDictEntryExtEPvlPS0_PlS1_S2_P15ECIPartOfSpeech18ECILanguageDialect
|| __TEXT.__text __ZN11SynthThread20registerPinyinBufferEPvl
|| __TEXT.__text __ZN11SynthThread20registerSampleBufferEPslP15ECIsampleFormat
|| __TEXT.__text __ZN11SynthThread21convertToECIinputTextEPKclPPvPlS2_l
|| __TEXT.__text __ZN11SynthThread21findFirstDictEntryExtEPvlPS0_PlS1_S2_P15ECIPartOfSpeech18ECILanguageDialect
|| __TEXT.__text __ZN11SynthThread21registerPhonemeBufferEPvl
|| __TEXT.__text __ZN11SynthThread21setPhonemeIndiciesRunEll
|| __TEXT.__text __ZN11SynthThread21staticPhonemeCallbackEijPv
|| __TEXT.__text __ZN11SynthThread23staticUserIndexCallbackEPv
|| __TEXT.__text __ZN11SynthThread23staticWordIndexCallbackEiPv
|| __TEXT.__text __ZN11SynthThread24staticSynthIndexCallbackEiPv
|| __TEXT.__text __ZN11SynthThread25staticDeviceIndexCallbackEiPv
|| __TEXT.__text __ZN11SynthThread26sendRemainingSamplesToUserEv
|| __TEXT.__text __ZN11SynthThread27sendRemainingPhonemesToUserEv
|| __TEXT.__text __ZN11SynthThread4pollEv
|| __TEXT.__text __ZN11SynthThread4stopEv
|| __TEXT.__text __ZN11SynthThread5blockEv
|| __TEXT.__text __ZN11SynthThread5pauseEh
|| __TEXT.__text __ZN11SynthThread7addTextEPcjh
|| __TEXT.__text __ZN11SynthThread7newDictElPPv
|| __TEXT.__text __ZN11SynthThread7unblockEv
|| __TEXT.__text __ZN11SynthThread8addParamEPcj
|| __TEXT.__text __ZN11SynthThread8blockRunEv
|| __TEXT.__text __ZN11SynthThread8shutDownEv
|| __TEXT.__text __ZN11SynthThreadC1EP18ETIappMessageQueueP8ECIstate
|| __TEXT.__text __ZN11SynthThreadC1EP18ETIappMessageQueueP8ECIstate18ECILanguageDialect
|| __TEXT.__text __ZN11SynthThreadC2EP18ETIappMessageQueueP8ECIstate
|| __TEXT.__text __ZN11SynthThreadC2EP18ETIappMessageQueueP8ECIstate18ECILanguageDialect
|| __TEXT.__text __ZN11SynthThreadD0Ev
|| __TEXT.__text __ZN11SynthThreadD1Ev
|| __TEXT.__text __ZN11SynthThreadD2Ev
|| __TEXT.__text __ZN11TimerThread20ensureTimerArraySizeEv
|| __TEXT.__text __ZN11TimerThread3runEv
|| __TEXT.__text __ZN11TimerThread8setTimerEP21ETImessageQueueThreadP10ETImessagej
|| __TEXT.__text __ZN11TimerThread9killTimerEP16TimerThreadTimer
|| __TEXT.__text __ZN11TimerThread9terminateEv
|| __TEXT.__text __ZN11TimerThreadC1Ev
|| __TEXT.__text __ZN11TimerThreadC2Ev
|| __TEXT.__text __ZN11TimerThreadD0Ev
|| __TEXT.__text __ZN11TimerThreadD1Ev
|| __TEXT.__text __ZN11TimerThreadD2Ev
|| __TEXT.__text __ZN12SoundManager15ensureArraySizeEv
|| __TEXT.__text __ZN12SoundManager17removeAudioFormatEP11AudioFormat
|| __TEXT.__text __ZN12SoundManager18requestAudioFormatEP14ECIaudioFormatPP11AudioFormat
|| __TEXT.__text __ZN12SoundManager30replaceDefaultFieldsWithValuesEP14ECIaudioFormat
|| __TEXT.__text __ZN12SoundManagerC1Ev
|| __TEXT.__text __ZN12SoundManagerC2Ev
|| __TEXT.__text __ZN12SoundManagerD1Ev
|| __TEXT.__text __ZN12SoundManagerD2Ev
|| __TEXT.__text __ZN13IniFileReader12doubleBufferEv
|| __TEXT.__text __ZN13IniFileReader12goEndSectionEPl
|| __TEXT.__text __ZN13IniFileReader12stringSearchEPKcll
|| __TEXT.__text __ZN13IniFileReader13setIniContentEPKcl
|| __TEXT.__text __ZN13IniFileReader14getNextSectionEPl
|| __TEXT.__text __ZN13IniFileReader15getFirstSectionEPl
|| __TEXT.__text __ZN13IniFileReader18goEndSectionHeaderEPl
|| __TEXT.__text __ZN13IniFileReader18readFileIntoMemoryEv
|| __TEXT.__text __ZN13IniFileReader8goEndKeyEPl
|| __TEXT.__text __ZN13IniFileReader9getStringEPKcS1_Pl
|| __TEXT.__text __ZN13IniFileReader9goEndDataEPl
|| __TEXT.__text __ZN13IniFileReaderC1Ev
|| __TEXT.__text __ZN13IniFileReaderC2Ev
|| __TEXT.__text __ZN13IniFileReaderD1Ev
|| __TEXT.__text __ZN13IniFileReaderD2Ev
|| __TEXT.__text __ZN13LibraryLoader14getProcAddressEPKc
|| __TEXT.__text __ZN13LibraryLoaderC1EPKc
|| __TEXT.__text __ZN13LibraryLoaderC2EPKc
|| __TEXT.__text __ZN13LibraryLoaderD1Ev
|| __TEXT.__text __ZN13LibraryLoaderD2Ev
|| __TEXT.__text __ZN13MemoryManager12deleteMemoryEj
|| __TEXT.__text __ZN13MemoryManager16ensureFreeMemoryEv
|| __TEXT.__text __ZN13MemoryManager9deleteAllEv
|| __TEXT.__text __ZN13MemoryManager9newMemoryEv
|| __TEXT.__text __ZN13MemoryManagerC1Ej
|| __TEXT.__text __ZN13MemoryManagerC2Ej
|| __TEXT.__text __ZN13MemoryManagerD1Ev
|| __TEXT.__text __ZN13MemoryManagerD2Ev
|| __TEXT.__text __ZN14AudioConverter12storeHistoryEv
|| __TEXT.__text __ZN14AudioConverter13NonStdConvertE5SDATA
|| __TEXT.__text __ZN14AudioConverter13getDestFormatEv
|| __TEXT.__text __ZN14AudioConverter13setDestFormatEP13tWAVEFORMATEX
|| __TEXT.__text __ZN14AudioConverter14convertSamplesE5SDATAPPS0_
|| __TEXT.__text __ZN14AudioConverter15getSourceFormatEv
|| __TEXT.__text __ZN14AudioConverter15setSourceFormatEP13tWAVEFORMATEX
|| __TEXT.__text __ZN14AudioConverter16checkInputFormatEP13tWAVEFORMATEX
|| __TEXT.__text __ZN14AudioConverter17checkOutputFormatEP13tWAVEFORMATEX
|| __TEXT.__text __ZN14AudioConverter18SetStdConvertFlagsEv
|| __TEXT.__text __ZN14AudioConverterC1Ev
|| __TEXT.__text __ZN14AudioConverterC2Ev
|| __TEXT.__text __ZN14AudioConverterD1Ev
|| __TEXT.__text __ZN14AudioConverterD2Ev
|| __TEXT.__text __ZN14LangIdentifier12setPackedIntEv
|| __TEXT.__text __ZN15ETImessageQueue10popMessageEPP10ETImessage16MessageQueueFlagP8ETIEvent
|| __TEXT.__text __ZN15ETImessageQueue11postMessageEP10ETImessagelPvS2_
|| __TEXT.__text __ZN15ETImessageQueue11sendMessageEP10ETImessagelPvS2_
|| __TEXT.__text __ZN15ETImessageQueue13clearMessagesEv
|| __TEXT.__text __ZN15ETImessageQueue6resumeEv
|| __TEXT.__text __ZN15ETImessageQueue7suspendEv
|| __TEXT.__text __ZN16RomanizerManager10isRomExistEii
|| __TEXT.__text __ZN16RomanizerManager11convertTextEPh
|| __TEXT.__text __ZN16RomanizerManager11insertIndexEv
|| __TEXT.__text __ZN16RomanizerManager11processTextEPPcjh
|| __TEXT.__text __ZN16RomanizerManager13MBCSToUnicodeEjPKcPPt
|| __TEXT.__text __ZN16RomanizerManager13UnicodeToMBCSEjPKtPPch
|| __TEXT.__text __ZN16RomanizerManager13romProgStatusEv
|| __TEXT.__text __ZN16RomanizerManager14getLibraryNameEPKc
|| __TEXT.__text __ZN16RomanizerManager14processSpecialEPPcS1_S0_h
|| __TEXT.__text __ZN16RomanizerManager14romClearErrorsEv
|| __TEXT.__text __ZN16RomanizerManager15processSentenceEPPch
|| __TEXT.__text __ZN16RomanizerManager15romErrorMessageEPc
|| __TEXT.__text __ZN16RomanizerManager16getRomanizerInstEhh
|| __TEXT.__text __ZN16RomanizerManager16initialRomanizerEv
|| __TEXT.__text __ZN16RomanizerManager16processRemainingEPPc
|| __TEXT.__text __ZN16RomanizerManager17setActiveLanguageEhhPP11RomInstance
|| __TEXT.__text __ZN16RomanizerManager18countAdditionSpaceEPhh
|| __TEXT.__text __ZN16RomanizerManager25processInternalAnnotationEPPcS1_S0_h
|| __TEXT.__text __ZN16RomanizerManager4stopEv
|| __TEXT.__text __ZN16RomanizerManager6getRomEj
|| __TEXT.__text __ZN16RomanizerManager6resumeEv
|| __TEXT.__text __ZN16RomanizerManager7addTextEPKcih
|| __TEXT.__text __ZN16RomanizerManager8addParamEPKci
|| __TEXT.__text __ZN16RomanizerManager8setParamEli
|| __TEXT.__text __ZN16RomanizerManagerC1EP11SynthThread
|| __TEXT.__text __ZN16RomanizerManagerC2EP11SynthThread
|| __TEXT.__text __ZN16RomanizerManagerD1Ev
|| __TEXT.__text __ZN16RomanizerManagerD2Ev
|| __TEXT.__text __ZN16TimerThreadTimer11postMessageEv
|| __TEXT.__text __ZN16TimerThreadTimer5isDueEj
|| __TEXT.__text __ZN16TimerThreadTimer7nextDueEv
|| __TEXT.__text __ZN16TimerThreadTimerC1EP21ETImessageQueueThreadP10ETImessagejjj
|| __TEXT.__text __ZN16TimerThreadTimerC2EP21ETImessageQueueThreadP10ETImessagejjj
|| __TEXT.__text __ZN16TimerThreadTimerD1Ev
|| __TEXT.__text __ZN16TimerThreadTimerD2Ev
|| __TEXT.__text __ZN18ETIappMessageQueue11synchronizeEv
|| __TEXT.__text __ZN18ETIappMessageQueue12callCallbackEll
|| __TEXT.__text __ZN18ETIappMessageQueue16registerCallbackEPvPFlS0_llS0_ES0_sS0_
|| __TEXT.__text __ZN18ETIappMessageQueue4pollEv
|| __TEXT.__text __ZN18ETIappMessageQueue8postUserEll
|| __TEXT.__text __ZN18ETIappMessageQueue8sendUserEll
|| __TEXT.__text __ZN18ETIappMessageQueueC1Ev
|| __TEXT.__text __ZN18ETIappMessageQueueC2Ev
|| __TEXT.__text __ZN18ETIappMessageQueueD1Ev
|| __TEXT.__text __ZN18ETIappMessageQueueD2Ev
|| __TEXT.__text __ZN21ETImessageQueueThread3runEv
|| __TEXT.__text __ZN21ETImessageQueueThread9terminateEv
|| __TEXT.__text __ZN24InitializeStandardVoices17loadStandardVoiceEPcP13IniFileReaderPl
|| __TEXT.__text __ZN24InitializeStandardVoicesC1Ev
|| __TEXT.__text __ZN24InitializeStandardVoicesC2Ev
|| __TEXT.__text __ZN5EList5resetEv
|| __TEXT.__text __ZN5Mutex4waitEl
|| __TEXT.__text __ZN5Mutex7releaseEv
|| __TEXT.__text __ZN5MutexC1Eh
|| __TEXT.__text __ZN5MutexC2Eh
|| __TEXT.__text __ZN5MutexD1Ev
|| __TEXT.__text __ZN5MutexD2Ev
|| __TEXT.__text __ZN6EDList10removeHeadEv
|| __TEXT.__text __ZN6EDList10removeTailEv
|| __TEXT.__text __ZN6EDList11removeAfterER9EListIter
|| __TEXT.__text __ZN6EDList8addAfterER9EListIter9IndexPair
|| __TEXT.__text __ZN6EDList8removeAtER9EListIter
|| __TEXT.__text __ZN6EDList9addBeforeER9EListIter9IndexPair
|| __TEXT.__text __ZN6EDList9addToHeadE9IndexPair
|| __TEXT.__text __ZN6EDList9addToTailE9IndexPair
|| __TEXT.__text __ZN6EDListC1ERKS_
|| __TEXT.__text __ZN6EDListC2ERKS_
|| __TEXT.__text __ZN6EDListaSERKS_
|| __TEXT.__text __ZN6ESList10removeHeadEv
|| __TEXT.__text __ZN6ESList11removeAfterER9EListIter
|| __TEXT.__text __ZN6ESList8addAfterER9EListIter9IndexPair
|| __TEXT.__text __ZN6ESList9addToHeadE9IndexPair
|| __TEXT.__text __ZN6ESList9addToTailE9IndexPair
|| __TEXT.__text __ZN6ESList9addToTailERS_
|| __TEXT.__text __ZN6ESListC1ERKS_
|| __TEXT.__text __ZN6ESListC2ERKS_
|| __TEXT.__text __ZN6ESListaSERKS_
|| __TEXT.__text __ZN8ECIstate13paramToEngineElP13EngineWrapper
|| __TEXT.__text __ZN8ECIstate14sendAnnotationEPKclP11SynthThread
|| __TEXT.__text __ZN8ECIstate15paramFromEngineEll
|| __TEXT.__text __ZN8ECIstate15setCurrentStateEP13EngineWrapper
|| __TEXT.__text __ZN8ECIstate15setInitialStateEP11SynthThread18ECILanguageDialect
|| __TEXT.__text __ZN8ECIstate16setStandardVoiceElP11SynthThread
|| __TEXT.__text __ZN8ECIstate8getParamEllPl
|| __TEXT.__text __ZN8ECIstate8setParamElllP11SynthThread
|| __TEXT.__text __ZN8ETIEvent12waitMultipleElPPS_hlPl
|| __TEXT.__text __ZN8ETIEvent4waitEl
|| __TEXT.__text __ZN8ETIEvent5pulseEv
|| __TEXT.__text __ZN8ETIEvent6signalEv
|| __TEXT.__text __ZN8ETIEvent8unsignalEv
|| __TEXT.__text __ZN8ETIEventC1Eh
|| __TEXT.__text __ZN8ETIEventC2Eh
|| __TEXT.__text __ZN8ETIEventD1Ev
|| __TEXT.__text __ZN8ETIEventD2Ev
|| __TEXT.__text __ZN8ETIqueue15doubleArraySizeEv
|| __TEXT.__text __ZN8ETIqueue3popEPPv
|| __TEXT.__text __ZN8ETIqueue4pushEPv
|| __TEXT.__text __ZN8ETIqueue5resetEv
|| __TEXT.__text __ZN8ETIqueue7isEmptyEv
|| __TEXT.__text __ZN8ETIqueue8peekHeadEPPv
|| __TEXT.__text __ZN8ETIqueueC1Ej
|| __TEXT.__text __ZN8ETIqueueC2Ej
|| __TEXT.__text __ZN8ETIqueueD0Ev
|| __TEXT.__text __ZN8ETIqueueD1Ev
|| __TEXT.__text __ZN8ETIqueueD2Ev
|| __TEXT.__text __ZN8Phonemes10getPhonemeEP14LangIdentifierl
|| __TEXT.__text __ZN8PhonemesC1Ev
|| __TEXT.__text __ZN8PhonemesC2Ev
|| __TEXT.__text __ZN9ETIThread11getThreadIDEv
|| __TEXT.__text __ZN9ETIThread11setPriorityENS_9TPriorityE
|| __TEXT.__text __ZN9ETIThread11waitForExitEv
|| __TEXT.__text __ZN9ETIThread16terminateAndWaitEv
|| __TEXT.__text __ZN9ETIThread3runEv
|| __TEXT.__text __ZN9ETIThread4exitEj
|| __TEXT.__text __ZN9ETIThread5sleepElh
|| __TEXT.__text __ZN9ETIThread5startEv
|| __TEXT.__text __ZN9ETIThread7executeEPv
|| __TEXT.__text __ZN9ETIThread9getStatusEv
|| __TEXT.__text __ZN9ETIThread9terminateEv
|| __TEXT.__text __ZN9ETIThreadC1Ev
|| __TEXT.__text __ZN9ETIThreadC2Ev
|| __TEXT.__text __ZN9ETIThreadD0Ev
|| __TEXT.__text __ZN9ETIThreadD1Ev
|| __TEXT.__text __ZN9ETIThreadD2Ev
|| __TEXT.__text __ZN9Semaphore4waitEv
|| __TEXT.__text __ZN9Semaphore7releaseEl
|| __TEXT.__text __ZN9SemaphoreC1El
|| __TEXT.__text __ZN9SemaphoreC2El
|| __TEXT.__text __ZN9SemaphoreD1Ev
|| __TEXT.__text __ZN9SemaphoreD2Ev
|| __TEXT.__text __ZNK10EDListIter5atEndEv
|| __TEXT.__text __ZNK10EDListIter7atStartEv
|| __TEXT.__text __ZNK10ESListIter5atEndEv
|| __TEXT.__text __ZNK11ECollection4sizeEv
|| __TEXT.__text __ZNK6EDList7newIterEv
|| __TEXT.__text __ZNK6ESList7newIterEv
|| __TEXT.__text __ZNK9ETIThread11checkStatusEv
|| __TEXT.__text __ZNK9ETIThread11getPriorityEv
|| __TEXT.__text __ZNK9ETIThread15shouldTerminateEv
|| __TEXT.__text _aLawToLin16
|| __TEXT.__text _aLawToLin8
|| __TEXT.__text _atoiOK
|| __TEXT.__text _cleanLiteral
|| __TEXT.__text _constructSoundFile
|| __TEXT.__text _convertSample
|| __TEXT.__text _copyKey
|| __TEXT.__text _defaultGetDuration
|| __TEXT.__text _defaultHold
|| __TEXT.__text _defaultInsertIndex
|| __TEXT.__text _defaultPoll
|| __TEXT.__text _defaultReset
|| __TEXT.__text _defaultSamplesUncommitted
|| __TEXT.__text _defaultSetDuration
|| __TEXT.__text _defaultSetIndexCallback
|| __TEXT.__text _defaultSoundFormat
|| __TEXT.__text _eciActivateDict2
|| __TEXT.__text _eciAddText
|| __TEXT.__text _eciAddText2
|| __TEXT.__text _eciBlock2
|| __TEXT.__text _eciCheckSynthesizing2
|| __TEXT.__text _eciClearErrors
|| __TEXT.__text _eciClearErrors2
|| __TEXT.__text _eciClearInput
|| __TEXT.__text _eciCopyVoice
|| __TEXT.__text _eciDeactivateDict2
|| __TEXT.__text _eciDelete
|| __TEXT.__text _eciDelete2
|| __TEXT.__text _eciDeleteAudioFormat2
|| __TEXT.__text _eciDeleteDict
|| __TEXT.__text _eciDeleteDict2
|| __TEXT.__text _eciDictFindFirst
|| __TEXT.__text _eciDictFindFirstEx
|| __TEXT.__text _eciDictFindNext
|| __TEXT.__text _eciDictFindNextEx
|| __TEXT.__text _eciDictLookup
|| __TEXT.__text _eciDictLookupEx
|| __TEXT.__text _eciErrorMessage
|| __TEXT.__text _eciFindFirstDictEntry2
|| __TEXT.__text _eciFindFirstDictEntryExt2
|| __TEXT.__text _eciFindNextDictEntry2
|| __TEXT.__text _eciFindNextDictEntryExt2
|| __TEXT.__text _eciGeneratePhonemes
|| __TEXT.__text _eciGeneratePinyins
|| __TEXT.__text _eciGetActiveDict2
|| __TEXT.__text _eciGetAvailableLanguages
|| __TEXT.__text _eciGetDefaultParam
|| __TEXT.__text _eciGetDict
|| __TEXT.__text _eciGetDictLanguage2
|| __TEXT.__text _eciGetIndex
|| __TEXT.__text _eciGetParam
|| __TEXT.__text _eciGetParam2
|| __TEXT.__text _eciGetRomMngr2
|| __TEXT.__text _eciGetVoiceName
|| __TEXT.__text _eciGetVoiceParam
|| __TEXT.__text _eciInsertIndex
|| __TEXT.__text _eciInsertIndex2
|| __TEXT.__text _eciIsBeingReentered
|| __TEXT.__text _eciLoadDict
|| __TEXT.__text _eciLoadDictVolume2
|| __TEXT.__text _eciLookupDict2
|| __TEXT.__text _eciLookupDictExt2
|| __TEXT.__text _eciNew
|| __TEXT.__text _eciNew2
|| __TEXT.__text _eciNewAudioFormat2
|| __TEXT.__text _eciNewDict
|| __TEXT.__text _eciNewDict2
|| __TEXT.__text _eciNewEx
|| __TEXT.__text _eciNewEx2
|| __TEXT.__text _eciPause
|| __TEXT.__text _eciPause2
|| __TEXT.__text _eciPoll2
|| __TEXT.__text _eciProgStatus
|| __TEXT.__text _eciRegisterCallback
|| __TEXT.__text _eciRegisterCallback2
|| __TEXT.__text _eciRegisterPhonemeBuffer2
|| __TEXT.__text _eciRegisterSampleBuffer2
|| __TEXT.__text _eciRequestLicense
|| __TEXT.__text _eciReset
|| __TEXT.__text _eciReset2
|| __TEXT.__text _eciSaveDict
|| __TEXT.__text _eciSaveDictVolume2
|| __TEXT.__text _eciSetDefaultParam
|| __TEXT.__text _eciSetDict
|| __TEXT.__text _eciSetIniContent
|| __TEXT.__text _eciSetOutputBuffer
|| __TEXT.__text _eciSetOutputDevice
|| __TEXT.__text _eciSetOutputFilename
|| __TEXT.__text _eciSetParam
|| __TEXT.__text _eciSetParam2
|| __TEXT.__text _eciSetStandardVoice2
|| __TEXT.__text _eciSetVoiceName
|| __TEXT.__text _eciSetVoiceParam
|| __TEXT.__text _eciSpeakText
|| __TEXT.__text _eciSpeakText2
|| __TEXT.__text _eciSpeakTextEx
|| __TEXT.__text _eciSpeaking
|| __TEXT.__text _eciStop
|| __TEXT.__text _eciStop2
|| __TEXT.__text _eciSyncWait
|| __TEXT.__text _eciSynchronize
|| __TEXT.__text _eciSynchronize2
|| __TEXT.__text _eciSynchronizeSynth
|| __TEXT.__text _eciSynthesize
|| __TEXT.__text _eciSynthesize2
|| __TEXT.__text _eciSynthesizeFile
|| __TEXT.__text _eciTestPhrase
|| __TEXT.__text _eciUnblock2
|| __TEXT.__text _eciUpdateDict
|| __TEXT.__text _eciUpdateDict2
|| __TEXT.__text _eciUpdateDictEx
|| __TEXT.__text _eciUpdateDictExt2
|| __TEXT.__text _eciVersion
|| __TEXT.__text _eciVersion2
|| __TEXT.__text _fgetUCS2
|| __TEXT.__text _findMatchingSoundFormat
|| __TEXT.__text _getFileLength
|| __TEXT.__text _getRealWorldVoiceParam
|| __TEXT.__text _initializeSoundFormats
|| __TEXT.__text _isUnicodeCodeSet
|| __TEXT.__text _lin16ToALaw
|| __TEXT.__text _lin16ToMu
|| __TEXT.__text _lin8ToALaw
|| __TEXT.__text _lin8ToMu
|| __TEXT.__text _muToLin16
|| __TEXT.__text _muToLin8
|| __TEXT.__text _readBigEnd16
|| __TEXT.__text _readBigEnd32U
|| __TEXT.__text _readLittleEnd16
|| __TEXT.__text _readLittleEnd16U
|| __TEXT.__text _readLittleEnd32
|| __TEXT.__text _readLittleEnd32U
|| __TEXT.__text _readLittleEndFloat32
|| __TEXT.__text _registerSoundFormat
|| __TEXT.__text _setRealWorldParamsFromECIParams
|| __TEXT.__text _setRealWorldVoiceParam
|| __TEXT.__text _soundFileClose
|| __TEXT.__text _soundFileCreateOutput
|| __TEXT.__text _soundFileFlush
|| __TEXT.__text _soundFileFormat
|| __TEXT.__text _soundFileGetDuration
|| __TEXT.__text _soundFileGetStatus
|| __TEXT.__text _soundFileHold
|| __TEXT.__text _soundFileInsertIndex
|| __TEXT.__text _soundFileName
|| __TEXT.__text _soundFileNumDeviceBlocks
|| __TEXT.__text _soundFileNumPrerollDeviceBlocks
|| __TEXT.__text _soundFileOpenAppend
|| __TEXT.__text _soundFileOpenInput
|| __TEXT.__text _soundFilePoll
|| __TEXT.__text _soundFilePosition
|| __TEXT.__text _soundFileRate
|| __TEXT.__text _soundFileRead
|| __TEXT.__text _soundFileReset
|| __TEXT.__text _soundFileSampleFormat
|| __TEXT.__text _soundFileSamplesUncommitted
|| __TEXT.__text _soundFileSetDevice
|| __TEXT.__text _soundFileSetDuration
|| __TEXT.__text _soundFileSetFile
|| __TEXT.__text _soundFileSetIndexCallback
|| __TEXT.__text _soundFileSizeDeviceBlocks
|| __TEXT.__text _soundFileSizePrerollDeviceBlocks
|| __TEXT.__text _soundFileWidth
|| __TEXT.__text _soundFileWrite
|| __TEXT.__text _soundFormatNamed
|| __TEXT.__text _strcasecmp
|| __TEXT.__text _strdup
|| __TEXT.__text _strncpyWithEllipsis
|| __TEXT.__text _writeBigEnd16
|| __TEXT.__text _writeBigEnd32
|| __TEXT.__text _writeLittleEnd16
|| __TEXT.__text _writeLittleEnd32
|| __TEXT.__text _writeLittleEndFloat32
__ libSystem.B.dylib: __DefaultRuneLocale
__ libSystem.B.dylib: __Unwind_Resume
__ libSystem.B.dylib: ___cxa_atexit
__ libSystem.B.dylib: ___error
__ libSystem.B.dylib: ___stack_chk_fail
__ libSystem.B.dylib: ___stack_chk_guard
__ libSystem.B.dylib: ___tolower
__ libSystem.B.dylib: _atoi
__ libSystem.B.dylib: _bzero
__ libSystem.B.dylib: _calloc
__ libSystem.B.dylib: _clock
__ libSystem.B.dylib: _div
__ libSystem.B.dylib: _dlclose
__ libSystem.B.dylib: _dlerror
__ libSystem.B.dylib: _dlopen
__ libSystem.B.dylib: _dlsym
__ libSystem.B.dylib: _exp2
__ libSystem.B.dylib: _fclose
__ libSystem.B.dylib: _feof
__ libSystem.B.dylib: _ferror
__ libSystem.B.dylib: _fgets
__ libSystem.B.dylib: _fopen
__ libSystem.B.dylib: _fprintf
__ libSystem.B.dylib: _fputc
__ libSystem.B.dylib: _fread
__ libSystem.B.dylib: _free
__ libSystem.B.dylib: _fseek
__ libSystem.B.dylib: _ftell
__ libSystem.B.dylib: _ftime
__ libSystem.B.dylib: _fwrite
__ libSystem.B.dylib: _getcwd
__ libSystem.B.dylib: _getenv
__ libSystem.B.dylib: _isspace
__ libSystem.B.dylib: _malloc
__ libSystem.B.dylib: _memcpy
__ libSystem.B.dylib: _memset
__ libSystem.B.dylib: _perror
__ libSystem.B.dylib: _pow
__ libSystem.B.dylib: _printf
__ libSystem.B.dylib: _pthread_attr_init
__ libSystem.B.dylib: _pthread_attr_setdetachstate
__ libSystem.B.dylib: _pthread_cond_broadcast
__ libSystem.B.dylib: _pthread_cond_destroy
__ libSystem.B.dylib: _pthread_cond_init
__ libSystem.B.dylib: _pthread_cond_signal
__ libSystem.B.dylib: _pthread_cond_timedwait
__ libSystem.B.dylib: _pthread_cond_wait
__ libSystem.B.dylib: _pthread_create
__ libSystem.B.dylib: _pthread_equal
__ libSystem.B.dylib: _pthread_exit
__ libSystem.B.dylib: _pthread_join
__ libSystem.B.dylib: _pthread_mutex_destroy
__ libSystem.B.dylib: _pthread_mutex_init
__ libSystem.B.dylib: _pthread_mutex_lock
__ libSystem.B.dylib: _pthread_mutex_unlock
__ libSystem.B.dylib: _pthread_self
__ libSystem.B.dylib: _qsort
__ libSystem.B.dylib: _rewind
__ libSystem.B.dylib: _sprintf
__ libSystem.B.dylib: _sscanf
__ libSystem.B.dylib: _strcmp
__ libSystem.B.dylib: _strcpy
__ libSystem.B.dylib: _strlen
__ libSystem.B.dylib: _strncat
__ libSystem.B.dylib: _strncmp
__ libSystem.B.dylib: _strncpy
__ libSystem.B.dylib: _strtok
__ libSystem.B.dylib: _time
__ libSystem.B.dylib: _vfprintf
__ libc++.1.dylib: __ZSt9terminatev
__ libc++.1.dylib: __ZTVN10__cxxabiv117__class_type_infoE
__ libc++.1.dylib: __ZTVN10__cxxabiv120__si_class_type_infoE
__ libc++.1.dylib: __ZTVN10__cxxabiv121__vmi_class_type_infoE
__ libc++.1.dylib: __ZdaPv
__ libc++.1.dylib: __ZdlPv
__ libc++.1.dylib: __Znam
__ libc++.1.dylib: __Znwm
__ libc++.1.dylib: ___cxa_begin_catch
__ libc++.1.dylib: ___cxa_end_catch
__ libc++.1.dylib: ___cxa_pure_virtual
__ libc++.1.dylib: ___gxx_personality_v0
