|| __DATA_CONST.__const __ZTIN7Iex_2_37BaseExcE
|| __DATA_CONST.__const __ZTVN7Iex_2_37BaseExcE
|| __TEXT.__const __ZTSN7Iex_2_37BaseExcE
|| __TEXT.__text __Z13iex_debugTrapv
|| __TEXT.__text __ZN7Iex_2_311stackTracerEv
|| __TEXT.__text __ZN7Iex_2_313throwErrnoExcERKNSt3__112basic_stringIcNS0_11char_traitsIcEENS0_9allocatorIcEEEE
|| __TEXT.__text __ZN7Iex_2_313throwErrnoExcERKNSt3__112basic_stringIcNS0_11char_traitsIcEENS0_9allocatorIcEEEEi
|| __TEXT.__text __ZN7Iex_2_313throwErrnoExcEv
|| __TEXT.__text __ZN7Iex_2_314setStackTracerEPFNSt3__112basic_stringIcNS0_11char_traitsIcEENS0_9allocatorIcEEEEvE
|| __TEXT.__text __ZN7Iex_2_37BaseExc6appendEPKc
|| __TEXT.__text __ZN7Iex_2_37BaseExc6appendERNSt3__118basic_stringstreamIcNS1_11char_traitsIcEENS1_9allocatorIcEEEE
|| __TEXT.__text __ZN7Iex_2_37BaseExc6assignEPKc
|| __TEXT.__text __ZN7Iex_2_37BaseExc6assignERNSt3__118basic_stringstreamIcNS1_11char_traitsIcEENS1_9allocatorIcEEEE
|| __TEXT.__text __ZN7Iex_2_37BaseExcC1EPKc
|| __TEXT.__text __ZN7Iex_2_37BaseExcC1ERKNSt3__112basic_stringIcNS1_11char_traitsIcEENS1_9allocatorIcEEEE
|| __TEXT.__text __ZN7Iex_2_37BaseExcC1ERKS0_
|| __TEXT.__text __ZN7Iex_2_37BaseExcC1ERNSt3__118basic_stringstreamIcNS1_11char_traitsIcEENS1_9allocatorIcEEEE
|| __TEXT.__text __ZN7Iex_2_37BaseExcC2EPKc
|| __TEXT.__text __ZN7Iex_2_37BaseExcC2ERKNSt3__112basic_stringIcNS1_11char_traitsIcEENS1_9allocatorIcEEEE
|| __TEXT.__text __ZN7Iex_2_37BaseExcC2ERKS0_
|| __TEXT.__text __ZN7Iex_2_37BaseExcC2ERNSt3__118basic_stringstreamIcNS1_11char_traitsIcEENS1_9allocatorIcEEEE
|| __TEXT.__text __ZN7Iex_2_37BaseExcD0Ev
|| __TEXT.__text __ZN7Iex_2_37BaseExcD1Ev
|| __TEXT.__text __ZN7Iex_2_37BaseExcD2Ev
|| __TEXT.__text __ZN7Iex_2_37BaseExcaSEPKc
|| __TEXT.__text __ZN7Iex_2_37BaseExcaSERNSt3__118basic_stringstreamIcNS1_11char_traitsIcEENS1_9allocatorIcEEEE
|| __TEXT.__text __ZN7Iex_2_37BaseExcpLEPKc
|| __TEXT.__text __ZN7Iex_2_37BaseExcpLERNSt3__118basic_stringstreamIcNS1_11char_traitsIcEENS1_9allocatorIcEEEE
|| __TEXT.__text __ZNK7Iex_2_37BaseExc10stackTraceEv
|| __TEXT.__text __ZNK7Iex_2_37BaseExc4whatEv
|| __TEXT.__text __ZNK7Iex_2_37BaseExc7messageEv
__ libSystem.B.dylib: __Unwind_Resume
__ libSystem.B.dylib: ___error
__ libSystem.B.dylib: _getenv
__ libSystem.B.dylib: _memchr
__ libSystem.B.dylib: _memcpy
__ libSystem.B.dylib: _strerror
__ libSystem.B.dylib: _strlen
__ libc++.1.dylib: __ZNKSt3__115basic_stringbufIcNS_11char_traitsIcEENS_9allocatorIcEEE3strEv
__ libc++.1.dylib: __ZNKSt3__121__basic_string_commonILb1EE20__throw_length_errorEv
__ libc++.1.dylib: __ZNSt3__112basic_stringIcNS_11char_traitsIcEENS_9allocatorIcEEE6appendEPKc
__ libc++.1.dylib: __ZNSt3__112basic_stringIcNS_11char_traitsIcEENS_9allocatorIcEEE6appendEPKcm
__ libc++.1.dylib: __ZNSt3__112basic_stringIcNS_11char_traitsIcEENS_9allocatorIcEEE6assignEPKc
__ libc++.1.dylib: __ZNSt3__112basic_stringIcNS_11char_traitsIcEENS_9allocatorIcEEE7replaceEmmPKcm
__ libc++.1.dylib: __ZNSt3__112basic_stringIcNS_11char_traitsIcEENS_9allocatorIcEEEC1ERKS5_
__ libc++.1.dylib: __ZNSt9exceptionD2Ev
__ libc++.1.dylib: __ZTISt9exception
__ libc++.1.dylib: __ZTVN10__cxxabiv120__si_class_type_infoE
__ libc++.1.dylib: __ZdlPv
__ libc++.1.dylib: __Znwm
__ libc++.1.dylib: ___cxa_allocate_exception
__ libc++.1.dylib: ___cxa_call_unexpected
__ libc++.1.dylib: ___cxa_throw
__ libc++.1.dylib: ___gxx_personality_v0
