|| __DATA.__const_weak __ZTVN4pugi15xml_writer_fileE
|| __DATA.__const_weak __ZTVN4pugi15xpath_exceptionE
|| __DATA.__const_weak __ZTVN4pugi17xml_writer_streamE
|| __DATA.__data __ZN9MaterialX14MTLX_EXTENSIONE
|| __DATA.__data __ZN9MaterialX16VALID_SEPARATORSE
|| __DATA.__data __ZN9MaterialX19PATH_LIST_SEPARATORE
|| __DATA.__data __ZN9MaterialX29MATERIALX_SEARCH_PATH_ENV_VARE
|| __DATA_CONST.__const __ZTIN4pugi15xml_tree_walkerE
|| __DATA_CONST.__const __ZTIN4pugi15xml_writer_fileE
|| __DATA_CONST.__const __ZTIN4pugi15xpath_exceptionE
|| __DATA_CONST.__const __ZTIN4pugi17xml_writer_streamE
|| __DATA_CONST.__const __ZTVN4pugi15xml_tree_walkerE
|| __TEXT.__const __ZTSN4pugi15xml_tree_walkerE
|| __TEXT.__const __ZTSN4pugi15xml_writer_fileE
|| __TEXT.__const __ZTSN4pugi15xpath_exceptionE
|| __TEXT.__const __ZTSN4pugi17xml_writer_streamE
|| __TEXT.__text __ZN4pugi10xpath_nodeC1ERKNS_13xml_attributeERKNS_8xml_nodeE
|| __TEXT.__text __ZN4pugi10xpath_nodeC1ERKNS_8xml_nodeE
|| __TEXT.__text __ZN4pugi10xpath_nodeC1Ev
|| __TEXT.__text __ZN4pugi10xpath_nodeC2ERKNS_13xml_attributeERKNS_8xml_nodeE
|| __TEXT.__text __ZN4pugi10xpath_nodeC2ERKNS_8xml_nodeE
|| __TEXT.__text __ZN4pugi10xpath_nodeC2Ev
|| __TEXT.__text __ZN4pugi11xpath_queryC1EOS0_
|| __TEXT.__text __ZN4pugi11xpath_queryC1EPKcPNS_18xpath_variable_setE
|| __TEXT.__text __ZN4pugi11xpath_queryC1Ev
|| __TEXT.__text __ZN4pugi11xpath_queryC2EOS0_
|| __TEXT.__text __ZN4pugi11xpath_queryC2EPKcPNS_18xpath_variable_setE
|| __TEXT.__text __ZN4pugi11xpath_queryC2Ev
|| __TEXT.__text __ZN4pugi11xpath_queryD1Ev
|| __TEXT.__text __ZN4pugi11xpath_queryD2Ev
|| __TEXT.__text __ZN4pugi11xpath_queryaSEOS0_
|| __TEXT.__text __ZN4pugi12xml_document11load_bufferEPKvmjNS_12xml_encodingE
|| __TEXT.__text __ZN4pugi12xml_document11load_stringEPKcj
|| __TEXT.__text __ZN4pugi12xml_document19load_buffer_inplaceEPvmjNS_12xml_encodingE
|| __TEXT.__text __ZN4pugi12xml_document23load_buffer_inplace_ownEPvmjNS_12xml_encodingE
|| __TEXT.__text __ZN4pugi12xml_document4loadEPKcj
|| __TEXT.__text __ZN4pugi12xml_document4loadERNSt3__113basic_istreamIcNS1_11char_traitsIcEEEEjNS_12xml_encodingE
|| __TEXT.__text __ZN4pugi12xml_document4loadERNSt3__113basic_istreamIwNS1_11char_traitsIwEEEEj
|| __TEXT.__text __ZN4pugi12xml_document5_moveERS0_
|| __TEXT.__text __ZN4pugi12xml_document5resetERKS0_
|| __TEXT.__text __ZN4pugi12xml_document5resetEv
|| __TEXT.__text __ZN4pugi12xml_document7_createEv
|| __TEXT.__text __ZN4pugi12xml_document8_destroyEv
|| __TEXT.__text __ZN4pugi12xml_document9load_fileEPKcjNS_12xml_encodingE
|| __TEXT.__text __ZN4pugi12xml_document9load_fileEPKwjNS_12xml_encodingE
|| __TEXT.__text __ZN4pugi12xml_documentC1EOS0_
|| __TEXT.__text __ZN4pugi12xml_documentC1Ev
|| __TEXT.__text __ZN4pugi12xml_documentC2EOS0_
|| __TEXT.__text __ZN4pugi12xml_documentC2Ev
|| __TEXT.__text __ZN4pugi12xml_documentD1Ev
|| __TEXT.__text __ZN4pugi12xml_documentD2Ev
|| __TEXT.__text __ZN4pugi12xml_documentaSEOS0_
|| __TEXT.__text __ZN4pugi13xml_attribute8set_nameEPKc
|| __TEXT.__text __ZN4pugi13xml_attribute9set_valueEPKc
|| __TEXT.__text __ZN4pugi13xml_attribute9set_valueEb
|| __TEXT.__text __ZN4pugi13xml_attribute9set_valueEd
|| __TEXT.__text __ZN4pugi13xml_attribute9set_valueEf
|| __TEXT.__text __ZN4pugi13xml_attribute9set_valueEi
|| __TEXT.__text __ZN4pugi13xml_attribute9set_valueEj
|| __TEXT.__text __ZN4pugi13xml_attribute9set_valueEl
|| __TEXT.__text __ZN4pugi13xml_attribute9set_valueEm
|| __TEXT.__text __ZN4pugi13xml_attribute9set_valueEx
|| __TEXT.__text __ZN4pugi13xml_attribute9set_valueEy
|| __TEXT.__text __ZN4pugi13xml_attributeC1EPNS_20xml_attribute_structE
|| __TEXT.__text __ZN4pugi13xml_attributeC1Ev
|| __TEXT.__text __ZN4pugi13xml_attributeC2EPNS_20xml_attribute_structE
|| __TEXT.__text __ZN4pugi13xml_attributeC2Ev
|| __TEXT.__text __ZN4pugi13xml_attributeaSEPKc
|| __TEXT.__text __ZN4pugi13xml_attributeaSEb
|| __TEXT.__text __ZN4pugi13xml_attributeaSEd
|| __TEXT.__text __ZN4pugi13xml_attributeaSEf
|| __TEXT.__text __ZN4pugi13xml_attributeaSEi
|| __TEXT.__text __ZN4pugi13xml_attributeaSEj
|| __TEXT.__text __ZN4pugi13xml_attributeaSEl
|| __TEXT.__text __ZN4pugi13xml_attributeaSEm
|| __TEXT.__text __ZN4pugi13xml_attributeaSEx
|| __TEXT.__text __ZN4pugi13xml_attributeaSEy
|| __TEXT.__text __ZN4pugi14xpath_node_set4sortEb
|| __TEXT.__text __ZN4pugi14xpath_node_set5_moveERS0_
|| __TEXT.__text __ZN4pugi14xpath_node_set7_assignEPKNS_10xpath_nodeES3_NS0_6type_tE
|| __TEXT.__text __ZN4pugi14xpath_node_setC1EOS0_
|| __TEXT.__text __ZN4pugi14xpath_node_setC1EPKNS_10xpath_nodeES3_NS0_6type_tE
|| __TEXT.__text __ZN4pugi14xpath_node_setC1ERKS0_
|| __TEXT.__text __ZN4pugi14xpath_node_setC1Ev
|| __TEXT.__text __ZN4pugi14xpath_node_setC2EOS0_
|| __TEXT.__text __ZN4pugi14xpath_node_setC2EPKNS_10xpath_nodeES3_NS0_6type_tE
|| __TEXT.__text __ZN4pugi14xpath_node_setC2ERKS0_
|| __TEXT.__text __ZN4pugi14xpath_node_setC2Ev
|| __TEXT.__text __ZN4pugi14xpath_node_setD1Ev
|| __TEXT.__text __ZN4pugi14xpath_node_setD2Ev
|| __TEXT.__text __ZN4pugi14xpath_node_setaSEOS0_
|| __TEXT.__text __ZN4pugi14xpath_node_setaSERKS0_
|| __TEXT.__text __ZN4pugi14xpath_variable3setEPKc
|| __TEXT.__text __ZN4pugi14xpath_variable3setERKNS_14xpath_node_setE
|| __TEXT.__text __ZN4pugi14xpath_variable3setEb
|| __TEXT.__text __ZN4pugi14xpath_variable3setEd
|| __TEXT.__text __ZN4pugi14xpath_variableC1ENS_16xpath_value_typeE
|| __TEXT.__text __ZN4pugi14xpath_variableC2ENS_16xpath_value_typeE
|| __TEXT.__text __ZN4pugi15xml_tree_walker3endERNS_8xml_nodeE
|| __TEXT.__text __ZN4pugi15xml_tree_walker5beginERNS_8xml_nodeE
|| __TEXT.__text __ZN4pugi15xml_tree_walkerC2Ev
|| __TEXT.__text __ZN4pugi15xml_tree_walkerD0Ev
|| __TEXT.__text __ZN4pugi15xml_tree_walkerD1Ev
|| __TEXT.__text __ZN4pugi15xml_tree_walkerD2Ev
|| __TEXT.__text __ZN4pugi15xml_writer_file5writeEPKvm
|| __TEXT.__text __ZN4pugi15xml_writer_fileC1EPv
|| __TEXT.__text __ZN4pugi15xml_writer_fileC2EPv
|| __TEXT.__text __ZN4pugi15xpath_exceptionC1ERKNS_18xpath_parse_resultE
|| __TEXT.__text __ZN4pugi15xpath_exceptionC2ERKNS_18xpath_parse_resultE
|| __TEXT.__text __ZN4pugi16xml_parse_resultC1Ev
|| __TEXT.__text __ZN4pugi16xml_parse_resultC2Ev
|| __TEXT.__text __ZN4pugi17xml_node_iteratorC1EPNS_15xml_node_structES2_
|| __TEXT.__text __ZN4pugi17xml_node_iteratorC1ERKNS_8xml_nodeE
|| __TEXT.__text __ZN4pugi17xml_node_iteratorC1Ev
|| __TEXT.__text __ZN4pugi17xml_node_iteratorC2EPNS_15xml_node_structES2_
|| __TEXT.__text __ZN4pugi17xml_node_iteratorC2ERKNS_8xml_nodeE
|| __TEXT.__text __ZN4pugi17xml_node_iteratorC2Ev
|| __TEXT.__text __ZN4pugi17xml_node_iteratormmEi
|| __TEXT.__text __ZN4pugi17xml_node_iteratormmEv
|| __TEXT.__text __ZN4pugi17xml_node_iteratorppEi
|| __TEXT.__text __ZN4pugi17xml_node_iteratorppEv
|| __TEXT.__text __ZN4pugi17xml_writer_stream5writeEPKvm
|| __TEXT.__text __ZN4pugi17xml_writer_streamC1ERNSt3__113basic_ostreamIcNS1_11char_traitsIcEEEE
|| __TEXT.__text __ZN4pugi17xml_writer_streamC1ERNSt3__113basic_ostreamIwNS1_11char_traitsIwEEEE
|| __TEXT.__text __ZN4pugi17xml_writer_streamC2ERNSt3__113basic_ostreamIcNS1_11char_traitsIcEEEE
|| __TEXT.__text __ZN4pugi17xml_writer_streamC2ERNSt3__113basic_ostreamIwNS1_11char_traitsIwEEEE
|| __TEXT.__text __ZN4pugi18xpath_parse_resultC1Ev
|| __TEXT.__text __ZN4pugi18xpath_parse_resultC2Ev
|| __TEXT.__text __ZN4pugi18xpath_variable_set3addEPKcNS_16xpath_value_typeE
|| __TEXT.__text __ZN4pugi18xpath_variable_set3getEPKc
|| __TEXT.__text __ZN4pugi18xpath_variable_set3setEPKcRKNS_14xpath_node_setE
|| __TEXT.__text __ZN4pugi18xpath_variable_set3setEPKcS2_
|| __TEXT.__text __ZN4pugi18xpath_variable_set3setEPKcb
|| __TEXT.__text __ZN4pugi18xpath_variable_set3setEPKcd
|| __TEXT.__text __ZN4pugi18xpath_variable_set5_swapERS0_
|| __TEXT.__text __ZN4pugi18xpath_variable_set6_cloneEPNS_14xpath_variableEPS2_
|| __TEXT.__text __ZN4pugi18xpath_variable_set7_assignERKS0_
|| __TEXT.__text __ZN4pugi18xpath_variable_set8_destroyEPNS_14xpath_variableE
|| __TEXT.__text __ZN4pugi18xpath_variable_setC1EOS0_
|| __TEXT.__text __ZN4pugi18xpath_variable_setC1ERKS0_
|| __TEXT.__text __ZN4pugi18xpath_variable_setC1Ev
|| __TEXT.__text __ZN4pugi18xpath_variable_setC2EOS0_
|| __TEXT.__text __ZN4pugi18xpath_variable_setC2ERKS0_
|| __TEXT.__text __ZN4pugi18xpath_variable_setC2Ev
|| __TEXT.__text __ZN4pugi18xpath_variable_setD1Ev
|| __TEXT.__text __ZN4pugi18xpath_variable_setD2Ev
|| __TEXT.__text __ZN4pugi18xpath_variable_setaSEOS0_
|| __TEXT.__text __ZN4pugi18xpath_variable_setaSERKS0_
|| __TEXT.__text __ZN4pugi22xml_attribute_iteratorC1EPNS_20xml_attribute_structEPNS_15xml_node_structE
|| __TEXT.__text __ZN4pugi22xml_attribute_iteratorC1ERKNS_13xml_attributeERKNS_8xml_nodeE
|| __TEXT.__text __ZN4pugi22xml_attribute_iteratorC1Ev
|| __TEXT.__text __ZN4pugi22xml_attribute_iteratorC2EPNS_20xml_attribute_structEPNS_15xml_node_structE
|| __TEXT.__text __ZN4pugi22xml_attribute_iteratorC2ERKNS_13xml_attributeERKNS_8xml_nodeE
|| __TEXT.__text __ZN4pugi22xml_attribute_iteratorC2Ev
|| __TEXT.__text __ZN4pugi22xml_attribute_iteratormmEi
|| __TEXT.__text __ZN4pugi22xml_attribute_iteratormmEv
|| __TEXT.__text __ZN4pugi22xml_attribute_iteratorppEi
|| __TEXT.__text __ZN4pugi22xml_attribute_iteratorppEv
|| __TEXT.__text __ZN4pugi23xml_named_node_iteratorC1EPNS_15xml_node_structES2_PKc
|| __TEXT.__text __ZN4pugi23xml_named_node_iteratorC1ERKNS_8xml_nodeEPKc
|| __TEXT.__text __ZN4pugi23xml_named_node_iteratorC1Ev
|| __TEXT.__text __ZN4pugi23xml_named_node_iteratorC2EPNS_15xml_node_structES2_PKc
|| __TEXT.__text __ZN4pugi23xml_named_node_iteratorC2ERKNS_8xml_nodeEPKc
|| __TEXT.__text __ZN4pugi23xml_named_node_iteratorC2Ev
|| __TEXT.__text __ZN4pugi23xml_named_node_iteratormmEi
|| __TEXT.__text __ZN4pugi23xml_named_node_iteratormmEv
|| __TEXT.__text __ZN4pugi23xml_named_node_iteratorppEi
|| __TEXT.__text __ZN4pugi23xml_named_node_iteratorppEv
|| __TEXT.__text __ZN4pugi30get_memory_allocation_functionEv
|| __TEXT.__text __ZN4pugi31set_memory_management_functionsEPFPvmEPFvS0_E
|| __TEXT.__text __ZN4pugi32get_memory_deallocation_functionEv
|| __TEXT.__text __ZN4pugi7as_utf8EPKw
|| __TEXT.__text __ZN4pugi7as_utf8ERKNSt3__112basic_stringIwNS0_11char_traitsIwEENS0_9allocatorIwEEEE
|| __TEXT.__text __ZN4pugi7as_wideEPKc
|| __TEXT.__text __ZN4pugi7as_wideERKNSt3__112basic_stringIcNS0_11char_traitsIcEENS0_9allocatorIcEEEE
|| __TEXT.__text __ZN4pugi8xml_node11append_copyERKNS_13xml_attributeE
|| __TEXT.__text __ZN4pugi8xml_node11append_copyERKS0_
|| __TEXT.__text __ZN4pugi8xml_node11append_moveERKS0_
|| __TEXT.__text __ZN4pugi8xml_node12append_childENS_13xml_node_typeE
|| __TEXT.__text __ZN4pugi8xml_node12append_childEPKc
|| __TEXT.__text __ZN4pugi8xml_node12prepend_copyERKNS_13xml_attributeE
|| __TEXT.__text __ZN4pugi8xml_node12prepend_copyERKS0_
|| __TEXT.__text __ZN4pugi8xml_node12prepend_moveERKS0_
|| __TEXT.__text __ZN4pugi8xml_node12remove_childEPKc
|| __TEXT.__text __ZN4pugi8xml_node12remove_childERKS0_
|| __TEXT.__text __ZN4pugi8xml_node13append_bufferEPKvmjNS_12xml_encodingE
|| __TEXT.__text __ZN4pugi8xml_node13prepend_childENS_13xml_node_typeE
|| __TEXT.__text __ZN4pugi8xml_node13prepend_childEPKc
|| __TEXT.__text __ZN4pugi8xml_node16append_attributeEPKc
|| __TEXT.__text __ZN4pugi8xml_node16remove_attributeEPKc
|| __TEXT.__text __ZN4pugi8xml_node16remove_attributeERKNS_13xml_attributeE
|| __TEXT.__text __ZN4pugi8xml_node17insert_copy_afterERKNS_13xml_attributeES3_
|| __TEXT.__text __ZN4pugi8xml_node17insert_copy_afterERKS0_S2_
|| __TEXT.__text __ZN4pugi8xml_node17insert_move_afterERKS0_S2_
|| __TEXT.__text __ZN4pugi8xml_node17prepend_attributeEPKc
|| __TEXT.__text __ZN4pugi8xml_node18insert_child_afterENS_13xml_node_typeERKS0_
|| __TEXT.__text __ZN4pugi8xml_node18insert_child_afterEPKcRKS0_
|| __TEXT.__text __ZN4pugi8xml_node18insert_copy_beforeERKNS_13xml_attributeES3_
|| __TEXT.__text __ZN4pugi8xml_node18insert_copy_beforeERKS0_S2_
|| __TEXT.__text __ZN4pugi8xml_node18insert_move_beforeERKS0_S2_
|| __TEXT.__text __ZN4pugi8xml_node19insert_child_beforeENS_13xml_node_typeERKS0_
|| __TEXT.__text __ZN4pugi8xml_node19insert_child_beforeEPKcRKS0_
|| __TEXT.__text __ZN4pugi8xml_node22insert_attribute_afterEPKcRKNS_13xml_attributeE
|| __TEXT.__text __ZN4pugi8xml_node23insert_attribute_beforeEPKcRKNS_13xml_attributeE
|| __TEXT.__text __ZN4pugi8xml_node8set_nameEPKc
|| __TEXT.__text __ZN4pugi8xml_node8traverseERNS_15xml_tree_walkerE
|| __TEXT.__text __ZN4pugi8xml_node9set_valueEPKc
|| __TEXT.__text __ZN4pugi8xml_nodeC1EPNS_15xml_node_structE
|| __TEXT.__text __ZN4pugi8xml_nodeC1Ev
|| __TEXT.__text __ZN4pugi8xml_nodeC2EPNS_15xml_node_structE
|| __TEXT.__text __ZN4pugi8xml_nodeC2Ev
|| __TEXT.__text __ZN4pugi8xml_text3setEPKc
|| __TEXT.__text __ZN4pugi8xml_text3setEb
|| __TEXT.__text __ZN4pugi8xml_text3setEd
|| __TEXT.__text __ZN4pugi8xml_text3setEf
|| __TEXT.__text __ZN4pugi8xml_text3setEi
|| __TEXT.__text __ZN4pugi8xml_text3setEj
|| __TEXT.__text __ZN4pugi8xml_text3setEl
|| __TEXT.__text __ZN4pugi8xml_text3setEm
|| __TEXT.__text __ZN4pugi8xml_text3setEx
|| __TEXT.__text __ZN4pugi8xml_text3setEy
|| __TEXT.__text __ZN4pugi8xml_text9_data_newEv
|| __TEXT.__text __ZN4pugi8xml_textC1EPNS_15xml_node_structE
|| __TEXT.__text __ZN4pugi8xml_textC1Ev
|| __TEXT.__text __ZN4pugi8xml_textC2EPNS_15xml_node_structE
|| __TEXT.__text __ZN4pugi8xml_textC2Ev
|| __TEXT.__text __ZN4pugi8xml_textaSEPKc
|| __TEXT.__text __ZN4pugi8xml_textaSEb
|| __TEXT.__text __ZN4pugi8xml_textaSEd
|| __TEXT.__text __ZN4pugi8xml_textaSEf
|| __TEXT.__text __ZN4pugi8xml_textaSEi
|| __TEXT.__text __ZN4pugi8xml_textaSEj
|| __TEXT.__text __ZN4pugi8xml_textaSEl
|| __TEXT.__text __ZN4pugi8xml_textaSEm
|| __TEXT.__text __ZN4pugi8xml_textaSEx
|| __TEXT.__text __ZN4pugi8xml_textaSEy
|| __TEXT.__text __ZN9MaterialX10getEnvironERKNSt3__112basic_stringIcNS0_11char_traitsIcEENS0_9allocatorIcEEEE
|| __TEXT.__text __ZN9MaterialX10setEnvironERKNSt3__112basic_stringIcNS0_11char_traitsIcEENS0_9allocatorIcEEEES8_
|| __TEXT.__text __ZN9MaterialX11loadLibraryERKNS_8FilePathENSt3__110shared_ptrINS_8DocumentEEERKNS_14FileSearchPathEPKNS_14XmlReadOptionsE
|| __TEXT.__text __ZN9MaterialX13loadDocumentsERKNS_8FilePathERKNS_14FileSearchPathERKNSt3__13setINS6_12basic_stringIcNS6_11char_traitsIcEENS6_9allocatorIcEEEENS6_4lessISD_EENSB_ISD_EEEESJ_RNS6_6vectorINS6_10shared_ptrINS_8DocumentEEENSB_ISN_EEEERNSK_ISD_SG_EEPKNS_14XmlReadOptionsEPSR_
|| __TEXT.__text __ZN9MaterialX13loadLibrariesERKNSt3__16vectorINS_8FilePathENS0_9allocatorIS2_EEEERKNS_14FileSearchPathENS0_10shared_ptrINS_8DocumentEEERKNS0_3setINS0_12basic_stringIcNS0_11char_traitsIcEENS3_IcEEEENS0_4lessISJ_EENS3_ISJ_EEEEPKNS_14XmlReadOptionsE
|| __TEXT.__text __ZN9MaterialX13removeEnvironERKNSt3__112basic_stringIcNS0_11char_traitsIcEENS0_9allocatorIcEEEE
|| __TEXT.__text __ZN9MaterialX14XmlReadOptionsC1Ev
|| __TEXT.__text __ZN9MaterialX14XmlReadOptionsC2Ev
|| __TEXT.__text __ZN9MaterialX14writeToXmlFileENSt3__110shared_ptrINS_8DocumentEEERKNS_8FilePathEPKNS_15XmlWriteOptionsE
|| __TEXT.__text __ZN9MaterialX15XmlWriteOptionsC1Ev
|| __TEXT.__text __ZN9MaterialX15XmlWriteOptionsC2Ev
|| __TEXT.__text __ZN9MaterialX15prependXIncludeENSt3__110shared_ptrINS_8DocumentEEERKNS_8FilePathE
|| __TEXT.__text __ZN9MaterialX15readFromXmlFileENSt3__110shared_ptrINS_8DocumentEEENS_8FilePathENS_14FileSearchPathEPKNS_14XmlReadOptionsE
|| __TEXT.__text __ZN9MaterialX16flattenFilenamesENSt3__110shared_ptrINS_8DocumentEEERKNS_14FileSearchPathENS1_INS_14StringResolverEEE
|| __TEXT.__text __ZN9MaterialX16writeToXmlStreamENSt3__110shared_ptrINS_8DocumentEEERNS0_13basic_ostreamIcNS0_11char_traitsIcEEEEPKNS_15XmlWriteOptionsE
|| __TEXT.__text __ZN9MaterialX16writeToXmlStringENSt3__110shared_ptrINS_8DocumentEEEPKNS_15XmlWriteOptionsE
|| __TEXT.__text __ZN9MaterialX17getSubdirectoriesERKNSt3__16vectorINS_8FilePathENS0_9allocatorIS2_EEEERKNS_14FileSearchPathERS5_
|| __TEXT.__text __ZN9MaterialX17readFromXmlBufferENSt3__110shared_ptrINS_8DocumentEEEPKcPKNS_14XmlReadOptionsE
|| __TEXT.__text __ZN9MaterialX17readFromXmlStreamENSt3__110shared_ptrINS_8DocumentEEERNS0_13basic_istreamIcNS0_11char_traitsIcEEEEPKNS_14XmlReadOptionsE
|| __TEXT.__text __ZN9MaterialX17readFromXmlStringENSt3__110shared_ptrINS_8DocumentEEERKNS0_12basic_stringIcNS0_11char_traitsIcEENS0_9allocatorIcEEEEPKNS_14XmlReadOptionsE
|| __TEXT.__text __ZN9MaterialX18getEnvironmentPathERKNSt3__112basic_stringIcNS0_11char_traitsIcEENS0_9allocatorIcEEEE
|| __TEXT.__text __ZN9MaterialX8FilePath13getModulePathEv
|| __TEXT.__text __ZN9MaterialX8FilePath14getCurrentPathEv
|| __TEXT.__text __ZN9MaterialX8FilePath6assignERKNSt3__112basic_stringIcNS1_11char_traitsIcEENS1_9allocatorIcEEEE
|| __TEXT.__text __ZN9MaterialX8readFileERKNS_8FilePathE
|| __TEXT.__text __ZNK4pugi10xpath_node4nodeEv
|| __TEXT.__text __ZNK4pugi10xpath_node6parentEv
|| __TEXT.__text __ZNK4pugi10xpath_node9attributeEv
|| __TEXT.__text __ZNK4pugi10xpath_nodecvPFvPPPS0_EEv
|| __TEXT.__text __ZNK4pugi10xpath_nodeeqERKS0_
|| __TEXT.__text __ZNK4pugi10xpath_nodeneERKS0_
|| __TEXT.__text __ZNK4pugi10xpath_nodentEv
|| __TEXT.__text __ZNK4pugi11xpath_query11return_typeEv
|| __TEXT.__text __ZNK4pugi11xpath_query13evaluate_nodeERKNS_10xpath_nodeE
|| __TEXT.__text __ZNK4pugi11xpath_query15evaluate_numberERKNS_10xpath_nodeE
|| __TEXT.__text __ZNK4pugi11xpath_query15evaluate_stringEPcmRKNS_10xpath_nodeE
|| __TEXT.__text __ZNK4pugi11xpath_query15evaluate_stringERKNS_10xpath_nodeE
|| __TEXT.__text __ZNK4pugi11xpath_query16evaluate_booleanERKNS_10xpath_nodeE
|| __TEXT.__text __ZNK4pugi11xpath_query17evaluate_node_setERKNS_10xpath_nodeE
|| __TEXT.__text __ZNK4pugi11xpath_query6resultEv
|| __TEXT.__text __ZNK4pugi11xpath_querycvPFvPPPS0_EEv
|| __TEXT.__text __ZNK4pugi11xpath_queryntEv
|| __TEXT.__text __ZNK4pugi12xml_document16document_elementEv
|| __TEXT.__text __ZNK4pugi12xml_document4saveERNS_10xml_writerEPKcjNS_12xml_encodingE
|| __TEXT.__text __ZNK4pugi12xml_document4saveERNSt3__113basic_ostreamIcNS1_11char_traitsIcEEEEPKcjNS_12xml_encodingE
|| __TEXT.__text __ZNK4pugi12xml_document4saveERNSt3__113basic_ostreamIwNS1_11char_traitsIwEEEEPKcj
|| __TEXT.__text __ZNK4pugi12xml_document9save_fileEPKcS2_jNS_12xml_encodingE
|| __TEXT.__text __ZNK4pugi12xml_document9save_fileEPKwPKcjNS_12xml_encodingE
|| __TEXT.__text __ZNK4pugi13xml_attribute10hash_valueEv
|| __TEXT.__text __ZNK4pugi13xml_attribute14next_attributeEv
|| __TEXT.__text __ZNK4pugi13xml_attribute15internal_objectEv
|| __TEXT.__text __ZNK4pugi13xml_attribute18previous_attributeEv
|| __TEXT.__text __ZNK4pugi13xml_attribute4nameEv
|| __TEXT.__text __ZNK4pugi13xml_attribute5emptyEv
|| __TEXT.__text __ZNK4pugi13xml_attribute5valueEv
|| __TEXT.__text __ZNK4pugi13xml_attribute6as_intEi
|| __TEXT.__text __ZNK4pugi13xml_attribute7as_boolEb
|| __TEXT.__text __ZNK4pugi13xml_attribute7as_uintEj
|| __TEXT.__text __ZNK4pugi13xml_attribute8as_floatEf
|| __TEXT.__text __ZNK4pugi13xml_attribute8as_llongEx
|| __TEXT.__text __ZNK4pugi13xml_attribute9as_doubleEd
|| __TEXT.__text __ZNK4pugi13xml_attribute9as_stringEPKc
|| __TEXT.__text __ZNK4pugi13xml_attribute9as_ullongEy
|| __TEXT.__text __ZNK4pugi13xml_attributecvPFvPPPS0_EEv
|| __TEXT.__text __ZNK4pugi13xml_attributeeqERKS0_
|| __TEXT.__text __ZNK4pugi13xml_attributegeERKS0_
|| __TEXT.__text __ZNK4pugi13xml_attributegtERKS0_
|| __TEXT.__text __ZNK4pugi13xml_attributeleERKS0_
|| __TEXT.__text __ZNK4pugi13xml_attributeltERKS0_
|| __TEXT.__text __ZNK4pugi13xml_attributeneERKS0_
|| __TEXT.__text __ZNK4pugi13xml_attributentEv
|| __TEXT.__text __ZNK4pugi14xpath_node_set3endEv
|| __TEXT.__text __ZNK4pugi14xpath_node_set4sizeEv
|| __TEXT.__text __ZNK4pugi14xpath_node_set4typeEv
|| __TEXT.__text __ZNK4pugi14xpath_node_set5beginEv
|| __TEXT.__text __ZNK4pugi14xpath_node_set5emptyEv
|| __TEXT.__text __ZNK4pugi14xpath_node_set5firstEv
|| __TEXT.__text __ZNK4pugi14xpath_node_setixEm
|| __TEXT.__text __ZNK4pugi14xpath_variable10get_numberEv
|| __TEXT.__text __ZNK4pugi14xpath_variable10get_stringEv
|| __TEXT.__text __ZNK4pugi14xpath_variable11get_booleanEv
|| __TEXT.__text __ZNK4pugi14xpath_variable12get_node_setEv
|| __TEXT.__text __ZNK4pugi14xpath_variable4nameEv
|| __TEXT.__text __ZNK4pugi14xpath_variable4typeEv
|| __TEXT.__text __ZNK4pugi15xml_tree_walker5depthEv
|| __TEXT.__text __ZNK4pugi15xpath_exception4whatEv
|| __TEXT.__text __ZNK4pugi15xpath_exception6resultEv
|| __TEXT.__text __ZNK4pugi16xml_parse_result11descriptionEv
|| __TEXT.__text __ZNK4pugi16xml_parse_resultcvbEv
|| __TEXT.__text __ZNK4pugi17xml_node_iteratordeEv
|| __TEXT.__text __ZNK4pugi17xml_node_iteratoreqERKS0_
|| __TEXT.__text __ZNK4pugi17xml_node_iteratorneERKS0_
|| __TEXT.__text __ZNK4pugi17xml_node_iteratorptEv
|| __TEXT.__text __ZNK4pugi18xpath_parse_result11descriptionEv
|| __TEXT.__text __ZNK4pugi18xpath_parse_resultcvbEv
|| __TEXT.__text __ZNK4pugi18xpath_variable_set3getEPKc
|| __TEXT.__text __ZNK4pugi18xpath_variable_set5_findEPKc
|| __TEXT.__text __ZNK4pugi22xml_attribute_iteratordeEv
|| __TEXT.__text __ZNK4pugi22xml_attribute_iteratoreqERKS0_
|| __TEXT.__text __ZNK4pugi22xml_attribute_iteratorneERKS0_
|| __TEXT.__text __ZNK4pugi22xml_attribute_iteratorptEv
|| __TEXT.__text __ZNK4pugi23xml_named_node_iteratordeEv
|| __TEXT.__text __ZNK4pugi23xml_named_node_iteratoreqERKS0_
|| __TEXT.__text __ZNK4pugi23xml_named_node_iteratorneERKS0_
|| __TEXT.__text __ZNK4pugi23xml_named_node_iteratorptEv
|| __TEXT.__text __ZNK4pugi8xml_node10attributesEv
|| __TEXT.__text __ZNK4pugi8xml_node10hash_valueEv
|| __TEXT.__text __ZNK4pugi8xml_node10last_childEv
|| __TEXT.__text __ZNK4pugi8xml_node11child_valueEPKc
|| __TEXT.__text __ZNK4pugi8xml_node11child_valueEv
|| __TEXT.__text __ZNK4pugi8xml_node11first_childEv
|| __TEXT.__text __ZNK4pugi8xml_node11select_nodeEPKcPNS_18xpath_variable_setE
|| __TEXT.__text __ZNK4pugi8xml_node11select_nodeERKNS_11xpath_queryE
|| __TEXT.__text __ZNK4pugi8xml_node12next_siblingEPKc
|| __TEXT.__text __ZNK4pugi8xml_node12next_siblingEv
|| __TEXT.__text __ZNK4pugi8xml_node12offset_debugEv
|| __TEXT.__text __ZNK4pugi8xml_node12select_nodesEPKcPNS_18xpath_variable_setE
|| __TEXT.__text __ZNK4pugi8xml_node12select_nodesERKNS_11xpath_queryE
|| __TEXT.__text __ZNK4pugi8xml_node14attributes_endEv
|| __TEXT.__text __ZNK4pugi8xml_node14last_attributeEv
|| __TEXT.__text __ZNK4pugi8xml_node15first_attributeEv
|| __TEXT.__text __ZNK4pugi8xml_node15internal_objectEv
|| __TEXT.__text __ZNK4pugi8xml_node16attributes_beginEv
|| __TEXT.__text __ZNK4pugi8xml_node16previous_siblingEPKc
|| __TEXT.__text __ZNK4pugi8xml_node16previous_siblingEv
|| __TEXT.__text __ZNK4pugi8xml_node18select_single_nodeEPKcPNS_18xpath_variable_setE
|| __TEXT.__text __ZNK4pugi8xml_node18select_single_nodeERKNS_11xpath_queryE
|| __TEXT.__text __ZNK4pugi8xml_node21first_element_by_pathEPKcc
|| __TEXT.__text __ZNK4pugi8xml_node23find_child_by_attributeEPKcS2_
|| __TEXT.__text __ZNK4pugi8xml_node23find_child_by_attributeEPKcS2_S2_
|| __TEXT.__text __ZNK4pugi8xml_node3endEv
|| __TEXT.__text __ZNK4pugi8xml_node4nameEv
|| __TEXT.__text __ZNK4pugi8xml_node4pathEc
|| __TEXT.__text __ZNK4pugi8xml_node4rootEv
|| __TEXT.__text __ZNK4pugi8xml_node4textEv
|| __TEXT.__text __ZNK4pugi8xml_node4typeEv
|| __TEXT.__text __ZNK4pugi8xml_node5beginEv
|| __TEXT.__text __ZNK4pugi8xml_node5childEPKc
|| __TEXT.__text __ZNK4pugi8xml_node5emptyEv
|| __TEXT.__text __ZNK4pugi8xml_node5printERNS_10xml_writerEPKcjNS_12xml_encodingEj
|| __TEXT.__text __ZNK4pugi8xml_node5printERNSt3__113basic_ostreamIcNS1_11char_traitsIcEEEEPKcjNS_12xml_encodingEj
|| __TEXT.__text __ZNK4pugi8xml_node5printERNSt3__113basic_ostreamIwNS1_11char_traitsIwEEEEPKcjj
|| __TEXT.__text __ZNK4pugi8xml_node5valueEv
|| __TEXT.__text __ZNK4pugi8xml_node6parentEv
|| __TEXT.__text __ZNK4pugi8xml_node8childrenEPKc
|| __TEXT.__text __ZNK4pugi8xml_node8childrenEv
|| __TEXT.__text __ZNK4pugi8xml_node9attributeEPKc
|| __TEXT.__text __ZNK4pugi8xml_node9attributeEPKcRNS_13xml_attributeE
|| __TEXT.__text __ZNK4pugi8xml_nodecvPFvPPPS0_EEv
|| __TEXT.__text __ZNK4pugi8xml_nodeeqERKS0_
|| __TEXT.__text __ZNK4pugi8xml_nodegeERKS0_
|| __TEXT.__text __ZNK4pugi8xml_nodegtERKS0_
|| __TEXT.__text __ZNK4pugi8xml_nodeleERKS0_
|| __TEXT.__text __ZNK4pugi8xml_nodeltERKS0_
|| __TEXT.__text __ZNK4pugi8xml_nodeneERKS0_
|| __TEXT.__text __ZNK4pugi8xml_nodentEv
|| __TEXT.__text __ZNK4pugi8xml_text3getEv
|| __TEXT.__text __ZNK4pugi8xml_text4dataEv
|| __TEXT.__text __ZNK4pugi8xml_text5_dataEv
|| __TEXT.__text __ZNK4pugi8xml_text5emptyEv
|| __TEXT.__text __ZNK4pugi8xml_text6as_intEi
|| __TEXT.__text __ZNK4pugi8xml_text7as_boolEb
|| __TEXT.__text __ZNK4pugi8xml_text7as_uintEj
|| __TEXT.__text __ZNK4pugi8xml_text8as_floatEf
|| __TEXT.__text __ZNK4pugi8xml_text8as_llongEx
|| __TEXT.__text __ZNK4pugi8xml_text9as_doubleEd
|| __TEXT.__text __ZNK4pugi8xml_text9as_stringEPKc
|| __TEXT.__text __ZNK4pugi8xml_text9as_ullongEy
|| __TEXT.__text __ZNK4pugi8xml_textcvPFvPPPS0_EEv
|| __TEXT.__text __ZNK4pugi8xml_textntEv
|| __TEXT.__text __ZNK9MaterialX8FilePath11isDirectoryEv
|| __TEXT.__text __ZNK9MaterialX8FilePath15createDirectoryEv
|| __TEXT.__text __ZNK9MaterialX8FilePath17getSubDirectoriesEv
|| __TEXT.__text __ZNK9MaterialX8FilePath19getFilesInDirectoryERKNSt3__112basic_stringIcNS1_11char_traitsIcEENS1_9allocatorIcEEEE
|| __TEXT.__text __ZNK9MaterialX8FilePath6existsEv
|| __TEXT.__text __ZNK9MaterialX8FilePath8asStringENS0_6FormatE
|| __TEXT.__text __ZNK9MaterialX8FilePathdvERKS0_
__ libMaterialXCore.dylib: __ZN9MaterialX11splitStringERKNSt3__112basic_stringIcNS0_11char_traitsIcEENS0_9allocatorIcEEEES8_
__ libMaterialXCore.dylib: __ZN9MaterialX12TreeIterator3endEv
__ libMaterialXCore.dylib: __ZN9MaterialX12TreeIteratorppEv
__ libMaterialXCore.dylib: __ZN9MaterialX12TypedElement14TYPE_ATTRIBUTEE
__ libMaterialXCore.dylib: __ZN9MaterialX12ValueElement15VALUE_ATTRIBUTEE
__ libMaterialXCore.dylib: __ZN9MaterialX13_EMPTY_STRINGEv
__ libMaterialXCore.dylib: __ZN9MaterialX13incrementNameERKNSt3__112basic_stringIcNS0_11char_traitsIcEENS0_9allocatorIcEEEE
__ libMaterialXCore.dylib: __ZN9MaterialX14CommentElement8CATEGORYE
__ libMaterialXCore.dylib: __ZN9MaterialX14createDocumentEv
__ libMaterialXCore.dylib: __ZN9MaterialX15createValidNameENSt3__112basic_stringIcNS0_11char_traitsIcEENS0_9allocatorIcEEEEc
__ libMaterialXCore.dylib: __ZN9MaterialX19DEFAULT_TYPE_STRINGEv
__ libMaterialXCore.dylib: __ZN9MaterialX4Node8CATEGORYE
__ libMaterialXCore.dylib: __ZN9MaterialX7Element12setAttributeERKNSt3__112basic_stringIcNS1_11char_traitsIcEENS1_9allocatorIcEEEES9_
__ libMaterialXCore.dylib: __ZN9MaterialX7Element13DOC_ATTRIBUTEE
__ libMaterialXCore.dylib: __ZN9MaterialX7Element13setChildIndexERKNSt3__112basic_stringIcNS1_11char_traitsIcEENS1_9allocatorIcEEEEi
__ libMaterialXCore.dylib: __ZN9MaterialX7Element14NAME_ATTRIBUTEE
__ libMaterialXCore.dylib: __ZN9MaterialX7Element15removeAttributeERKNSt3__112basic_stringIcNS1_11char_traitsIcEENS1_9allocatorIcEEEE
__ libMaterialXCore.dylib: __ZN9MaterialX7Element18addChildOfCategoryERKNSt3__112basic_stringIcNS1_11char_traitsIcEENS1_9allocatorIcEEEES7_
__ libMaterialXCore.dylib: __ZN9MaterialX7Element19changeChildCategoryENSt3__110shared_ptrIS0_EERKNS1_12basic_stringIcNS1_11char_traitsIcEENS1_9allocatorIcEEEE
__ libMaterialXCore.dylib: __ZN9MaterialX7Element20registerChildElementENSt3__110shared_ptrIS0_EE
__ libMaterialXCore.dylib: __ZN9MaterialX7Element21FILE_PREFIX_ATTRIBUTEE
__ libMaterialXCore.dylib: __ZN9MaterialX7Element22unregisterChildElementENSt3__110shared_ptrIS0_EE
__ libMaterialXCore.dylib: __ZN9MaterialX7Element3asAINS_12ValueElementEEENSt3__110shared_ptrIT_EEv
__ libMaterialXCore.dylib: __ZN9MaterialX7Element7getRootEv
__ libMaterialXCore.dylib: __ZN9MaterialX8Document13importLibraryERKNSt3__110shared_ptrIKS0_EE
__ libMaterialXCore.dylib: __ZN9MaterialX8Document14upgradeVersionEv
__ libMaterialXCore.dylib: __ZN9MaterialX8Document8CATEGORYE
__ libMaterialXCore.dylib: __ZNK9MaterialX12ValueElement22getResolvedValueStringENSt3__110shared_ptrINS_14StringResolverEEE
__ libMaterialXCore.dylib: __ZNK9MaterialX7Element12traverseTreeEv
__ libMaterialXCore.dylib: __ZNK9MaterialX7Element15getUpstreamEdgeEm
__ libMaterialXCore.dylib: __ZNK9MaterialX7Element20createStringResolverERKNSt3__112basic_stringIcNS1_11char_traitsIcEENS1_9allocatorIcEEEE
__ libMaterialXCore.dylib: __ZNK9MaterialX7Element3asAINS_8DocumentEEENSt3__110shared_ptrIKT_EEv
__ libMaterialXCore.dylib: __ZNK9MaterialX7Element7getRootEv
__ libMaterialXCore.dylib: __ZNK9MaterialX7Element8validateEPNSt3__112basic_stringIcNS1_11char_traitsIcEENS1_9allocatorIcEEEE
__ libMaterialXCore.dylib: __ZTIN9MaterialX7ElementE
__ libMaterialXCore.dylib: __ZTVN9MaterialX16InterfaceElementE
__ libMaterialXCore.dylib: __ZTVN9MaterialX4NodeE
__ libMaterialXCore.dylib: __ZTVN9MaterialX7ElementE
__ libSystem.B.dylib: __DefaultRuneLocale
__ libSystem.B.dylib: __NSGetExecutablePath
__ libSystem.B.dylib: __Unwind_Resume
__ libSystem.B.dylib: ___chkstk_darwin
__ libSystem.B.dylib: ___error
__ libSystem.B.dylib: ___maskrune
__ libSystem.B.dylib: ___stack_chk_fail
__ libSystem.B.dylib: ___stack_chk_guard
__ libSystem.B.dylib: _atoi
__ libSystem.B.dylib: _bzero
__ libSystem.B.dylib: _closedir
__ libSystem.B.dylib: _fclose
__ libSystem.B.dylib: _ferror
__ libSystem.B.dylib: _fmod
__ libSystem.B.dylib: _fopen
__ libSystem.B.dylib: _fread
__ libSystem.B.dylib: _free
__ libSystem.B.dylib: _fseek
__ libSystem.B.dylib: _ftell
__ libSystem.B.dylib: _fwrite
__ libSystem.B.dylib: _getcwd
__ libSystem.B.dylib: _getenv
__ libSystem.B.dylib: _malloc
__ libSystem.B.dylib: _memcmp
__ libSystem.B.dylib: _memcpy
__ libSystem.B.dylib: _memmove
__ libSystem.B.dylib: _memset
__ libSystem.B.dylib: _mkdir
__ libSystem.B.dylib: _opendir
__ libSystem.B.dylib: _readdir
__ libSystem.B.dylib: _setenv
__ libSystem.B.dylib: _snprintf
__ libSystem.B.dylib: _stat
__ libSystem.B.dylib: _strchr
__ libSystem.B.dylib: _strcmp
__ libSystem.B.dylib: _strerror
__ libSystem.B.dylib: _strlen
__ libSystem.B.dylib: _strstr
__ libSystem.B.dylib: _strtod
__ libSystem.B.dylib: _unsetenv
__ libc++.1.dylib: __ZNKSt3__112basic_stringIcNS_11char_traitsIcEENS_9allocatorIcEEE5rfindEcm
__ libc++.1.dylib: __ZNKSt3__112basic_stringIcNS_11char_traitsIcEENS_9allocatorIcEEE7compareEmmPKcm
__ libc++.1.dylib: __ZNKSt3__115basic_stringbufIcNS_11char_traitsIcEENS_9allocatorIcEEE3strEv
__ libc++.1.dylib: __ZNKSt3__119__shared_weak_count13__get_deleterERKSt9type_info
__ libc++.1.dylib: __ZNKSt3__120__vector_base_commonILb1EE20__throw_length_errorEv
__ libc++.1.dylib: __ZNKSt3__121__basic_string_commonILb1EE20__throw_length_errorEv
__ libc++.1.dylib: __ZNKSt9exception4whatEv
__ libc++.1.dylib: __ZNSt11logic_errorC2EPKc
__ libc++.1.dylib: __ZNSt12length_errorD1Ev
__ libc++.1.dylib: __ZNSt3__112bad_weak_ptrD1Ev
__ libc++.1.dylib: __ZNSt3__112basic_stringIcNS_11char_traitsIcEENS_9allocatorIcEEE6appendEPKc
__ libc++.1.dylib: __ZNSt3__112basic_stringIcNS_11char_traitsIcEENS_9allocatorIcEEE6appendEPKcm
__ libc++.1.dylib: __ZNSt3__112basic_stringIcNS_11char_traitsIcEENS_9allocatorIcEEE6assignEPKc
__ libc++.1.dylib: __ZNSt3__112basic_stringIcNS_11char_traitsIcEENS_9allocatorIcEEE6insertEmPKc
__ libc++.1.dylib: __ZNSt3__112basic_stringIcNS_11char_traitsIcEENS_9allocatorIcEEE6resizeEmc
__ libc++.1.dylib: __ZNSt3__112basic_stringIcNS_11char_traitsIcEENS_9allocatorIcEEE9push_backEc
__ libc++.1.dylib: __ZNSt3__112basic_stringIcNS_11char_traitsIcEENS_9allocatorIcEEEC1ERKS5_
__ libc++.1.dylib: __ZNSt3__112basic_stringIcNS_11char_traitsIcEENS_9allocatorIcEEEC1ERKS5_mmRKS4_
__ libc++.1.dylib: __ZNSt3__112basic_stringIcNS_11char_traitsIcEENS_9allocatorIcEEEaSERKS5_
__ libc++.1.dylib: __ZNSt3__112basic_stringIwNS_11char_traitsIwEENS_9allocatorIwEEE6resizeEmw
__ libc++.1.dylib: __ZNSt3__113basic_filebufIcNS_11char_traitsIcEEE4openEPKcj
__ libc++.1.dylib: __ZNSt3__113basic_filebufIcNS_11char_traitsIcEEE5closeEv
__ libc++.1.dylib: __ZNSt3__113basic_filebufIcNS_11char_traitsIcEEEC1Ev
__ libc++.1.dylib: __ZNSt3__113basic_filebufIcNS_11char_traitsIcEEED1Ev
__ libc++.1.dylib: __ZNSt3__113basic_istreamIcNS_11char_traitsIcEEE4readEPcl
__ libc++.1.dylib: __ZNSt3__113basic_istreamIcNS_11char_traitsIcEEE5seekgENS_4fposI11__mbstate_tEE
__ libc++.1.dylib: __ZNSt3__113basic_istreamIcNS_11char_traitsIcEEE5seekgExNS_8ios_base7seekdirE
__ libc++.1.dylib: __ZNSt3__113basic_istreamIcNS_11char_traitsIcEEE5tellgEv
__ libc++.1.dylib: __ZNSt3__113basic_istreamIcNS_11char_traitsIcEEED2Ev
__ libc++.1.dylib: __ZNSt3__113basic_istreamIwNS_11char_traitsIwEEE4readEPwl
__ libc++.1.dylib: __ZNSt3__113basic_istreamIwNS_11char_traitsIwEEE5seekgENS_4fposI11__mbstate_tEE
__ libc++.1.dylib: __ZNSt3__113basic_istreamIwNS_11char_traitsIwEEE5seekgExNS_8ios_base7seekdirE
__ libc++.1.dylib: __ZNSt3__113basic_istreamIwNS_11char_traitsIwEEE5tellgEv
__ libc++.1.dylib: __ZNSt3__113basic_ostreamIcNS_11char_traitsIcEEE5writeEPKcl
__ libc++.1.dylib: __ZNSt3__113basic_ostreamIcNS_11char_traitsIcEEED2Ev
__ libc++.1.dylib: __ZNSt3__113basic_ostreamIcNS_11char_traitsIcEEElsEPNS_15basic_streambufIcS2_EE
__ libc++.1.dylib: __ZNSt3__113basic_ostreamIwNS_11char_traitsIwEEE5writeEPKwl
__ libc++.1.dylib: __ZNSt3__114basic_iostreamIcNS_11char_traitsIcEEED2Ev
__ libc++.1.dylib: __ZNSt3__115basic_streambufIcNS_11char_traitsIcEEEC2Ev
__ libc++.1.dylib: __ZNSt3__115basic_streambufIcNS_11char_traitsIcEEED2Ev
__ libc++.1.dylib: __ZNSt3__115basic_stringbufIcNS_11char_traitsIcEENS_9allocatorIcEEE3strERKNS_12basic_stringIcS2_S4_EE
__ libc++.1.dylib: __ZNSt3__119__shared_weak_count14__release_weakEv
__ libc++.1.dylib: __ZNSt3__119__shared_weak_count4lockEv
__ libc++.1.dylib: __ZNSt3__119__shared_weak_countD2Ev
__ libc++.1.dylib: __ZNSt3__18ios_base4initEPv
__ libc++.1.dylib: __ZNSt3__18ios_base5clearEj
__ libc++.1.dylib: __ZNSt3__19basic_iosIcNS_11char_traitsIcEEED2Ev
__ libc++.1.dylib: __ZNSt3__19to_stringEl
__ libc++.1.dylib: __ZNSt3__1plIcNS_11char_traitsIcEENS_9allocatorIcEEEENS_12basic_stringIT_T0_T1_EEPKS6_RKS9_
__ libc++.1.dylib: __ZNSt9bad_allocC1Ev
__ libc++.1.dylib: __ZNSt9bad_allocD1Ev
__ libc++.1.dylib: __ZNSt9exceptionD2Ev
__ libc++.1.dylib: __ZSt9terminatev
__ libc++.1.dylib: __ZTINSt3__112bad_weak_ptrE
__ libc++.1.dylib: __ZTINSt3__119__shared_weak_countE
__ libc++.1.dylib: __ZTISt12length_error
__ libc++.1.dylib: __ZTISt9bad_alloc
__ libc++.1.dylib: __ZTISt9exception
__ libc++.1.dylib: __ZTTNSt3__114basic_ifstreamIcNS_11char_traitsIcEEEE
__ libc++.1.dylib: __ZTTNSt3__114basic_ofstreamIcNS_11char_traitsIcEEEE
__ libc++.1.dylib: __ZTTNSt3__118basic_stringstreamIcNS_11char_traitsIcEENS_9allocatorIcEEEE
__ libc++.1.dylib: __ZTTNSt3__119basic_istringstreamIcNS_11char_traitsIcEENS_9allocatorIcEEEE
__ libc++.1.dylib: __ZTTNSt3__119basic_ostringstreamIcNS_11char_traitsIcEENS_9allocatorIcEEEE
__ libc++.1.dylib: __ZTVN10__cxxabiv117__class_type_infoE
__ libc++.1.dylib: __ZTVN10__cxxabiv119__pointer_type_infoE
__ libc++.1.dylib: __ZTVN10__cxxabiv120__function_type_infoE
__ libc++.1.dylib: __ZTVN10__cxxabiv120__si_class_type_infoE
__ libc++.1.dylib: __ZTVNSt3__112bad_weak_ptrE
__ libc++.1.dylib: __ZTVNSt3__114basic_ifstreamIcNS_11char_traitsIcEEEE
__ libc++.1.dylib: __ZTVNSt3__114basic_ofstreamIcNS_11char_traitsIcEEEE
__ libc++.1.dylib: __ZTVNSt3__115basic_stringbufIcNS_11char_traitsIcEENS_9allocatorIcEEEE
__ libc++.1.dylib: __ZTVNSt3__118basic_stringstreamIcNS_11char_traitsIcEENS_9allocatorIcEEEE
__ libc++.1.dylib: __ZTVNSt3__119basic_istringstreamIcNS_11char_traitsIcEENS_9allocatorIcEEEE
__ libc++.1.dylib: __ZTVNSt3__119basic_ostringstreamIcNS_11char_traitsIcEENS_9allocatorIcEEEE
__ libc++.1.dylib: __ZTVSt12length_error
__ libc++.1.dylib: __ZdlPv
__ libc++.1.dylib: __Znwm
__ libc++.1.dylib: ___cxa_allocate_exception
__ libc++.1.dylib: ___cxa_begin_catch
__ libc++.1.dylib: ___cxa_end_catch
__ libc++.1.dylib: ___cxa_free_exception
__ libc++.1.dylib: ___cxa_guard_acquire
__ libc++.1.dylib: ___cxa_guard_release
__ libc++.1.dylib: ___cxa_pure_virtual
__ libc++.1.dylib: ___cxa_throw
__ libc++.1.dylib: ___gxx_personality_v0
