|| __DATA.__const_weak __ZTIN10OpenSubdiv6v3_4_43Far16StencilTableRealIdEE
|| __DATA.__const_weak __ZTIN10OpenSubdiv6v3_4_43Far16StencilTableRealIfEE
|| __DATA.__const_weak __ZTIN10OpenSubdiv6v3_4_43Far21LimitStencilTableRealIdEE
|| __DATA.__const_weak __ZTIN10OpenSubdiv6v3_4_43Far21LimitStencilTableRealIfEE
|| __DATA.__const_weak __ZTVN10OpenSubdiv6v3_4_43Far16StencilTableRealIdEE
|| __DATA.__const_weak __ZTVN10OpenSubdiv6v3_4_43Far16StencilTableRealIfEE
|| __DATA.__const_weak __ZTVN10OpenSubdiv6v3_4_43Far21LimitStencilTableRealIdEE
|| __DATA.__const_weak __ZTVN10OpenSubdiv6v3_4_43Far21LimitStencilTableRealIfEE
|| __DATA_CONST.__const __ZTIN10OpenSubdiv6v3_4_43Far12PatchBuilderE
|| __DATA_CONST.__const __ZTIN10OpenSubdiv6v3_4_43Far16LoopPatchBuilderE
|| __DATA_CONST.__const __ZTIN10OpenSubdiv6v3_4_43Far19CatmarkPatchBuilderE
|| __DATA_CONST.__const __ZTIN10OpenSubdiv6v3_4_43Far20BilinearPatchBuilderE
|| __DATA_CONST.__const __ZTIN10OpenSubdiv6v3_4_43Vtr8internal10RefinementE
|| __DATA_CONST.__const __ZTIN10OpenSubdiv6v3_4_43Vtr8internal13TriRefinementE
|| __DATA_CONST.__const __ZTIN10OpenSubdiv6v3_4_43Vtr8internal14QuadRefinementE
|| __DATA_CONST.__const __ZTVN10OpenSubdiv6v3_4_43Far12PatchBuilderE
|| __DATA_CONST.__const __ZTVN10OpenSubdiv6v3_4_43Far16LoopPatchBuilderE
|| __DATA_CONST.__const __ZTVN10OpenSubdiv6v3_4_43Far19CatmarkPatchBuilderE
|| __DATA_CONST.__const __ZTVN10OpenSubdiv6v3_4_43Far20BilinearPatchBuilderE
|| __DATA_CONST.__const __ZTVN10OpenSubdiv6v3_4_43Vtr8internal10RefinementE
|| __DATA_CONST.__const __ZTVN10OpenSubdiv6v3_4_43Vtr8internal13TriRefinementE
|| __DATA_CONST.__const __ZTVN10OpenSubdiv6v3_4_43Vtr8internal14QuadRefinementE
|| __TEXT.__const __ZN10OpenSubdiv6v3_4_43Sdc6Crease16SHARPNESS_SMOOTHE
|| __TEXT.__const __ZN10OpenSubdiv6v3_4_43Sdc6Crease18SHARPNESS_INFINITEE
|| __TEXT.__const __ZTSN10OpenSubdiv6v3_4_43Far12PatchBuilderE
|| __TEXT.__const __ZTSN10OpenSubdiv6v3_4_43Far16LoopPatchBuilderE
|| __TEXT.__const __ZTSN10OpenSubdiv6v3_4_43Far16StencilTableRealIdEE
|| __TEXT.__const __ZTSN10OpenSubdiv6v3_4_43Far16StencilTableRealIfEE
|| __TEXT.__const __ZTSN10OpenSubdiv6v3_4_43Far19CatmarkPatchBuilderE
|| __TEXT.__const __ZTSN10OpenSubdiv6v3_4_43Far20BilinearPatchBuilderE
|| __TEXT.__const __ZTSN10OpenSubdiv6v3_4_43Far21LimitStencilTableRealIdEE
|| __TEXT.__const __ZTSN10OpenSubdiv6v3_4_43Far21LimitStencilTableRealIfEE
|| __TEXT.__const __ZTSN10OpenSubdiv6v3_4_43Vtr8internal10RefinementE
|| __TEXT.__const __ZTSN10OpenSubdiv6v3_4_43Vtr8internal13TriRefinementE
|| __TEXT.__const __ZTSN10OpenSubdiv6v3_4_43Vtr8internal14QuadRefinementE
|| __TEXT.__const __ZZNK10OpenSubdiv6v3_4_43Far16BSplineConverterIdE18convertFromGregoryERKNS1_12SparseMatrixIdEERS5_E7wCorner
|| __TEXT.__const __ZZNK10OpenSubdiv6v3_4_43Far16BSplineConverterIdE18convertFromGregoryERKNS1_12SparseMatrixIdEERS5_E8fIndices
|| __TEXT.__const __ZZNK10OpenSubdiv6v3_4_43Far16BSplineConverterIdE18convertFromGregoryERKNS1_12SparseMatrixIdEERS5_E8pIndices
|| __TEXT.__const __ZZNK10OpenSubdiv6v3_4_43Far16BSplineConverterIdE18convertFromGregoryERKNS1_12SparseMatrixIdEERS5_E9emIndices
|| __TEXT.__const __ZZNK10OpenSubdiv6v3_4_43Far16BSplineConverterIdE18convertFromGregoryERKNS1_12SparseMatrixIdEERS5_E9epIndices
|| __TEXT.__const __ZZNK10OpenSubdiv6v3_4_43Far16BSplineConverterIdE18convertFromGregoryERKNS1_12SparseMatrixIdEERS5_E9wBoundary
|| __TEXT.__const __ZZNK10OpenSubdiv6v3_4_43Far16BSplineConverterIdE18convertFromGregoryERKNS1_12SparseMatrixIdEERS5_E9wInterior
|| __TEXT.__const __ZZNK10OpenSubdiv6v3_4_43Far16BSplineConverterIdE22convertIrregularCornerEiRNS1_12SparseMatrixIdEEE8xRowsAll
|| __TEXT.__const __ZZNK10OpenSubdiv6v3_4_43Far16BSplineConverterIfE18convertFromGregoryERKNS1_12SparseMatrixIfEERS5_E7wCorner
|| __TEXT.__const __ZZNK10OpenSubdiv6v3_4_43Far16BSplineConverterIfE18convertFromGregoryERKNS1_12SparseMatrixIfEERS5_E8fIndices
|| __TEXT.__const __ZZNK10OpenSubdiv6v3_4_43Far16BSplineConverterIfE18convertFromGregoryERKNS1_12SparseMatrixIfEERS5_E8pIndices
|| __TEXT.__const __ZZNK10OpenSubdiv6v3_4_43Far16BSplineConverterIfE18convertFromGregoryERKNS1_12SparseMatrixIfEERS5_E9emIndices
|| __TEXT.__const __ZZNK10OpenSubdiv6v3_4_43Far16BSplineConverterIfE18convertFromGregoryERKNS1_12SparseMatrixIfEERS5_E9epIndices
|| __TEXT.__const __ZZNK10OpenSubdiv6v3_4_43Far16BSplineConverterIfE18convertFromGregoryERKNS1_12SparseMatrixIfEERS5_E9wBoundary
|| __TEXT.__const __ZZNK10OpenSubdiv6v3_4_43Far16BSplineConverterIfE18convertFromGregoryERKNS1_12SparseMatrixIfEERS5_E9wInterior
|| __TEXT.__const __ZZNK10OpenSubdiv6v3_4_43Far16BSplineConverterIfE22convertIrregularCornerEiRNS1_12SparseMatrixIfEEE8xRowsAll
|| __TEXT.__text __ZN10OpenSubdiv6v3_4_43Far10PatchTable13getFVarValuesEi
|| __TEXT.__text __ZN10OpenSubdiv6v3_4_43Far10PatchTable14findPatchArrayENS1_15PatchDescriptorE
|| __TEXT.__text __ZN10OpenSubdiv6v3_4_43Far10PatchTable14getPatchParamsEi
|| __TEXT.__text __ZN10OpenSubdiv6v3_4_43Far10PatchTable14pushPatchArrayENS1_15PatchDescriptorEiPiS4_S4_
|| __TEXT.__text __ZN10OpenSubdiv6v3_4_43Far10PatchTable18getFVarPatchParamsEi
|| __TEXT.__text __ZN10OpenSubdiv6v3_4_43Far10PatchTable18getSharpnessValuesEi
|| __TEXT.__text __ZN10OpenSubdiv6v3_4_43Far10PatchTable18reservePatchArraysEi
|| __TEXT.__text __ZN10OpenSubdiv6v3_4_43Far10PatchTable19getSharpnessIndicesEi
|| __TEXT.__text __ZN10OpenSubdiv6v3_4_43Far10PatchTable21getPatchArrayVerticesEi
|| __TEXT.__text __ZN10OpenSubdiv6v3_4_43Far10PatchTable23allocateVaryingVerticesENS1_15PatchDescriptorEi
|| __TEXT.__text __ZN10OpenSubdiv6v3_4_43Far10PatchTable23populateVaryingVerticesEv
|| __TEXT.__text __ZN10OpenSubdiv6v3_4_43Far10PatchTable25allocateFVarPatchChannelsEi
|| __TEXT.__text __ZN10OpenSubdiv6v3_4_43Far10PatchTable28getPatchArrayVaryingVerticesEi
|| __TEXT.__text __ZN10OpenSubdiv6v3_4_43Far10PatchTable30allocateFVarPatchChannelValuesENS1_15PatchDescriptorES3_ii
|| __TEXT.__text __ZN10OpenSubdiv6v3_4_43Far10PatchTable38setFVarPatchChannelLinearInterpolationENS0_3Sdc7Options23FVarLinearInterpolationEi
|| __TEXT.__text __ZN10OpenSubdiv6v3_4_43Far10PatchTableC1ERKS2_
|| __TEXT.__text __ZN10OpenSubdiv6v3_4_43Far10PatchTableC1Ei
|| __TEXT.__text __ZN10OpenSubdiv6v3_4_43Far10PatchTableC2ERKS2_
|| __TEXT.__text __ZN10OpenSubdiv6v3_4_43Far10PatchTableC2Ei
|| __TEXT.__text __ZN10OpenSubdiv6v3_4_43Far10PatchTableD1Ev
|| __TEXT.__text __ZN10OpenSubdiv6v3_4_43Far10PatchTableD2Ev
|| __TEXT.__text __ZN10OpenSubdiv6v3_4_43Far11PtexIndices21initializePtexIndicesERKNS1_15TopologyRefinerE
|| __TEXT.__text __ZN10OpenSubdiv6v3_4_43Far11PtexIndicesC1ERKNS1_15TopologyRefinerE
|| __TEXT.__text __ZN10OpenSubdiv6v3_4_43Far11PtexIndicesC2ERKNS1_15TopologyRefinerE
|| __TEXT.__text __ZN10OpenSubdiv6v3_4_43Far11PtexIndicesD1Ev
|| __TEXT.__text __ZN10OpenSubdiv6v3_4_43Far11PtexIndicesD2Ev
|| __TEXT.__text __ZN10OpenSubdiv6v3_4_43Far11SourcePatch8FinalizeEi
|| __TEXT.__text __ZN10OpenSubdiv6v3_4_43Far11StencilRealIdE4NextEv
|| __TEXT.__text __ZN10OpenSubdiv6v3_4_43Far11StencilRealIdEC1EPiS4_Pd
|| __TEXT.__text __ZN10OpenSubdiv6v3_4_43Far11StencilRealIdEC1ERKS3_
|| __TEXT.__text __ZN10OpenSubdiv6v3_4_43Far11StencilRealIdEC1Ev
|| __TEXT.__text __ZN10OpenSubdiv6v3_4_43Far11StencilRealIdEC2EPiS4_Pd
|| __TEXT.__text __ZN10OpenSubdiv6v3_4_43Far11StencilRealIdEC2ERKS3_
|| __TEXT.__text __ZN10OpenSubdiv6v3_4_43Far11StencilRealIdEC2Ev
|| __TEXT.__text __ZN10OpenSubdiv6v3_4_43Far11StencilRealIfE4NextEv
|| __TEXT.__text __ZN10OpenSubdiv6v3_4_43Far11StencilRealIfEC1EPiS4_Pf
|| __TEXT.__text __ZN10OpenSubdiv6v3_4_43Far11StencilRealIfEC1ERKS3_
|| __TEXT.__text __ZN10OpenSubdiv6v3_4_43Far11StencilRealIfEC1Ev
|| __TEXT.__text __ZN10OpenSubdiv6v3_4_43Far11StencilRealIfEC2EPiS4_Pf
|| __TEXT.__text __ZN10OpenSubdiv6v3_4_43Far11StencilRealIfEC2ERKS3_
|| __TEXT.__text __ZN10OpenSubdiv6v3_4_43Far11StencilRealIfEC2Ev
|| __TEXT.__text __ZN10OpenSubdiv6v3_4_43Far12PatchBuilder6CreateERKNS1_15TopologyRefinerERKNS2_7OptionsE
|| __TEXT.__text __ZN10OpenSubdiv6v3_4_43Far12PatchBuilderC2ERKNS1_15TopologyRefinerERKNS2_7OptionsE
|| __TEXT.__text __ZN10OpenSubdiv6v3_4_43Far12PatchBuilderD0Ev
|| __TEXT.__text __ZN10OpenSubdiv6v3_4_43Far12PatchBuilderD1Ev
|| __TEXT.__text __ZN10OpenSubdiv6v3_4_43Far12PatchBuilderD2Ev
|| __TEXT.__text __ZN10OpenSubdiv6v3_4_43Far15PatchDescriptor27GetAdaptivePatchDescriptorsENS0_3Sdc10SchemeTypeE
|| __TEXT.__text __ZN10OpenSubdiv6v3_4_43Far15TopologyRefiner11appendLevelERNS0_3Vtr8internal5LevelE
|| __TEXT.__text __ZN10OpenSubdiv6v3_4_43Far15TopologyRefiner13RefineUniformENS2_14UniformOptionsE
|| __TEXT.__text __ZN10OpenSubdiv6v3_4_43Far15TopologyRefiner14RefineAdaptiveENS2_15AdaptiveOptionsENS0_3Vtr10ConstArrayIiEE
|| __TEXT.__text __ZN10OpenSubdiv6v3_4_43Far15TopologyRefiner15updateInventoryERKNS0_3Vtr8internal5LevelE
|| __TEXT.__text __ZN10OpenSubdiv6v3_4_43Far15TopologyRefiner16appendRefinementERNS0_3Vtr8internal10RefinementE
|| __TEXT.__text __ZN10OpenSubdiv6v3_4_43Far15TopologyRefiner17assembleFarLevelsEv
|| __TEXT.__text __ZN10OpenSubdiv6v3_4_43Far15TopologyRefiner19initializeInventoryEv
|| __TEXT.__text __ZN10OpenSubdiv6v3_4_43Far15TopologyRefiner26selectLinearIrregularFacesERNS0_3Vtr8internal14SparseSelectorENS3_10ConstArrayIiEE
|| __TEXT.__text __ZN10OpenSubdiv6v3_4_43Far15TopologyRefiner31selectFeatureAdaptiveComponentsERNS0_3Vtr8internal14SparseSelectorERKNS1_8internal11FeatureMaskENS3_10ConstArrayIiEE
|| __TEXT.__text __ZN10OpenSubdiv6v3_4_43Far15TopologyRefiner8UnrefineEv
|| __TEXT.__text __ZN10OpenSubdiv6v3_4_43Far15TopologyRefinerC1ENS0_3Sdc10SchemeTypeENS3_7OptionsE
|| __TEXT.__text __ZN10OpenSubdiv6v3_4_43Far15TopologyRefinerC1ERKS2_
|| __TEXT.__text __ZN10OpenSubdiv6v3_4_43Far15TopologyRefinerC2ENS0_3Sdc10SchemeTypeENS3_7OptionsE
|| __TEXT.__text __ZN10OpenSubdiv6v3_4_43Far15TopologyRefinerC2ERKS2_
|| __TEXT.__text __ZN10OpenSubdiv6v3_4_43Far15TopologyRefinerD1Ev
|| __TEXT.__text __ZN10OpenSubdiv6v3_4_43Far15TopologyRefinerD2Ev
|| __TEXT.__text __ZN10OpenSubdiv6v3_4_43Far16LimitStencilRealIdE4NextEv
|| __TEXT.__text __ZN10OpenSubdiv6v3_4_43Far16LimitStencilRealIdEC1EPiS4_PdS5_S5_S5_S5_S5_
|| __TEXT.__text __ZN10OpenSubdiv6v3_4_43Far16LimitStencilRealIdEC2EPiS4_PdS5_S5_S5_S5_S5_
|| __TEXT.__text __ZN10OpenSubdiv6v3_4_43Far16LimitStencilRealIfE4NextEv
|| __TEXT.__text __ZN10OpenSubdiv6v3_4_43Far16LimitStencilRealIfEC1EPiS4_PfS5_S5_S5_S5_S5_
|| __TEXT.__text __ZN10OpenSubdiv6v3_4_43Far16LimitStencilRealIfEC2EPiS4_PfS5_S5_S5_S5_S5_
|| __TEXT.__text __ZN10OpenSubdiv6v3_4_43Far16LoopPatchBuilderC1ERKNS1_15TopologyRefinerERKNS1_12PatchBuilder7OptionsE
|| __TEXT.__text __ZN10OpenSubdiv6v3_4_43Far16LoopPatchBuilderC2ERKNS1_15TopologyRefinerERKNS1_12PatchBuilder7OptionsE
|| __TEXT.__text __ZN10OpenSubdiv6v3_4_43Far16LoopPatchBuilderD0Ev
|| __TEXT.__text __ZN10OpenSubdiv6v3_4_43Far16LoopPatchBuilderD1Ev
|| __TEXT.__text __ZN10OpenSubdiv6v3_4_43Far16LoopPatchBuilderD2Ev
|| __TEXT.__text __ZN10OpenSubdiv6v3_4_43Far16SetErrorCallbackEPFvNS1_9ErrorTypeEPKcE
|| __TEXT.__text __ZN10OpenSubdiv6v3_4_43Far16StencilTableRealIdE11shrinkToFitEv
|| __TEXT.__text __ZN10OpenSubdiv6v3_4_43Far16StencilTableRealIdE15generateOffsetsEv
|| __TEXT.__text __ZN10OpenSubdiv6v3_4_43Far16StencilTableRealIdE5ClearEv
|| __TEXT.__text __ZN10OpenSubdiv6v3_4_43Far16StencilTableRealIdE6resizeEii
|| __TEXT.__text __ZN10OpenSubdiv6v3_4_43Far16StencilTableRealIdE7reserveEii
|| __TEXT.__text __ZN10OpenSubdiv6v3_4_43Far16StencilTableRealIdE8finalizeEv
|| __TEXT.__text __ZN10OpenSubdiv6v3_4_43Far16StencilTableRealIdEC1Ei
|| __TEXT.__text __ZN10OpenSubdiv6v3_4_43Far16StencilTableRealIdEC1EiRKNSt3__16vectorIiNS4_9allocatorIiEEEESA_SA_RKNS5_IdNS6_IdEEEEbm
|| __TEXT.__text __ZN10OpenSubdiv6v3_4_43Far16StencilTableRealIdEC1Ev
|| __TEXT.__text __ZN10OpenSubdiv6v3_4_43Far16StencilTableRealIdEC2Ei
|| __TEXT.__text __ZN10OpenSubdiv6v3_4_43Far16StencilTableRealIdEC2EiRKNSt3__16vectorIiNS4_9allocatorIiEEEESA_SA_RKNS5_IdNS6_IdEEEEbm
|| __TEXT.__text __ZN10OpenSubdiv6v3_4_43Far16StencilTableRealIdEC2Ev
|| __TEXT.__text __ZN10OpenSubdiv6v3_4_43Far16StencilTableRealIdED0Ev
|| __TEXT.__text __ZN10OpenSubdiv6v3_4_43Far16StencilTableRealIdED1Ev
|| __TEXT.__text __ZN10OpenSubdiv6v3_4_43Far16StencilTableRealIdED2Ev
|| __TEXT.__text __ZN10OpenSubdiv6v3_4_43Far16StencilTableRealIfE11shrinkToFitEv
|| __TEXT.__text __ZN10OpenSubdiv6v3_4_43Far16StencilTableRealIfE15generateOffsetsEv
|| __TEXT.__text __ZN10OpenSubdiv6v3_4_43Far16StencilTableRealIfE5ClearEv
|| __TEXT.__text __ZN10OpenSubdiv6v3_4_43Far16StencilTableRealIfE6resizeEii
|| __TEXT.__text __ZN10OpenSubdiv6v3_4_43Far16StencilTableRealIfE7reserveEii
|| __TEXT.__text __ZN10OpenSubdiv6v3_4_43Far16StencilTableRealIfE8finalizeEv
|| __TEXT.__text __ZN10OpenSubdiv6v3_4_43Far16StencilTableRealIfEC1Ei
|| __TEXT.__text __ZN10OpenSubdiv6v3_4_43Far16StencilTableRealIfEC1EiRKNSt3__16vectorIiNS4_9allocatorIiEEEESA_SA_RKNS5_IfNS6_IfEEEEbm
|| __TEXT.__text __ZN10OpenSubdiv6v3_4_43Far16StencilTableRealIfEC1Ev
|| __TEXT.__text __ZN10OpenSubdiv6v3_4_43Far16StencilTableRealIfEC2Ei
|| __TEXT.__text __ZN10OpenSubdiv6v3_4_43Far16StencilTableRealIfEC2EiRKNSt3__16vectorIiNS4_9allocatorIiEEEESA_SA_RKNS5_IfNS6_IfEEEEbm
|| __TEXT.__text __ZN10OpenSubdiv6v3_4_43Far16StencilTableRealIfEC2Ev
|| __TEXT.__text __ZN10OpenSubdiv6v3_4_43Far16StencilTableRealIfED0Ev
|| __TEXT.__text __ZN10OpenSubdiv6v3_4_43Far16StencilTableRealIfED1Ev
|| __TEXT.__text __ZN10OpenSubdiv6v3_4_43Far16StencilTableRealIfED2Ev
|| __TEXT.__text __ZN10OpenSubdiv6v3_4_43Far17PatchTableBuilder12BuildPatchesEv
|| __TEXT.__text __ZN10OpenSubdiv6v3_4_43Far17PatchTableBuilder15identifyPatchesEv
|| __TEXT.__text __ZN10OpenSubdiv6v3_4_43Far17PatchTableBuilder15populatePatchesEv
|| __TEXT.__text __ZN10OpenSubdiv6v3_4_43Far17PatchTableBuilder16LocalPointHelper19findSharedEdgePointEiiii
|| __TEXT.__text __ZN10OpenSubdiv6v3_4_43Far17PatchTableBuilder16LocalPointHelper21findSharedCornerPointEiii
|| __TEXT.__text __ZN10OpenSubdiv6v3_4_43Far17PatchTableBuilder16LocalPointHelperC1ERKNS1_15TopologyRefinerERKNS3_7OptionsEii
|| __TEXT.__text __ZN10OpenSubdiv6v3_4_43Far17PatchTableBuilder16LocalPointHelperC2ERKNS1_15TopologyRefinerERKNS3_7OptionsEii
|| __TEXT.__text __ZN10OpenSubdiv6v3_4_43Far17PatchTableBuilder16LocalPointHelperD1Ev
|| __TEXT.__text __ZN10OpenSubdiv6v3_4_43Far17PatchTableBuilder16LocalPointHelperD2Ev
|| __TEXT.__text __ZN10OpenSubdiv6v3_4_43Far17PatchTableBuilder19LegacyGregoryHelper12AddPatchFaceEii
|| __TEXT.__text __ZN10OpenSubdiv6v3_4_43Far17PatchTableBuilder19LegacyGregoryHelper19FinalizeQuadOffsetsERNSt3__16vectorIjNS4_9allocatorIjEEEE
|| __TEXT.__text __ZN10OpenSubdiv6v3_4_43Far17PatchTableBuilder19LegacyGregoryHelper21FinalizeVertexValenceERNSt3__16vectorIiNS4_9allocatorIiEEEEi
|| __TEXT.__text __ZN10OpenSubdiv6v3_4_43Far17PatchTableBuilder20BuildUniformPolygonsEv
|| __TEXT.__text __ZN10OpenSubdiv6v3_4_43Far17PatchTableBuilder20allocateFVarChannelsEv
|| __TEXT.__text __ZN10OpenSubdiv6v3_4_43Far17PatchTableBuilder20allocateVertexTablesEv
|| __TEXT.__text __ZN10OpenSubdiv6v3_4_43Far17PatchTableBuilder21identifyPatchTopologyERKNS2_10PatchTupleERNS2_9PatchInfoEi
|| __TEXT.__text __ZN10OpenSubdiv6v3_4_43Far17PatchTableBuilder28assignPatchPointsAndStencilsERKNS2_10PatchTupleERKNS2_9PatchInfoEPiRNS2_16LocalPointHelperEi
|| __TEXT.__text __ZN10OpenSubdiv6v3_4_43Far17PatchTableBuilderC1ERKNS1_15TopologyRefinerENS1_17PatchTableFactory7OptionsENS0_3Vtr10ConstArrayIiEE
|| __TEXT.__text __ZN10OpenSubdiv6v3_4_43Far17PatchTableBuilderC2ERKNS1_15TopologyRefinerENS1_17PatchTableFactory7OptionsENS0_3Vtr10ConstArrayIiEE
|| __TEXT.__text __ZN10OpenSubdiv6v3_4_43Far17PatchTableBuilderD1Ev
|| __TEXT.__text __ZN10OpenSubdiv6v3_4_43Far17PatchTableBuilderD2Ev
|| __TEXT.__text __ZN10OpenSubdiv6v3_4_43Far17PatchTableFactory12PatchFaceTag36assignBoundaryPropertiesFromEdgeMaskEi
|| __TEXT.__text __ZN10OpenSubdiv6v3_4_43Far17PatchTableFactory12PatchFaceTag38assignBoundaryPropertiesFromVertexMaskEi
|| __TEXT.__text __ZN10OpenSubdiv6v3_4_43Far17PatchTableFactory12PatchFaceTag38assignTransitionPropertiesFromEdgeMaskEi
|| __TEXT.__text __ZN10OpenSubdiv6v3_4_43Far17PatchTableFactory12PatchFaceTag5clearEv
|| __TEXT.__text __ZN10OpenSubdiv6v3_4_43Far17PatchTableFactory6CreateERKNS1_15TopologyRefinerENS2_7OptionsENS0_3Vtr10ConstArrayIiEE
|| __TEXT.__text __ZN10OpenSubdiv6v3_4_43Far18SetWarningCallbackEPFvPKcE
|| __TEXT.__text __ZN10OpenSubdiv6v3_4_43Far18TopologyDescriptorC1Ev
|| __TEXT.__text __ZN10OpenSubdiv6v3_4_43Far18TopologyDescriptorC2Ev
|| __TEXT.__text __ZN10OpenSubdiv6v3_4_43Far19CatmarkPatchBuilderC1ERKNS1_15TopologyRefinerERKNS1_12PatchBuilder7OptionsE
|| __TEXT.__text __ZN10OpenSubdiv6v3_4_43Far19CatmarkPatchBuilderC2ERKNS1_15TopologyRefinerERKNS1_12PatchBuilder7OptionsE
|| __TEXT.__text __ZN10OpenSubdiv6v3_4_43Far19CatmarkPatchBuilderD0Ev
|| __TEXT.__text __ZN10OpenSubdiv6v3_4_43Far19CatmarkPatchBuilderD1Ev
|| __TEXT.__text __ZN10OpenSubdiv6v3_4_43Far19CatmarkPatchBuilderD2Ev
|| __TEXT.__text __ZN10OpenSubdiv6v3_4_43Far20BilinearPatchBuilderC1ERKNS1_15TopologyRefinerERKNS1_12PatchBuilder7OptionsE
|| __TEXT.__text __ZN10OpenSubdiv6v3_4_43Far20BilinearPatchBuilderC2ERKNS1_15TopologyRefinerERKNS1_12PatchBuilder7OptionsE
|| __TEXT.__text __ZN10OpenSubdiv6v3_4_43Far20BilinearPatchBuilderD0Ev
|| __TEXT.__text __ZN10OpenSubdiv6v3_4_43Far20BilinearPatchBuilderD1Ev
|| __TEXT.__text __ZN10OpenSubdiv6v3_4_43Far20BilinearPatchBuilderD2Ev
|| __TEXT.__text __ZN10OpenSubdiv6v3_4_43Far21LimitStencilTableRealIdE5ClearEv
|| __TEXT.__text __ZN10OpenSubdiv6v3_4_43Far21LimitStencilTableRealIdE6resizeEii
|| __TEXT.__text __ZN10OpenSubdiv6v3_4_43Far21LimitStencilTableRealIdEC1EiRKNSt3__16vectorIiNS4_9allocatorIiEEEESA_SA_RKNS5_IdNS6_IdEEEESE_SE_SE_SE_SE_bm
|| __TEXT.__text __ZN10OpenSubdiv6v3_4_43Far21LimitStencilTableRealIdEC2EiRKNSt3__16vectorIiNS4_9allocatorIiEEEESA_SA_RKNS5_IdNS6_IdEEEESE_SE_SE_SE_SE_bm
|| __TEXT.__text __ZN10OpenSubdiv6v3_4_43Far21LimitStencilTableRealIfE5ClearEv
|| __TEXT.__text __ZN10OpenSubdiv6v3_4_43Far21LimitStencilTableRealIfE6resizeEii
|| __TEXT.__text __ZN10OpenSubdiv6v3_4_43Far21LimitStencilTableRealIfEC1EiRKNSt3__16vectorIiNS4_9allocatorIiEEEESA_SA_RKNS5_IfNS6_IfEEEESE_SE_SE_SE_SE_bm
|| __TEXT.__text __ZN10OpenSubdiv6v3_4_43Far21LimitStencilTableRealIfEC2EiRKNSt3__16vectorIiNS4_9allocatorIiEEEESA_SA_RKNS5_IfNS6_IfEEEESE_SE_SE_SE_SE_bm
|| __TEXT.__text __ZN10OpenSubdiv6v3_4_43Far22TopologyRefinerFactoryINS1_18TopologyDescriptorEE19assignComponentTagsERNS1_15TopologyRefinerERKS3_
|| __TEXT.__text __ZN10OpenSubdiv6v3_4_43Far22TopologyRefinerFactoryINS1_18TopologyDescriptorEE21reportInvalidTopologyENS0_3Vtr8internal5Level13TopologyErrorEPKcRKS3_
|| __TEXT.__text __ZN10OpenSubdiv6v3_4_43Far22TopologyRefinerFactoryINS1_18TopologyDescriptorEE23assignComponentTopologyERNS1_15TopologyRefinerERKS3_
|| __TEXT.__text __ZN10OpenSubdiv6v3_4_43Far22TopologyRefinerFactoryINS1_18TopologyDescriptorEE23resizeComponentTopologyERNS1_15TopologyRefinerERKS3_
|| __TEXT.__text __ZN10OpenSubdiv6v3_4_43Far22TopologyRefinerFactoryINS1_18TopologyDescriptorEE25assignFaceVaryingTopologyERNS1_15TopologyRefinerERKS3_
|| __TEXT.__text __ZN10OpenSubdiv6v3_4_43Far23StencilTableFactoryRealIdE27generateControlVertStencilsEiRNS1_11StencilRealIdEE
|| __TEXT.__text __ZN10OpenSubdiv6v3_4_43Far23StencilTableFactoryRealIdE28AppendLocalPointStencilTableERKNS1_15TopologyRefinerEPKNS1_16StencilTableRealIdEESA_b
|| __TEXT.__text __ZN10OpenSubdiv6v3_4_43Far23StencilTableFactoryRealIdE28appendLocalPointStencilTableERKNS1_15TopologyRefinerEPKNS1_16StencilTableRealIdEESA_ib
|| __TEXT.__text __ZN10OpenSubdiv6v3_4_43Far23StencilTableFactoryRealIdE35AppendLocalPointStencilTableVaryingERKNS1_15TopologyRefinerEPKNS1_16StencilTableRealIdEESA_b
|| __TEXT.__text __ZN10OpenSubdiv6v3_4_43Far23StencilTableFactoryRealIdE39AppendLocalPointStencilTableFaceVaryingERKNS1_15TopologyRefinerEPKNS1_16StencilTableRealIdEESA_ib
|| __TEXT.__text __ZN10OpenSubdiv6v3_4_43Far23StencilTableFactoryRealIdE6CreateERKNS1_15TopologyRefinerENS3_7OptionsE
|| __TEXT.__text __ZN10OpenSubdiv6v3_4_43Far23StencilTableFactoryRealIdE6CreateEiPPKNS1_16StencilTableRealIdEE
|| __TEXT.__text __ZN10OpenSubdiv6v3_4_43Far23StencilTableFactoryRealIdE7OptionsC1Ev
|| __TEXT.__text __ZN10OpenSubdiv6v3_4_43Far23StencilTableFactoryRealIdE7OptionsC2Ev
|| __TEXT.__text __ZN10OpenSubdiv6v3_4_43Far23StencilTableFactoryRealIfE27generateControlVertStencilsEiRNS1_11StencilRealIfEE
|| __TEXT.__text __ZN10OpenSubdiv6v3_4_43Far23StencilTableFactoryRealIfE28AppendLocalPointStencilTableERKNS1_15TopologyRefinerEPKNS1_16StencilTableRealIfEESA_b
|| __TEXT.__text __ZN10OpenSubdiv6v3_4_43Far23StencilTableFactoryRealIfE28appendLocalPointStencilTableERKNS1_15TopologyRefinerEPKNS1_16StencilTableRealIfEESA_ib
|| __TEXT.__text __ZN10OpenSubdiv6v3_4_43Far23StencilTableFactoryRealIfE35AppendLocalPointStencilTableVaryingERKNS1_15TopologyRefinerEPKNS1_16StencilTableRealIfEESA_b
|| __TEXT.__text __ZN10OpenSubdiv6v3_4_43Far23StencilTableFactoryRealIfE39AppendLocalPointStencilTableFaceVaryingERKNS1_15TopologyRefinerEPKNS1_16StencilTableRealIfEESA_ib
|| __TEXT.__text __ZN10OpenSubdiv6v3_4_43Far23StencilTableFactoryRealIfE6CreateERKNS1_15TopologyRefinerENS3_7OptionsE
|| __TEXT.__text __ZN10OpenSubdiv6v3_4_43Far23StencilTableFactoryRealIfE6CreateEiPPKNS1_16StencilTableRealIfEE
|| __TEXT.__text __ZN10OpenSubdiv6v3_4_43Far23StencilTableFactoryRealIfE7OptionsC1Ev
|| __TEXT.__text __ZN10OpenSubdiv6v3_4_43Far23StencilTableFactoryRealIfE7OptionsC2Ev
|| __TEXT.__text __ZN10OpenSubdiv6v3_4_43Far26TopologyRefinerFactoryBase26prepareFaceVaryingChannelsERNS1_15TopologyRefinerE
|| __TEXT.__text __ZN10OpenSubdiv6v3_4_43Far26TopologyRefinerFactoryBase30prepareComponentTopologySizingERNS1_15TopologyRefinerE
|| __TEXT.__text __ZN10OpenSubdiv6v3_4_43Far26TopologyRefinerFactoryBase32prepareComponentTagsAndSharpnessERNS1_15TopologyRefinerE
|| __TEXT.__text __ZN10OpenSubdiv6v3_4_43Far26TopologyRefinerFactoryBase34prepareComponentTopologyAssignmentERNS1_15TopologyRefinerEbPFvNS0_3Vtr8internal5Level13TopologyErrorEPKcPKvESC_
|| __TEXT.__text __ZN10OpenSubdiv6v3_4_43Far28LimitStencilTableFactoryRealIdE13LocationArrayC1Ev
|| __TEXT.__text __ZN10OpenSubdiv6v3_4_43Far28LimitStencilTableFactoryRealIdE13LocationArrayC2Ev
|| __TEXT.__text __ZN10OpenSubdiv6v3_4_43Far28LimitStencilTableFactoryRealIdE6CreateERKNS1_15TopologyRefinerERKNSt3__16vectorINS3_13LocationArrayENS7_9allocatorIS9_EEEEPKNS1_16StencilTableRealIdEEPKNS1_10PatchTableENS3_7OptionsE
|| __TEXT.__text __ZN10OpenSubdiv6v3_4_43Far28LimitStencilTableFactoryRealIdE7OptionsC1Ev
|| __TEXT.__text __ZN10OpenSubdiv6v3_4_43Far28LimitStencilTableFactoryRealIdE7OptionsC2Ev
|| __TEXT.__text __ZN10OpenSubdiv6v3_4_43Far28LimitStencilTableFactoryRealIfE13LocationArrayC1Ev
|| __TEXT.__text __ZN10OpenSubdiv6v3_4_43Far28LimitStencilTableFactoryRealIfE13LocationArrayC2Ev
|| __TEXT.__text __ZN10OpenSubdiv6v3_4_43Far28LimitStencilTableFactoryRealIfE6CreateERKNS1_15TopologyRefinerERKNSt3__16vectorINS3_13LocationArrayENS7_9allocatorIS9_EEEEPKNS1_16StencilTableRealIfEEPKNS1_10PatchTableENS3_7OptionsE
|| __TEXT.__text __ZN10OpenSubdiv6v3_4_43Far28LimitStencilTableFactoryRealIfE7OptionsC1Ev
|| __TEXT.__text __ZN10OpenSubdiv6v3_4_43Far28LimitStencilTableFactoryRealIfE7OptionsC2Ev
|| __TEXT.__text __ZN10OpenSubdiv6v3_4_43Far5ErrorENS1_9ErrorTypeEPKcz
|| __TEXT.__text __ZN10OpenSubdiv6v3_4_43Far7WarningEPKcz
|| __TEXT.__text __ZN10OpenSubdiv6v3_4_43Far8PatchMap17initializeHandlesERKNS1_10PatchTableE
|| __TEXT.__text __ZN10OpenSubdiv6v3_4_43Far8PatchMap18initializeQuadtreeERKNS1_10PatchTableE
|| __TEXT.__text __ZN10OpenSubdiv6v3_4_43Far8PatchMapC1ERKNS1_10PatchTableE
|| __TEXT.__text __ZN10OpenSubdiv6v3_4_43Far8PatchMapC2ERKNS1_10PatchTableE
|| __TEXT.__text __ZN10OpenSubdiv6v3_4_43Far8internal11FeatureMask14ReduceFeaturesERKNS1_15TopologyRefiner15AdaptiveOptionsE
|| __TEXT.__text __ZN10OpenSubdiv6v3_4_43Far8internal11FeatureMask18InitializeFeaturesERKNS1_15TopologyRefiner15AdaptiveOptionsEi
|| __TEXT.__text __ZN10OpenSubdiv6v3_4_43Far8internal14StencilBuilderIdE18SetCoarseVertCountEi
|| __TEXT.__text __ZN10OpenSubdiv6v3_4_43Far8internal14StencilBuilderIdE5Index13AddWithWeightERKNS1_11StencilRealIdEEd
|| __TEXT.__text __ZN10OpenSubdiv6v3_4_43Far8internal14StencilBuilderIdE5Index13AddWithWeightERKNS1_11StencilRealIdEEddd
|| __TEXT.__text __ZN10OpenSubdiv6v3_4_43Far8internal14StencilBuilderIdE5Index13AddWithWeightERKNS1_11StencilRealIdEEdddddd
|| __TEXT.__text __ZN10OpenSubdiv6v3_4_43Far8internal14StencilBuilderIdE5Index13AddWithWeightERKS5_d
|| __TEXT.__text __ZN10OpenSubdiv6v3_4_43Far8internal14StencilBuilderIdE5Index5ClearEv
|| __TEXT.__text __ZN10OpenSubdiv6v3_4_43Far8internal14StencilBuilderIdE5IndexC1EPS4_i
|| __TEXT.__text __ZN10OpenSubdiv6v3_4_43Far8internal14StencilBuilderIdE5IndexC2EPS4_i
|| __TEXT.__text __ZN10OpenSubdiv6v3_4_43Far8internal14StencilBuilderIdEC1Eibb
|| __TEXT.__text __ZN10OpenSubdiv6v3_4_43Far8internal14StencilBuilderIdEC2Eibb
|| __TEXT.__text __ZN10OpenSubdiv6v3_4_43Far8internal14StencilBuilderIdED1Ev
|| __TEXT.__text __ZN10OpenSubdiv6v3_4_43Far8internal14StencilBuilderIdED2Ev
|| __TEXT.__text __ZN10OpenSubdiv6v3_4_43Far8internal14StencilBuilderIfE18SetCoarseVertCountEi
|| __TEXT.__text __ZN10OpenSubdiv6v3_4_43Far8internal14StencilBuilderIfE5Index13AddWithWeightERKNS1_11StencilRealIfEEf
|| __TEXT.__text __ZN10OpenSubdiv6v3_4_43Far8internal14StencilBuilderIfE5Index13AddWithWeightERKNS1_11StencilRealIfEEfff
|| __TEXT.__text __ZN10OpenSubdiv6v3_4_43Far8internal14StencilBuilderIfE5Index13AddWithWeightERKNS1_11StencilRealIfEEffffff
|| __TEXT.__text __ZN10OpenSubdiv6v3_4_43Far8internal14StencilBuilderIfE5Index13AddWithWeightERKS5_f
|| __TEXT.__text __ZN10OpenSubdiv6v3_4_43Far8internal14StencilBuilderIfE5Index5ClearEv
|| __TEXT.__text __ZN10OpenSubdiv6v3_4_43Far8internal14StencilBuilderIfE5IndexC1EPS4_i
|| __TEXT.__text __ZN10OpenSubdiv6v3_4_43Far8internal14StencilBuilderIfE5IndexC2EPS4_i
|| __TEXT.__text __ZN10OpenSubdiv6v3_4_43Far8internal14StencilBuilderIfEC1Eibb
|| __TEXT.__text __ZN10OpenSubdiv6v3_4_43Far8internal14StencilBuilderIfEC2Eibb
|| __TEXT.__text __ZN10OpenSubdiv6v3_4_43Far8internal14StencilBuilderIfED1Ev
|| __TEXT.__text __ZN10OpenSubdiv6v3_4_43Far8internal14StencilBuilderIfED2Ev
|| __TEXT.__text __ZN10OpenSubdiv6v3_4_43Far8internal15EvalBasisBezierIdEEiT_S4_PS4_S5_S5_S5_S5_S5_
|| __TEXT.__text __ZN10OpenSubdiv6v3_4_43Far8internal15EvalBasisBezierIfEEiT_S4_PS4_S5_S5_S5_S5_S5_
|| __TEXT.__text __ZN10OpenSubdiv6v3_4_43Far8internal18EvalBasisBezierTriIdEEiT_S4_PS4_S5_S5_S5_S5_S5_
|| __TEXT.__text __ZN10OpenSubdiv6v3_4_43Far8internal18EvalBasisBezierTriIfEEiT_S4_PS4_S5_S5_S5_S5_S5_
|| __TEXT.__text __ZN10OpenSubdiv6v3_4_43Far8internal18EvaluatePatchBasisIdEEiiRKNS1_10PatchParamET_S7_PS7_S8_S8_S8_S8_S8_
|| __TEXT.__text __ZN10OpenSubdiv6v3_4_43Far8internal18EvaluatePatchBasisIfEEiiRKNS1_10PatchParamET_S7_PS7_S8_S8_S8_S8_S8_
|| __TEXT.__text __ZN10OpenSubdiv6v3_4_43Far8internal28EvaluatePatchBasisNormalizedIdEEiiRKNS1_10PatchParamET_S7_PS7_S8_S8_S8_S8_S8_
|| __TEXT.__text __ZN10OpenSubdiv6v3_4_43Far8internal28EvaluatePatchBasisNormalizedIfEEiiRKNS1_10PatchParamET_S7_PS7_S8_S8_S8_S8_S8_
|| __TEXT.__text __ZN10OpenSubdiv6v3_4_43Osd12CpuEvaluator11EvalPatchesEPKfRKNS1_16BufferDescriptorEPfS7_S8_S7_S8_S7_S8_S7_S8_S7_S8_S7_iPKNS1_10PatchCoordEPKNS1_10PatchArrayEPKiPKNS1_10PatchParamE
|| __TEXT.__text __ZN10OpenSubdiv6v3_4_43Osd12CpuEvaluator11EvalPatchesEPKfRKNS1_16BufferDescriptorEPfS7_S8_S7_S8_S7_iPKNS1_10PatchCoordEPKNS1_10PatchArrayEPKiPKNS1_10PatchParamE
|| __TEXT.__text __ZN10OpenSubdiv6v3_4_43Osd12CpuEvaluator11EvalPatchesEPKfRKNS1_16BufferDescriptorEPfS7_iPKNS1_10PatchCoordEPKNS1_10PatchArrayEPKiPKNS1_10PatchParamE
|| __TEXT.__text __ZN10OpenSubdiv6v3_4_43Osd12CpuEvaluator12EvalStencilsEPKfRKNS1_16BufferDescriptorEPfS7_PKiSA_SA_S4_ii
|| __TEXT.__text __ZN10OpenSubdiv6v3_4_43Osd12CpuEvaluator12EvalStencilsEPKfRKNS1_16BufferDescriptorEPfS7_S8_S7_S8_S7_PKiSA_SA_S4_S4_S4_ii
|| __TEXT.__text __ZN10OpenSubdiv6v3_4_43Osd12CpuEvaluator12EvalStencilsEPKfRKNS1_16BufferDescriptorEPfS7_S8_S7_S8_S7_S8_S7_S8_S7_S8_S7_PKiSA_SA_S4_S4_S4_S4_S4_S4_ii
|| __TEXT.__text __ZN10OpenSubdiv6v3_4_43Osd13CpuPatchTableC1EPKNS0_3Far10PatchTableE
|| __TEXT.__text __ZN10OpenSubdiv6v3_4_43Osd13CpuPatchTableC2EPKNS0_3Far10PatchTableE
|| __TEXT.__text __ZN10OpenSubdiv6v3_4_43Osd15CpuEvalStencilsEPKfRKNS1_16BufferDescriptorEPfS6_PKiS9_S9_S3_ii
|| __TEXT.__text __ZN10OpenSubdiv6v3_4_43Osd15CpuEvalStencilsEPKfRKNS1_16BufferDescriptorEPfS6_S7_S6_S7_S6_PKiS9_S9_S3_S3_S3_ii
|| __TEXT.__text __ZN10OpenSubdiv6v3_4_43Osd15CpuEvalStencilsEPKfRKNS1_16BufferDescriptorEPfS6_S7_S6_S7_S6_S7_S6_S7_S6_S7_S6_PKiS9_S9_S3_S3_S3_S3_S3_S3_ii
|| __TEXT.__text __ZN10OpenSubdiv6v3_4_43Osd15CpuVertexBuffer10UpdateDataEPKfiiPv
|| __TEXT.__text __ZN10OpenSubdiv6v3_4_43Osd15CpuVertexBuffer13BindCpuBufferEv
|| __TEXT.__text __ZN10OpenSubdiv6v3_4_43Osd15CpuVertexBuffer6CreateEiiPv
|| __TEXT.__text __ZN10OpenSubdiv6v3_4_43Osd15CpuVertexBufferC1Eii
|| __TEXT.__text __ZN10OpenSubdiv6v3_4_43Osd15CpuVertexBufferC2Eii
|| __TEXT.__text __ZN10OpenSubdiv6v3_4_43Osd15CpuVertexBufferD1Ev
|| __TEXT.__text __ZN10OpenSubdiv6v3_4_43Osd15CpuVertexBufferD2Ev
|| __TEXT.__text __ZN10OpenSubdiv6v3_4_43Sdc16SchemeTypeTraits18GetRegularFaceSizeENS1_10SchemeTypeE
|| __TEXT.__text __ZN10OpenSubdiv6v3_4_43Sdc16SchemeTypeTraits23GetRegularVertexValenceENS1_10SchemeTypeE
|| __TEXT.__text __ZN10OpenSubdiv6v3_4_43Sdc16SchemeTypeTraits23GetTopologicalSplitTypeENS1_10SchemeTypeE
|| __TEXT.__text __ZN10OpenSubdiv6v3_4_43Sdc16SchemeTypeTraits24GetLocalNeighborhoodSizeENS1_10SchemeTypeE
|| __TEXT.__text __ZN10OpenSubdiv6v3_4_43Sdc16SchemeTypeTraits7GetNameENS1_10SchemeTypeE
|| __TEXT.__text __ZN10OpenSubdiv6v3_4_43Sdc17staticTraitsTableEv
|| __TEXT.__text __ZN10OpenSubdiv6v3_4_43Vtr8internal10Refinement17subdivideTopologyERKNS3_9RelationsE
|| __TEXT.__text __ZN10OpenSubdiv6v3_4_43Vtr8internal10Refinement21subdivideFVarChannelsEv
|| __TEXT.__text __ZN10OpenSubdiv6v3_4_43Vtr8internal10Refinement22markSparseEdgeChildrenEv
|| __TEXT.__text __ZN10OpenSubdiv6v3_4_43Vtr8internal10Refinement22populateEdgeTagVectorsEv
|| __TEXT.__text __ZN10OpenSubdiv6v3_4_43Vtr8internal10Refinement22populateFaceTagVectorsEv
|| __TEXT.__text __ZN10OpenSubdiv6v3_4_43Vtr8internal10Refinement22propagateComponentTagsEv
|| __TEXT.__text __ZN10OpenSubdiv6v3_4_43Vtr8internal10Refinement22subdivideEdgeSharpnessEv
|| __TEXT.__text __ZN10OpenSubdiv6v3_4_43Vtr8internal10Refinement24markSparseVertexChildrenEv
|| __TEXT.__text __ZN10OpenSubdiv6v3_4_43Vtr8internal10Refinement24populateVertexTagVectorsEv
|| __TEXT.__text __ZN10OpenSubdiv6v3_4_43Vtr8internal10Refinement24subdivideSharpnessValuesEv
|| __TEXT.__text __ZN10OpenSubdiv6v3_4_43Vtr8internal10Refinement24subdivideVertexSharpnessEv
|| __TEXT.__text __ZN10OpenSubdiv6v3_4_43Vtr8internal10Refinement25populateEdgeParentVectorsEPA4_KNS3_8ChildTagE
|| __TEXT.__text __ZN10OpenSubdiv6v3_4_43Vtr8internal10Refinement25populateFaceParentVectorsEPA4_KNS3_8ChildTagE
|| __TEXT.__text __ZN10OpenSubdiv6v3_4_43Vtr8internal10Refinement26populateParentChildIndicesEv
|| __TEXT.__text __ZN10OpenSubdiv6v3_4_43Vtr8internal10Refinement27populateVertexParentVectorsEPA4_KNS3_8ChildTagE
|| __TEXT.__text __ZN10OpenSubdiv6v3_4_43Vtr8internal10Refinement27reclassifySemisharpVerticesEv
|| __TEXT.__text __ZN10OpenSubdiv6v3_4_43Vtr8internal10Refinement28populateChildToParentMappingEv
|| __TEXT.__text __ZN10OpenSubdiv6v3_4_43Vtr8internal10Refinement28populateParentToChildMappingEv
|| __TEXT.__text __ZN10OpenSubdiv6v3_4_43Vtr8internal10Refinement29initializeSparseSelectionTagsEv
|| __TEXT.__text __ZN10OpenSubdiv6v3_4_43Vtr8internal10Refinement30initializeChildComponentCountsEv
|| __TEXT.__text __ZN10OpenSubdiv6v3_4_43Vtr8internal10Refinement31markSparseChildComponentIndicesEv
|| __TEXT.__text __ZN10OpenSubdiv6v3_4_43Vtr8internal10Refinement31populateEdgeTagsFromParentEdgesEv
|| __TEXT.__text __ZN10OpenSubdiv6v3_4_43Vtr8internal10Refinement31populateEdgeTagsFromParentFacesEv
|| __TEXT.__text __ZN10OpenSubdiv6v3_4_43Vtr8internal10Refinement31populateFaceTagsFromParentFacesEv
|| __TEXT.__text __ZN10OpenSubdiv6v3_4_43Vtr8internal10Refinement33populateEdgeParentFromParentEdgesEPA4_KNS3_8ChildTagE
|| __TEXT.__text __ZN10OpenSubdiv6v3_4_43Vtr8internal10Refinement33populateEdgeParentFromParentFacesEPA4_KNS3_8ChildTagE
|| __TEXT.__text __ZN10OpenSubdiv6v3_4_43Vtr8internal10Refinement33populateFaceParentFromParentFacesEPA4_KNS3_8ChildTagE
|| __TEXT.__text __ZN10OpenSubdiv6v3_4_43Vtr8internal10Refinement33populateVertexTagsFromParentEdgesEv
|| __TEXT.__text __ZN10OpenSubdiv6v3_4_43Vtr8internal10Refinement33populateVertexTagsFromParentFacesEv
|| __TEXT.__text __ZN10OpenSubdiv6v3_4_43Vtr8internal10Refinement35populateVertexParentFromParentEdgesEPA4_KNS3_8ChildTagE
|| __TEXT.__text __ZN10OpenSubdiv6v3_4_43Vtr8internal10Refinement35populateVertexParentFromParentFacesEPA4_KNS3_8ChildTagE
|| __TEXT.__text __ZN10OpenSubdiv6v3_4_43Vtr8internal10Refinement36populateVertexTagsFromParentVerticesEv
|| __TEXT.__text __ZN10OpenSubdiv6v3_4_43Vtr8internal10Refinement38populateVertexParentFromParentVerticesEPA4_KNS3_8ChildTagE
|| __TEXT.__text __ZN10OpenSubdiv6v3_4_43Vtr8internal10Refinement6refineENS3_7OptionsE
|| __TEXT.__text __ZN10OpenSubdiv6v3_4_43Vtr8internal10RefinementC2ERKNS2_5LevelERS4_RKNS0_3Sdc7OptionsE
|| __TEXT.__text __ZN10OpenSubdiv6v3_4_43Vtr8internal10RefinementD0Ev
|| __TEXT.__text __ZN10OpenSubdiv6v3_4_43Vtr8internal10RefinementD1Ev
|| __TEXT.__text __ZN10OpenSubdiv6v3_4_43Vtr8internal10RefinementD2Ev
|| __TEXT.__text __ZN10OpenSubdiv6v3_4_43Vtr8internal13TriRefinement22markSparseFaceChildrenEv
|| __TEXT.__text __ZN10OpenSubdiv6v3_4_43Vtr8internal13TriRefinement24populateEdgeFaceRelationEv
|| __TEXT.__text __ZN10OpenSubdiv6v3_4_43Vtr8internal13TriRefinement24populateFaceEdgeRelationEv
|| __TEXT.__text __ZN10OpenSubdiv6v3_4_43Vtr8internal13TriRefinement26allocateParentChildIndicesEv
|| __TEXT.__text __ZN10OpenSubdiv6v3_4_43Vtr8internal13TriRefinement26populateEdgeVertexRelationEv
|| __TEXT.__text __ZN10OpenSubdiv6v3_4_43Vtr8internal13TriRefinement26populateFaceVertexRelationEv
|| __TEXT.__text __ZN10OpenSubdiv6v3_4_43Vtr8internal13TriRefinement26populateVertexEdgeRelationEv
|| __TEXT.__text __ZN10OpenSubdiv6v3_4_43Vtr8internal13TriRefinement26populateVertexFaceRelationEv
|| __TEXT.__text __ZN10OpenSubdiv6v3_4_43Vtr8internal13TriRefinement32populateEdgeFacesFromParentEdgesEv
|| __TEXT.__text __ZN10OpenSubdiv6v3_4_43Vtr8internal13TriRefinement32populateEdgeFacesFromParentFacesEv
|| __TEXT.__text __ZN10OpenSubdiv6v3_4_43Vtr8internal13TriRefinement32populateFaceEdgesFromParentFacesEv
|| __TEXT.__text __ZN10OpenSubdiv6v3_4_43Vtr8internal13TriRefinement34populateFaceVertexCountsAndOffsetsEv
|| __TEXT.__text __ZN10OpenSubdiv6v3_4_43Vtr8internal13TriRefinement34populateVertexEdgesFromParentEdgesEv
|| __TEXT.__text __ZN10OpenSubdiv6v3_4_43Vtr8internal13TriRefinement34populateVertexFacesFromParentEdgesEv
|| __TEXT.__text __ZN10OpenSubdiv6v3_4_43Vtr8internal13TriRefinement35populateEdgeVerticesFromParentEdgesEv
|| __TEXT.__text __ZN10OpenSubdiv6v3_4_43Vtr8internal13TriRefinement35populateEdgeVerticesFromParentFacesEv
|| __TEXT.__text __ZN10OpenSubdiv6v3_4_43Vtr8internal13TriRefinement35populateFaceVerticesFromParentFacesEv
|| __TEXT.__text __ZN10OpenSubdiv6v3_4_43Vtr8internal13TriRefinement37populateVertexEdgesFromParentVerticesEv
|| __TEXT.__text __ZN10OpenSubdiv6v3_4_43Vtr8internal13TriRefinement37populateVertexFacesFromParentVerticesEv
|| __TEXT.__text __ZN10OpenSubdiv6v3_4_43Vtr8internal13TriRefinementC1ERKNS2_5LevelERS4_RKNS0_3Sdc7OptionsE
|| __TEXT.__text __ZN10OpenSubdiv6v3_4_43Vtr8internal13TriRefinementC2ERKNS2_5LevelERS4_RKNS0_3Sdc7OptionsE
|| __TEXT.__text __ZN10OpenSubdiv6v3_4_43Vtr8internal13TriRefinementD0Ev
|| __TEXT.__text __ZN10OpenSubdiv6v3_4_43Vtr8internal13TriRefinementD1Ev
|| __TEXT.__text __ZN10OpenSubdiv6v3_4_43Vtr8internal13TriRefinementD2Ev
|| __TEXT.__text __ZN10OpenSubdiv6v3_4_43Vtr8internal14FVarRefinement15applyRefinementEv
|| __TEXT.__text __ZN10OpenSubdiv6v3_4_43Vtr8internal14FVarRefinement17propagateEdgeTagsEv
|| __TEXT.__text __ZN10OpenSubdiv6v3_4_43Vtr8internal14FVarRefinement18propagateValueTagsEv
|| __TEXT.__text __ZN10OpenSubdiv6v3_4_43Vtr8internal14FVarRefinement19populateChildValuesEv
|| __TEXT.__text __ZN10OpenSubdiv6v3_4_43Vtr8internal14FVarRefinement21propagateValueCreasesEv
|| __TEXT.__text __ZN10OpenSubdiv6v3_4_43Vtr8internal14FVarRefinement25reclassifySemisharpValuesEv
|| __TEXT.__text __ZN10OpenSubdiv6v3_4_43Vtr8internal14FVarRefinement26trimAndFinalizeChildValuesEv
|| __TEXT.__text __ZN10OpenSubdiv6v3_4_43Vtr8internal14FVarRefinement30estimateAndAllocateChildValuesEv
|| __TEXT.__text __ZN10OpenSubdiv6v3_4_43Vtr8internal14FVarRefinement35populateChildValuesFromEdgeVerticesEv
|| __TEXT.__text __ZN10OpenSubdiv6v3_4_43Vtr8internal14FVarRefinement35populateChildValuesFromFaceVerticesEv
|| __TEXT.__text __ZN10OpenSubdiv6v3_4_43Vtr8internal14FVarRefinement37populateChildValuesFromVertexVerticesEv
|| __TEXT.__text __ZN10OpenSubdiv6v3_4_43Vtr8internal14FVarRefinementC1ERKNS2_10RefinementERNS2_9FVarLevelES8_
|| __TEXT.__text __ZN10OpenSubdiv6v3_4_43Vtr8internal14FVarRefinementC2ERKNS2_10RefinementERNS2_9FVarLevelES8_
|| __TEXT.__text __ZN10OpenSubdiv6v3_4_43Vtr8internal14FVarRefinementD1Ev
|| __TEXT.__text __ZN10OpenSubdiv6v3_4_43Vtr8internal14FVarRefinementD2Ev
|| __TEXT.__text __ZN10OpenSubdiv6v3_4_43Vtr8internal14QuadRefinement22markSparseFaceChildrenEv
|| __TEXT.__text __ZN10OpenSubdiv6v3_4_43Vtr8internal14QuadRefinement24populateEdgeFaceRelationEv
|| __TEXT.__text __ZN10OpenSubdiv6v3_4_43Vtr8internal14QuadRefinement24populateFaceEdgeRelationEv
|| __TEXT.__text __ZN10OpenSubdiv6v3_4_43Vtr8internal14QuadRefinement26allocateParentChildIndicesEv
|| __TEXT.__text __ZN10OpenSubdiv6v3_4_43Vtr8internal14QuadRefinement26populateEdgeVertexRelationEv
|| __TEXT.__text __ZN10OpenSubdiv6v3_4_43Vtr8internal14QuadRefinement26populateFaceVertexRelationEv
|| __TEXT.__text __ZN10OpenSubdiv6v3_4_43Vtr8internal14QuadRefinement26populateVertexEdgeRelationEv
|| __TEXT.__text __ZN10OpenSubdiv6v3_4_43Vtr8internal14QuadRefinement26populateVertexFaceRelationEv
|| __TEXT.__text __ZN10OpenSubdiv6v3_4_43Vtr8internal14QuadRefinement32populateEdgeFacesFromParentEdgesEv
|| __TEXT.__text __ZN10OpenSubdiv6v3_4_43Vtr8internal14QuadRefinement32populateEdgeFacesFromParentFacesEv
|| __TEXT.__text __ZN10OpenSubdiv6v3_4_43Vtr8internal14QuadRefinement32populateFaceEdgesFromParentFacesEv
|| __TEXT.__text __ZN10OpenSubdiv6v3_4_43Vtr8internal14QuadRefinement34populateFaceVertexCountsAndOffsetsEv
|| __TEXT.__text __ZN10OpenSubdiv6v3_4_43Vtr8internal14QuadRefinement34populateVertexEdgesFromParentEdgesEv
|| __TEXT.__text __ZN10OpenSubdiv6v3_4_43Vtr8internal14QuadRefinement34populateVertexEdgesFromParentFacesEv
|| __TEXT.__text __ZN10OpenSubdiv6v3_4_43Vtr8internal14QuadRefinement34populateVertexFacesFromParentEdgesEv
|| __TEXT.__text __ZN10OpenSubdiv6v3_4_43Vtr8internal14QuadRefinement34populateVertexFacesFromParentFacesEv
|| __TEXT.__text __ZN10OpenSubdiv6v3_4_43Vtr8internal14QuadRefinement35populateEdgeVerticesFromParentEdgesEv
|| __TEXT.__text __ZN10OpenSubdiv6v3_4_43Vtr8internal14QuadRefinement35populateEdgeVerticesFromParentFacesEv
|| __TEXT.__text __ZN10OpenSubdiv6v3_4_43Vtr8internal14QuadRefinement35populateFaceVerticesFromParentFacesEv
|| __TEXT.__text __ZN10OpenSubdiv6v3_4_43Vtr8internal14QuadRefinement37populateVertexEdgesFromParentVerticesEv
|| __TEXT.__text __ZN10OpenSubdiv6v3_4_43Vtr8internal14QuadRefinement37populateVertexFacesFromParentVerticesEv
|| __TEXT.__text __ZN10OpenSubdiv6v3_4_43Vtr8internal14QuadRefinementC1ERKNS2_5LevelERS4_RKNS0_3Sdc7OptionsE
|| __TEXT.__text __ZN10OpenSubdiv6v3_4_43Vtr8internal14QuadRefinementC2ERKNS2_5LevelERS4_RKNS0_3Sdc7OptionsE
|| __TEXT.__text __ZN10OpenSubdiv6v3_4_43Vtr8internal14QuadRefinementD0Ev
|| __TEXT.__text __ZN10OpenSubdiv6v3_4_43Vtr8internal14QuadRefinementD1Ev
|| __TEXT.__text __ZN10OpenSubdiv6v3_4_43Vtr8internal14QuadRefinementD2Ev
|| __TEXT.__text __ZN10OpenSubdiv6v3_4_43Vtr8internal14SparseSelector10selectEdgeEi
|| __TEXT.__text __ZN10OpenSubdiv6v3_4_43Vtr8internal14SparseSelector10selectFaceEi
|| __TEXT.__text __ZN10OpenSubdiv6v3_4_43Vtr8internal14SparseSelector12selectVertexEi
|| __TEXT.__text __ZN10OpenSubdiv6v3_4_43Vtr8internal5Level17createFVarChannelEiRKNS0_3Sdc7OptionsE
|| __TEXT.__text __ZN10OpenSubdiv6v3_4_43Vtr8internal5Level17getFaceFVarValuesEii
|| __TEXT.__text __ZN10OpenSubdiv6v3_4_43Vtr8internal5Level18destroyFVarChannelEi
|| __TEXT.__text __ZN10OpenSubdiv6v3_4_43Vtr8internal5Level20populateLocalIndicesEv
|| __TEXT.__text __ZN10OpenSubdiv6v3_4_43Vtr8internal5Level22getTopologyErrorStringENS3_13TopologyErrorE
|| __TEXT.__text __ZN10OpenSubdiv6v3_4_43Vtr8internal5Level24orderVertexFacesAndEdgesEi
|| __TEXT.__text __ZN10OpenSubdiv6v3_4_43Vtr8internal5Level24orientIncidentComponentsEv
|| __TEXT.__text __ZN10OpenSubdiv6v3_4_43Vtr8internal5Level27completeFVarChannelTopologyEii
|| __TEXT.__text __ZN10OpenSubdiv6v3_4_43Vtr8internal5Level32completeTopologyFromFaceVerticesEv
|| __TEXT.__text __ZN10OpenSubdiv6v3_4_43Vtr8internal5Level4ETag9BitwiseOrEPKS4_i
|| __TEXT.__text __ZN10OpenSubdiv6v3_4_43Vtr8internal5Level4VTag9BitwiseOrEPKS4_i
|| __TEXT.__text __ZN10OpenSubdiv6v3_4_43Vtr8internal5LevelC1Ev
|| __TEXT.__text __ZN10OpenSubdiv6v3_4_43Vtr8internal5LevelC2Ev
|| __TEXT.__text __ZN10OpenSubdiv6v3_4_43Vtr8internal5LevelD1Ev
|| __TEXT.__text __ZN10OpenSubdiv6v3_4_43Vtr8internal5LevelD2Ev
|| __TEXT.__text __ZN10OpenSubdiv6v3_4_43Vtr8internal9FVarLevel10setOptionsERKNS0_3Sdc7OptionsE
|| __TEXT.__text __ZN10OpenSubdiv6v3_4_43Vtr8internal9FVarLevel12resizeValuesEi
|| __TEXT.__text __ZN10OpenSubdiv6v3_4_43Vtr8internal9FVarLevel16resizeComponentsEv
|| __TEXT.__text __ZN10OpenSubdiv6v3_4_43Vtr8internal9FVarLevel18resizeVertexValuesEi
|| __TEXT.__text __ZN10OpenSubdiv6v3_4_43Vtr8internal9FVarLevel30completeTopologyFromFaceValuesEi
|| __TEXT.__text __ZN10OpenSubdiv6v3_4_43Vtr8internal9FVarLevel36initializeFaceValuesFromFaceVerticesEv
|| __TEXT.__text __ZN10OpenSubdiv6v3_4_43Vtr8internal9FVarLevel42initializeFaceValuesFromVertexFaceSiblingsEv
|| __TEXT.__text __ZN10OpenSubdiv6v3_4_43Vtr8internal9FVarLevelC1ERKNS2_5LevelE
|| __TEXT.__text __ZN10OpenSubdiv6v3_4_43Vtr8internal9FVarLevelC2ERKNS2_5LevelE
|| __TEXT.__text __ZN10OpenSubdiv6v3_4_43Vtr8internal9FVarLevelD1Ev
|| __TEXT.__text __ZN10OpenSubdiv6v3_4_43Vtr8internal9FVarLevelD2Ev
|| __TEXT.__text __ZNK10OpenSubdiv6v3_4_43Far10PatchTable10PatchArray5printEv
|| __TEXT.__text __ZNK10OpenSubdiv6v3_4_43Far10PatchTable13EvaluateBasisIdEEvRKNS2_11PatchHandleET_S7_PS7_S8_S8_S8_S8_S8_
|| __TEXT.__text __ZNK10OpenSubdiv6v3_4_43Far10PatchTable13EvaluateBasisIfEEvRKNS2_11PatchHandleET_S7_PS7_S8_S8_S8_S8_S8_
|| __TEXT.__text __ZNK10OpenSubdiv6v3_4_43Far10PatchTable13GetFVarValuesEi
|| __TEXT.__text __ZNK10OpenSubdiv6v3_4_43Far10PatchTable13GetNumPatchesEi
|| __TEXT.__text __ZNK10OpenSubdiv6v3_4_43Far10PatchTable13GetPatchParamERKNS2_11PatchHandleE
|| __TEXT.__text __ZNK10OpenSubdiv6v3_4_43Far10PatchTable13GetPatchParamEii
|| __TEXT.__text __ZNK10OpenSubdiv6v3_4_43Far10PatchTable13getPatchIndexEii
|| __TEXT.__text __ZNK10OpenSubdiv6v3_4_43Far10PatchTable14GetPatchParamsEi
|| __TEXT.__text __ZNK10OpenSubdiv6v3_4_43Far10PatchTable16GetPatchVerticesERKNS2_11PatchHandleE
|| __TEXT.__text __ZNK10OpenSubdiv6v3_4_43Far10PatchTable16GetPatchVerticesEii
|| __TEXT.__text __ZNK10OpenSubdiv6v3_4_43Far10PatchTable17GetNumLocalPointsEv
|| __TEXT.__text __ZNK10OpenSubdiv6v3_4_43Far10PatchTable17GetNumPatchArraysEv
|| __TEXT.__text __ZNK10OpenSubdiv6v3_4_43Far10PatchTable17IsFeatureAdaptiveEv
|| __TEXT.__text __ZNK10OpenSubdiv6v3_4_43Far10PatchTable18GetFVarPatchParamsEi
|| __TEXT.__text __ZNK10OpenSubdiv6v3_4_43Far10PatchTable18GetFVarValueStrideEi
|| __TEXT.__text __ZNK10OpenSubdiv6v3_4_43Far10PatchTable18GetNumFVarChannelsEv
|| __TEXT.__text __ZNK10OpenSubdiv6v3_4_43Far10PatchTable18GetNumPatchesTotalEv
|| __TEXT.__text __ZNK10OpenSubdiv6v3_4_43Far10PatchTable18GetPatchDescriptorERKNS2_11PatchHandleE
|| __TEXT.__text __ZNK10OpenSubdiv6v3_4_43Far10PatchTable18GetPatchFVarValuesERKNS2_11PatchHandleEi
|| __TEXT.__text __ZNK10OpenSubdiv6v3_4_43Far10PatchTable18GetPatchFVarValuesEiii
|| __TEXT.__text __ZNK10OpenSubdiv6v3_4_43Far10PatchTable18GetVaryingVerticesEv
|| __TEXT.__text __ZNK10OpenSubdiv6v3_4_43Far10PatchTable18getPatchFVarValuesEii
|| __TEXT.__text __ZNK10OpenSubdiv6v3_4_43Far10PatchTable19GetPatchQuadOffsetsERKNS2_11PatchHandleE
|| __TEXT.__text __ZNK10OpenSubdiv6v3_4_43Far10PatchTable20EvaluateBasisVaryingIdEEvRKNS2_11PatchHandleET_S7_PS7_S8_S8_S8_S8_S8_
|| __TEXT.__text __ZNK10OpenSubdiv6v3_4_43Far10PatchTable20EvaluateBasisVaryingIfEEvRKNS2_11PatchHandleET_S7_PS7_S8_S8_S8_S8_S8_
|| __TEXT.__text __ZNK10OpenSubdiv6v3_4_43Far10PatchTable21GetNumControlVerticesEi
|| __TEXT.__text __ZNK10OpenSubdiv6v3_4_43Far10PatchTable21GetPatchArrayVerticesEi
|| __TEXT.__text __ZNK10OpenSubdiv6v3_4_43Far10PatchTable22GetFVarPatchDescriptorEi
|| __TEXT.__text __ZNK10OpenSubdiv6v3_4_43Far10PatchTable22GetPatchFVarPatchParamERKNS2_11PatchHandleEi
|| __TEXT.__text __ZNK10OpenSubdiv6v3_4_43Far10PatchTable22GetPatchFVarPatchParamEiii
|| __TEXT.__text __ZNK10OpenSubdiv6v3_4_43Far10PatchTable22getPatchFVarPatchParamEii
|| __TEXT.__text __ZNK10OpenSubdiv6v3_4_43Far10PatchTable23GetPatchArrayDescriptorEi
|| __TEXT.__text __ZNK10OpenSubdiv6v3_4_43Far10PatchTable23GetPatchArrayFVarValuesEii
|| __TEXT.__text __ZNK10OpenSubdiv6v3_4_43Far10PatchTable23GetPatchVaryingVerticesERKNS2_11PatchHandleE
|| __TEXT.__text __ZNK10OpenSubdiv6v3_4_43Far10PatchTable23GetPatchVaryingVerticesEii
|| __TEXT.__text __ZNK10OpenSubdiv6v3_4_43Far10PatchTable24EvaluateBasisFaceVaryingIdEEvRKNS2_11PatchHandleET_S7_PS7_S8_S8_S8_S8_S8_i
|| __TEXT.__text __ZNK10OpenSubdiv6v3_4_43Far10PatchTable24EvaluateBasisFaceVaryingIfEEvRKNS2_11PatchHandleET_S7_PS7_S8_S8_S8_S8_S8_i
|| __TEXT.__text __ZNK10OpenSubdiv6v3_4_43Far10PatchTable24GetNumLocalPointsVaryingEv
|| __TEXT.__text __ZNK10OpenSubdiv6v3_4_43Far10PatchTable25GetVaryingPatchDescriptorEv
|| __TEXT.__text __ZNK10OpenSubdiv6v3_4_43Far10PatchTable28GetNumLocalPointsFaceVaryingEi
|| __TEXT.__text __ZNK10OpenSubdiv6v3_4_43Far10PatchTable28GetPatchArrayFVarPatchParamsEii
|| __TEXT.__text __ZNK10OpenSubdiv6v3_4_43Far10PatchTable28GetPatchArrayVaryingVerticesEi
|| __TEXT.__text __ZNK10OpenSubdiv6v3_4_43Far10PatchTable29GetFVarPatchDescriptorRegularEi
|| __TEXT.__text __ZNK10OpenSubdiv6v3_4_43Far10PatchTable31GetFVarPatchDescriptorIrregularEi
|| __TEXT.__text __ZNK10OpenSubdiv6v3_4_43Far10PatchTable33GetFVarChannelLinearInterpolationEi
|| __TEXT.__text __ZNK10OpenSubdiv6v3_4_43Far10PatchTable34GetSingleCreasePatchSharpnessValueERKNS2_11PatchHandleE
|| __TEXT.__text __ZNK10OpenSubdiv6v3_4_43Far10PatchTable34GetSingleCreasePatchSharpnessValueEii
|| __TEXT.__text __ZNK10OpenSubdiv6v3_4_43Far10PatchTable5printEv
|| __TEXT.__text __ZNK10OpenSubdiv6v3_4_43Far11PtexIndices11GetNumFacesEv
|| __TEXT.__text __ZNK10OpenSubdiv6v3_4_43Far11PtexIndices12GetAdjacencyERKNS1_15TopologyRefinerEiiPiS6_
|| __TEXT.__text __ZNK10OpenSubdiv6v3_4_43Far11PtexIndices9GetFaceIdEi
|| __TEXT.__text __ZNK10OpenSubdiv6v3_4_43Far11SourcePatch19GetCornerRingPointsEiPi
|| __TEXT.__text __ZNK10OpenSubdiv6v3_4_43Far11StencilRealIdE10GetSizePtrEv
|| __TEXT.__text __ZNK10OpenSubdiv6v3_4_43Far11StencilRealIdE10GetWeightsEv
|| __TEXT.__text __ZNK10OpenSubdiv6v3_4_43Far11StencilRealIdE16GetVertexIndicesEv
|| __TEXT.__text __ZNK10OpenSubdiv6v3_4_43Far11StencilRealIdE7GetSizeEv
|| __TEXT.__text __ZNK10OpenSubdiv6v3_4_43Far11StencilRealIfE10GetSizePtrEv
|| __TEXT.__text __ZNK10OpenSubdiv6v3_4_43Far11StencilRealIfE10GetWeightsEv
|| __TEXT.__text __ZNK10OpenSubdiv6v3_4_43Far11StencilRealIfE16GetVertexIndicesEv
|| __TEXT.__text __ZNK10OpenSubdiv6v3_4_43Far11StencilRealIfE7GetSizeEv
|| __TEXT.__text __ZNK10OpenSubdiv6v3_4_43Far12PatchBuilder11IsFaceALeafEii
|| __TEXT.__text __ZNK10OpenSubdiv6v3_4_43Far12PatchBuilder12IsFaceAPatchEii
|| __TEXT.__text __ZNK10OpenSubdiv6v3_4_43Far12PatchBuilder14IsPatchRegularEiii
|| __TEXT.__text __ZNK10OpenSubdiv6v3_4_43Far12PatchBuilder17ComputePatchParamEiiRKNS1_11PtexIndicesEbib
|| __TEXT.__text __ZNK10OpenSubdiv6v3_4_43Far12PatchBuilder20getRegularFacePointsEiiPii
|| __TEXT.__text __ZNK10OpenSubdiv6v3_4_43Far12PatchBuilder21GetRegularPatchPointsEiiiPii
|| __TEXT.__text __ZNK10OpenSubdiv6v3_4_43Far12PatchBuilder24getTriRegularPatchPointsEiiiPii
|| __TEXT.__text __ZNK10OpenSubdiv6v3_4_43Far12PatchBuilder25getQuadRegularPatchPointsEiiiPii
|| __TEXT.__text __ZNK10OpenSubdiv6v3_4_43Far12PatchBuilder26IsRegularSingleCreasePatchEiiRNS2_16SingleCreaseInfoE
|| __TEXT.__text __ZNK10OpenSubdiv6v3_4_43Far12PatchBuilder27GetRegularPatchBoundaryMaskEiii
|| __TEXT.__text __ZNK10OpenSubdiv6v3_4_43Far12PatchBuilder27gatherIrregularSourcePointsEiiPKNS0_3Vtr8internal5Level5VSpanERNS1_11SourcePatchEPii
|| __TEXT.__text __ZNK10OpenSubdiv6v3_4_43Far12PatchBuilder28GetIrregularPatchCornerSpansEiiPNS0_3Vtr8internal5Level5VSpanEi
|| __TEXT.__text __ZNK10OpenSubdiv6v3_4_43Far12PatchBuilder28assembleIrregularSourcePatchEiiPKNS0_3Vtr8internal5Level5VSpanERNS1_11SourcePatchE
|| __TEXT.__text __ZNK10OpenSubdiv6v3_4_43Far12PatchBuilder29GetIrregularPatchSourcePointsEiiPKNS0_3Vtr8internal5Level5VSpanEPii
|| __TEXT.__text __ZNK10OpenSubdiv6v3_4_43Far12PatchBuilder33GetIrregularPatchConversionMatrixIdEEiiiPKNS0_3Vtr8internal5Level5VSpanERNS1_12SparseMatrixIT_EE
|| __TEXT.__text __ZNK10OpenSubdiv6v3_4_43Far12PatchBuilder33GetIrregularPatchConversionMatrixIfEEiiiPKNS0_3Vtr8internal5Level5VSpanERNS1_12SparseMatrixIT_EE
|| __TEXT.__text __ZNK10OpenSubdiv6v3_4_43Far15PatchDescriptor5printEv
|| __TEXT.__text __ZNK10OpenSubdiv6v3_4_43Far15TopologyRefiner21GetNumFVarValuesTotalEi
|| __TEXT.__text __ZNK10OpenSubdiv6v3_4_43Far16LimitStencilRealIdE12GetDuWeightsEv
|| __TEXT.__text __ZNK10OpenSubdiv6v3_4_43Far16LimitStencilRealIdE12GetDvWeightsEv
|| __TEXT.__text __ZNK10OpenSubdiv6v3_4_43Far16LimitStencilRealIdE13GetDuuWeightsEv
|| __TEXT.__text __ZNK10OpenSubdiv6v3_4_43Far16LimitStencilRealIdE13GetDuvWeightsEv
|| __TEXT.__text __ZNK10OpenSubdiv6v3_4_43Far16LimitStencilRealIdE13GetDvvWeightsEv
|| __TEXT.__text __ZNK10OpenSubdiv6v3_4_43Far16LimitStencilRealIfE12GetDuWeightsEv
|| __TEXT.__text __ZNK10OpenSubdiv6v3_4_43Far16LimitStencilRealIfE12GetDvWeightsEv
|| __TEXT.__text __ZNK10OpenSubdiv6v3_4_43Far16LimitStencilRealIfE13GetDuuWeightsEv
|| __TEXT.__text __ZNK10OpenSubdiv6v3_4_43Far16LimitStencilRealIfE13GetDuvWeightsEv
|| __TEXT.__text __ZNK10OpenSubdiv6v3_4_43Far16LimitStencilRealIfE13GetDvvWeightsEv
|| __TEXT.__text __ZNK10OpenSubdiv6v3_4_43Far16LoopPatchBuilder18convertToPatchTypeERKNS1_11SourcePatchENS1_15PatchDescriptor4TypeERNS1_12SparseMatrixIdEE
|| __TEXT.__text __ZNK10OpenSubdiv6v3_4_43Far16LoopPatchBuilder18convertToPatchTypeERKNS1_11SourcePatchENS1_15PatchDescriptor4TypeERNS1_12SparseMatrixIfEE
|| __TEXT.__text __ZNK10OpenSubdiv6v3_4_43Far16LoopPatchBuilder18patchTypeFromBasisENS1_12PatchBuilder9BasisTypeE
|| __TEXT.__text __ZNK10OpenSubdiv6v3_4_43Far16StencilTableRealIdE10GetOffsetsEv
|| __TEXT.__text __ZNK10OpenSubdiv6v3_4_43Far16StencilTableRealIdE10GetStencilEi
|| __TEXT.__text __ZNK10OpenSubdiv6v3_4_43Far16StencilTableRealIdE10GetWeightsEv
|| __TEXT.__text __ZNK10OpenSubdiv6v3_4_43Far16StencilTableRealIdE14GetNumStencilsEv
|| __TEXT.__text __ZNK10OpenSubdiv6v3_4_43Far16StencilTableRealIdE17GetControlIndicesEv
|| __TEXT.__text __ZNK10OpenSubdiv6v3_4_43Far16StencilTableRealIdE21GetNumControlVerticesEv
|| __TEXT.__text __ZNK10OpenSubdiv6v3_4_43Far16StencilTableRealIdE8GetSizesEv
|| __TEXT.__text __ZNK10OpenSubdiv6v3_4_43Far16StencilTableRealIdEixEi
|| __TEXT.__text __ZNK10OpenSubdiv6v3_4_43Far16StencilTableRealIfE10GetOffsetsEv
|| __TEXT.__text __ZNK10OpenSubdiv6v3_4_43Far16StencilTableRealIfE10GetStencilEi
|| __TEXT.__text __ZNK10OpenSubdiv6v3_4_43Far16StencilTableRealIfE10GetWeightsEv
|| __TEXT.__text __ZNK10OpenSubdiv6v3_4_43Far16StencilTableRealIfE14GetNumStencilsEv
|| __TEXT.__text __ZNK10OpenSubdiv6v3_4_43Far16StencilTableRealIfE17GetControlIndicesEv
|| __TEXT.__text __ZNK10OpenSubdiv6v3_4_43Far16StencilTableRealIfE21GetNumControlVerticesEv
|| __TEXT.__text __ZNK10OpenSubdiv6v3_4_43Far16StencilTableRealIfE8GetSizesEv
|| __TEXT.__text __ZNK10OpenSubdiv6v3_4_43Far16StencilTableRealIfEixEi
|| __TEXT.__text __ZNK10OpenSubdiv6v3_4_43Far17PatchTableBuilder16assignFacePointsERKNS2_10PatchTupleEPii
|| __TEXT.__text __ZNK10OpenSubdiv6v3_4_43Far17PatchTableBuilder23estimateLocalPointCountERKNS2_16LocalPointHelper7OptionsEi
|| __TEXT.__text __ZNK10OpenSubdiv6v3_4_43Far19CatmarkPatchBuilder18convertToPatchTypeERKNS1_11SourcePatchENS1_15PatchDescriptor4TypeERNS1_12SparseMatrixIdEE
|| __TEXT.__text __ZNK10OpenSubdiv6v3_4_43Far19CatmarkPatchBuilder18convertToPatchTypeERKNS1_11SourcePatchENS1_15PatchDescriptor4TypeERNS1_12SparseMatrixIfEE
|| __TEXT.__text __ZNK10OpenSubdiv6v3_4_43Far19CatmarkPatchBuilder18patchTypeFromBasisENS1_12PatchBuilder9BasisTypeE
|| __TEXT.__text __ZNK10OpenSubdiv6v3_4_43Far20BilinearPatchBuilder18convertToPatchTypeERKNS1_11SourcePatchENS1_15PatchDescriptor4TypeERNS1_12SparseMatrixIdEE
|| __TEXT.__text __ZNK10OpenSubdiv6v3_4_43Far20BilinearPatchBuilder18convertToPatchTypeERKNS1_11SourcePatchENS1_15PatchDescriptor4TypeERNS1_12SparseMatrixIfEE
|| __TEXT.__text __ZNK10OpenSubdiv6v3_4_43Far20BilinearPatchBuilder18patchTypeFromBasisENS1_12PatchBuilder9BasisTypeE
|| __TEXT.__text __ZNK10OpenSubdiv6v3_4_43Far21LimitStencilTableRealIdE12GetDuWeightsEv
|| __TEXT.__text __ZNK10OpenSubdiv6v3_4_43Far21LimitStencilTableRealIdE12GetDvWeightsEv
|| __TEXT.__text __ZNK10OpenSubdiv6v3_4_43Far21LimitStencilTableRealIdE13GetDuuWeightsEv
|| __TEXT.__text __ZNK10OpenSubdiv6v3_4_43Far21LimitStencilTableRealIdE13GetDuvWeightsEv
|| __TEXT.__text __ZNK10OpenSubdiv6v3_4_43Far21LimitStencilTableRealIdE13GetDvvWeightsEv
|| __TEXT.__text __ZNK10OpenSubdiv6v3_4_43Far21LimitStencilTableRealIdE15GetLimitStencilEi
|| __TEXT.__text __ZNK10OpenSubdiv6v3_4_43Far21LimitStencilTableRealIdEixEi
|| __TEXT.__text __ZNK10OpenSubdiv6v3_4_43Far21LimitStencilTableRealIfE12GetDuWeightsEv
|| __TEXT.__text __ZNK10OpenSubdiv6v3_4_43Far21LimitStencilTableRealIfE12GetDvWeightsEv
|| __TEXT.__text __ZNK10OpenSubdiv6v3_4_43Far21LimitStencilTableRealIfE13GetDuuWeightsEv
|| __TEXT.__text __ZNK10OpenSubdiv6v3_4_43Far21LimitStencilTableRealIfE13GetDuvWeightsEv
|| __TEXT.__text __ZNK10OpenSubdiv6v3_4_43Far21LimitStencilTableRealIfE13GetDvvWeightsEv
|| __TEXT.__text __ZNK10OpenSubdiv6v3_4_43Far21LimitStencilTableRealIfE15GetLimitStencilEi
|| __TEXT.__text __ZNK10OpenSubdiv6v3_4_43Far21LimitStencilTableRealIfEixEi
|| __TEXT.__text __ZNK10OpenSubdiv6v3_4_43Far8internal14StencilBuilderIdE15GetStencilSizesEv
|| __TEXT.__text __ZNK10OpenSubdiv6v3_4_43Far8internal14StencilBuilderIdE17GetStencilOffsetsEv
|| __TEXT.__text __ZNK10OpenSubdiv6v3_4_43Far8internal14StencilBuilderIdE17GetStencilSourcesEv
|| __TEXT.__text __ZNK10OpenSubdiv6v3_4_43Far8internal14StencilBuilderIdE17GetStencilWeightsEv
|| __TEXT.__text __ZNK10OpenSubdiv6v3_4_43Far8internal14StencilBuilderIdE19GetNumVerticesTotalEv
|| __TEXT.__text __ZNK10OpenSubdiv6v3_4_43Far8internal14StencilBuilderIdE19GetStencilDuWeightsEv
|| __TEXT.__text __ZNK10OpenSubdiv6v3_4_43Far8internal14StencilBuilderIdE19GetStencilDvWeightsEv
|| __TEXT.__text __ZNK10OpenSubdiv6v3_4_43Far8internal14StencilBuilderIdE20GetNumVertsInStencilEm
|| __TEXT.__text __ZNK10OpenSubdiv6v3_4_43Far8internal14StencilBuilderIdE20GetStencilDuuWeightsEv
|| __TEXT.__text __ZNK10OpenSubdiv6v3_4_43Far8internal14StencilBuilderIdE20GetStencilDuvWeightsEv
|| __TEXT.__text __ZNK10OpenSubdiv6v3_4_43Far8internal14StencilBuilderIdE20GetStencilDvvWeightsEv
|| __TEXT.__text __ZNK10OpenSubdiv6v3_4_43Far8internal14StencilBuilderIdE5Index9GetOffsetEv
|| __TEXT.__text __ZNK10OpenSubdiv6v3_4_43Far8internal14StencilBuilderIdE5IndexixEi
|| __TEXT.__text __ZNK10OpenSubdiv6v3_4_43Far8internal14StencilBuilderIfE15GetStencilSizesEv
|| __TEXT.__text __ZNK10OpenSubdiv6v3_4_43Far8internal14StencilBuilderIfE17GetStencilOffsetsEv
|| __TEXT.__text __ZNK10OpenSubdiv6v3_4_43Far8internal14StencilBuilderIfE17GetStencilSourcesEv
|| __TEXT.__text __ZNK10OpenSubdiv6v3_4_43Far8internal14StencilBuilderIfE17GetStencilWeightsEv
|| __TEXT.__text __ZNK10OpenSubdiv6v3_4_43Far8internal14StencilBuilderIfE19GetNumVerticesTotalEv
|| __TEXT.__text __ZNK10OpenSubdiv6v3_4_43Far8internal14StencilBuilderIfE19GetStencilDuWeightsEv
|| __TEXT.__text __ZNK10OpenSubdiv6v3_4_43Far8internal14StencilBuilderIfE19GetStencilDvWeightsEv
|| __TEXT.__text __ZNK10OpenSubdiv6v3_4_43Far8internal14StencilBuilderIfE20GetNumVertsInStencilEm
|| __TEXT.__text __ZNK10OpenSubdiv6v3_4_43Far8internal14StencilBuilderIfE20GetStencilDuuWeightsEv
|| __TEXT.__text __ZNK10OpenSubdiv6v3_4_43Far8internal14StencilBuilderIfE20GetStencilDuvWeightsEv
|| __TEXT.__text __ZNK10OpenSubdiv6v3_4_43Far8internal14StencilBuilderIfE20GetStencilDvvWeightsEv
|| __TEXT.__text __ZNK10OpenSubdiv6v3_4_43Far8internal14StencilBuilderIfE5Index9GetOffsetEv
|| __TEXT.__text __ZNK10OpenSubdiv6v3_4_43Far8internal14StencilBuilderIfE5IndexixEi
|| __TEXT.__text __ZNK10OpenSubdiv6v3_4_43Osd15CpuVertexBuffer14GetNumElementsEv
|| __TEXT.__text __ZNK10OpenSubdiv6v3_4_43Osd15CpuVertexBuffer14GetNumVerticesEv
|| __TEXT.__text __ZNK10OpenSubdiv6v3_4_43Sdc6Crease25DetermineVertexVertexRuleEfi
|| __TEXT.__text __ZNK10OpenSubdiv6v3_4_43Sdc6Crease25DetermineVertexVertexRuleEfiPKf
|| __TEXT.__text __ZNK10OpenSubdiv6v3_4_43Sdc6Crease30SubdivideEdgeSharpnessAtVertexEfiPKf
|| __TEXT.__text __ZNK10OpenSubdiv6v3_4_43Sdc6Crease31ComputeFractionalWeightAtVertexEffiPKfS4_
|| __TEXT.__text __ZNK10OpenSubdiv6v3_4_43Sdc6Crease36SubdivideEdgeSharpnessesAroundVertexEiPKfPf
|| __TEXT.__text __ZNK10OpenSubdiv6v3_4_43Vtr8internal10Refinement25printParentToChildMappingEv
|| __TEXT.__text __ZNK10OpenSubdiv6v3_4_43Vtr8internal14FVarRefinement19getFractionalWeightEitit
|| __TEXT.__text __ZNK10OpenSubdiv6v3_4_43Vtr8internal5Level12getFaceETagsEiPNS3_4ETagEi
|| __TEXT.__text __ZNK10OpenSubdiv6v3_4_43Vtr8internal5Level12getFaceVTagsEiPNS3_4VTagEi
|| __TEXT.__text __ZNK10OpenSubdiv6v3_4_43Vtr8internal5Level14getFVarOptionsEi
|| __TEXT.__text __ZNK10OpenSubdiv6v3_4_43Vtr8internal5Level16getNumFVarValuesEi
|| __TEXT.__text __ZNK10OpenSubdiv6v3_4_43Vtr8internal5Level16validateTopologyEPFvNS3_13TopologyErrorEPKcPKvES8_
|| __TEXT.__text __ZNK10OpenSubdiv6v3_4_43Vtr8internal5Level17getFaceFVarValuesEii
|| __TEXT.__text __ZNK10OpenSubdiv6v3_4_43Vtr8internal5Level19isSingleCreasePatchEiPfPi
|| __TEXT.__text __ZNK10OpenSubdiv6v3_4_43Vtr8internal5Level20getFaceCompositeVTagERNS1_10ConstArrayIiEE
|| __TEXT.__text __ZNK10OpenSubdiv6v3_4_43Vtr8internal5Level20getFaceCompositeVTagEii
|| __TEXT.__text __ZNK10OpenSubdiv6v3_4_43Vtr8internal5Level24orderVertexFacesAndEdgesEiPiS4_
|| __TEXT.__text __ZNK10OpenSubdiv6v3_4_43Vtr8internal5Level25doesEdgeFVarTopologyMatchEii
|| __TEXT.__text __ZNK10OpenSubdiv6v3_4_43Vtr8internal5Level25doesFaceFVarTopologyMatchEii
|| __TEXT.__text __ZNK10OpenSubdiv6v3_4_43Vtr8internal5Level26getVertexCompositeFVarVTagEii
|| __TEXT.__text __ZNK10OpenSubdiv6v3_4_43Vtr8internal5Level27doesVertexFVarTopologyMatchEii
|| __TEXT.__text __ZNK10OpenSubdiv6v3_4_43Vtr8internal5Level27gatherQuadLinearPatchPointsEiPiii
|| __TEXT.__text __ZNK10OpenSubdiv6v3_4_43Vtr8internal5Level33gatherQuadRegularRingAroundVertexEiPii
|| __TEXT.__text __ZNK10OpenSubdiv6v3_4_43Vtr8internal5Level34gatherQuadRegularCornerPatchPointsEiPiii
|| __TEXT.__text __ZNK10OpenSubdiv6v3_4_43Vtr8internal5Level35gatherTriRegularInteriorPatchPointsEiPii
|| __TEXT.__text __ZNK10OpenSubdiv6v3_4_43Vtr8internal5Level36gatherQuadRegularBoundaryPatchPointsEiPiii
|| __TEXT.__text __ZNK10OpenSubdiv6v3_4_43Vtr8internal5Level36gatherQuadRegularInteriorPatchPointsEiPiii
|| __TEXT.__text __ZNK10OpenSubdiv6v3_4_43Vtr8internal5Level37gatherTriRegularCornerEdgePatchPointsEiPii
|| __TEXT.__text __ZNK10OpenSubdiv6v3_4_43Vtr8internal5Level39gatherTriRegularBoundaryEdgePatchPointsEiPii
|| __TEXT.__text __ZNK10OpenSubdiv6v3_4_43Vtr8internal5Level39gatherTriRegularCornerVertexPatchPointsEiPii
|| __TEXT.__text __ZNK10OpenSubdiv6v3_4_43Vtr8internal5Level40gatherQuadRegularPartialRingAroundVertexEiRKNS3_5VSpanEPii
|| __TEXT.__text __ZNK10OpenSubdiv6v3_4_43Vtr8internal5Level41gatherTriRegularBoundaryVertexPatchPointsEiPii
|| __TEXT.__text __ZNK10OpenSubdiv6v3_4_43Vtr8internal5Level5printEPKNS2_10RefinementE
|| __TEXT.__text __ZNK10OpenSubdiv6v3_4_43Vtr8internal5Level8findEdgeEii
|| __TEXT.__text __ZNK10OpenSubdiv6v3_4_43Vtr8internal9FVarLevel16gatherValueSpansEiPNS3_9ValueSpanE
|| __TEXT.__text __ZNK10OpenSubdiv6v3_4_43Vtr8internal9FVarLevel16getFaceValueTagsEiPNS3_8ValueTagE
|| __TEXT.__text __ZNK10OpenSubdiv6v3_4_43Vtr8internal9FVarLevel17getEdgeFaceValuesEiiPi
|| __TEXT.__text __ZNK10OpenSubdiv6v3_4_43Vtr8internal9FVarLevel19getVertexEdgeValuesEiPi
|| __TEXT.__text __ZNK10OpenSubdiv6v3_4_43Vtr8internal9FVarLevel24getFaceCompositeValueTagEi
|| __TEXT.__text __ZNK10OpenSubdiv6v3_4_43Vtr8internal9FVarLevel24getVertexCreaseEndValuesEitPi
|| __TEXT.__text __ZNK10OpenSubdiv6v3_4_43Vtr8internal9FVarLevel45buildFaceVertexSiblingsFromVertexFaceSiblingsERNSt3__16vectorItNS4_9allocatorItEEEE
|| __TEXT.__text __ZNK10OpenSubdiv6v3_4_43Vtr8internal9FVarLevel5printEv
|| __TEXT.__text __ZNK10OpenSubdiv6v3_4_43Vtr8internal9FVarLevel8validateEv
__ libSystem.B.dylib: __Unwind_Resume
__ libSystem.B.dylib: ___chkstk_darwin
__ libSystem.B.dylib: ___sincos_stret
__ libSystem.B.dylib: ___sincosf_stret
__ libSystem.B.dylib: ___stack_chk_fail
__ libSystem.B.dylib: ___stack_chk_guard
__ libSystem.B.dylib: ___stdoutp
__ libSystem.B.dylib: _bzero
__ libSystem.B.dylib: _cos
__ libSystem.B.dylib: _cosf
__ libSystem.B.dylib: _fflush
__ libSystem.B.dylib: _fprintf
__ libSystem.B.dylib: _memcpy
__ libSystem.B.dylib: _memmove
__ libSystem.B.dylib: _memset
__ libSystem.B.dylib: _memset_pattern16
__ libSystem.B.dylib: _printf
__ libSystem.B.dylib: _putchar
__ libSystem.B.dylib: _puts
__ libSystem.B.dylib: _sin
__ libSystem.B.dylib: _snprintf
__ libSystem.B.dylib: _vsnprintf
__ libc++.1.dylib: __ZNKSt3__120__vector_base_commonILb1EE20__throw_length_errorEv
__ libc++.1.dylib: __ZNSt11logic_errorC2EPKc
__ libc++.1.dylib: __ZNSt12length_errorD1Ev
__ libc++.1.dylib: __ZTISt12length_error
__ libc++.1.dylib: __ZTVN10__cxxabiv117__class_type_infoE
__ libc++.1.dylib: __ZTVN10__cxxabiv120__si_class_type_infoE
__ libc++.1.dylib: __ZTVSt12length_error
__ libc++.1.dylib: __ZdaPv
__ libc++.1.dylib: __ZdlPv
__ libc++.1.dylib: __Znam
__ libc++.1.dylib: __Znwm
__ libc++.1.dylib: ___cxa_allocate_exception
__ libc++.1.dylib: ___cxa_free_exception
__ libc++.1.dylib: ___cxa_guard_acquire
__ libc++.1.dylib: ___cxa_guard_release
__ libc++.1.dylib: ___cxa_pure_virtual
__ libc++.1.dylib: ___cxa_throw
__ libc++.1.dylib: ___gxx_personality_v0
